****** Source Program List ******
LineNo	LC	Code		Source Program 
1				.section	.data
2				.align	4
3			L_lib_lcd_1:
4	0000	00000001		.data.32	1
5				.section	.text
6				.addressing	Word
7				.section	.text
8				.addressing	Word
9				;.addressing	Word
10			
11	0000	03def026		xor	%GPR30, %GPR30, %GPR30
12	0001	03bde826		xor	%GPR29, %GPR29, %GPR29
13	0002	039ce026		xor	%GPR28, %GPR28, %GPR28
14	0003	00000000		nop
15	0004	3c1e0000		lhi	%GPR30, $(0x3BFC/0x10000)
16	0005	3c1d0000		lhi	%GPR29, $(0x3BFC/0x10000)
17	0006	00000000		nop
18	0007	00000000		nop
19	0008	37de3bfc		ori	%GPR30, %GPR30, $(0x3BFC%0x10000)
20	0009	37bd3bfc		ori	%GPR29, %GPR29, $(0x3BFC%0x10000)
21	000a	00000000		nop
22	000b	00000000		nop
23	000c	00000000		nop
24	000d	afbefffc		sw	-4(%GPR29), %GPR30
25	000e	afbffff8		sw	-8(%GPR29), %GPR31
26	000f	23ddfff8		addi	%GPR29, %GPR30, $-8
27	0010	00000000		nop
28	0011	00000000		nop
29	0012	00000000		nop
30	0013	0c001574		jal	main	
31	0014	00000000		nop
32	0015	00000000		nop
33	0016	00000000		nop
34	0017	00000000		nop
35	0018	00000000		nop
36	0019	afa10000		sw	0(%GPR29), %GPR1
37	001a	0c0018bf		jal	exit
38	001b	00000000		nop
39	001c	00000000		nop
40			
41				;.addressing	Word
42			checkbuffer:
43			L_lib_lcd_2:
44	001d	00000000		nop	; Automatically Added by addNops.pl
45	001e	00000000		nop	; Automatically Added by addNops.pl
46	001f	00000000		nop	; Automatically Added by addNops.pl
47				; Automatically 16 NOPs removed by reduceNOPs.sh
48	0020	afbefffc		sw	-4(%GPR29),%GPR30	
49	0021	00000000		nop	; Automatically Added by addNops.pl
50	0022	00000000		nop	; Automatically Added by addNops.pl
51	0023	00000000		nop	; Automatically Added by addNops.pl
52	0024	00000000		nop	; Automatically added by fix-stall-insns.pl
53	0025	afbf0000		sw	0(%GPR29),%GPR31	
54	0026	00000000		nop	; Automatically Added by addNops.pl
55	0027	00000000		nop	; Automatically Added by addNops.pl
56	0028	00000000		nop	; Automatically Added by addNops.pl
57	0029	2fbe0004		subui	%GPR30,%GPR29,$4	
58	002a	00000000		nop	; Automatically Added by addNops.pl
59	002b	00000000		nop	; Automatically Added by addNops.pl
60	002c	00000000		nop	; Automatically Added by addNops.pl
61				; Automatically 4 NOPs removed by reduceNOPs.sh
62	002d	2bbd0008		subi	%GPR29,%GPR29,$8	
63	002e	00000000		nop	; Automatically Added by addNops.pl
64	002f	00000000		nop	; Automatically Added by addNops.pl
65	0030	00000000		nop	; Automatically Added by addNops.pl
66				; Automatically 48 NOPs removed by reduceNOPs.sh
67	0031	3c020000		lhi	%GPR2,$0	
68	0032	00000000		nop	; Automatically Added by addNops.pl
69	0033	00000000		nop	; Automatically Added by addNops.pl
70	0034	00000000		nop	; Automatically Added by addNops.pl
71				; Automatically 16 NOPs removed by reduceNOPs.sh
72	0035	34420000		ori	%GPR2,%GPR2,$0	
73	0036	00000000		nop	; Automatically Added by addNops.pl
74	0037	00000000		nop	; Automatically Added by addNops.pl
75	0038	00000000		nop	; Automatically Added by addNops.pl
76	0039	3c010000		lhi	%GPR1,$0	
77	003a	00000000		nop	; Automatically Added by addNops.pl
78	003b	00000000		nop	; Automatically Added by addNops.pl
79	003c	00000000		nop	; Automatically Added by addNops.pl
80				; Automatically 16 NOPs removed by reduceNOPs.sh
81	003d	342100de		ori	%GPR1,%GPR1,$222	
82			
83			
84	003e	00000000		nop	; Automatically Added by addNops.pl
85	003f	00000000		nop	; Automatically Added by addNops.pl
86	0040	00000000		nop	; Automatically Added by addNops.pl
87	0041	3c050200		lhi	%GPR5, $0x200
88	0042	00000000		nop	; Automatically Added by addNops.pl
89	0043	00000000		nop	; Automatically Added by addNops.pl
90	0044	00000000		nop	; Automatically Added by addNops.pl
91				; Automatically 9 NOPs removed by reduceNOPs.sh
92			
93	0045	00000000		nop	; Automatically Added by addNops.pl
94	0046	00000000		nop	; Automatically Added by addNops.pl
95	0047	00000000		nop	; Automatically Added by addNops.pl
96				; Automatically 20 NOPs removed by reduceNOPs.sh
97	0048	3c030000		lhi	%GPR3,$0	
98	0049	00000000		nop	; Automatically Added by addNops.pl
99	004a	00000000		nop	; Automatically Added by addNops.pl
100	004b	00000000		nop	; Automatically Added by addNops.pl
101				; Automatically 16 NOPs removed by reduceNOPs.sh
102	004c	34630004		ori	%GPR3,%GPR3,$4	
103			
104			
105	004d	00000000		nop	; Automatically Added by addNops.pl
106	004e	00000000		nop	; Automatically Added by addNops.pl
107	004f	00000000		nop	; Automatically Added by addNops.pl
108				; Automatically 12 NOPs removed by reduceNOPs.sh
109	0050	aca30000		sw	0(%GPR5), %GPR3
110			
111			
112			
113	0051	00000000		nop	; Automatically Added by addNops.pl
114	0052	00000000		nop	; Automatically Added by addNops.pl
115	0053	00000000		nop	; Automatically Added by addNops.pl
116				; Automatically 12 NOPs removed by reduceNOPs.sh
117	0054	00000000		nop	; Automatically added by fix-stall-insns.pl
118	0055	aca10000		sw	0(%GPR5), %GPR1
119			
120	0056	00000000		nop	; Automatically Added by addNops.pl
121	0057	00000000		nop	; Automatically Added by addNops.pl
122	0058	00000000		nop	; Automatically Added by addNops.pl
123				; Automatically 20 NOPs removed by reduceNOPs.sh
124	0059	3c030000		lhi	%GPR3,$0	
125	005a	00000000		nop	; Automatically Added by addNops.pl
126	005b	00000000		nop	; Automatically Added by addNops.pl
127	005c	00000000		nop	; Automatically Added by addNops.pl
128				; Automatically 16 NOPs removed by reduceNOPs.sh
129	005d	34630012		ori	%GPR3,%GPR3,$18	
130			
131			
132	005e	00000000		nop	; Automatically Added by addNops.pl
133	005f	00000000		nop	; Automatically Added by addNops.pl
134	0060	00000000		nop	; Automatically Added by addNops.pl
135				; Automatically 12 NOPs removed by reduceNOPs.sh
136	0061	aca30000		sw	0(%GPR5), %GPR3
137			
138	0062	00000000		nop	; Automatically Added by addNops.pl
139	0063	00000000		nop	; Automatically Added by addNops.pl
140	0064	00000000		nop	; Automatically Added by addNops.pl
141				; Automatically 20 NOPs removed by reduceNOPs.sh
142	0065	3c040000		lhi	%GPR4,$0	
143	0066	00000000		nop	; Automatically Added by addNops.pl
144	0067	00000000		nop	; Automatically Added by addNops.pl
145	0068	00000000		nop	; Automatically Added by addNops.pl
146				; Automatically 16 NOPs removed by reduceNOPs.sh
147	0069	34840012		ori	%GPR4,%GPR4,$18	
148	006a	00000000		nop	; Automatically Added by addNops.pl
149	006b	00000000		nop	; Automatically Added by addNops.pl
150	006c	00000000		nop	; Automatically Added by addNops.pl
151	006d	3c030000		lhi	%GPR3,$0	
152	006e	00000000		nop	; Automatically Added by addNops.pl
153	006f	00000000		nop	; Automatically Added by addNops.pl
154	0070	00000000		nop	; Automatically Added by addNops.pl
155				; Automatically 16 NOPs removed by reduceNOPs.sh
156	0071	34630001		ori	%GPR3,%GPR3,$1	
157			
158			
159	0072	00000000		nop	; Automatically Added by addNops.pl
160	0073	00000000		nop	; Automatically Added by addNops.pl
161	0074	00000000		nop	; Automatically Added by addNops.pl
162				; Automatically 12 NOPs removed by reduceNOPs.sh
163	0075	aca30000		sw	0(%GPR5), %GPR3
164			
165	0076	00000000		nop	; Automatically Added by addNops.pl
166	0077	00000000		nop	; Automatically Added by addNops.pl
167	0078	00000000		nop	; Automatically Added by addNops.pl
168				; Automatically 8 NOPs removed by reduceNOPs.sh
169	0079	00832020		add	%GPR4,%GPR4,%GPR3	
170	007a	00000000		nop	; Automatically Added by addNops.pl
171	007b	00000000		nop	; Automatically Added by addNops.pl
172	007c	00000000		nop	; Automatically Added by addNops.pl
173				; Automatically 12 NOPs removed by reduceNOPs.sh
174	007d	3c030000		lhi	%GPR3,$0	
175	007e	00000000		nop	; Automatically Added by addNops.pl
176	007f	00000000		nop	; Automatically Added by addNops.pl
177	0080	00000000		nop	; Automatically Added by addNops.pl
178				; Automatically 16 NOPs removed by reduceNOPs.sh
179	0081	34630049		ori	%GPR3,%GPR3,$73	
180			
181			
182	0082	00000000		nop	; Automatically Added by addNops.pl
183	0083	00000000		nop	; Automatically Added by addNops.pl
184	0084	00000000		nop	; Automatically Added by addNops.pl
185				; Automatically 12 NOPs removed by reduceNOPs.sh
186	0085	aca30000		sw	0(%GPR5), %GPR3
187			
188	0086	00000000		nop	; Automatically Added by addNops.pl
189	0087	00000000		nop	; Automatically Added by addNops.pl
190	0088	00000000		nop	; Automatically Added by addNops.pl
191	0089	00832020		add	%GPR4,%GPR4,%GPR3	
192			
193			
194	008a	00000000		nop	; Automatically Added by addNops.pl
195	008b	00000000		nop	; Automatically Added by addNops.pl
196	008c	00000000		nop	; Automatically Added by addNops.pl
197				; Automatically 12 NOPs removed by reduceNOPs.sh
198	008d	aca40000		sw	0(%GPR5), %GPR4
199			
200	008e	00000000		nop	; Automatically Added by addNops.pl
201	008f	00000000		nop	; Automatically Added by addNops.pl
202	0090	00000000		nop	; Automatically Added by addNops.pl
203				; Automatically 20 NOPs removed by reduceNOPs.sh
204	0091	3c04ffff		lhi	%GPR4,$65535	
205	0092	00000000		nop	; Automatically Added by addNops.pl
206	0093	00000000		nop	; Automatically Added by addNops.pl
207	0094	00000000		nop	; Automatically Added by addNops.pl
208				; Automatically 16 NOPs removed by reduceNOPs.sh
209	0095	3484ffff		ori	%GPR4,%GPR4,$-1	
210	0096	00000000		nop	; Automatically Added by addNops.pl
211	0097	00000000		nop	; Automatically Added by addNops.pl
212	0098	00000000		nop	; Automatically Added by addNops.pl
213				; Automatically 12 NOPs removed by reduceNOPs.sh
214			L_lib_lcd_3:
215	0099	00000000		nop	; Automatically Added by addNops.pl
216	009a	00000000		nop	; Automatically Added by addNops.pl
217	009b	00000000		nop	; Automatically Added by addNops.pl
218				; Automatically 16 NOPs removed by reduceNOPs.sh
219	009c	3c020000		lhi	%GPR2,$0	
220	009d	00000000		nop	; Automatically Added by addNops.pl
221	009e	00000000		nop	; Automatically Added by addNops.pl
222	009f	00000000		nop	; Automatically Added by addNops.pl
223				; Automatically 16 NOPs removed by reduceNOPs.sh
224	00a0	34420000		ori	%GPR2,%GPR2,$0	
225			
226			
227	00a1	00000000		nop	; Automatically Added by addNops.pl
228	00a2	00000000		nop	; Automatically Added by addNops.pl
229	00a3	00000000		nop	; Automatically Added by addNops.pl
230				; Automatically 12 NOPs removed by reduceNOPs.sh
231	00a4	aca20000		sw	0(%GPR5), %GPR2
232			
233	00a5	00000000		nop	; Automatically Added by addNops.pl
234	00a6	00000000		nop	; Automatically Added by addNops.pl
235	00a7	00000000		nop	; Automatically Added by addNops.pl
236	00a8	20230001		addi	%GPR3,%GPR1,$1	
237			
238			
239	00a9	00000000		nop	; Automatically Added by addNops.pl
240	00aa	00000000		nop	; Automatically Added by addNops.pl
241	00ab	00000000		nop	; Automatically Added by addNops.pl
242				; Automatically 12 NOPs removed by reduceNOPs.sh
243	00ac	aca30000		sw	0(%GPR5), %GPR3
244			
245	00ad	00000000		nop	; Automatically Added by addNops.pl
246	00ae	00000000		nop	; Automatically Added by addNops.pl
247	00af	00000000		nop	; Automatically Added by addNops.pl
248				; Automatically 20 NOPs removed by reduceNOPs.sh
249	00b0	3c020000		lhi	%GPR2,$0	
250	00b1	00000000		nop	; Automatically Added by addNops.pl
251	00b2	00000000		nop	; Automatically Added by addNops.pl
252	00b3	00000000		nop	; Automatically Added by addNops.pl
253				; Automatically 16 NOPs removed by reduceNOPs.sh
254	00b4	34420006		ori	%GPR2,%GPR2,$6	
255			
256			
257	00b5	00000000		nop	; Automatically Added by addNops.pl
258	00b6	00000000		nop	; Automatically Added by addNops.pl
259	00b7	00000000		nop	; Automatically Added by addNops.pl
260				; Automatically 12 NOPs removed by reduceNOPs.sh
261	00b8	aca20000		sw	0(%GPR5), %GPR2
262			
263			
264			
265	00b9	00000000		nop	; Automatically Added by addNops.pl
266	00ba	00000000		nop	; Automatically Added by addNops.pl
267	00bb	00000000		nop	; Automatically Added by addNops.pl
268				; Automatically 12 NOPs removed by reduceNOPs.sh
269	00bc	00000000		nop	; Automatically added by fix-stall-insns.pl
270	00bd	8ca30000		lw	%GPR3,0(%GPR5)
271	00be	00000000		nop	; Automatically Added by addNops.pl
272	00bf	00000000		nop	; Automatically Added by addNops.pl
273	00c0	00000000		nop	; Automatically Added by addNops.pl
274				; Automatically 9 NOPs removed by reduceNOPs.sh
275			
276			
277			
278	00c1	00000000		nop	; Automatically Added by addNops.pl
279	00c2	00000000		nop	; Automatically Added by addNops.pl
280	00c3	00000000		nop	; Automatically Added by addNops.pl
281				; Automatically 12 NOPs removed by reduceNOPs.sh
282	00c4	8ca30000		lw	%GPR3,0(%GPR5)
283	00c5	00000000		nop	; Automatically Added by addNops.pl
284	00c6	00000000		nop	; Automatically Added by addNops.pl
285	00c7	00000000		nop	; Automatically Added by addNops.pl
286				; Automatically 9 NOPs removed by reduceNOPs.sh
287			
288			
289			
290	00c8	00000000		nop	; Automatically Added by addNops.pl
291	00c9	00000000		nop	; Automatically Added by addNops.pl
292	00ca	00000000		nop	; Automatically Added by addNops.pl
293				; Automatically 12 NOPs removed by reduceNOPs.sh
294	00cb	8ca20000		lw	%GPR2,0(%GPR5)
295	00cc	00000000		nop	; Automatically Added by addNops.pl
296	00cd	00000000		nop	; Automatically Added by addNops.pl
297	00ce	00000000		nop	; Automatically Added by addNops.pl
298				; Automatically 9 NOPs removed by reduceNOPs.sh
299			
300	00cf	00000000		nop	; Automatically Added by addNops.pl
301	00d0	00000000		nop	; Automatically Added by addNops.pl
302	00d1	00000000		nop	; Automatically Added by addNops.pl
303	00d2	00622020		add	%GPR4,%GPR3,%GPR2	
304			
305			
306	00d3	00000000		nop	; Automatically Added by addNops.pl
307	00d4	00000000		nop	; Automatically Added by addNops.pl
308	00d5	00000000		nop	; Automatically Added by addNops.pl
309				; Automatically 12 NOPs removed by reduceNOPs.sh
310	00d6	8ca20000		lw	%GPR2,0(%GPR5)
311	00d7	00000000		nop	; Automatically Added by addNops.pl
312	00d8	00000000		nop	; Automatically Added by addNops.pl
313	00d9	00000000		nop	; Automatically Added by addNops.pl
314				; Automatically 9 NOPs removed by reduceNOPs.sh
315			
316	00da	00000000		nop	; Automatically Added by addNops.pl
317	00db	00000000		nop	; Automatically Added by addNops.pl
318	00dc	00000000		nop	; Automatically Added by addNops.pl
319	00dd	00822020		add	%GPR4,%GPR4,%GPR2	
320			
321			
322	00de	00000000		nop	; Automatically Added by addNops.pl
323	00df	00000000		nop	; Automatically Added by addNops.pl
324	00e0	00000000		nop	; Automatically Added by addNops.pl
325				; Automatically 12 NOPs removed by reduceNOPs.sh
326	00e1	8ca30000		lw	%GPR3,0(%GPR5)
327	00e2	00000000		nop	; Automatically Added by addNops.pl
328	00e3	00000000		nop	; Automatically Added by addNops.pl
329	00e4	00000000		nop	; Automatically Added by addNops.pl
330				; Automatically 9 NOPs removed by reduceNOPs.sh
331			
332	00e5	00000000		nop	; Automatically Added by addNops.pl
333	00e6	00000000		nop	; Automatically Added by addNops.pl
334	00e7	00000000		nop	; Automatically Added by addNops.pl
335	00e8	00832020		add	%GPR4,%GPR4,%GPR3	
336			
337			
338	00e9	00000000		nop	; Automatically Added by addNops.pl
339	00ea	00000000		nop	; Automatically Added by addNops.pl
340	00eb	00000000		nop	; Automatically Added by addNops.pl
341				; Automatically 12 NOPs removed by reduceNOPs.sh
342	00ec	8ca30000		lw	%GPR3,0(%GPR5)
343	00ed	00000000		nop	; Automatically Added by addNops.pl
344	00ee	00000000		nop	; Automatically Added by addNops.pl
345	00ef	00000000		nop	; Automatically Added by addNops.pl
346				; Automatically 9 NOPs removed by reduceNOPs.sh
347			
348	00f0	00000000		nop	; Automatically Added by addNops.pl
349	00f1	00000000		nop	; Automatically Added by addNops.pl
350	00f2	00000000		nop	; Automatically Added by addNops.pl
351				; Automatically 20 NOPs removed by reduceNOPs.sh
352	00f3	3c060000		lhi	%GPR6,$0	
353	00f4	00000000		nop	; Automatically Added by addNops.pl
354	00f5	00000000		nop	; Automatically Added by addNops.pl
355	00f6	00000000		nop	; Automatically Added by addNops.pl
356				; Automatically 16 NOPs removed by reduceNOPs.sh
357	00f7	34c60100		ori	%GPR6,%GPR6,$256	
358	00f8	00000000		nop	; Automatically Added by addNops.pl
359	00f9	00000000		nop	; Automatically Added by addNops.pl
360	00fa	00000000		nop	; Automatically Added by addNops.pl
361				; Automatically 16 NOPs removed by reduceNOPs.sh
362	00fb	0086201c		MOD	%GPR4,%GPR4,%GPR6	
363	00fc	00000000		nop	; Automatically Added by addNops.pl
364	00fd	00000000		nop	; Automatically Added by addNops.pl
365	00fe	00000000		nop	; Automatically Added by addNops.pl
366				; Automatically 16 NOPs removed by reduceNOPs.sh
367	00ff	0083d82f		sne	%GPR27,%GPR4,%GPR3	
368	0100	00000000		nop	; Automatically Added by addNops.pl
369	0101	00000000		nop	; Automatically Added by addNops.pl
370	0102	00000000		nop	; Automatically Added by addNops.pl
371	0103	17600008		bnez	%GPR27,L_lib_lcd_4	
372	0104	00000000		nop	; Automatically Added by addNops.pl
373	0105	00000000		nop	; Automatically Added by addNops.pl
374	0106	00000000		nop	; Automatically Added by addNops.pl
375				; Automatically 16 NOPs removed by reduceNOPs.sh
376	0107	08000050		j	L_lib_lcd_5	
377	0108	00000000		nop	; Automatically Added by addNops.pl
378	0109	00000000		nop	; Automatically Added by addNops.pl
379	010a	00000000		nop	; Automatically Added by addNops.pl
380				; Automatically 16 NOPs removed by reduceNOPs.sh
381			L_lib_lcd_4:
382	010b	00000000		nop	; Automatically Added by addNops.pl
383	010c	00000000		nop	; Automatically Added by addNops.pl
384	010d	00000000		nop	; Automatically Added by addNops.pl
385				; Automatically 16 NOPs removed by reduceNOPs.sh
386	010e	3c030000		lhi	%GPR3,$0	
387	010f	00000000		nop	; Automatically Added by addNops.pl
388	0110	00000000		nop	; Automatically Added by addNops.pl
389	0111	00000000		nop	; Automatically Added by addNops.pl
390				; Automatically 16 NOPs removed by reduceNOPs.sh
391	0112	34630004		ori	%GPR3,%GPR3,$4	
392			
393			
394	0113	00000000		nop	; Automatically Added by addNops.pl
395	0114	00000000		nop	; Automatically Added by addNops.pl
396	0115	00000000		nop	; Automatically Added by addNops.pl
397				; Automatically 12 NOPs removed by reduceNOPs.sh
398	0116	aca30000		sw	0(%GPR5), %GPR3
399			
400			
401			
402	0117	00000000		nop	; Automatically Added by addNops.pl
403	0118	00000000		nop	; Automatically Added by addNops.pl
404	0119	00000000		nop	; Automatically Added by addNops.pl
405				; Automatically 12 NOPs removed by reduceNOPs.sh
406	011a	00000000		nop	; Automatically added by fix-stall-insns.pl
407	011b	aca10000		sw	0(%GPR5), %GPR1
408			
409	011c	00000000		nop	; Automatically Added by addNops.pl
410	011d	00000000		nop	; Automatically Added by addNops.pl
411	011e	00000000		nop	; Automatically Added by addNops.pl
412				; Automatically 20 NOPs removed by reduceNOPs.sh
413	011f	3c030000		lhi	%GPR3,$0	
414	0120	00000000		nop	; Automatically Added by addNops.pl
415	0121	00000000		nop	; Automatically Added by addNops.pl
416	0122	00000000		nop	; Automatically Added by addNops.pl
417				; Automatically 16 NOPs removed by reduceNOPs.sh
418	0123	34630012		ori	%GPR3,%GPR3,$18	
419			
420			
421	0124	00000000		nop	; Automatically Added by addNops.pl
422	0125	00000000		nop	; Automatically Added by addNops.pl
423	0126	00000000		nop	; Automatically Added by addNops.pl
424				; Automatically 12 NOPs removed by reduceNOPs.sh
425	0127	aca30000		sw	0(%GPR5), %GPR3
426			
427	0128	00000000		nop	; Automatically Added by addNops.pl
428	0129	00000000		nop	; Automatically Added by addNops.pl
429	012a	00000000		nop	; Automatically Added by addNops.pl
430				; Automatically 20 NOPs removed by reduceNOPs.sh
431	012b	3c040000		lhi	%GPR4,$0	
432	012c	00000000		nop	; Automatically Added by addNops.pl
433	012d	00000000		nop	; Automatically Added by addNops.pl
434	012e	00000000		nop	; Automatically Added by addNops.pl
435				; Automatically 16 NOPs removed by reduceNOPs.sh
436	012f	34840012		ori	%GPR4,%GPR4,$18	
437	0130	00000000		nop	; Automatically Added by addNops.pl
438	0131	00000000		nop	; Automatically Added by addNops.pl
439	0132	00000000		nop	; Automatically Added by addNops.pl
440	0133	3c030000		lhi	%GPR3,$0	
441	0134	00000000		nop	; Automatically Added by addNops.pl
442	0135	00000000		nop	; Automatically Added by addNops.pl
443	0136	00000000		nop	; Automatically Added by addNops.pl
444				; Automatically 16 NOPs removed by reduceNOPs.sh
445	0137	34630001		ori	%GPR3,%GPR3,$1	
446			
447			
448	0138	00000000		nop	; Automatically Added by addNops.pl
449	0139	00000000		nop	; Automatically Added by addNops.pl
450	013a	00000000		nop	; Automatically Added by addNops.pl
451				; Automatically 12 NOPs removed by reduceNOPs.sh
452	013b	aca30000		sw	0(%GPR5), %GPR3
453			
454	013c	00000000		nop	; Automatically Added by addNops.pl
455	013d	00000000		nop	; Automatically Added by addNops.pl
456	013e	00000000		nop	; Automatically Added by addNops.pl
457				; Automatically 8 NOPs removed by reduceNOPs.sh
458	013f	00832020		add	%GPR4,%GPR4,%GPR3	
459	0140	00000000		nop	; Automatically Added by addNops.pl
460	0141	00000000		nop	; Automatically Added by addNops.pl
461	0142	00000000		nop	; Automatically Added by addNops.pl
462				; Automatically 12 NOPs removed by reduceNOPs.sh
463	0143	3c030000		lhi	%GPR3,$0	
464	0144	00000000		nop	; Automatically Added by addNops.pl
465	0145	00000000		nop	; Automatically Added by addNops.pl
466	0146	00000000		nop	; Automatically Added by addNops.pl
467				; Automatically 16 NOPs removed by reduceNOPs.sh
468	0147	34630052		ori	%GPR3,%GPR3,$82	
469			
470			
471	0148	00000000		nop	; Automatically Added by addNops.pl
472	0149	00000000		nop	; Automatically Added by addNops.pl
473	014a	00000000		nop	; Automatically Added by addNops.pl
474				; Automatically 12 NOPs removed by reduceNOPs.sh
475	014b	aca30000		sw	0(%GPR5), %GPR3
476			
477	014c	00000000		nop	; Automatically Added by addNops.pl
478	014d	00000000		nop	; Automatically Added by addNops.pl
479	014e	00000000		nop	; Automatically Added by addNops.pl
480	014f	00832020		add	%GPR4,%GPR4,%GPR3	
481			
482			
483	0150	00000000		nop	; Automatically Added by addNops.pl
484	0151	00000000		nop	; Automatically Added by addNops.pl
485	0152	00000000		nop	; Automatically Added by addNops.pl
486				; Automatically 12 NOPs removed by reduceNOPs.sh
487	0153	aca40000		sw	0(%GPR5), %GPR4
488			
489	0154	00000000		nop	; Automatically Added by addNops.pl
490	0155	00000000		nop	; Automatically Added by addNops.pl
491	0156	00000000		nop	; Automatically Added by addNops.pl
492				; Automatically 12 NOPs removed by reduceNOPs.sh
493			L_lib_lcd_5:
494	0157	00000000		nop	; Automatically Added by addNops.pl
495	0158	00000000		nop	; Automatically Added by addNops.pl
496	0159	00000000		nop	; Automatically Added by addNops.pl
497				; Automatically 16 NOPs removed by reduceNOPs.sh
498	015a	3c03ffff		lhi	%GPR3,$65535	
499	015b	00000000		nop	; Automatically Added by addNops.pl
500	015c	00000000		nop	; Automatically Added by addNops.pl
501	015d	00000000		nop	; Automatically Added by addNops.pl
502				; Automatically 16 NOPs removed by reduceNOPs.sh
503	015e	3463ffff		ori	%GPR3,%GPR3,$-1	
504	015f	00000000		nop	; Automatically Added by addNops.pl
505	0160	00000000		nop	; Automatically Added by addNops.pl
506	0161	00000000		nop	; Automatically Added by addNops.pl
507				; Automatically 16 NOPs removed by reduceNOPs.sh
508	0162	0083d82e		seq	%GPR27,%GPR4,%GPR3	
509	0163	00000000		nop	; Automatically Added by addNops.pl
510	0164	00000000		nop	; Automatically Added by addNops.pl
511	0165	00000000		nop	; Automatically Added by addNops.pl
512	0166	1760ff33		bnez	%GPR27,L_lib_lcd_3	
513	0167	00000000		nop	; Automatically Added by addNops.pl
514	0168	00000000		nop	; Automatically Added by addNops.pl
515	0169	00000000		nop	; Automatically Added by addNops.pl
516				; Automatically 16 NOPs removed by reduceNOPs.sh
517	016a	08000004		j	L_lib_lcd_6	
518	016b	00000000		nop	; Automatically Added by addNops.pl
519	016c	00000000		nop	; Automatically Added by addNops.pl
520	016d	00000000		nop	; Automatically Added by addNops.pl
521				; Automatically 16 NOPs removed by reduceNOPs.sh
522			L_lib_lcd_6:
523	016e	00000000		nop	; Automatically Added by addNops.pl
524	016f	00000000		nop	; Automatically Added by addNops.pl
525	0170	00000000		nop	; Automatically Added by addNops.pl
526	0171	0040e020		add	%GPR28,%GPR2,%GPR0	
527	0172	00000000		nop	; Automatically Added by addNops.pl
528	0173	00000000		nop	; Automatically Added by addNops.pl
529	0174	00000000		nop	; Automatically Added by addNops.pl
530				; Automatically 16 NOPs removed by reduceNOPs.sh
531	0175	08000004		j	L_lib_lcd_7	
532	0176	00000000		nop	; Automatically Added by addNops.pl
533	0177	00000000		nop	; Automatically Added by addNops.pl
534	0178	00000000		nop	; Automatically Added by addNops.pl
535				; Automatically 16 NOPs removed by reduceNOPs.sh
536			L_lib_lcd_7:
537	0179	00000000		nop	; Automatically Added by addNops.pl
538	017a	00000000		nop	; Automatically Added by addNops.pl
539	017b	00000000		nop	; Automatically Added by addNops.pl
540				; Automatically 16 NOPs removed by reduceNOPs.sh
541	017c	8fdf0004		lw	%GPR31,4(%GPR30)	
542	017d	00000000		nop	; Automatically Added by addNops.pl
543	017e	00000000		nop	; Automatically Added by addNops.pl
544	017f	00000000		nop	; Automatically Added by addNops.pl
545	0180	27dd0004		addui	%GPR29,%GPR30,$4	
546	0181	00000000		nop	; Automatically Added by addNops.pl
547	0182	00000000		nop	; Automatically Added by addNops.pl
548	0183	00000000		nop	; Automatically Added by addNops.pl
549	0184	8fde0000		lw	%GPR30,0(%GPR30)	
550	0185	00000000		nop	; Automatically Added by addNops.pl
551	0186	00000000		nop	; Automatically Added by addNops.pl
552	0187	00000000		nop	; Automatically Added by addNops.pl
553				; Automatically 8 NOPs removed by reduceNOPs.sh
554	0188	00000000		nop
555	0189	00000000		nop
556	018a	03e00008		jr	%GPR31	
557	018b	00000000		nop	; Automatically Added by addNops.pl
558	018c	00000000		nop	; Automatically Added by addNops.pl
559	018d	00000000		nop	; Automatically Added by addNops.pl
560				; Automatically 16 NOPs removed by reduceNOPs.sh
561			getbytes:
562			L_lib_lcd_8:
563	018e	00000000		nop	; Automatically Added by addNops.pl
564	018f	00000000		nop	; Automatically Added by addNops.pl
565	0190	00000000		nop	; Automatically Added by addNops.pl
566				; Automatically 16 NOPs removed by reduceNOPs.sh
567	0191	afbefffc		sw	-4(%GPR29),%GPR30	
568	0192	00000000		nop	; Automatically Added by addNops.pl
569	0193	00000000		nop	; Automatically Added by addNops.pl
570	0194	00000000		nop	; Automatically Added by addNops.pl
571	0195	00000000		nop	; Automatically added by fix-stall-insns.pl
572	0196	afbf0000		sw	0(%GPR29),%GPR31	
573	0197	00000000		nop	; Automatically Added by addNops.pl
574	0198	00000000		nop	; Automatically Added by addNops.pl
575	0199	00000000		nop	; Automatically Added by addNops.pl
576	019a	2fbe0004		subui	%GPR30,%GPR29,$4	
577	019b	00000000		nop	; Automatically Added by addNops.pl
578	019c	00000000		nop	; Automatically Added by addNops.pl
579	019d	00000000		nop	; Automatically Added by addNops.pl
580				; Automatically 4 NOPs removed by reduceNOPs.sh
581	019e	2bbd0024		subi	%GPR29,%GPR29,$36	
582	019f	00000000		nop	; Automatically Added by addNops.pl
583	01a0	00000000		nop	; Automatically Added by addNops.pl
584	01a1	00000000		nop	; Automatically Added by addNops.pl
585				; Automatically 16 NOPs removed by reduceNOPs.sh
586	01a2	afc1fffc		sw	-4(%GPR30),%GPR1	
587	01a3	00000000		nop	; Automatically Added by addNops.pl
588	01a4	00000000		nop	; Automatically Added by addNops.pl
589	01a5	00000000		nop	; Automatically Added by addNops.pl
590	01a6	00000000		nop	; Automatically added by fix-stall-insns.pl
591	01a7	afc2fff8		sw	-8(%GPR30),%GPR2	
592	01a8	00000000		nop	; Automatically Added by addNops.pl
593	01a9	00000000		nop	; Automatically Added by addNops.pl
594	01aa	00000000		nop	; Automatically Added by addNops.pl
595				; Automatically 32 NOPs removed by reduceNOPs.sh
596	01ab	3c010000		lhi	%GPR1,$0	
597	01ac	00000000		nop	; Automatically Added by addNops.pl
598	01ad	00000000		nop	; Automatically Added by addNops.pl
599	01ae	00000000		nop	; Automatically Added by addNops.pl
600				; Automatically 16 NOPs removed by reduceNOPs.sh
601	01af	342100de		ori	%GPR1,%GPR1,$222	
602	01b0	00000000		nop	; Automatically Added by addNops.pl
603	01b1	00000000		nop	; Automatically Added by addNops.pl
604	01b2	00000000		nop	; Automatically Added by addNops.pl
605				; Automatically 16 NOPs removed by reduceNOPs.sh
606	01b3	afc1fff4		sw	-12(%GPR30),%GPR1	
607	01b4	00000000		nop	; Automatically Added by addNops.pl
608	01b5	00000000		nop	; Automatically Added by addNops.pl
609	01b6	00000000		nop	; Automatically Added by addNops.pl
610	01b7	3c010000		lhi	%GPR1,$0	
611	01b8	00000000		nop	; Automatically Added by addNops.pl
612	01b9	00000000		nop	; Automatically Added by addNops.pl
613	01ba	00000000		nop	; Automatically Added by addNops.pl
614				; Automatically 16 NOPs removed by reduceNOPs.sh
615	01bb	34210000		ori	%GPR1,%GPR1,$0	
616	01bc	00000000		nop	; Automatically Added by addNops.pl
617	01bd	00000000		nop	; Automatically Added by addNops.pl
618	01be	00000000		nop	; Automatically Added by addNops.pl
619				; Automatically 16 NOPs removed by reduceNOPs.sh
620	01bf	afc1fff0		sw	-16(%GPR30),%GPR1	
621			
622			
623	01c0	00000000		nop	; Automatically Added by addNops.pl
624	01c1	00000000		nop	; Automatically Added by addNops.pl
625	01c2	00000000		nop	; Automatically Added by addNops.pl
626	01c3	3c010200		lhi	%GPR1, $0x200
627	01c4	00000000		nop	; Automatically Added by addNops.pl
628	01c5	00000000		nop	; Automatically Added by addNops.pl
629	01c6	00000000		nop	; Automatically Added by addNops.pl
630				; Automatically 9 NOPs removed by reduceNOPs.sh
631			
632	01c7	00000000		nop	; Automatically Added by addNops.pl
633	01c8	00000000		nop	; Automatically Added by addNops.pl
634	01c9	00000000		nop	; Automatically Added by addNops.pl
635				; Automatically 8 NOPs removed by reduceNOPs.sh
636	01ca	00201020		add	%GPR2,%GPR1,%GPR0	
637	01cb	00000000		nop	; Automatically Added by addNops.pl
638	01cc	00000000		nop	; Automatically Added by addNops.pl
639	01cd	00000000		nop	; Automatically Added by addNops.pl
640	01ce	afc1ffec		sw	-20(%GPR30),%GPR1	
641	01cf	00000000		nop	; Automatically Added by addNops.pl
642	01d0	00000000		nop	; Automatically Added by addNops.pl
643	01d1	00000000		nop	; Automatically Added by addNops.pl
644				; Automatically 8 NOPs removed by reduceNOPs.sh
645	01d2	3c010000		lhi	%GPR1,$0	
646	01d3	00000000		nop	; Automatically Added by addNops.pl
647	01d4	00000000		nop	; Automatically Added by addNops.pl
648	01d5	00000000		nop	; Automatically Added by addNops.pl
649				; Automatically 16 NOPs removed by reduceNOPs.sh
650	01d6	34210004		ori	%GPR1,%GPR1,$4	
651			
652			
653	01d7	00000000		nop	; Automatically Added by addNops.pl
654	01d8	00000000		nop	; Automatically Added by addNops.pl
655	01d9	00000000		nop	; Automatically Added by addNops.pl
656				; Automatically 12 NOPs removed by reduceNOPs.sh
657	01da	ac410000		sw	0(%GPR2), %GPR1
658			
659	01db	00000000		nop	; Automatically Added by addNops.pl
660	01dc	00000000		nop	; Automatically Added by addNops.pl
661	01dd	00000000		nop	; Automatically Added by addNops.pl
662	01de	00000000		nop	; Automatically added by fix-stall-insns.pl
663	01df	8fc1fff4		lw	%GPR1,-12(%GPR30)	
664			
665			
666	01e0	00000000		nop	; Automatically Added by addNops.pl
667	01e1	00000000		nop	; Automatically Added by addNops.pl
668	01e2	00000000		nop	; Automatically Added by addNops.pl
669				; Automatically 12 NOPs removed by reduceNOPs.sh
670	01e3	00000000		nop	; Automatically added by fix-stall-insns.pl
671	01e4	ac410000		sw	0(%GPR2), %GPR1
672			
673	01e5	00000000		nop	; Automatically Added by addNops.pl
674	01e6	00000000		nop	; Automatically Added by addNops.pl
675	01e7	00000000		nop	; Automatically Added by addNops.pl
676				; Automatically 20 NOPs removed by reduceNOPs.sh
677	01e8	3c010000		lhi	%GPR1,$0	
678	01e9	00000000		nop	; Automatically Added by addNops.pl
679	01ea	00000000		nop	; Automatically Added by addNops.pl
680	01eb	00000000		nop	; Automatically Added by addNops.pl
681				; Automatically 16 NOPs removed by reduceNOPs.sh
682	01ec	34210012		ori	%GPR1,%GPR1,$18	
683			
684			
685	01ed	00000000		nop	; Automatically Added by addNops.pl
686	01ee	00000000		nop	; Automatically Added by addNops.pl
687	01ef	00000000		nop	; Automatically Added by addNops.pl
688				; Automatically 12 NOPs removed by reduceNOPs.sh
689	01f0	ac410000		sw	0(%GPR2), %GPR1
690			
691	01f1	00000000		nop	; Automatically Added by addNops.pl
692	01f2	00000000		nop	; Automatically Added by addNops.pl
693	01f3	00000000		nop	; Automatically Added by addNops.pl
694				; Automatically 20 NOPs removed by reduceNOPs.sh
695	01f4	3c010000		lhi	%GPR1,$0	
696	01f5	00000000		nop	; Automatically Added by addNops.pl
697	01f6	00000000		nop	; Automatically Added by addNops.pl
698	01f7	00000000		nop	; Automatically Added by addNops.pl
699				; Automatically 16 NOPs removed by reduceNOPs.sh
700	01f8	34210001		ori	%GPR1,%GPR1,$1	
701	01f9	00000000		nop	; Automatically Added by addNops.pl
702	01fa	00000000		nop	; Automatically Added by addNops.pl
703	01fb	00000000		nop	; Automatically Added by addNops.pl
704				; Automatically 16 NOPs removed by reduceNOPs.sh
705	01fc	afc1ffe8		sw	-24(%GPR30),%GPR1	
706	01fd	00000000		nop	; Automatically Added by addNops.pl
707	01fe	00000000		nop	; Automatically Added by addNops.pl
708	01ff	00000000		nop	; Automatically Added by addNops.pl
709	0200	3c010000		lhi	%GPR1,$0	
710	0201	00000000		nop	; Automatically Added by addNops.pl
711	0202	00000000		nop	; Automatically Added by addNops.pl
712	0203	00000000		nop	; Automatically Added by addNops.pl
713				; Automatically 16 NOPs removed by reduceNOPs.sh
714	0204	34210012		ori	%GPR1,%GPR1,$18	
715	0205	00000000		nop	; Automatically Added by addNops.pl
716	0206	00000000		nop	; Automatically Added by addNops.pl
717	0207	00000000		nop	; Automatically Added by addNops.pl
718				; Automatically 16 NOPs removed by reduceNOPs.sh
719	0208	afc1ffe4		sw	-28(%GPR30),%GPR1	
720	0209	00000000		nop	; Automatically Added by addNops.pl
721	020a	00000000		nop	; Automatically Added by addNops.pl
722	020b	00000000		nop	; Automatically Added by addNops.pl
723	020c	00000000		nop	; Automatically added by fix-stall-insns.pl
724	020d	8fc1ffe8		lw	%GPR1,-24(%GPR30)	
725			
726			
727	020e	00000000		nop	; Automatically Added by addNops.pl
728	020f	00000000		nop	; Automatically Added by addNops.pl
729	0210	00000000		nop	; Automatically Added by addNops.pl
730				; Automatically 12 NOPs removed by reduceNOPs.sh
731	0211	00000000		nop	; Automatically added by fix-stall-insns.pl
732	0212	ac410000		sw	0(%GPR2), %GPR1
733			
734	0213	00000000		nop	; Automatically Added by addNops.pl
735	0214	00000000		nop	; Automatically Added by addNops.pl
736	0215	00000000		nop	; Automatically Added by addNops.pl
737	0216	00201020		add	%GPR2,%GPR1,%GPR0	
738	0217	00000000		nop	; Automatically Added by addNops.pl
739	0218	00000000		nop	; Automatically Added by addNops.pl
740	0219	00000000		nop	; Automatically Added by addNops.pl
741	021a	8fc1ffe4		lw	%GPR1,-28(%GPR30)	
742	021b	00000000		nop	; Automatically Added by addNops.pl
743	021c	00000000		nop	; Automatically Added by addNops.pl
744	021d	00000000		nop	; Automatically Added by addNops.pl
745				; Automatically 16 NOPs removed by reduceNOPs.sh
746	021e	00220820		add	%GPR1,%GPR1,%GPR2	
747	021f	00000000		nop	; Automatically Added by addNops.pl
748	0220	00000000		nop	; Automatically Added by addNops.pl
749	0221	00000000		nop	; Automatically Added by addNops.pl
750	0222	8fc2ffec		lw	%GPR2,-20(%GPR30)	
751	0223	00000000		nop	; Automatically Added by addNops.pl
752	0224	00000000		nop	; Automatically Added by addNops.pl
753	0225	00000000		nop	; Automatically Added by addNops.pl
754				; Automatically 12 NOPs removed by reduceNOPs.sh
755	0226	00000000		nop	; Automatically added by fix-stall-insns.pl
756	0227	afc1ffe4		sw	-28(%GPR30),%GPR1	
757	0228	00000000		nop	; Automatically Added by addNops.pl
758	0229	00000000		nop	; Automatically Added by addNops.pl
759	022a	00000000		nop	; Automatically Added by addNops.pl
760	022b	3c010000		lhi	%GPR1,$0	
761	022c	00000000		nop	; Automatically Added by addNops.pl
762	022d	00000000		nop	; Automatically Added by addNops.pl
763	022e	00000000		nop	; Automatically Added by addNops.pl
764				; Automatically 16 NOPs removed by reduceNOPs.sh
765	022f	34210053		ori	%GPR1,%GPR1,$83	
766			
767			
768	0230	00000000		nop	; Automatically Added by addNops.pl
769	0231	00000000		nop	; Automatically Added by addNops.pl
770	0232	00000000		nop	; Automatically Added by addNops.pl
771				; Automatically 12 NOPs removed by reduceNOPs.sh
772	0233	ac410000		sw	0(%GPR2), %GPR1
773			
774	0234	00000000		nop	; Automatically Added by addNops.pl
775	0235	00000000		nop	; Automatically Added by addNops.pl
776	0236	00000000		nop	; Automatically Added by addNops.pl
777	0237	00201020		add	%GPR2,%GPR1,%GPR0	
778	0238	00000000		nop	; Automatically Added by addNops.pl
779	0239	00000000		nop	; Automatically Added by addNops.pl
780	023a	00000000		nop	; Automatically Added by addNops.pl
781	023b	8fc1ffe4		lw	%GPR1,-28(%GPR30)	
782	023c	00000000		nop	; Automatically Added by addNops.pl
783	023d	00000000		nop	; Automatically Added by addNops.pl
784	023e	00000000		nop	; Automatically Added by addNops.pl
785				; Automatically 16 NOPs removed by reduceNOPs.sh
786	023f	00220820		add	%GPR1,%GPR1,%GPR2	
787	0240	00000000		nop	; Automatically Added by addNops.pl
788	0241	00000000		nop	; Automatically Added by addNops.pl
789	0242	00000000		nop	; Automatically Added by addNops.pl
790	0243	8fc2ffec		lw	%GPR2,-20(%GPR30)	
791			
792			
793	0244	00000000		nop	; Automatically Added by addNops.pl
794	0245	00000000		nop	; Automatically Added by addNops.pl
795	0246	00000000		nop	; Automatically Added by addNops.pl
796				; Automatically 12 NOPs removed by reduceNOPs.sh
797	0247	00000000		nop	; Automatically added by fix-stall-insns.pl
798	0248	ac410000		sw	0(%GPR2), %GPR1
799			
800	0249	00000000		nop	; Automatically Added by addNops.pl
801	024a	00000000		nop	; Automatically Added by addNops.pl
802	024b	00000000		nop	; Automatically Added by addNops.pl
803				; Automatically 20 NOPs removed by reduceNOPs.sh
804	024c	3c01ffff		lhi	%GPR1,$65535	
805	024d	00000000		nop	; Automatically Added by addNops.pl
806	024e	00000000		nop	; Automatically Added by addNops.pl
807	024f	00000000		nop	; Automatically Added by addNops.pl
808				; Automatically 16 NOPs removed by reduceNOPs.sh
809	0250	3421ffff		ori	%GPR1,%GPR1,$-1	
810	0251	00000000		nop	; Automatically Added by addNops.pl
811	0252	00000000		nop	; Automatically Added by addNops.pl
812	0253	00000000		nop	; Automatically Added by addNops.pl
813				; Automatically 12 NOPs removed by reduceNOPs.sh
814			L_lib_lcd_9:
815	0254	00000000		nop	; Automatically Added by addNops.pl
816	0255	00000000		nop	; Automatically Added by addNops.pl
817	0256	00000000		nop	; Automatically Added by addNops.pl
818	0257	8fc2ffec		lw	%GPR2,-20(%GPR30)	
819	0258	00000000		nop	; Automatically Added by addNops.pl
820	0259	00000000		nop	; Automatically Added by addNops.pl
821	025a	00000000		nop	; Automatically Added by addNops.pl
822				; Automatically 12 NOPs removed by reduceNOPs.sh
823	025b	3c010000		lhi	%GPR1,$0	
824	025c	00000000		nop	; Automatically Added by addNops.pl
825	025d	00000000		nop	; Automatically Added by addNops.pl
826	025e	00000000		nop	; Automatically Added by addNops.pl
827				; Automatically 16 NOPs removed by reduceNOPs.sh
828	025f	34210000		ori	%GPR1,%GPR1,$0	
829			
830			
831	0260	00000000		nop	; Automatically Added by addNops.pl
832	0261	00000000		nop	; Automatically Added by addNops.pl
833	0262	00000000		nop	; Automatically Added by addNops.pl
834				; Automatically 12 NOPs removed by reduceNOPs.sh
835	0263	ac410000		sw	0(%GPR2), %GPR1
836			
837	0264	00000000		nop	; Automatically Added by addNops.pl
838	0265	00000000		nop	; Automatically Added by addNops.pl
839	0266	00000000		nop	; Automatically Added by addNops.pl
840	0267	00000000		nop	; Automatically added by fix-stall-insns.pl
841	0268	8fc1fff4		lw	%GPR1,-12(%GPR30)	
842	0269	00000000		nop	; Automatically Added by addNops.pl
843	026a	00000000		nop	; Automatically Added by addNops.pl
844	026b	00000000		nop	; Automatically Added by addNops.pl
845				; Automatically 16 NOPs removed by reduceNOPs.sh
846	026c	20210001		addi	%GPR1,%GPR1,$1	
847			
848			
849	026d	00000000		nop	; Automatically Added by addNops.pl
850	026e	00000000		nop	; Automatically Added by addNops.pl
851	026f	00000000		nop	; Automatically Added by addNops.pl
852				; Automatically 12 NOPs removed by reduceNOPs.sh
853	0270	ac410000		sw	0(%GPR2), %GPR1
854			
855	0271	00000000		nop	; Automatically Added by addNops.pl
856	0272	00000000		nop	; Automatically Added by addNops.pl
857	0273	00000000		nop	; Automatically Added by addNops.pl
858	0274	00000000		nop	; Automatically added by fix-stall-insns.pl
859	0275	8fc1fff8		lw	%GPR1,-8(%GPR30)	
860	0276	00000000		nop	; Automatically Added by addNops.pl
861	0277	00000000		nop	; Automatically Added by addNops.pl
862	0278	00000000		nop	; Automatically Added by addNops.pl
863				; Automatically 16 NOPs removed by reduceNOPs.sh
864	0279	20210004		addi	%GPR1,%GPR1,$4	
865			
866			
867	027a	00000000		nop	; Automatically Added by addNops.pl
868	027b	00000000		nop	; Automatically Added by addNops.pl
869	027c	00000000		nop	; Automatically Added by addNops.pl
870				; Automatically 12 NOPs removed by reduceNOPs.sh
871	027d	ac410000		sw	0(%GPR2), %GPR1
872			
873	027e	00000000		nop	; Automatically Added by addNops.pl
874	027f	00000000		nop	; Automatically Added by addNops.pl
875	0280	00000000		nop	; Automatically Added by addNops.pl
876	0281	00400820		add	%GPR1,%GPR2,%GPR0	
877			
878			
879	0282	00000000		nop	; Automatically Added by addNops.pl
880	0283	00000000		nop	; Automatically Added by addNops.pl
881	0284	00000000		nop	; Automatically Added by addNops.pl
882				; Automatically 12 NOPs removed by reduceNOPs.sh
883	0285	8c210000		lw	%GPR1,0(%GPR1)
884	0286	00000000		nop	; Automatically Added by addNops.pl
885	0287	00000000		nop	; Automatically Added by addNops.pl
886	0288	00000000		nop	; Automatically Added by addNops.pl
887				; Automatically 9 NOPs removed by reduceNOPs.sh
888			
889	0289	00000000		nop	; Automatically Added by addNops.pl
890	028a	00000000		nop	; Automatically Added by addNops.pl
891	028b	00000000		nop	; Automatically Added by addNops.pl
892	028c	00400820		add	%GPR1,%GPR2,%GPR0	
893			
894			
895	028d	00000000		nop	; Automatically Added by addNops.pl
896	028e	00000000		nop	; Automatically Added by addNops.pl
897	028f	00000000		nop	; Automatically Added by addNops.pl
898				; Automatically 12 NOPs removed by reduceNOPs.sh
899	0290	8c210000		lw	%GPR1,0(%GPR1)
900	0291	00000000		nop	; Automatically Added by addNops.pl
901	0292	00000000		nop	; Automatically Added by addNops.pl
902	0293	00000000		nop	; Automatically Added by addNops.pl
903				; Automatically 9 NOPs removed by reduceNOPs.sh
904			
905	0294	00000000		nop	; Automatically Added by addNops.pl
906	0295	00000000		nop	; Automatically Added by addNops.pl
907	0296	00000000		nop	; Automatically Added by addNops.pl
908	0297	00201020		add	%GPR2,%GPR1,%GPR0	
909	0298	00000000		nop	; Automatically Added by addNops.pl
910	0299	00000000		nop	; Automatically Added by addNops.pl
911	029a	00000000		nop	; Automatically Added by addNops.pl
912	029b	8fc1ffec		lw	%GPR1,-20(%GPR30)	
913			
914			
915	029c	00000000		nop	; Automatically Added by addNops.pl
916	029d	00000000		nop	; Automatically Added by addNops.pl
917	029e	00000000		nop	; Automatically Added by addNops.pl
918				; Automatically 12 NOPs removed by reduceNOPs.sh
919	029f	00000000		nop	; Automatically added by fix-stall-insns.pl
920	02a0	8c210000		lw	%GPR1,0(%GPR1)
921	02a1	00000000		nop	; Automatically Added by addNops.pl
922	02a2	00000000		nop	; Automatically Added by addNops.pl
923	02a3	00000000		nop	; Automatically Added by addNops.pl
924				; Automatically 9 NOPs removed by reduceNOPs.sh
925			
926	02a4	00000000		nop	; Automatically Added by addNops.pl
927	02a5	00000000		nop	; Automatically Added by addNops.pl
928	02a6	00000000		nop	; Automatically Added by addNops.pl
929	02a7	00410820		add	%GPR1,%GPR2,%GPR1	
930	02a8	00000000		nop	; Automatically Added by addNops.pl
931	02a9	00000000		nop	; Automatically Added by addNops.pl
932	02aa	00000000		nop	; Automatically Added by addNops.pl
933				; Automatically 16 NOPs removed by reduceNOPs.sh
934	02ab	afc1ffe4		sw	-28(%GPR30),%GPR1	
935	02ac	00000000		nop	; Automatically Added by addNops.pl
936	02ad	00000000		nop	; Automatically Added by addNops.pl
937	02ae	00000000		nop	; Automatically Added by addNops.pl
938				; Automatically 12 NOPs removed by reduceNOPs.sh
939			L_lib_lcd_10:
940	02af	00000000		nop	; Automatically Added by addNops.pl
941	02b0	00000000		nop	; Automatically Added by addNops.pl
942	02b1	00000000		nop	; Automatically Added by addNops.pl
943	02b2	8fc1fff0		lw	%GPR1,-16(%GPR30)	
944	02b3	00000000		nop	; Automatically Added by addNops.pl
945	02b4	00000000		nop	; Automatically Added by addNops.pl
946	02b5	00000000		nop	; Automatically Added by addNops.pl
947	02b6	00000000		nop	; Automatically added by fix-stall-insns.pl
948	02b7	8fc2fff8		lw	%GPR2,-8(%GPR30)	
949	02b8	00000000		nop	; Automatically Added by addNops.pl
950	02b9	00000000		nop	; Automatically Added by addNops.pl
951	02ba	00000000		nop	; Automatically Added by addNops.pl
952				; Automatically 16 NOPs removed by reduceNOPs.sh
953	02bb	0022d82f		sne	%GPR27,%GPR1,%GPR2	
954	02bc	00000000		nop	; Automatically Added by addNops.pl
955	02bd	00000000		nop	; Automatically Added by addNops.pl
956	02be	00000000		nop	; Automatically Added by addNops.pl
957	02bf	17600008		bnez	%GPR27,L_lib_lcd_11	
958	02c0	00000000		nop	; Automatically Added by addNops.pl
959	02c1	00000000		nop	; Automatically Added by addNops.pl
960	02c2	00000000		nop	; Automatically Added by addNops.pl
961				; Automatically 16 NOPs removed by reduceNOPs.sh
962	02c3	08000057		j	L_lib_lcd_12	
963	02c4	00000000		nop	; Automatically Added by addNops.pl
964	02c5	00000000		nop	; Automatically Added by addNops.pl
965	02c6	00000000		nop	; Automatically Added by addNops.pl
966				; Automatically 16 NOPs removed by reduceNOPs.sh
967			L_lib_lcd_11:
968	02c7	00000000		nop	; Automatically Added by addNops.pl
969	02c8	00000000		nop	; Automatically Added by addNops.pl
970	02c9	00000000		nop	; Automatically Added by addNops.pl
971	02ca	8fc1ffec		lw	%GPR1,-20(%GPR30)	
972			
973			
974	02cb	00000000		nop	; Automatically Added by addNops.pl
975	02cc	00000000		nop	; Automatically Added by addNops.pl
976	02cd	00000000		nop	; Automatically Added by addNops.pl
977				; Automatically 12 NOPs removed by reduceNOPs.sh
978	02ce	00000000		nop	; Automatically added by fix-stall-insns.pl
979	02cf	8c210000		lw	%GPR1,0(%GPR1)
980	02d0	00000000		nop	; Automatically Added by addNops.pl
981	02d1	00000000		nop	; Automatically Added by addNops.pl
982	02d2	00000000		nop	; Automatically Added by addNops.pl
983				; Automatically 9 NOPs removed by reduceNOPs.sh
984			
985	02d3	00000000		nop	; Automatically Added by addNops.pl
986	02d4	00000000		nop	; Automatically Added by addNops.pl
987	02d5	00000000		nop	; Automatically Added by addNops.pl
988	02d6	afc1ffe8		sw	-24(%GPR30),%GPR1	
989	02d7	00000000		nop	; Automatically Added by addNops.pl
990	02d8	00000000		nop	; Automatically Added by addNops.pl
991	02d9	00000000		nop	; Automatically Added by addNops.pl
992	02da	00000000		nop	; Automatically added by fix-stall-insns.pl
993	02db	8fc2fff0		lw	%GPR2,-16(%GPR30)	
994	02dc	00000000		nop	; Automatically Added by addNops.pl
995	02dd	00000000		nop	; Automatically Added by addNops.pl
996	02de	00000000		nop	; Automatically Added by addNops.pl
997	02df	00000000		nop	; Automatically added by fix-stall-insns.pl
998	02e0	8fc1fffc		lw	%GPR1,-4(%GPR30)	
999	02e1	00000000		nop	; Automatically Added by addNops.pl
1000	02e2	00000000		nop	; Automatically Added by addNops.pl
1001	02e3	00000000		nop	; Automatically Added by addNops.pl
1002				; Automatically 16 NOPs removed by reduceNOPs.sh
1003	02e4	00220820		add	%GPR1,%GPR1,%GPR2	
1004	02e5	00000000		nop	; Automatically Added by addNops.pl
1005	02e6	00000000		nop	; Automatically Added by addNops.pl
1006	02e7	00000000		nop	; Automatically Added by addNops.pl
1007	02e8	8fc2ffe8		lw	%GPR2,-24(%GPR30)	
1008	02e9	00000000		nop	; Automatically Added by addNops.pl
1009	02ea	00000000		nop	; Automatically Added by addNops.pl
1010	02eb	00000000		nop	; Automatically Added by addNops.pl
1011				; Automatically 16 NOPs removed by reduceNOPs.sh
1012	02ec	2bbd0008		subi	%GPR29,%GPR29,$8	
1013	02ed	00000000		nop	; Automatically Added by addNops.pl
1014	02ee	00000000		nop	; Automatically Added by addNops.pl
1015	02ef	00000000		nop	; Automatically Added by addNops.pl
1016				; Automatically 16 NOPs removed by reduceNOPs.sh
1017	02f0	0c000fae		jal	storeByte	
1018	02f1	00000000		nop	; Automatically Added by addNops.pl
1019	02f2	00000000		nop	; Automatically Added by addNops.pl
1020	02f3	00000000		nop	; Automatically Added by addNops.pl
1021				; Automatically 16 NOPs removed by reduceNOPs.sh
1022	02f4	23bd0008		addi	%GPR29,%GPR29,$8	
1023	02f5	00000000		nop	; Automatically Added by addNops.pl
1024	02f6	00000000		nop	; Automatically Added by addNops.pl
1025	02f7	00000000		nop	; Automatically Added by addNops.pl
1026				; Automatically 16 NOPs removed by reduceNOPs.sh
1027	02f8	8fc1ffe4		lw	%GPR1,-28(%GPR30)	
1028	02f9	00000000		nop	; Automatically Added by addNops.pl
1029	02fa	00000000		nop	; Automatically Added by addNops.pl
1030	02fb	00000000		nop	; Automatically Added by addNops.pl
1031	02fc	00000000		nop	; Automatically added by fix-stall-insns.pl
1032	02fd	8fc2ffe8		lw	%GPR2,-24(%GPR30)	
1033	02fe	00000000		nop	; Automatically Added by addNops.pl
1034	02ff	00000000		nop	; Automatically Added by addNops.pl
1035	0300	00000000		nop	; Automatically Added by addNops.pl
1036				; Automatically 16 NOPs removed by reduceNOPs.sh
1037	0301	00220820		add	%GPR1,%GPR1,%GPR2	
1038	0302	00000000		nop	; Automatically Added by addNops.pl
1039	0303	00000000		nop	; Automatically Added by addNops.pl
1040	0304	00000000		nop	; Automatically Added by addNops.pl
1041				; Automatically 16 NOPs removed by reduceNOPs.sh
1042	0305	afc1ffe4		sw	-28(%GPR30),%GPR1	
1043	0306	00000000		nop	; Automatically Added by addNops.pl
1044	0307	00000000		nop	; Automatically Added by addNops.pl
1045	0308	00000000		nop	; Automatically Added by addNops.pl
1046	0309	00000000		nop	; Automatically added by fix-stall-insns.pl
1047	030a	8fc1fff0		lw	%GPR1,-16(%GPR30)	
1048	030b	00000000		nop	; Automatically Added by addNops.pl
1049	030c	00000000		nop	; Automatically Added by addNops.pl
1050	030d	00000000		nop	; Automatically Added by addNops.pl
1051				; Automatically 16 NOPs removed by reduceNOPs.sh
1052	030e	20210001		addi	%GPR1,%GPR1,$1	
1053	030f	00000000		nop	; Automatically Added by addNops.pl
1054	0310	00000000		nop	; Automatically Added by addNops.pl
1055	0311	00000000		nop	; Automatically Added by addNops.pl
1056				; Automatically 16 NOPs removed by reduceNOPs.sh
1057	0312	afc1fff0		sw	-16(%GPR30),%GPR1	
1058	0313	00000000		nop	; Automatically Added by addNops.pl
1059	0314	00000000		nop	; Automatically Added by addNops.pl
1060	0315	00000000		nop	; Automatically Added by addNops.pl
1061	0316	0bffff99		j	L_lib_lcd_10	
1062	0317	00000000		nop	; Automatically Added by addNops.pl
1063	0318	00000000		nop	; Automatically Added by addNops.pl
1064	0319	00000000		nop	; Automatically Added by addNops.pl
1065				; Automatically 12 NOPs removed by reduceNOPs.sh
1066			L_lib_lcd_12:
1067	031a	00000000		nop	; Automatically Added by addNops.pl
1068	031b	00000000		nop	; Automatically Added by addNops.pl
1069	031c	00000000		nop	; Automatically Added by addNops.pl
1070	031d	8fc1ffec		lw	%GPR1,-20(%GPR30)	
1071			
1072			
1073	031e	00000000		nop	; Automatically Added by addNops.pl
1074	031f	00000000		nop	; Automatically Added by addNops.pl
1075	0320	00000000		nop	; Automatically Added by addNops.pl
1076				; Automatically 12 NOPs removed by reduceNOPs.sh
1077	0321	00000000		nop	; Automatically added by fix-stall-insns.pl
1078	0322	8c210000		lw	%GPR1,0(%GPR1)
1079	0323	00000000		nop	; Automatically Added by addNops.pl
1080	0324	00000000		nop	; Automatically Added by addNops.pl
1081	0325	00000000		nop	; Automatically Added by addNops.pl
1082				; Automatically 9 NOPs removed by reduceNOPs.sh
1083			
1084	0326	00000000		nop	; Automatically Added by addNops.pl
1085	0327	00000000		nop	; Automatically Added by addNops.pl
1086	0328	00000000		nop	; Automatically Added by addNops.pl
1087	0329	8fc2ffe4		lw	%GPR2,-28(%GPR30)	
1088	032a	00000000		nop	; Automatically Added by addNops.pl
1089	032b	00000000		nop	; Automatically Added by addNops.pl
1090	032c	00000000		nop	; Automatically Added by addNops.pl
1091				; Automatically 16 NOPs removed by reduceNOPs.sh
1092	032d	304200ff		andi	%GPR2,%GPR2,$255	
1093	032e	00000000		nop	; Automatically Added by addNops.pl
1094	032f	00000000		nop	; Automatically Added by addNops.pl
1095	0330	00000000		nop	; Automatically Added by addNops.pl
1096				; Automatically 16 NOPs removed by reduceNOPs.sh
1097	0331	afc2ffe4		sw	-28(%GPR30),%GPR2	
1098	0332	00000000		nop	; Automatically Added by addNops.pl
1099	0333	00000000		nop	; Automatically Added by addNops.pl
1100	0334	00000000		nop	; Automatically Added by addNops.pl
1101	0335	0041d82f		sne	%GPR27,%GPR2,%GPR1	
1102	0336	00000000		nop	; Automatically Added by addNops.pl
1103	0337	00000000		nop	; Automatically Added by addNops.pl
1104	0338	00000000		nop	; Automatically Added by addNops.pl
1105	0339	17600008		bnez	%GPR27,L_lib_lcd_13	
1106	033a	00000000		nop	; Automatically Added by addNops.pl
1107	033b	00000000		nop	; Automatically Added by addNops.pl
1108	033c	00000000		nop	; Automatically Added by addNops.pl
1109				; Automatically 16 NOPs removed by reduceNOPs.sh
1110	033d	0800008a		j	L_lib_lcd_14	
1111	033e	00000000		nop	; Automatically Added by addNops.pl
1112	033f	00000000		nop	; Automatically Added by addNops.pl
1113	0340	00000000		nop	; Automatically Added by addNops.pl
1114				; Automatically 16 NOPs removed by reduceNOPs.sh
1115			L_lib_lcd_13:
1116	0341	00000000		nop	; Automatically Added by addNops.pl
1117	0342	00000000		nop	; Automatically Added by addNops.pl
1118	0343	00000000		nop	; Automatically Added by addNops.pl
1119	0344	8fc2ffec		lw	%GPR2,-20(%GPR30)	
1120	0345	00000000		nop	; Automatically Added by addNops.pl
1121	0346	00000000		nop	; Automatically Added by addNops.pl
1122	0347	00000000		nop	; Automatically Added by addNops.pl
1123				; Automatically 12 NOPs removed by reduceNOPs.sh
1124	0348	3c010000		lhi	%GPR1,$0	
1125	0349	00000000		nop	; Automatically Added by addNops.pl
1126	034a	00000000		nop	; Automatically Added by addNops.pl
1127	034b	00000000		nop	; Automatically Added by addNops.pl
1128				; Automatically 16 NOPs removed by reduceNOPs.sh
1129	034c	34210004		ori	%GPR1,%GPR1,$4	
1130			
1131			
1132	034d	00000000		nop	; Automatically Added by addNops.pl
1133	034e	00000000		nop	; Automatically Added by addNops.pl
1134	034f	00000000		nop	; Automatically Added by addNops.pl
1135				; Automatically 12 NOPs removed by reduceNOPs.sh
1136	0350	ac410000		sw	0(%GPR2), %GPR1
1137			
1138	0351	00000000		nop	; Automatically Added by addNops.pl
1139	0352	00000000		nop	; Automatically Added by addNops.pl
1140	0353	00000000		nop	; Automatically Added by addNops.pl
1141	0354	00000000		nop	; Automatically added by fix-stall-insns.pl
1142	0355	8fc1fff4		lw	%GPR1,-12(%GPR30)	
1143			
1144			
1145	0356	00000000		nop	; Automatically Added by addNops.pl
1146	0357	00000000		nop	; Automatically Added by addNops.pl
1147	0358	00000000		nop	; Automatically Added by addNops.pl
1148				; Automatically 12 NOPs removed by reduceNOPs.sh
1149	0359	00000000		nop	; Automatically added by fix-stall-insns.pl
1150	035a	ac410000		sw	0(%GPR2), %GPR1
1151			
1152	035b	00000000		nop	; Automatically Added by addNops.pl
1153	035c	00000000		nop	; Automatically Added by addNops.pl
1154	035d	00000000		nop	; Automatically Added by addNops.pl
1155				; Automatically 20 NOPs removed by reduceNOPs.sh
1156	035e	3c010000		lhi	%GPR1,$0	
1157	035f	00000000		nop	; Automatically Added by addNops.pl
1158	0360	00000000		nop	; Automatically Added by addNops.pl
1159	0361	00000000		nop	; Automatically Added by addNops.pl
1160				; Automatically 16 NOPs removed by reduceNOPs.sh
1161	0362	34210012		ori	%GPR1,%GPR1,$18	
1162			
1163			
1164	0363	00000000		nop	; Automatically Added by addNops.pl
1165	0364	00000000		nop	; Automatically Added by addNops.pl
1166	0365	00000000		nop	; Automatically Added by addNops.pl
1167				; Automatically 12 NOPs removed by reduceNOPs.sh
1168	0366	ac410000		sw	0(%GPR2), %GPR1
1169			
1170	0367	00000000		nop	; Automatically Added by addNops.pl
1171	0368	00000000		nop	; Automatically Added by addNops.pl
1172	0369	00000000		nop	; Automatically Added by addNops.pl
1173				; Automatically 20 NOPs removed by reduceNOPs.sh
1174	036a	3c010000		lhi	%GPR1,$0	
1175	036b	00000000		nop	; Automatically Added by addNops.pl
1176	036c	00000000		nop	; Automatically Added by addNops.pl
1177	036d	00000000		nop	; Automatically Added by addNops.pl
1178				; Automatically 16 NOPs removed by reduceNOPs.sh
1179	036e	34210001		ori	%GPR1,%GPR1,$1	
1180	036f	00000000		nop	; Automatically Added by addNops.pl
1181	0370	00000000		nop	; Automatically Added by addNops.pl
1182	0371	00000000		nop	; Automatically Added by addNops.pl
1183				; Automatically 16 NOPs removed by reduceNOPs.sh
1184	0372	afc1ffe8		sw	-24(%GPR30),%GPR1	
1185	0373	00000000		nop	; Automatically Added by addNops.pl
1186	0374	00000000		nop	; Automatically Added by addNops.pl
1187	0375	00000000		nop	; Automatically Added by addNops.pl
1188	0376	3c010000		lhi	%GPR1,$0	
1189	0377	00000000		nop	; Automatically Added by addNops.pl
1190	0378	00000000		nop	; Automatically Added by addNops.pl
1191	0379	00000000		nop	; Automatically Added by addNops.pl
1192				; Automatically 16 NOPs removed by reduceNOPs.sh
1193	037a	34210012		ori	%GPR1,%GPR1,$18	
1194	037b	00000000		nop	; Automatically Added by addNops.pl
1195	037c	00000000		nop	; Automatically Added by addNops.pl
1196	037d	00000000		nop	; Automatically Added by addNops.pl
1197				; Automatically 16 NOPs removed by reduceNOPs.sh
1198	037e	afc1ffe4		sw	-28(%GPR30),%GPR1	
1199	037f	00000000		nop	; Automatically Added by addNops.pl
1200	0380	00000000		nop	; Automatically Added by addNops.pl
1201	0381	00000000		nop	; Automatically Added by addNops.pl
1202	0382	00000000		nop	; Automatically added by fix-stall-insns.pl
1203	0383	8fc1ffe8		lw	%GPR1,-24(%GPR30)	
1204			
1205			
1206	0384	00000000		nop	; Automatically Added by addNops.pl
1207	0385	00000000		nop	; Automatically Added by addNops.pl
1208	0386	00000000		nop	; Automatically Added by addNops.pl
1209				; Automatically 12 NOPs removed by reduceNOPs.sh
1210	0387	00000000		nop	; Automatically added by fix-stall-insns.pl
1211	0388	ac410000		sw	0(%GPR2), %GPR1
1212			
1213	0389	00000000		nop	; Automatically Added by addNops.pl
1214	038a	00000000		nop	; Automatically Added by addNops.pl
1215	038b	00000000		nop	; Automatically Added by addNops.pl
1216	038c	00201020		add	%GPR2,%GPR1,%GPR0	
1217	038d	00000000		nop	; Automatically Added by addNops.pl
1218	038e	00000000		nop	; Automatically Added by addNops.pl
1219	038f	00000000		nop	; Automatically Added by addNops.pl
1220	0390	8fc1ffe4		lw	%GPR1,-28(%GPR30)	
1221	0391	00000000		nop	; Automatically Added by addNops.pl
1222	0392	00000000		nop	; Automatically Added by addNops.pl
1223	0393	00000000		nop	; Automatically Added by addNops.pl
1224				; Automatically 16 NOPs removed by reduceNOPs.sh
1225	0394	00220820		add	%GPR1,%GPR1,%GPR2	
1226	0395	00000000		nop	; Automatically Added by addNops.pl
1227	0396	00000000		nop	; Automatically Added by addNops.pl
1228	0397	00000000		nop	; Automatically Added by addNops.pl
1229	0398	8fc2ffec		lw	%GPR2,-20(%GPR30)	
1230	0399	00000000		nop	; Automatically Added by addNops.pl
1231	039a	00000000		nop	; Automatically Added by addNops.pl
1232	039b	00000000		nop	; Automatically Added by addNops.pl
1233				; Automatically 12 NOPs removed by reduceNOPs.sh
1234	039c	00000000		nop	; Automatically added by fix-stall-insns.pl
1235	039d	afc1ffe4		sw	-28(%GPR30),%GPR1	
1236	039e	00000000		nop	; Automatically Added by addNops.pl
1237	039f	00000000		nop	; Automatically Added by addNops.pl
1238	03a0	00000000		nop	; Automatically Added by addNops.pl
1239	03a1	3c010000		lhi	%GPR1,$0	
1240	03a2	00000000		nop	; Automatically Added by addNops.pl
1241	03a3	00000000		nop	; Automatically Added by addNops.pl
1242	03a4	00000000		nop	; Automatically Added by addNops.pl
1243				; Automatically 16 NOPs removed by reduceNOPs.sh
1244	03a5	34210052		ori	%GPR1,%GPR1,$82	
1245			
1246			
1247	03a6	00000000		nop	; Automatically Added by addNops.pl
1248	03a7	00000000		nop	; Automatically Added by addNops.pl
1249	03a8	00000000		nop	; Automatically Added by addNops.pl
1250				; Automatically 12 NOPs removed by reduceNOPs.sh
1251	03a9	ac410000		sw	0(%GPR2), %GPR1
1252			
1253	03aa	00000000		nop	; Automatically Added by addNops.pl
1254	03ab	00000000		nop	; Automatically Added by addNops.pl
1255	03ac	00000000		nop	; Automatically Added by addNops.pl
1256	03ad	00201020		add	%GPR2,%GPR1,%GPR0	
1257	03ae	00000000		nop	; Automatically Added by addNops.pl
1258	03af	00000000		nop	; Automatically Added by addNops.pl
1259	03b0	00000000		nop	; Automatically Added by addNops.pl
1260	03b1	8fc1ffe4		lw	%GPR1,-28(%GPR30)	
1261	03b2	00000000		nop	; Automatically Added by addNops.pl
1262	03b3	00000000		nop	; Automatically Added by addNops.pl
1263	03b4	00000000		nop	; Automatically Added by addNops.pl
1264				; Automatically 16 NOPs removed by reduceNOPs.sh
1265	03b5	00220820		add	%GPR1,%GPR1,%GPR2	
1266	03b6	00000000		nop	; Automatically Added by addNops.pl
1267	03b7	00000000		nop	; Automatically Added by addNops.pl
1268	03b8	00000000		nop	; Automatically Added by addNops.pl
1269	03b9	8fc2ffec		lw	%GPR2,-20(%GPR30)	
1270	03ba	00000000		nop	; Automatically Added by addNops.pl
1271	03bb	00000000		nop	; Automatically Added by addNops.pl
1272	03bc	00000000		nop	; Automatically Added by addNops.pl
1273				; Automatically 12 NOPs removed by reduceNOPs.sh
1274	03bd	00000000		nop	; Automatically added by fix-stall-insns.pl
1275	03be	afc1ffe4		sw	-28(%GPR30),%GPR1	
1276			
1277			
1278	03bf	00000000		nop	; Automatically Added by addNops.pl
1279	03c0	00000000		nop	; Automatically Added by addNops.pl
1280	03c1	00000000		nop	; Automatically Added by addNops.pl
1281				; Automatically 12 NOPs removed by reduceNOPs.sh
1282	03c2	00000000		nop	; Automatically added by fix-stall-insns.pl
1283	03c3	ac410000		sw	0(%GPR2), %GPR1
1284			
1285	03c4	00000000		nop	; Automatically Added by addNops.pl
1286	03c5	00000000		nop	; Automatically Added by addNops.pl
1287	03c6	00000000		nop	; Automatically Added by addNops.pl
1288				; Automatically 12 NOPs removed by reduceNOPs.sh
1289			L_lib_lcd_14:
1290	03c7	00000000		nop	; Automatically Added by addNops.pl
1291	03c8	00000000		nop	; Automatically Added by addNops.pl
1292	03c9	00000000		nop	; Automatically Added by addNops.pl
1293	03ca	8fc2ffe4		lw	%GPR2,-28(%GPR30)	
1294	03cb	00000000		nop	; Automatically Added by addNops.pl
1295	03cc	00000000		nop	; Automatically Added by addNops.pl
1296	03cd	00000000		nop	; Automatically Added by addNops.pl
1297				; Automatically 12 NOPs removed by reduceNOPs.sh
1298	03ce	3c01ffff		lhi	%GPR1,$65535	
1299	03cf	00000000		nop	; Automatically Added by addNops.pl
1300	03d0	00000000		nop	; Automatically Added by addNops.pl
1301	03d1	00000000		nop	; Automatically Added by addNops.pl
1302				; Automatically 16 NOPs removed by reduceNOPs.sh
1303	03d2	3421ffff		ori	%GPR1,%GPR1,$-1	
1304	03d3	00000000		nop	; Automatically Added by addNops.pl
1305	03d4	00000000		nop	; Automatically Added by addNops.pl
1306	03d5	00000000		nop	; Automatically Added by addNops.pl
1307				; Automatically 16 NOPs removed by reduceNOPs.sh
1308	03d6	0041d82e		seq	%GPR27,%GPR2,%GPR1	
1309	03d7	00000000		nop	; Automatically Added by addNops.pl
1310	03d8	00000000		nop	; Automatically Added by addNops.pl
1311	03d9	00000000		nop	; Automatically Added by addNops.pl
1312	03da	1760fe7a		bnez	%GPR27,L_lib_lcd_9	
1313	03db	00000000		nop	; Automatically Added by addNops.pl
1314	03dc	00000000		nop	; Automatically Added by addNops.pl
1315	03dd	00000000		nop	; Automatically Added by addNops.pl
1316				; Automatically 16 NOPs removed by reduceNOPs.sh
1317	03de	08000004		j	L_lib_lcd_15	
1318	03df	00000000		nop	; Automatically Added by addNops.pl
1319	03e0	00000000		nop	; Automatically Added by addNops.pl
1320	03e1	00000000		nop	; Automatically Added by addNops.pl
1321				; Automatically 16 NOPs removed by reduceNOPs.sh
1322			L_lib_lcd_15:
1323	03e2	00000000		nop	; Automatically Added by addNops.pl
1324	03e3	00000000		nop	; Automatically Added by addNops.pl
1325	03e4	00000000		nop	; Automatically Added by addNops.pl
1326	03e5	8fdcfff0		lw	%GPR28,-16(%GPR30)	
1327	03e6	00000000		nop	; Automatically Added by addNops.pl
1328	03e7	00000000		nop	; Automatically Added by addNops.pl
1329	03e8	00000000		nop	; Automatically Added by addNops.pl
1330				; Automatically 16 NOPs removed by reduceNOPs.sh
1331	03e9	08000004		j	L_lib_lcd_16	
1332	03ea	00000000		nop	; Automatically Added by addNops.pl
1333	03eb	00000000		nop	; Automatically Added by addNops.pl
1334	03ec	00000000		nop	; Automatically Added by addNops.pl
1335				; Automatically 16 NOPs removed by reduceNOPs.sh
1336			L_lib_lcd_16:
1337	03ed	00000000		nop	; Automatically Added by addNops.pl
1338	03ee	00000000		nop	; Automatically Added by addNops.pl
1339	03ef	00000000		nop	; Automatically Added by addNops.pl
1340				; Automatically 16 NOPs removed by reduceNOPs.sh
1341	03f0	8fdf0004		lw	%GPR31,4(%GPR30)	
1342	03f1	00000000		nop	; Automatically Added by addNops.pl
1343	03f2	00000000		nop	; Automatically Added by addNops.pl
1344	03f3	00000000		nop	; Automatically Added by addNops.pl
1345	03f4	27dd0004		addui	%GPR29,%GPR30,$4	
1346	03f5	00000000		nop	; Automatically Added by addNops.pl
1347	03f6	00000000		nop	; Automatically Added by addNops.pl
1348	03f7	00000000		nop	; Automatically Added by addNops.pl
1349	03f8	8fde0000		lw	%GPR30,0(%GPR30)	
1350	03f9	00000000		nop	; Automatically Added by addNops.pl
1351	03fa	00000000		nop	; Automatically Added by addNops.pl
1352	03fb	00000000		nop	; Automatically Added by addNops.pl
1353				; Automatically 8 NOPs removed by reduceNOPs.sh
1354	03fc	00000000		nop
1355	03fd	00000000		nop
1356	03fe	03e00008		jr	%GPR31	
1357	03ff	00000000		nop	; Automatically Added by addNops.pl
1358	0400	00000000		nop	; Automatically Added by addNops.pl
1359	0401	00000000		nop	; Automatically Added by addNops.pl
1360				; Automatically 16 NOPs removed by reduceNOPs.sh
1361			sendcommand:
1362			L_lib_lcd_17:
1363	0402	00000000		nop	; Automatically Added by addNops.pl
1364	0403	00000000		nop	; Automatically Added by addNops.pl
1365	0404	00000000		nop	; Automatically Added by addNops.pl
1366				; Automatically 16 NOPs removed by reduceNOPs.sh
1367	0405	afbefffc		sw	-4(%GPR29),%GPR30	
1368	0406	00000000		nop	; Automatically Added by addNops.pl
1369	0407	00000000		nop	; Automatically Added by addNops.pl
1370	0408	00000000		nop	; Automatically Added by addNops.pl
1371	0409	00000000		nop	; Automatically added by fix-stall-insns.pl
1372	040a	afbf0000		sw	0(%GPR29),%GPR31	
1373	040b	00000000		nop	; Automatically Added by addNops.pl
1374	040c	00000000		nop	; Automatically Added by addNops.pl
1375	040d	00000000		nop	; Automatically Added by addNops.pl
1376	040e	2fbe0004		subui	%GPR30,%GPR29,$4	
1377	040f	00000000		nop	; Automatically Added by addNops.pl
1378	0410	00000000		nop	; Automatically Added by addNops.pl
1379	0411	00000000		nop	; Automatically Added by addNops.pl
1380				; Automatically 4 NOPs removed by reduceNOPs.sh
1381	0412	2bbd0034		subi	%GPR29,%GPR29,$52	
1382	0413	00000000		nop	; Automatically Added by addNops.pl
1383	0414	00000000		nop	; Automatically Added by addNops.pl
1384	0415	00000000		nop	; Automatically Added by addNops.pl
1385				; Automatically 16 NOPs removed by reduceNOPs.sh
1386	0416	afc1fffc		sw	-4(%GPR30),%GPR1	
1387	0417	00000000		nop	; Automatically Added by addNops.pl
1388	0418	00000000		nop	; Automatically Added by addNops.pl
1389	0419	00000000		nop	; Automatically Added by addNops.pl
1390	041a	00000000		nop	; Automatically added by fix-stall-insns.pl
1391	041b	afc2fff8		sw	-8(%GPR30),%GPR2	
1392	041c	00000000		nop	; Automatically Added by addNops.pl
1393	041d	00000000		nop	; Automatically Added by addNops.pl
1394	041e	00000000		nop	; Automatically Added by addNops.pl
1395	041f	00000000		nop	; Automatically added by fix-stall-insns.pl
1396	0420	afc5fff4		sw	-12(%GPR30),%GPR5	
1397	0421	00000000		nop	; Automatically Added by addNops.pl
1398	0422	00000000		nop	; Automatically Added by addNops.pl
1399	0423	00000000		nop	; Automatically Added by addNops.pl
1400	0424	00000000		nop	; Automatically added by fix-stall-insns.pl
1401	0425	afc6fff0		sw	-16(%GPR30),%GPR6	
1402	0426	00000000		nop	; Automatically Added by addNops.pl
1403	0427	00000000		nop	; Automatically Added by addNops.pl
1404	0428	00000000		nop	; Automatically Added by addNops.pl
1405				; Automatically 12 NOPs removed by reduceNOPs.sh
1406	0429	00000000		nop	; Automatically added by fix-stall-insns.pl
1407	042a	afc3ffec		sw	-20(%GPR30),%GPR3	
1408	042b	00000000		nop	; Automatically Added by addNops.pl
1409	042c	00000000		nop	; Automatically Added by addNops.pl
1410	042d	00000000		nop	; Automatically Added by addNops.pl
1411	042e	00000000		nop	; Automatically added by fix-stall-insns.pl
1412	042f	afc4ffe8		sw	-24(%GPR30),%GPR4	
1413			
1414			
1415	0430	00000000		nop	; Automatically Added by addNops.pl
1416	0431	00000000		nop	; Automatically Added by addNops.pl
1417	0432	00000000		nop	; Automatically Added by addNops.pl
1418	0433	3c010200		lhi	%GPR1, $0x200
1419	0434	00000000		nop	; Automatically Added by addNops.pl
1420	0435	00000000		nop	; Automatically Added by addNops.pl
1421	0436	00000000		nop	; Automatically Added by addNops.pl
1422				; Automatically 9 NOPs removed by reduceNOPs.sh
1423			
1424	0437	00000000		nop	; Automatically Added by addNops.pl
1425	0438	00000000		nop	; Automatically Added by addNops.pl
1426	0439	00000000		nop	; Automatically Added by addNops.pl
1427	043a	afc1ffe4		sw	-28(%GPR30),%GPR1	
1428	043b	00000000		nop	; Automatically Added by addNops.pl
1429	043c	00000000		nop	; Automatically Added by addNops.pl
1430	043d	00000000		nop	; Automatically Added by addNops.pl
1431	043e	00e00820		add	%GPR1,%GPR7,%GPR0	
1432	043f	00000000		nop	; Automatically Added by addNops.pl
1433	0440	00000000		nop	; Automatically Added by addNops.pl
1434	0441	00000000		nop	; Automatically Added by addNops.pl
1435				; Automatically 16 NOPs removed by reduceNOPs.sh
1436	0442	40210001		slli	%GPR1,%GPR1,$1	
1437	0443	00000000		nop	; Automatically Added by addNops.pl
1438	0444	00000000		nop	; Automatically Added by addNops.pl
1439	0445	00000000		nop	; Automatically Added by addNops.pl
1440				; Automatically 16 NOPs removed by reduceNOPs.sh
1441	0446	afc1ffe0		sw	-32(%GPR30),%GPR1	
1442	0447	00000000		nop	; Automatically Added by addNops.pl
1443	0448	00000000		nop	; Automatically Added by addNops.pl
1444	0449	00000000		nop	; Automatically Added by addNops.pl
1445	044a	3c010000		lhi	%GPR1,$0	
1446	044b	00000000		nop	; Automatically Added by addNops.pl
1447	044c	00000000		nop	; Automatically Added by addNops.pl
1448	044d	00000000		nop	; Automatically Added by addNops.pl
1449				; Automatically 16 NOPs removed by reduceNOPs.sh
1450	044e	34210003		ori	%GPR1,%GPR1,$3	
1451	044f	00000000		nop	; Automatically Added by addNops.pl
1452	0450	00000000		nop	; Automatically Added by addNops.pl
1453	0451	00000000		nop	; Automatically Added by addNops.pl
1454				; Automatically 16 NOPs removed by reduceNOPs.sh
1455	0452	afc1ffdc		sw	-36(%GPR30),%GPR1	
1456	0453	00000000		nop	; Automatically Added by addNops.pl
1457	0454	00000000		nop	; Automatically Added by addNops.pl
1458	0455	00000000		nop	; Automatically Added by addNops.pl
1459				; Automatically 12 NOPs removed by reduceNOPs.sh
1460			L_lib_lcd_18:
1461	0456	00000000		nop	; Automatically Added by addNops.pl
1462	0457	00000000		nop	; Automatically Added by addNops.pl
1463	0458	00000000		nop	; Automatically Added by addNops.pl
1464	0459	8fc2fff0		lw	%GPR2,-16(%GPR30)	
1465	045a	00000000		nop	; Automatically Added by addNops.pl
1466	045b	00000000		nop	; Automatically Added by addNops.pl
1467	045c	00000000		nop	; Automatically Added by addNops.pl
1468	045d	00000000		nop	; Automatically added by fix-stall-insns.pl
1469	045e	8fc1fff4		lw	%GPR1,-12(%GPR30)	
1470	045f	00000000		nop	; Automatically Added by addNops.pl
1471	0460	00000000		nop	; Automatically Added by addNops.pl
1472	0461	00000000		nop	; Automatically Added by addNops.pl
1473				; Automatically 12 NOPs removed by reduceNOPs.sh
1474	0462	00401820		add	%GPR3,%GPR2,%GPR0	
1475	0463	00000000		nop	; Automatically Added by addNops.pl
1476	0464	00000000		nop	; Automatically Added by addNops.pl
1477	0465	00000000		nop	; Automatically Added by addNops.pl
1478	0466	afc2ffd8		sw	-40(%GPR30),%GPR2	
1479	0467	00000000		nop	; Automatically Added by addNops.pl
1480	0468	00000000		nop	; Automatically Added by addNops.pl
1481	0469	00000000		nop	; Automatically Added by addNops.pl
1482	046a	00000000		nop	; Automatically added by fix-stall-insns.pl
1483	046b	8fc2fff4		lw	%GPR2,-12(%GPR30)	
1484	046c	00000000		nop	; Automatically Added by addNops.pl
1485	046d	00000000		nop	; Automatically Added by addNops.pl
1486	046e	00000000		nop	; Automatically Added by addNops.pl
1487				; Automatically 16 NOPs removed by reduceNOPs.sh
1488	046f	00431020		add	%GPR2,%GPR2,%GPR3	
1489	0470	00000000		nop	; Automatically Added by addNops.pl
1490	0471	00000000		nop	; Automatically Added by addNops.pl
1491	0472	00000000		nop	; Automatically Added by addNops.pl
1492	0473	8fc3ffdc		lw	%GPR3,-36(%GPR30)	
1493	0474	00000000		nop	; Automatically Added by addNops.pl
1494	0475	00000000		nop	; Automatically Added by addNops.pl
1495	0476	00000000		nop	; Automatically Added by addNops.pl
1496				; Automatically 16 NOPs removed by reduceNOPs.sh
1497	0477	00431020		add	%GPR2,%GPR2,%GPR3	
1498	0478	00000000		nop	; Automatically Added by addNops.pl
1499	0479	00000000		nop	; Automatically Added by addNops.pl
1500	047a	00000000		nop	; Automatically Added by addNops.pl
1501	047b	8fc3ffe4		lw	%GPR3,-28(%GPR30)	
1502	047c	00000000		nop	; Automatically Added by addNops.pl
1503	047d	00000000		nop	; Automatically Added by addNops.pl
1504	047e	00000000		nop	; Automatically Added by addNops.pl
1505				; Automatically 12 NOPs removed by reduceNOPs.sh
1506	047f	20420003		addi	%GPR2,%GPR2,$3	
1507	0480	00000000		nop	; Automatically Added by addNops.pl
1508	0481	00000000		nop	; Automatically Added by addNops.pl
1509	0482	00000000		nop	; Automatically Added by addNops.pl
1510				; Automatically 17 NOPs removed by reduceNOPs.sh
1511			
1512			
1513	0483	00000000		nop	; Automatically Added by addNops.pl
1514	0484	00000000		nop	; Automatically Added by addNops.pl
1515	0485	00000000		nop	; Automatically Added by addNops.pl
1516				; Automatically 12 NOPs removed by reduceNOPs.sh
1517	0486	ac620000		sw	0(%GPR3), %GPR2
1518			
1519	0487	00000000		nop	; Automatically Added by addNops.pl
1520	0488	00000000		nop	; Automatically Added by addNops.pl
1521	0489	00000000		nop	; Automatically Added by addNops.pl
1522	048a	00000000		nop	; Automatically added by fix-stall-insns.pl
1523	048b	8fc2ffe0		lw	%GPR2,-32(%GPR30)	
1524	048c	00000000		nop	; Automatically Added by addNops.pl
1525	048d	00000000		nop	; Automatically Added by addNops.pl
1526	048e	00000000		nop	; Automatically Added by addNops.pl
1527				; Automatically 17 NOPs removed by reduceNOPs.sh
1528			
1529			
1530	048f	00000000		nop	; Automatically Added by addNops.pl
1531	0490	00000000		nop	; Automatically Added by addNops.pl
1532	0491	00000000		nop	; Automatically Added by addNops.pl
1533				; Automatically 12 NOPs removed by reduceNOPs.sh
1534	0492	ac620000		sw	0(%GPR3), %GPR2
1535			
1536	0493	00000000		nop	; Automatically Added by addNops.pl
1537	0494	00000000		nop	; Automatically Added by addNops.pl
1538	0495	00000000		nop	; Automatically Added by addNops.pl
1539				; Automatically 20 NOPs removed by reduceNOPs.sh
1540	0496	3c020000		lhi	%GPR2,$0	
1541	0497	00000000		nop	; Automatically Added by addNops.pl
1542	0498	00000000		nop	; Automatically Added by addNops.pl
1543	0499	00000000		nop	; Automatically Added by addNops.pl
1544				; Automatically 16 NOPs removed by reduceNOPs.sh
1545	049a	34420011		ori	%GPR2,%GPR2,$17	
1546	049b	00000000		nop	; Automatically Added by addNops.pl
1547	049c	00000000		nop	; Automatically Added by addNops.pl
1548	049d	00000000		nop	; Automatically Added by addNops.pl
1549				; Automatically 17 NOPs removed by reduceNOPs.sh
1550			
1551			
1552	049e	00000000		nop	; Automatically Added by addNops.pl
1553	049f	00000000		nop	; Automatically Added by addNops.pl
1554	04a0	00000000		nop	; Automatically Added by addNops.pl
1555				; Automatically 12 NOPs removed by reduceNOPs.sh
1556	04a1	ac620000		sw	0(%GPR3), %GPR2
1557			
1558	04a2	00000000		nop	; Automatically Added by addNops.pl
1559	04a3	00000000		nop	; Automatically Added by addNops.pl
1560	04a4	00000000		nop	; Automatically Added by addNops.pl
1561	04a5	00000000		nop	; Automatically added by fix-stall-insns.pl
1562	04a6	8fc3fff0		lw	%GPR3,-16(%GPR30)	
1563	04a7	00000000		nop	; Automatically Added by addNops.pl
1564	04a8	00000000		nop	; Automatically Added by addNops.pl
1565	04a9	00000000		nop	; Automatically Added by addNops.pl
1566	04aa	00000000		nop	; Automatically added by fix-stall-insns.pl
1567	04ab	8fc2fff4		lw	%GPR2,-12(%GPR30)	
1568	04ac	00000000		nop	; Automatically Added by addNops.pl
1569	04ad	00000000		nop	; Automatically Added by addNops.pl
1570	04ae	00000000		nop	; Automatically Added by addNops.pl
1571				; Automatically 16 NOPs removed by reduceNOPs.sh
1572	04af	00431020		add	%GPR2,%GPR2,%GPR3	
1573	04b0	00000000		nop	; Automatically Added by addNops.pl
1574	04b1	00000000		nop	; Automatically Added by addNops.pl
1575	04b2	00000000		nop	; Automatically Added by addNops.pl
1576	04b3	8fc3ffdc		lw	%GPR3,-36(%GPR30)	
1577	04b4	00000000		nop	; Automatically Added by addNops.pl
1578	04b5	00000000		nop	; Automatically Added by addNops.pl
1579	04b6	00000000		nop	; Automatically Added by addNops.pl
1580	04b7	3c040000		lhi	%GPR4,$0	
1581	04b8	00000000		nop	; Automatically Added by addNops.pl
1582	04b9	00000000		nop	; Automatically Added by addNops.pl
1583	04ba	00000000		nop	; Automatically Added by addNops.pl
1584				; Automatically 16 NOPs removed by reduceNOPs.sh
1585	04bb	34840011		ori	%GPR4,%GPR4,$17	
1586	04bc	00000000		nop	; Automatically Added by addNops.pl
1587	04bd	00000000		nop	; Automatically Added by addNops.pl
1588	04be	00000000		nop	; Automatically Added by addNops.pl
1589				; Automatically 12 NOPs removed by reduceNOPs.sh
1590	04bf	00431020		add	%GPR2,%GPR2,%GPR3	
1591	04c0	00000000		nop	; Automatically Added by addNops.pl
1592	04c1	00000000		nop	; Automatically Added by addNops.pl
1593	04c2	00000000		nop	; Automatically Added by addNops.pl
1594	04c3	afc4ffd4		sw	-44(%GPR30),%GPR4	
1595	04c4	00000000		nop	; Automatically Added by addNops.pl
1596	04c5	00000000		nop	; Automatically Added by addNops.pl
1597	04c6	00000000		nop	; Automatically Added by addNops.pl
1598	04c7	00000000		nop	; Automatically added by fix-stall-insns.pl
1599	04c8	8fc4ffe4		lw	%GPR4,-28(%GPR30)	
1600	04c9	00000000		nop	; Automatically Added by addNops.pl
1601	04ca	00000000		nop	; Automatically Added by addNops.pl
1602	04cb	00000000		nop	; Automatically Added by addNops.pl
1603				; Automatically 8 NOPs removed by reduceNOPs.sh
1604	04cc	00401820		add	%GPR3,%GPR2,%GPR0	
1605	04cd	00000000		nop	; Automatically Added by addNops.pl
1606	04ce	00000000		nop	; Automatically Added by addNops.pl
1607	04cf	00000000		nop	; Automatically Added by addNops.pl
1608				; Automatically 17 NOPs removed by reduceNOPs.sh
1609			
1610			
1611	04d0	00000000		nop	; Automatically Added by addNops.pl
1612	04d1	00000000		nop	; Automatically Added by addNops.pl
1613	04d2	00000000		nop	; Automatically Added by addNops.pl
1614				; Automatically 12 NOPs removed by reduceNOPs.sh
1615	04d3	ac830000		sw	0(%GPR4), %GPR3
1616			
1617	04d4	00000000		nop	; Automatically Added by addNops.pl
1618	04d5	00000000		nop	; Automatically Added by addNops.pl
1619	04d6	00000000		nop	; Automatically Added by addNops.pl
1620	04d7	00000000		nop	; Automatically added by fix-stall-insns.pl
1621	04d8	8fc3ffd4		lw	%GPR3,-44(%GPR30)	
1622	04d9	00000000		nop	; Automatically Added by addNops.pl
1623	04da	00000000		nop	; Automatically Added by addNops.pl
1624	04db	00000000		nop	; Automatically Added by addNops.pl
1625				; Automatically 16 NOPs removed by reduceNOPs.sh
1626	04dc	00621020		add	%GPR2,%GPR3,%GPR2	
1627	04dd	00000000		nop	; Automatically Added by addNops.pl
1628	04de	00000000		nop	; Automatically Added by addNops.pl
1629	04df	00000000		nop	; Automatically Added by addNops.pl
1630				; Automatically 16 NOPs removed by reduceNOPs.sh
1631	04e0	afc2ffd4		sw	-44(%GPR30),%GPR2	
1632	04e1	00000000		nop	; Automatically Added by addNops.pl
1633	04e2	00000000		nop	; Automatically Added by addNops.pl
1634	04e3	00000000		nop	; Automatically Added by addNops.pl
1635	04e4	3c020000		lhi	%GPR2,$0	
1636	04e5	00000000		nop	; Automatically Added by addNops.pl
1637	04e6	00000000		nop	; Automatically Added by addNops.pl
1638	04e7	00000000		nop	; Automatically Added by addNops.pl
1639				; Automatically 16 NOPs removed by reduceNOPs.sh
1640	04e8	3442001b		ori	%GPR2,%GPR2,$27	
1641	04e9	00000000		nop	; Automatically Added by addNops.pl
1642	04ea	00000000		nop	; Automatically Added by addNops.pl
1643	04eb	00000000		nop	; Automatically Added by addNops.pl
1644				; Automatically 16 NOPs removed by reduceNOPs.sh
1645	04ec	00401820		add	%GPR3,%GPR2,%GPR0	
1646	04ed	00000000		nop	; Automatically Added by addNops.pl
1647	04ee	00000000		nop	; Automatically Added by addNops.pl
1648	04ef	00000000		nop	; Automatically Added by addNops.pl
1649				; Automatically 17 NOPs removed by reduceNOPs.sh
1650			
1651			
1652	04f0	00000000		nop	; Automatically Added by addNops.pl
1653	04f1	00000000		nop	; Automatically Added by addNops.pl
1654	04f2	00000000		nop	; Automatically Added by addNops.pl
1655				; Automatically 12 NOPs removed by reduceNOPs.sh
1656	04f3	ac830000		sw	0(%GPR4), %GPR3
1657			
1658	04f4	00000000		nop	; Automatically Added by addNops.pl
1659	04f5	00000000		nop	; Automatically Added by addNops.pl
1660	04f6	00000000		nop	; Automatically Added by addNops.pl
1661	04f7	00000000		nop	; Automatically added by fix-stall-insns.pl
1662	04f8	8fc3ffd4		lw	%GPR3,-44(%GPR30)	
1663	04f9	00000000		nop	; Automatically Added by addNops.pl
1664	04fa	00000000		nop	; Automatically Added by addNops.pl
1665	04fb	00000000		nop	; Automatically Added by addNops.pl
1666				; Automatically 16 NOPs removed by reduceNOPs.sh
1667	04fc	00621020		add	%GPR2,%GPR3,%GPR2	
1668	04fd	00000000		nop	; Automatically Added by addNops.pl
1669	04fe	00000000		nop	; Automatically Added by addNops.pl
1670	04ff	00000000		nop	; Automatically Added by addNops.pl
1671				; Automatically 16 NOPs removed by reduceNOPs.sh
1672	0500	afc2ffd4		sw	-44(%GPR30),%GPR2	
1673	0501	00000000		nop	; Automatically Added by addNops.pl
1674	0502	00000000		nop	; Automatically Added by addNops.pl
1675	0503	00000000		nop	; Automatically Added by addNops.pl
1676	0504	00000000		nop	; Automatically added by fix-stall-insns.pl
1677	0505	8fc2fffc		lw	%GPR2,-4(%GPR30)	
1678	0506	00000000		nop	; Automatically Added by addNops.pl
1679	0507	00000000		nop	; Automatically Added by addNops.pl
1680	0508	00000000		nop	; Automatically Added by addNops.pl
1681				; Automatically 32 NOPs removed by reduceNOPs.sh
1682	0509	00401820		add	%GPR3,%GPR2,%GPR0	
1683	050a	00000000		nop	; Automatically Added by addNops.pl
1684	050b	00000000		nop	; Automatically Added by addNops.pl
1685	050c	00000000		nop	; Automatically Added by addNops.pl
1686				; Automatically 17 NOPs removed by reduceNOPs.sh
1687			
1688			
1689	050d	00000000		nop	; Automatically Added by addNops.pl
1690	050e	00000000		nop	; Automatically Added by addNops.pl
1691	050f	00000000		nop	; Automatically Added by addNops.pl
1692				; Automatically 12 NOPs removed by reduceNOPs.sh
1693	0510	ac830000		sw	0(%GPR4), %GPR3
1694			
1695	0511	00000000		nop	; Automatically Added by addNops.pl
1696	0512	00000000		nop	; Automatically Added by addNops.pl
1697	0513	00000000		nop	; Automatically Added by addNops.pl
1698	0514	00000000		nop	; Automatically added by fix-stall-insns.pl
1699	0515	8fc3ffd4		lw	%GPR3,-44(%GPR30)	
1700	0516	00000000		nop	; Automatically Added by addNops.pl
1701	0517	00000000		nop	; Automatically Added by addNops.pl
1702	0518	00000000		nop	; Automatically Added by addNops.pl
1703				; Automatically 16 NOPs removed by reduceNOPs.sh
1704	0519	00621020		add	%GPR2,%GPR3,%GPR2	
1705	051a	00000000		nop	; Automatically Added by addNops.pl
1706	051b	00000000		nop	; Automatically Added by addNops.pl
1707	051c	00000000		nop	; Automatically Added by addNops.pl
1708				; Automatically 16 NOPs removed by reduceNOPs.sh
1709	051d	afc2ffd4		sw	-44(%GPR30),%GPR2	
1710	051e	00000000		nop	; Automatically Added by addNops.pl
1711	051f	00000000		nop	; Automatically Added by addNops.pl
1712	0520	00000000		nop	; Automatically Added by addNops.pl
1713	0521	00000000		nop	; Automatically added by fix-stall-insns.pl
1714	0522	8fc2fff8		lw	%GPR2,-8(%GPR30)	
1715	0523	00000000		nop	; Automatically Added by addNops.pl
1716	0524	00000000		nop	; Automatically Added by addNops.pl
1717	0525	00000000		nop	; Automatically Added by addNops.pl
1718				; Automatically 32 NOPs removed by reduceNOPs.sh
1719	0526	00401820		add	%GPR3,%GPR2,%GPR0	
1720	0527	00000000		nop	; Automatically Added by addNops.pl
1721	0528	00000000		nop	; Automatically Added by addNops.pl
1722	0529	00000000		nop	; Automatically Added by addNops.pl
1723				; Automatically 17 NOPs removed by reduceNOPs.sh
1724			
1725			
1726	052a	00000000		nop	; Automatically Added by addNops.pl
1727	052b	00000000		nop	; Automatically Added by addNops.pl
1728	052c	00000000		nop	; Automatically Added by addNops.pl
1729				; Automatically 12 NOPs removed by reduceNOPs.sh
1730	052d	ac830000		sw	0(%GPR4), %GPR3
1731			
1732	052e	00000000		nop	; Automatically Added by addNops.pl
1733	052f	00000000		nop	; Automatically Added by addNops.pl
1734	0530	00000000		nop	; Automatically Added by addNops.pl
1735	0531	00000000		nop	; Automatically added by fix-stall-insns.pl
1736	0532	8fc3ffd4		lw	%GPR3,-44(%GPR30)	
1737	0533	00000000		nop	; Automatically Added by addNops.pl
1738	0534	00000000		nop	; Automatically Added by addNops.pl
1739	0535	00000000		nop	; Automatically Added by addNops.pl
1740				; Automatically 16 NOPs removed by reduceNOPs.sh
1741	0536	00621020		add	%GPR2,%GPR3,%GPR2	
1742	0537	00000000		nop	; Automatically Added by addNops.pl
1743	0538	00000000		nop	; Automatically Added by addNops.pl
1744	0539	00000000		nop	; Automatically Added by addNops.pl
1745				; Automatically 16 NOPs removed by reduceNOPs.sh
1746	053a	afc2ffd4		sw	-44(%GPR30),%GPR2	
1747	053b	00000000		nop	; Automatically Added by addNops.pl
1748	053c	00000000		nop	; Automatically Added by addNops.pl
1749	053d	00000000		nop	; Automatically Added by addNops.pl
1750				; Automatically 12 NOPs removed by reduceNOPs.sh
1751			L_lib_lcd_19:
1752	053e	00000000		nop	; Automatically Added by addNops.pl
1753	053f	00000000		nop	; Automatically Added by addNops.pl
1754	0540	00000000		nop	; Automatically Added by addNops.pl
1755	0541	00201020		add	%GPR2,%GPR1,%GPR0	
1756	0542	00000000		nop	; Automatically Added by addNops.pl
1757	0543	00000000		nop	; Automatically Added by addNops.pl
1758	0544	00000000		nop	; Automatically Added by addNops.pl
1759	0545	28210001		subi	%GPR1,%GPR1,$1	
1760	0546	00000000		nop	; Automatically Added by addNops.pl
1761	0547	00000000		nop	; Automatically Added by addNops.pl
1762	0548	00000000		nop	; Automatically Added by addNops.pl
1763				; Automatically 8 NOPs removed by reduceNOPs.sh
1764	0549	3c030000		lhi	%GPR3,$0	
1765	054a	00000000		nop	; Automatically Added by addNops.pl
1766	054b	00000000		nop	; Automatically Added by addNops.pl
1767	054c	00000000		nop	; Automatically Added by addNops.pl
1768				; Automatically 16 NOPs removed by reduceNOPs.sh
1769	054d	34630000		ori	%GPR3,%GPR3,$0	
1770	054e	00000000		nop	; Automatically Added by addNops.pl
1771	054f	00000000		nop	; Automatically Added by addNops.pl
1772	0550	00000000		nop	; Automatically Added by addNops.pl
1773				; Automatically 16 NOPs removed by reduceNOPs.sh
1774	0551	0043d82f		sne	%GPR27,%GPR2,%GPR3	
1775	0552	00000000		nop	; Automatically Added by addNops.pl
1776	0553	00000000		nop	; Automatically Added by addNops.pl
1777	0554	00000000		nop	; Automatically Added by addNops.pl
1778	0555	17600008		bnez	%GPR27,L_lib_lcd_20	
1779	0556	00000000		nop	; Automatically Added by addNops.pl
1780	0557	00000000		nop	; Automatically Added by addNops.pl
1781	0558	00000000		nop	; Automatically Added by addNops.pl
1782				; Automatically 16 NOPs removed by reduceNOPs.sh
1783	0559	08000042		j	L_lib_lcd_21	
1784	055a	00000000		nop	; Automatically Added by addNops.pl
1785	055b	00000000		nop	; Automatically Added by addNops.pl
1786	055c	00000000		nop	; Automatically Added by addNops.pl
1787				; Automatically 16 NOPs removed by reduceNOPs.sh
1788			L_lib_lcd_20:
1789	055d	00000000		nop	; Automatically Added by addNops.pl
1790	055e	00000000		nop	; Automatically Added by addNops.pl
1791	055f	00000000		nop	; Automatically Added by addNops.pl
1792	0560	8fc2ffec		lw	%GPR2,-20(%GPR30)	
1793	0561	00000000		nop	; Automatically Added by addNops.pl
1794	0562	00000000		nop	; Automatically Added by addNops.pl
1795	0563	00000000		nop	; Automatically Added by addNops.pl
1796				; Automatically 16 NOPs removed by reduceNOPs.sh
1797	0564	00402820		add	%GPR5,%GPR2,%GPR0	
1798	0565	00000000		nop	; Automatically Added by addNops.pl
1799	0566	00000000		nop	; Automatically Added by addNops.pl
1800	0567	00000000		nop	; Automatically Added by addNops.pl
1801	0568	3c040000		lhi	%GPR4,$0	
1802	0569	00000000		nop	; Automatically Added by addNops.pl
1803	056a	00000000		nop	; Automatically Added by addNops.pl
1804	056b	00000000		nop	; Automatically Added by addNops.pl
1805				; Automatically 16 NOPs removed by reduceNOPs.sh
1806	056c	34840004		ori	%GPR4,%GPR4,$4	
1807	056d	00000000		nop	; Automatically Added by addNops.pl
1808	056e	00000000		nop	; Automatically Added by addNops.pl
1809	056f	00000000		nop	; Automatically Added by addNops.pl
1810	0570	8c420000		lw	%GPR2,0(%GPR2)	
1811	0571	00000000		nop	; Automatically Added by addNops.pl
1812	0572	00000000		nop	; Automatically Added by addNops.pl
1813	0573	00000000		nop	; Automatically Added by addNops.pl
1814				; Automatically 12 NOPs removed by reduceNOPs.sh
1815	0574	00a42020		add	%GPR4,%GPR5,%GPR4	
1816	0575	00000000		nop	; Automatically Added by addNops.pl
1817	0576	00000000		nop	; Automatically Added by addNops.pl
1818	0577	00000000		nop	; Automatically Added by addNops.pl
1819	0578	00401820		add	%GPR3,%GPR2,%GPR0	
1820	0579	00000000		nop	; Automatically Added by addNops.pl
1821	057a	00000000		nop	; Automatically Added by addNops.pl
1822	057b	00000000		nop	; Automatically Added by addNops.pl
1823				; Automatically 12 NOPs removed by reduceNOPs.sh
1824	057c	afc4ffec		sw	-20(%GPR30),%GPR4	
1825	057d	00000000		nop	; Automatically Added by addNops.pl
1826	057e	00000000		nop	; Automatically Added by addNops.pl
1827	057f	00000000		nop	; Automatically Added by addNops.pl
1828				; Automatically 8 NOPs removed by reduceNOPs.sh
1829	0580	00000000		nop	; Automatically added by fix-stall-insns.pl
1830	0581	8fc4ffe4		lw	%GPR4,-28(%GPR30)	
1831			
1832			
1833	0582	00000000		nop	; Automatically Added by addNops.pl
1834	0583	00000000		nop	; Automatically Added by addNops.pl
1835	0584	00000000		nop	; Automatically Added by addNops.pl
1836				; Automatically 12 NOPs removed by reduceNOPs.sh
1837	0585	00000000		nop	; Automatically added by fix-stall-insns.pl
1838	0586	ac830000		sw	0(%GPR4), %GPR3
1839			
1840	0587	00000000		nop	; Automatically Added by addNops.pl
1841	0588	00000000		nop	; Automatically Added by addNops.pl
1842	0589	00000000		nop	; Automatically Added by addNops.pl
1843	058a	00000000		nop	; Automatically added by fix-stall-insns.pl
1844	058b	8fc3ffd4		lw	%GPR3,-44(%GPR30)	
1845	058c	00000000		nop	; Automatically Added by addNops.pl
1846	058d	00000000		nop	; Automatically Added by addNops.pl
1847	058e	00000000		nop	; Automatically Added by addNops.pl
1848				; Automatically 16 NOPs removed by reduceNOPs.sh
1849	058f	00621020		add	%GPR2,%GPR3,%GPR2	
1850	0590	00000000		nop	; Automatically Added by addNops.pl
1851	0591	00000000		nop	; Automatically Added by addNops.pl
1852	0592	00000000		nop	; Automatically Added by addNops.pl
1853				; Automatically 16 NOPs removed by reduceNOPs.sh
1854	0593	afc2ffd4		sw	-44(%GPR30),%GPR2	
1855	0594	00000000		nop	; Automatically Added by addNops.pl
1856	0595	00000000		nop	; Automatically Added by addNops.pl
1857	0596	00000000		nop	; Automatically Added by addNops.pl
1858	0597	0bffffa7		j	L_lib_lcd_19	
1859	0598	00000000		nop	; Automatically Added by addNops.pl
1860	0599	00000000		nop	; Automatically Added by addNops.pl
1861	059a	00000000		nop	; Automatically Added by addNops.pl
1862				; Automatically 12 NOPs removed by reduceNOPs.sh
1863			L_lib_lcd_21:
1864	059b	00000000		nop	; Automatically Added by addNops.pl
1865	059c	00000000		nop	; Automatically Added by addNops.pl
1866	059d	00000000		nop	; Automatically Added by addNops.pl
1867	059e	8fc2ffd8		lw	%GPR2,-40(%GPR30)	
1868	059f	00000000		nop	; Automatically Added by addNops.pl
1869	05a0	00000000		nop	; Automatically Added by addNops.pl
1870	05a1	00000000		nop	; Automatically Added by addNops.pl
1871				; Automatically 16 NOPs removed by reduceNOPs.sh
1872	05a2	00400820		add	%GPR1,%GPR2,%GPR0	
1873	05a3	00000000		nop	; Automatically Added by addNops.pl
1874	05a4	00000000		nop	; Automatically Added by addNops.pl
1875	05a5	00000000		nop	; Automatically Added by addNops.pl
1876				; Automatically 16 NOPs removed by reduceNOPs.sh
1877	05a6	28210001		subi	%GPR1,%GPR1,$1	
1878	05a7	00000000		nop	; Automatically Added by addNops.pl
1879	05a8	00000000		nop	; Automatically Added by addNops.pl
1880	05a9	00000000		nop	; Automatically Added by addNops.pl
1881				; Automatically 16 NOPs removed by reduceNOPs.sh
1882	05aa	afc1ffd8		sw	-40(%GPR30),%GPR1	
1883	05ab	00000000		nop	; Automatically Added by addNops.pl
1884	05ac	00000000		nop	; Automatically Added by addNops.pl
1885	05ad	00000000		nop	; Automatically Added by addNops.pl
1886	05ae	3c010000		lhi	%GPR1,$0	
1887	05af	00000000		nop	; Automatically Added by addNops.pl
1888	05b0	00000000		nop	; Automatically Added by addNops.pl
1889	05b1	00000000		nop	; Automatically Added by addNops.pl
1890				; Automatically 16 NOPs removed by reduceNOPs.sh
1891	05b2	34210000		ori	%GPR1,%GPR1,$0	
1892	05b3	00000000		nop	; Automatically Added by addNops.pl
1893	05b4	00000000		nop	; Automatically Added by addNops.pl
1894	05b5	00000000		nop	; Automatically Added by addNops.pl
1895				; Automatically 16 NOPs removed by reduceNOPs.sh
1896	05b6	0041d82f		sne	%GPR27,%GPR2,%GPR1	
1897	05b7	00000000		nop	; Automatically Added by addNops.pl
1898	05b8	00000000		nop	; Automatically Added by addNops.pl
1899	05b9	00000000		nop	; Automatically Added by addNops.pl
1900	05ba	17600008		bnez	%GPR27,L_lib_lcd_22	
1901	05bb	00000000		nop	; Automatically Added by addNops.pl
1902	05bc	00000000		nop	; Automatically Added by addNops.pl
1903	05bd	00000000		nop	; Automatically Added by addNops.pl
1904				; Automatically 16 NOPs removed by reduceNOPs.sh
1905	05be	0800004f		j	L_lib_lcd_23	
1906	05bf	00000000		nop	; Automatically Added by addNops.pl
1907	05c0	00000000		nop	; Automatically Added by addNops.pl
1908	05c1	00000000		nop	; Automatically Added by addNops.pl
1909				; Automatically 16 NOPs removed by reduceNOPs.sh
1910			L_lib_lcd_22:
1911	05c2	00000000		nop	; Automatically Added by addNops.pl
1912	05c3	00000000		nop	; Automatically Added by addNops.pl
1913	05c4	00000000		nop	; Automatically Added by addNops.pl
1914	05c5	8fc1ffe8		lw	%GPR1,-24(%GPR30)	
1915	05c6	00000000		nop	; Automatically Added by addNops.pl
1916	05c7	00000000		nop	; Automatically Added by addNops.pl
1917	05c8	00000000		nop	; Automatically Added by addNops.pl
1918				; Automatically 16 NOPs removed by reduceNOPs.sh
1919	05c9	00201820		add	%GPR3,%GPR1,%GPR0	
1920	05ca	00000000		nop	; Automatically Added by addNops.pl
1921	05cb	00000000		nop	; Automatically Added by addNops.pl
1922	05cc	00000000		nop	; Automatically Added by addNops.pl
1923	05cd	3c020000		lhi	%GPR2,$0	
1924	05ce	00000000		nop	; Automatically Added by addNops.pl
1925	05cf	00000000		nop	; Automatically Added by addNops.pl
1926	05d0	00000000		nop	; Automatically Added by addNops.pl
1927				; Automatically 16 NOPs removed by reduceNOPs.sh
1928	05d1	34420001		ori	%GPR2,%GPR2,$1	
1929	05d2	00000000		nop	; Automatically Added by addNops.pl
1930	05d3	00000000		nop	; Automatically Added by addNops.pl
1931	05d4	00000000		nop	; Automatically Added by addNops.pl
1932				; Automatically 16 NOPs removed by reduceNOPs.sh
1933	05d5	00621020		add	%GPR2,%GPR3,%GPR2	
1934	05d6	00000000		nop	; Automatically Added by addNops.pl
1935	05d7	00000000		nop	; Automatically Added by addNops.pl
1936	05d8	00000000		nop	; Automatically Added by addNops.pl
1937				; Automatically 16 NOPs removed by reduceNOPs.sh
1938	05d9	afc2ffe8		sw	-24(%GPR30),%GPR2	
1939	05da	00000000		nop	; Automatically Added by addNops.pl
1940	05db	00000000		nop	; Automatically Added by addNops.pl
1941	05dc	00000000		nop	; Automatically Added by addNops.pl
1942				; Automatically 16 NOPs removed by reduceNOPs.sh
1943	05dd	2bbd0008		subi	%GPR29,%GPR29,$8	
1944	05de	00000000		nop	; Automatically Added by addNops.pl
1945	05df	00000000		nop	; Automatically Added by addNops.pl
1946	05e0	00000000		nop	; Automatically Added by addNops.pl
1947				; Automatically 16 NOPs removed by reduceNOPs.sh
1948	05e1	0c000c1b		jal	loadByteUnsigned	
1949	05e2	00000000		nop	; Automatically Added by addNops.pl
1950	05e3	00000000		nop	; Automatically Added by addNops.pl
1951	05e4	00000000		nop	; Automatically Added by addNops.pl
1952				; Automatically 16 NOPs removed by reduceNOPs.sh
1953	05e5	23bd0008		addi	%GPR29,%GPR29,$8	
1954	05e6	00000000		nop	; Automatically Added by addNops.pl
1955	05e7	00000000		nop	; Automatically Added by addNops.pl
1956	05e8	00000000		nop	; Automatically Added by addNops.pl
1957				; Automatically 16 NOPs removed by reduceNOPs.sh
1958	05e9	03801020		add	%GPR2,%GPR28,%GPR0	
1959	05ea	00000000		nop	; Automatically Added by addNops.pl
1960	05eb	00000000		nop	; Automatically Added by addNops.pl
1961	05ec	00000000		nop	; Automatically Added by addNops.pl
1962	05ed	8fc3ffe4		lw	%GPR3,-28(%GPR30)	
1963	05ee	00000000		nop	; Automatically Added by addNops.pl
1964	05ef	00000000		nop	; Automatically Added by addNops.pl
1965	05f0	00000000		nop	; Automatically Added by addNops.pl
1966				; Automatically 12 NOPs removed by reduceNOPs.sh
1967	05f1	00400820		add	%GPR1,%GPR2,%GPR0	
1968	05f2	00000000		nop	; Automatically Added by addNops.pl
1969	05f3	00000000		nop	; Automatically Added by addNops.pl
1970	05f4	00000000		nop	; Automatically Added by addNops.pl
1971				; Automatically 17 NOPs removed by reduceNOPs.sh
1972			
1973			
1974	05f5	00000000		nop	; Automatically Added by addNops.pl
1975	05f6	00000000		nop	; Automatically Added by addNops.pl
1976	05f7	00000000		nop	; Automatically Added by addNops.pl
1977				; Automatically 12 NOPs removed by reduceNOPs.sh
1978	05f8	ac610000		sw	0(%GPR3), %GPR1
1979			
1980	05f9	00000000		nop	; Automatically Added by addNops.pl
1981	05fa	00000000		nop	; Automatically Added by addNops.pl
1982	05fb	00000000		nop	; Automatically Added by addNops.pl
1983	05fc	00000000		nop	; Automatically added by fix-stall-insns.pl
1984	05fd	8fc1ffd4		lw	%GPR1,-44(%GPR30)	
1985	05fe	00000000		nop	; Automatically Added by addNops.pl
1986	05ff	00000000		nop	; Automatically Added by addNops.pl
1987	0600	00000000		nop	; Automatically Added by addNops.pl
1988				; Automatically 16 NOPs removed by reduceNOPs.sh
1989	0601	00220820		add	%GPR1,%GPR1,%GPR2	
1990	0602	00000000		nop	; Automatically Added by addNops.pl
1991	0603	00000000		nop	; Automatically Added by addNops.pl
1992	0604	00000000		nop	; Automatically Added by addNops.pl
1993				; Automatically 16 NOPs removed by reduceNOPs.sh
1994	0605	afc1ffd4		sw	-44(%GPR30),%GPR1	
1995	0606	00000000		nop	; Automatically Added by addNops.pl
1996	0607	00000000		nop	; Automatically Added by addNops.pl
1997	0608	00000000		nop	; Automatically Added by addNops.pl
1998	0609	0bffff92		j	L_lib_lcd_21	
1999	060a	00000000		nop	; Automatically Added by addNops.pl
2000	060b	00000000		nop	; Automatically Added by addNops.pl
2001	060c	00000000		nop	; Automatically Added by addNops.pl
2002				; Automatically 12 NOPs removed by reduceNOPs.sh
2003			L_lib_lcd_23:
2004	060d	00000000		nop	; Automatically Added by addNops.pl
2005	060e	00000000		nop	; Automatically Added by addNops.pl
2006	060f	00000000		nop	; Automatically Added by addNops.pl
2007	0610	8fc2ffd4		lw	%GPR2,-44(%GPR30)	
2008	0611	00000000		nop	; Automatically Added by addNops.pl
2009	0612	00000000		nop	; Automatically Added by addNops.pl
2010	0613	00000000		nop	; Automatically Added by addNops.pl
2011	0614	00000000		nop	; Automatically added by fix-stall-insns.pl
2012	0615	8fc1ffe4		lw	%GPR1,-28(%GPR30)	
2013	0616	00000000		nop	; Automatically Added by addNops.pl
2014	0617	00000000		nop	; Automatically Added by addNops.pl
2015	0618	00000000		nop	; Automatically Added by addNops.pl
2016				; Automatically 13 NOPs removed by reduceNOPs.sh
2017			
2018			
2019	0619	00000000		nop	; Automatically Added by addNops.pl
2020	061a	00000000		nop	; Automatically Added by addNops.pl
2021	061b	00000000		nop	; Automatically Added by addNops.pl
2022				; Automatically 12 NOPs removed by reduceNOPs.sh
2023	061c	ac220000		sw	0(%GPR1), %GPR2
2024			
2025	061d	00000000		nop	; Automatically Added by addNops.pl
2026	061e	00000000		nop	; Automatically Added by addNops.pl
2027	061f	00000000		nop	; Automatically Added by addNops.pl
2028	0620	00000000		nop	; Automatically added by fix-stall-insns.pl
2029	0621	8fc1ffe0		lw	%GPR1,-32(%GPR30)	
2030	0622	00000000		nop	; Automatically Added by addNops.pl
2031	0623	00000000		nop	; Automatically Added by addNops.pl
2032	0624	00000000		nop	; Automatically Added by addNops.pl
2033				; Automatically 16 NOPs removed by reduceNOPs.sh
2034	0625	2bbd0008		subi	%GPR29,%GPR29,$8	
2035	0626	00000000		nop	; Automatically Added by addNops.pl
2036	0627	00000000		nop	; Automatically Added by addNops.pl
2037	0628	00000000		nop	; Automatically Added by addNops.pl
2038				; Automatically 16 NOPs removed by reduceNOPs.sh
2039	0629	0c000b43		jal	getack	
2040	062a	00000000		nop	; Automatically Added by addNops.pl
2041	062b	00000000		nop	; Automatically Added by addNops.pl
2042	062c	00000000		nop	; Automatically Added by addNops.pl
2043				; Automatically 16 NOPs removed by reduceNOPs.sh
2044	062d	23bd0008		addi	%GPR29,%GPR29,$8	
2045	062e	00000000		nop	; Automatically Added by addNops.pl
2046	062f	00000000		nop	; Automatically Added by addNops.pl
2047	0630	00000000		nop	; Automatically Added by addNops.pl
2048				; Automatically 36 NOPs removed by reduceNOPs.sh
2049	0631	3c010000		lhi	%GPR1,$0	
2050	0632	00000000		nop	; Automatically Added by addNops.pl
2051	0633	00000000		nop	; Automatically Added by addNops.pl
2052	0634	00000000		nop	; Automatically Added by addNops.pl
2053				; Automatically 16 NOPs removed by reduceNOPs.sh
2054	0635	34210000		ori	%GPR1,%GPR1,$0	
2055	0636	00000000		nop	; Automatically Added by addNops.pl
2056	0637	00000000		nop	; Automatically Added by addNops.pl
2057	0638	00000000		nop	; Automatically Added by addNops.pl
2058				; Automatically 16 NOPs removed by reduceNOPs.sh
2059	0639	0381d82f		sne	%GPR27,%GPR28,%GPR1	
2060	063a	00000000		nop	; Automatically Added by addNops.pl
2061	063b	00000000		nop	; Automatically Added by addNops.pl
2062	063c	00000000		nop	; Automatically Added by addNops.pl
2063	063d	1760fe19		bnez	%GPR27,L_lib_lcd_18	
2064	063e	00000000		nop	; Automatically Added by addNops.pl
2065	063f	00000000		nop	; Automatically Added by addNops.pl
2066	0640	00000000		nop	; Automatically Added by addNops.pl
2067				; Automatically 16 NOPs removed by reduceNOPs.sh
2068	0641	08000004		j	L_lib_lcd_24	
2069	0642	00000000		nop	; Automatically Added by addNops.pl
2070	0643	00000000		nop	; Automatically Added by addNops.pl
2071	0644	00000000		nop	; Automatically Added by addNops.pl
2072				; Automatically 16 NOPs removed by reduceNOPs.sh
2073			L_lib_lcd_24:
2074	0645	00000000		nop	; Automatically Added by addNops.pl
2075	0646	00000000		nop	; Automatically Added by addNops.pl
2076	0647	00000000		nop	; Automatically Added by addNops.pl
2077				; Automatically 16 NOPs removed by reduceNOPs.sh
2078	0648	3c1c0000		lhi	%GPR28,$0	
2079	0649	00000000		nop	; Automatically Added by addNops.pl
2080	064a	00000000		nop	; Automatically Added by addNops.pl
2081	064b	00000000		nop	; Automatically Added by addNops.pl
2082				; Automatically 16 NOPs removed by reduceNOPs.sh
2083	064c	379c0000		ori	%GPR28,%GPR28,$0	
2084	064d	00000000		nop	; Automatically Added by addNops.pl
2085	064e	00000000		nop	; Automatically Added by addNops.pl
2086	064f	00000000		nop	; Automatically Added by addNops.pl
2087				; Automatically 16 NOPs removed by reduceNOPs.sh
2088	0650	08000004		j	L_lib_lcd_25	
2089	0651	00000000		nop	; Automatically Added by addNops.pl
2090	0652	00000000		nop	; Automatically Added by addNops.pl
2091	0653	00000000		nop	; Automatically Added by addNops.pl
2092				; Automatically 16 NOPs removed by reduceNOPs.sh
2093			L_lib_lcd_25:
2094	0654	00000000		nop	; Automatically Added by addNops.pl
2095	0655	00000000		nop	; Automatically Added by addNops.pl
2096	0656	00000000		nop	; Automatically Added by addNops.pl
2097				; Automatically 16 NOPs removed by reduceNOPs.sh
2098	0657	8fdf0004		lw	%GPR31,4(%GPR30)	
2099	0658	00000000		nop	; Automatically Added by addNops.pl
2100	0659	00000000		nop	; Automatically Added by addNops.pl
2101	065a	00000000		nop	; Automatically Added by addNops.pl
2102	065b	27dd0004		addui	%GPR29,%GPR30,$4	
2103	065c	00000000		nop	; Automatically Added by addNops.pl
2104	065d	00000000		nop	; Automatically Added by addNops.pl
2105	065e	00000000		nop	; Automatically Added by addNops.pl
2106	065f	8fde0000		lw	%GPR30,0(%GPR30)	
2107	0660	00000000		nop	; Automatically Added by addNops.pl
2108	0661	00000000		nop	; Automatically Added by addNops.pl
2109	0662	00000000		nop	; Automatically Added by addNops.pl
2110				; Automatically 8 NOPs removed by reduceNOPs.sh
2111	0663	00000000		nop
2112	0664	00000000		nop
2113	0665	03e00008		jr	%GPR31	
2114	0666	00000000		nop	; Automatically Added by addNops.pl
2115	0667	00000000		nop	; Automatically Added by addNops.pl
2116	0668	00000000		nop	; Automatically Added by addNops.pl
2117				; Automatically 16 NOPs removed by reduceNOPs.sh
2118			t_print:
2119			L_lib_lcd_26:
2120	0669	00000000		nop	; Automatically Added by addNops.pl
2121	066a	00000000		nop	; Automatically Added by addNops.pl
2122	066b	00000000		nop	; Automatically Added by addNops.pl
2123				; Automatically 16 NOPs removed by reduceNOPs.sh
2124	066c	afbefffc		sw	-4(%GPR29),%GPR30	
2125	066d	00000000		nop	; Automatically Added by addNops.pl
2126	066e	00000000		nop	; Automatically Added by addNops.pl
2127	066f	00000000		nop	; Automatically Added by addNops.pl
2128	0670	00000000		nop	; Automatically added by fix-stall-insns.pl
2129	0671	afbf0000		sw	0(%GPR29),%GPR31	
2130	0672	00000000		nop	; Automatically Added by addNops.pl
2131	0673	00000000		nop	; Automatically Added by addNops.pl
2132	0674	00000000		nop	; Automatically Added by addNops.pl
2133	0675	2fbe0004		subui	%GPR30,%GPR29,$4	
2134	0676	00000000		nop	; Automatically Added by addNops.pl
2135	0677	00000000		nop	; Automatically Added by addNops.pl
2136	0678	00000000		nop	; Automatically Added by addNops.pl
2137				; Automatically 4 NOPs removed by reduceNOPs.sh
2138	0679	2bbd000c		subi	%GPR29,%GPR29,$12	
2139	067a	00000000		nop	; Automatically Added by addNops.pl
2140	067b	00000000		nop	; Automatically Added by addNops.pl
2141	067c	00000000		nop	; Automatically Added by addNops.pl
2142				; Automatically 16 NOPs removed by reduceNOPs.sh
2143	067d	afc1fffc		sw	-4(%GPR30),%GPR1	
2144	067e	00000000		nop	; Automatically Added by addNops.pl
2145	067f	00000000		nop	; Automatically Added by addNops.pl
2146	0680	00000000		nop	; Automatically Added by addNops.pl
2147				; Automatically 28 NOPs removed by reduceNOPs.sh
2148	0681	2bbd0008		subi	%GPR29,%GPR29,$8	
2149	0682	00000000		nop	; Automatically Added by addNops.pl
2150	0683	00000000		nop	; Automatically Added by addNops.pl
2151	0684	00000000		nop	; Automatically Added by addNops.pl
2152				; Automatically 16 NOPs removed by reduceNOPs.sh
2153	0685	0c000a02		jal	strlength	
2154	0686	00000000		nop	; Automatically Added by addNops.pl
2155	0687	00000000		nop	; Automatically Added by addNops.pl
2156	0688	00000000		nop	; Automatically Added by addNops.pl
2157				; Automatically 16 NOPs removed by reduceNOPs.sh
2158	0689	23bd0008		addi	%GPR29,%GPR29,$8	
2159	068a	00000000		nop	; Automatically Added by addNops.pl
2160	068b	00000000		nop	; Automatically Added by addNops.pl
2161	068c	00000000		nop	; Automatically Added by addNops.pl
2162				; Automatically 40 NOPs removed by reduceNOPs.sh
2163	068d	8fc4fffc		lw	%GPR4,-4(%GPR30)	
2164	068e	00000000		nop	; Automatically Added by addNops.pl
2165	068f	00000000		nop	; Automatically Added by addNops.pl
2166	0690	00000000		nop	; Automatically Added by addNops.pl
2167	0691	03803020		add	%GPR6,%GPR28,%GPR0	
2168	0692	00000000		nop	; Automatically Added by addNops.pl
2169	0693	00000000		nop	; Automatically Added by addNops.pl
2170	0694	00000000		nop	; Automatically Added by addNops.pl
2171	0695	3c070000		lhi	%GPR7,$0	
2172	0696	00000000		nop	; Automatically Added by addNops.pl
2173	0697	00000000		nop	; Automatically Added by addNops.pl
2174	0698	00000000		nop	; Automatically Added by addNops.pl
2175				; Automatically 16 NOPs removed by reduceNOPs.sh
2176	0699	34e7006f		ori	%GPR7,%GPR7,$111	
2177	069a	00000000		nop	; Automatically Added by addNops.pl
2178	069b	00000000		nop	; Automatically Added by addNops.pl
2179	069c	00000000		nop	; Automatically Added by addNops.pl
2180	069d	3c050000		lhi	%GPR5,$0	
2181	069e	00000000		nop	; Automatically Added by addNops.pl
2182	069f	00000000		nop	; Automatically Added by addNops.pl
2183	06a0	00000000		nop	; Automatically Added by addNops.pl
2184				; Automatically 16 NOPs removed by reduceNOPs.sh
2185	06a1	34a50000		ori	%GPR5,%GPR5,$0	
2186	06a2	00000000		nop	; Automatically Added by addNops.pl
2187	06a3	00000000		nop	; Automatically Added by addNops.pl
2188	06a4	00000000		nop	; Automatically Added by addNops.pl
2189	06a5	3c020000		lhi	%GPR2,$0	
2190	06a6	00000000		nop	; Automatically Added by addNops.pl
2191	06a7	00000000		nop	; Automatically Added by addNops.pl
2192	06a8	00000000		nop	; Automatically Added by addNops.pl
2193				; Automatically 16 NOPs removed by reduceNOPs.sh
2194	06a9	34420054		ori	%GPR2,%GPR2,$84	
2195	06aa	00000000		nop	; Automatically Added by addNops.pl
2196	06ab	00000000		nop	; Automatically Added by addNops.pl
2197	06ac	00000000		nop	; Automatically Added by addNops.pl
2198	06ad	3c010000		lhi	%GPR1,$0	
2199	06ae	00000000		nop	; Automatically Added by addNops.pl
2200	06af	00000000		nop	; Automatically Added by addNops.pl
2201	06b0	00000000		nop	; Automatically Added by addNops.pl
2202				; Automatically 16 NOPs removed by reduceNOPs.sh
2203	06b1	3421005a		ori	%GPR1,%GPR1,$90	
2204	06b2	00000000		nop	; Automatically Added by addNops.pl
2205	06b3	00000000		nop	; Automatically Added by addNops.pl
2206	06b4	00000000		nop	; Automatically Added by addNops.pl
2207	06b5	3c030000		lhi	%GPR3,$0	
2208	06b6	00000000		nop	; Automatically Added by addNops.pl
2209	06b7	00000000		nop	; Automatically Added by addNops.pl
2210	06b8	00000000		nop	; Automatically Added by addNops.pl
2211				; Automatically 16 NOPs removed by reduceNOPs.sh
2212	06b9	34630000		ori	%GPR3,%GPR3,$0	
2213	06ba	00000000		nop	; Automatically Added by addNops.pl
2214	06bb	00000000		nop	; Automatically Added by addNops.pl
2215	06bc	00000000		nop	; Automatically Added by addNops.pl
2216				; Automatically 16 NOPs removed by reduceNOPs.sh
2217	06bd	2bbd0008		subi	%GPR29,%GPR29,$8	
2218	06be	00000000		nop	; Automatically Added by addNops.pl
2219	06bf	00000000		nop	; Automatically Added by addNops.pl
2220	06c0	00000000		nop	; Automatically Added by addNops.pl
2221				; Automatically 16 NOPs removed by reduceNOPs.sh
2222	06c1	0ffffd41		jal	sendcommand	
2223	06c2	00000000		nop	; Automatically Added by addNops.pl
2224	06c3	00000000		nop	; Automatically Added by addNops.pl
2225	06c4	00000000		nop	; Automatically Added by addNops.pl
2226				; Automatically 16 NOPs removed by reduceNOPs.sh
2227	06c5	23bd0008		addi	%GPR29,%GPR29,$8	
2228	06c6	00000000		nop	; Automatically Added by addNops.pl
2229	06c7	00000000		nop	; Automatically Added by addNops.pl
2230	06c8	00000000		nop	; Automatically Added by addNops.pl
2231				; Automatically 36 NOPs removed by reduceNOPs.sh
2232	06c9	3c1c0000		lhi	%GPR28,$0	
2233	06ca	00000000		nop	; Automatically Added by addNops.pl
2234	06cb	00000000		nop	; Automatically Added by addNops.pl
2235	06cc	00000000		nop	; Automatically Added by addNops.pl
2236				; Automatically 16 NOPs removed by reduceNOPs.sh
2237	06cd	379c0000		ori	%GPR28,%GPR28,$0	
2238	06ce	00000000		nop	; Automatically Added by addNops.pl
2239	06cf	00000000		nop	; Automatically Added by addNops.pl
2240	06d0	00000000		nop	; Automatically Added by addNops.pl
2241				; Automatically 16 NOPs removed by reduceNOPs.sh
2242	06d1	08000004		j	L_lib_lcd_27	
2243	06d2	00000000		nop	; Automatically Added by addNops.pl
2244	06d3	00000000		nop	; Automatically Added by addNops.pl
2245	06d4	00000000		nop	; Automatically Added by addNops.pl
2246				; Automatically 16 NOPs removed by reduceNOPs.sh
2247			L_lib_lcd_27:
2248	06d5	00000000		nop	; Automatically Added by addNops.pl
2249	06d6	00000000		nop	; Automatically Added by addNops.pl
2250	06d7	00000000		nop	; Automatically Added by addNops.pl
2251				; Automatically 16 NOPs removed by reduceNOPs.sh
2252	06d8	8fdf0004		lw	%GPR31,4(%GPR30)	
2253	06d9	00000000		nop	; Automatically Added by addNops.pl
2254	06da	00000000		nop	; Automatically Added by addNops.pl
2255	06db	00000000		nop	; Automatically Added by addNops.pl
2256	06dc	27dd0004		addui	%GPR29,%GPR30,$4	
2257	06dd	00000000		nop	; Automatically Added by addNops.pl
2258	06de	00000000		nop	; Automatically Added by addNops.pl
2259	06df	00000000		nop	; Automatically Added by addNops.pl
2260	06e0	8fde0000		lw	%GPR30,0(%GPR30)	
2261	06e1	00000000		nop	; Automatically Added by addNops.pl
2262	06e2	00000000		nop	; Automatically Added by addNops.pl
2263	06e3	00000000		nop	; Automatically Added by addNops.pl
2264				; Automatically 8 NOPs removed by reduceNOPs.sh
2265	06e4	00000000		nop
2266	06e5	00000000		nop
2267	06e6	03e00008		jr	%GPR31	
2268	06e7	00000000		nop	; Automatically Added by addNops.pl
2269	06e8	00000000		nop	; Automatically Added by addNops.pl
2270	06e9	00000000		nop	; Automatically Added by addNops.pl
2271				; Automatically 16 NOPs removed by reduceNOPs.sh
2272			t_cursor:
2273			L_lib_lcd_28:
2274	06ea	00000000		nop	; Automatically Added by addNops.pl
2275	06eb	00000000		nop	; Automatically Added by addNops.pl
2276	06ec	00000000		nop	; Automatically Added by addNops.pl
2277				; Automatically 16 NOPs removed by reduceNOPs.sh
2278	06ed	afbefffc		sw	-4(%GPR29),%GPR30	
2279	06ee	00000000		nop	; Automatically Added by addNops.pl
2280	06ef	00000000		nop	; Automatically Added by addNops.pl
2281	06f0	00000000		nop	; Automatically Added by addNops.pl
2282	06f1	00000000		nop	; Automatically added by fix-stall-insns.pl
2283	06f2	afbf0000		sw	0(%GPR29),%GPR31	
2284	06f3	00000000		nop	; Automatically Added by addNops.pl
2285	06f4	00000000		nop	; Automatically Added by addNops.pl
2286	06f5	00000000		nop	; Automatically Added by addNops.pl
2287	06f6	2fbe0004		subui	%GPR30,%GPR29,$4	
2288	06f7	00000000		nop	; Automatically Added by addNops.pl
2289	06f8	00000000		nop	; Automatically Added by addNops.pl
2290	06f9	00000000		nop	; Automatically Added by addNops.pl
2291				; Automatically 4 NOPs removed by reduceNOPs.sh
2292	06fa	2bbd000c		subi	%GPR29,%GPR29,$12	
2293	06fb	00000000		nop	; Automatically Added by addNops.pl
2294	06fc	00000000		nop	; Automatically Added by addNops.pl
2295	06fd	00000000		nop	; Automatically Added by addNops.pl
2296				; Automatically 16 NOPs removed by reduceNOPs.sh
2297	06fe	afc1fffc		sw	-4(%GPR30),%GPR1	
2298	06ff	00000000		nop	; Automatically Added by addNops.pl
2299	0700	00000000		nop	; Automatically Added by addNops.pl
2300	0701	00000000		nop	; Automatically Added by addNops.pl
2301				; Automatically 40 NOPs removed by reduceNOPs.sh
2302	0702	2bc30004		subi	%GPR3,%GPR30,$4	
2303	0703	00000000		nop	; Automatically Added by addNops.pl
2304	0704	00000000		nop	; Automatically Added by addNops.pl
2305	0705	00000000		nop	; Automatically Added by addNops.pl
2306	0706	3c070000		lhi	%GPR7,$0	
2307	0707	00000000		nop	; Automatically Added by addNops.pl
2308	0708	00000000		nop	; Automatically Added by addNops.pl
2309	0709	00000000		nop	; Automatically Added by addNops.pl
2310				; Automatically 16 NOPs removed by reduceNOPs.sh
2311	070a	34e7006f		ori	%GPR7,%GPR7,$111	
2312	070b	00000000		nop	; Automatically Added by addNops.pl
2313	070c	00000000		nop	; Automatically Added by addNops.pl
2314	070d	00000000		nop	; Automatically Added by addNops.pl
2315	070e	3c060000		lhi	%GPR6,$0	
2316	070f	00000000		nop	; Automatically Added by addNops.pl
2317	0710	00000000		nop	; Automatically Added by addNops.pl
2318	0711	00000000		nop	; Automatically Added by addNops.pl
2319				; Automatically 16 NOPs removed by reduceNOPs.sh
2320	0712	34c60000		ori	%GPR6,%GPR6,$0	
2321	0713	00000000		nop	; Automatically Added by addNops.pl
2322	0714	00000000		nop	; Automatically Added by addNops.pl
2323	0715	00000000		nop	; Automatically Added by addNops.pl
2324	0716	3c050000		lhi	%GPR5,$0	
2325	0717	00000000		nop	; Automatically Added by addNops.pl
2326	0718	00000000		nop	; Automatically Added by addNops.pl
2327	0719	00000000		nop	; Automatically Added by addNops.pl
2328				; Automatically 16 NOPs removed by reduceNOPs.sh
2329	071a	34a50001		ori	%GPR5,%GPR5,$1	
2330	071b	00000000		nop	; Automatically Added by addNops.pl
2331	071c	00000000		nop	; Automatically Added by addNops.pl
2332	071d	00000000		nop	; Automatically Added by addNops.pl
2333	071e	3c020000		lhi	%GPR2,$0	
2334	071f	00000000		nop	; Automatically Added by addNops.pl
2335	0720	00000000		nop	; Automatically Added by addNops.pl
2336	0721	00000000		nop	; Automatically Added by addNops.pl
2337				; Automatically 16 NOPs removed by reduceNOPs.sh
2338	0722	34420043		ori	%GPR2,%GPR2,$67	
2339	0723	00000000		nop	; Automatically Added by addNops.pl
2340	0724	00000000		nop	; Automatically Added by addNops.pl
2341	0725	00000000		nop	; Automatically Added by addNops.pl
2342	0726	3c010000		lhi	%GPR1,$0	
2343	0727	00000000		nop	; Automatically Added by addNops.pl
2344	0728	00000000		nop	; Automatically Added by addNops.pl
2345	0729	00000000		nop	; Automatically Added by addNops.pl
2346				; Automatically 16 NOPs removed by reduceNOPs.sh
2347	072a	34210054		ori	%GPR1,%GPR1,$84	
2348	072b	00000000		nop	; Automatically Added by addNops.pl
2349	072c	00000000		nop	; Automatically Added by addNops.pl
2350	072d	00000000		nop	; Automatically Added by addNops.pl
2351	072e	3c040000		lhi	%GPR4,$0	
2352	072f	00000000		nop	; Automatically Added by addNops.pl
2353	0730	00000000		nop	; Automatically Added by addNops.pl
2354	0731	00000000		nop	; Automatically Added by addNops.pl
2355				; Automatically 16 NOPs removed by reduceNOPs.sh
2356	0732	34840000		ori	%GPR4,%GPR4,$0	
2357	0733	00000000		nop	; Automatically Added by addNops.pl
2358	0734	00000000		nop	; Automatically Added by addNops.pl
2359	0735	00000000		nop	; Automatically Added by addNops.pl
2360				; Automatically 16 NOPs removed by reduceNOPs.sh
2361	0736	2bbd0008		subi	%GPR29,%GPR29,$8	
2362	0737	00000000		nop	; Automatically Added by addNops.pl
2363	0738	00000000		nop	; Automatically Added by addNops.pl
2364	0739	00000000		nop	; Automatically Added by addNops.pl
2365				; Automatically 16 NOPs removed by reduceNOPs.sh
2366	073a	0ffffcc8		jal	sendcommand	
2367	073b	00000000		nop	; Automatically Added by addNops.pl
2368	073c	00000000		nop	; Automatically Added by addNops.pl
2369	073d	00000000		nop	; Automatically Added by addNops.pl
2370				; Automatically 16 NOPs removed by reduceNOPs.sh
2371	073e	23bd0008		addi	%GPR29,%GPR29,$8	
2372	073f	00000000		nop	; Automatically Added by addNops.pl
2373	0740	00000000		nop	; Automatically Added by addNops.pl
2374	0741	00000000		nop	; Automatically Added by addNops.pl
2375				; Automatically 36 NOPs removed by reduceNOPs.sh
2376	0742	3c1c0000		lhi	%GPR28,$0	
2377	0743	00000000		nop	; Automatically Added by addNops.pl
2378	0744	00000000		nop	; Automatically Added by addNops.pl
2379	0745	00000000		nop	; Automatically Added by addNops.pl
2380				; Automatically 16 NOPs removed by reduceNOPs.sh
2381	0746	379c0000		ori	%GPR28,%GPR28,$0	
2382	0747	00000000		nop	; Automatically Added by addNops.pl
2383	0748	00000000		nop	; Automatically Added by addNops.pl
2384	0749	00000000		nop	; Automatically Added by addNops.pl
2385				; Automatically 16 NOPs removed by reduceNOPs.sh
2386	074a	08000004		j	L_lib_lcd_29	
2387	074b	00000000		nop	; Automatically Added by addNops.pl
2388	074c	00000000		nop	; Automatically Added by addNops.pl
2389	074d	00000000		nop	; Automatically Added by addNops.pl
2390				; Automatically 16 NOPs removed by reduceNOPs.sh
2391			L_lib_lcd_29:
2392	074e	00000000		nop	; Automatically Added by addNops.pl
2393	074f	00000000		nop	; Automatically Added by addNops.pl
2394	0750	00000000		nop	; Automatically Added by addNops.pl
2395				; Automatically 16 NOPs removed by reduceNOPs.sh
2396	0751	8fdf0004		lw	%GPR31,4(%GPR30)	
2397	0752	00000000		nop	; Automatically Added by addNops.pl
2398	0753	00000000		nop	; Automatically Added by addNops.pl
2399	0754	00000000		nop	; Automatically Added by addNops.pl
2400	0755	27dd0004		addui	%GPR29,%GPR30,$4	
2401	0756	00000000		nop	; Automatically Added by addNops.pl
2402	0757	00000000		nop	; Automatically Added by addNops.pl
2403	0758	00000000		nop	; Automatically Added by addNops.pl
2404	0759	8fde0000		lw	%GPR30,0(%GPR30)	
2405	075a	00000000		nop	; Automatically Added by addNops.pl
2406	075b	00000000		nop	; Automatically Added by addNops.pl
2407	075c	00000000		nop	; Automatically Added by addNops.pl
2408				; Automatically 8 NOPs removed by reduceNOPs.sh
2409	075d	00000000		nop
2410	075e	00000000		nop
2411	075f	03e00008		jr	%GPR31	
2412	0760	00000000		nop	; Automatically Added by addNops.pl
2413	0761	00000000		nop	; Automatically Added by addNops.pl
2414	0762	00000000		nop	; Automatically Added by addNops.pl
2415				; Automatically 16 NOPs removed by reduceNOPs.sh
2416			t_enable:
2417			L_lib_lcd_30:
2418	0763	00000000		nop	; Automatically Added by addNops.pl
2419	0764	00000000		nop	; Automatically Added by addNops.pl
2420	0765	00000000		nop	; Automatically Added by addNops.pl
2421				; Automatically 16 NOPs removed by reduceNOPs.sh
2422	0766	afbefffc		sw	-4(%GPR29),%GPR30	
2423	0767	00000000		nop	; Automatically Added by addNops.pl
2424	0768	00000000		nop	; Automatically Added by addNops.pl
2425	0769	00000000		nop	; Automatically Added by addNops.pl
2426	076a	00000000		nop	; Automatically added by fix-stall-insns.pl
2427	076b	afbf0000		sw	0(%GPR29),%GPR31	
2428	076c	00000000		nop	; Automatically Added by addNops.pl
2429	076d	00000000		nop	; Automatically Added by addNops.pl
2430	076e	00000000		nop	; Automatically Added by addNops.pl
2431	076f	2fbe0004		subui	%GPR30,%GPR29,$4	
2432	0770	00000000		nop	; Automatically Added by addNops.pl
2433	0771	00000000		nop	; Automatically Added by addNops.pl
2434	0772	00000000		nop	; Automatically Added by addNops.pl
2435				; Automatically 4 NOPs removed by reduceNOPs.sh
2436	0773	2bbd0008		subi	%GPR29,%GPR29,$8	
2437	0774	00000000		nop	; Automatically Added by addNops.pl
2438	0775	00000000		nop	; Automatically Added by addNops.pl
2439	0776	00000000		nop	; Automatically Added by addNops.pl
2440				; Automatically 56 NOPs removed by reduceNOPs.sh
2441	0777	3c020000		lhi	%GPR2,$0	
2442	0778	00000000		nop	; Automatically Added by addNops.pl
2443	0779	00000000		nop	; Automatically Added by addNops.pl
2444	077a	00000000		nop	; Automatically Added by addNops.pl
2445				; Automatically 16 NOPs removed by reduceNOPs.sh
2446	077b	34420000		ori	%GPR2,%GPR2,$0	
2447	077c	00000000		nop	; Automatically Added by addNops.pl
2448	077d	00000000		nop	; Automatically Added by addNops.pl
2449	077e	00000000		nop	; Automatically Added by addNops.pl
2450				; Automatically 16 NOPs removed by reduceNOPs.sh
2451	077f	0022d82f		sne	%GPR27,%GPR1,%GPR2	
2452	0780	00000000		nop	; Automatically Added by addNops.pl
2453	0781	00000000		nop	; Automatically Added by addNops.pl
2454	0782	00000000		nop	; Automatically Added by addNops.pl
2455	0783	17600008		bnez	%GPR27,L_lib_lcd_31	
2456	0784	00000000		nop	; Automatically Added by addNops.pl
2457	0785	00000000		nop	; Automatically Added by addNops.pl
2458	0786	00000000		nop	; Automatically Added by addNops.pl
2459				; Automatically 16 NOPs removed by reduceNOPs.sh
2460	0787	0800004f		j	L_lib_lcd_32	
2461	0788	00000000		nop	; Automatically Added by addNops.pl
2462	0789	00000000		nop	; Automatically Added by addNops.pl
2463	078a	00000000		nop	; Automatically Added by addNops.pl
2464				; Automatically 16 NOPs removed by reduceNOPs.sh
2465			L_lib_lcd_31:
2466	078b	00000000		nop	; Automatically Added by addNops.pl
2467	078c	00000000		nop	; Automatically Added by addNops.pl
2468	078d	00000000		nop	; Automatically Added by addNops.pl
2469				; Automatically 28 NOPs removed by reduceNOPs.sh
2470	078e	3c070000		lhi	%GPR7,$0	
2471	078f	00000000		nop	; Automatically Added by addNops.pl
2472	0790	00000000		nop	; Automatically Added by addNops.pl
2473	0791	00000000		nop	; Automatically Added by addNops.pl
2474				; Automatically 16 NOPs removed by reduceNOPs.sh
2475	0792	34e7006f		ori	%GPR7,%GPR7,$111	
2476	0793	00000000		nop	; Automatically Added by addNops.pl
2477	0794	00000000		nop	; Automatically Added by addNops.pl
2478	0795	00000000		nop	; Automatically Added by addNops.pl
2479	0796	3c060000		lhi	%GPR6,$0	
2480	0797	00000000		nop	; Automatically Added by addNops.pl
2481	0798	00000000		nop	; Automatically Added by addNops.pl
2482	0799	00000000		nop	; Automatically Added by addNops.pl
2483				; Automatically 16 NOPs removed by reduceNOPs.sh
2484	079a	34c60000		ori	%GPR6,%GPR6,$0	
2485	079b	00000000		nop	; Automatically Added by addNops.pl
2486	079c	00000000		nop	; Automatically Added by addNops.pl
2487	079d	00000000		nop	; Automatically Added by addNops.pl
2488	079e	3c050000		lhi	%GPR5,$0	
2489	079f	00000000		nop	; Automatically Added by addNops.pl
2490	07a0	00000000		nop	; Automatically Added by addNops.pl
2491	07a1	00000000		nop	; Automatically Added by addNops.pl
2492				; Automatically 16 NOPs removed by reduceNOPs.sh
2493	07a2	34a50000		ori	%GPR5,%GPR5,$0	
2494	07a3	00000000		nop	; Automatically Added by addNops.pl
2495	07a4	00000000		nop	; Automatically Added by addNops.pl
2496	07a5	00000000		nop	; Automatically Added by addNops.pl
2497	07a6	3c020000		lhi	%GPR2,$0	
2498	07a7	00000000		nop	; Automatically Added by addNops.pl
2499	07a8	00000000		nop	; Automatically Added by addNops.pl
2500	07a9	00000000		nop	; Automatically Added by addNops.pl
2501				; Automatically 16 NOPs removed by reduceNOPs.sh
2502	07aa	34420045		ori	%GPR2,%GPR2,$69	
2503	07ab	00000000		nop	; Automatically Added by addNops.pl
2504	07ac	00000000		nop	; Automatically Added by addNops.pl
2505	07ad	00000000		nop	; Automatically Added by addNops.pl
2506	07ae	3c010000		lhi	%GPR1,$0	
2507	07af	00000000		nop	; Automatically Added by addNops.pl
2508	07b0	00000000		nop	; Automatically Added by addNops.pl
2509	07b1	00000000		nop	; Automatically Added by addNops.pl
2510				; Automatically 16 NOPs removed by reduceNOPs.sh
2511	07b2	34210054		ori	%GPR1,%GPR1,$84	
2512	07b3	00000000		nop	; Automatically Added by addNops.pl
2513	07b4	00000000		nop	; Automatically Added by addNops.pl
2514	07b5	00000000		nop	; Automatically Added by addNops.pl
2515	07b6	3c040000		lhi	%GPR4,$0	
2516	07b7	00000000		nop	; Automatically Added by addNops.pl
2517	07b8	00000000		nop	; Automatically Added by addNops.pl
2518	07b9	00000000		nop	; Automatically Added by addNops.pl
2519				; Automatically 16 NOPs removed by reduceNOPs.sh
2520	07ba	34840000		ori	%GPR4,%GPR4,$0	
2521	07bb	00000000		nop	; Automatically Added by addNops.pl
2522	07bc	00000000		nop	; Automatically Added by addNops.pl
2523	07bd	00000000		nop	; Automatically Added by addNops.pl
2524	07be	3c030000		lhi	%GPR3,$0	
2525	07bf	00000000		nop	; Automatically Added by addNops.pl
2526	07c0	00000000		nop	; Automatically Added by addNops.pl
2527	07c1	00000000		nop	; Automatically Added by addNops.pl
2528				; Automatically 16 NOPs removed by reduceNOPs.sh
2529	07c2	34630000		ori	%GPR3,%GPR3,$0	
2530	07c3	00000000		nop	; Automatically Added by addNops.pl
2531	07c4	00000000		nop	; Automatically Added by addNops.pl
2532	07c5	00000000		nop	; Automatically Added by addNops.pl
2533				; Automatically 16 NOPs removed by reduceNOPs.sh
2534	07c6	2bbd0008		subi	%GPR29,%GPR29,$8	
2535	07c7	00000000		nop	; Automatically Added by addNops.pl
2536	07c8	00000000		nop	; Automatically Added by addNops.pl
2537	07c9	00000000		nop	; Automatically Added by addNops.pl
2538				; Automatically 16 NOPs removed by reduceNOPs.sh
2539	07ca	0ffffc38		jal	sendcommand	
2540	07cb	00000000		nop	; Automatically Added by addNops.pl
2541	07cc	00000000		nop	; Automatically Added by addNops.pl
2542	07cd	00000000		nop	; Automatically Added by addNops.pl
2543				; Automatically 16 NOPs removed by reduceNOPs.sh
2544	07ce	23bd0008		addi	%GPR29,%GPR29,$8	
2545	07cf	00000000		nop	; Automatically Added by addNops.pl
2546	07d0	00000000		nop	; Automatically Added by addNops.pl
2547	07d1	00000000		nop	; Automatically Added by addNops.pl
2548				; Automatically 16 NOPs removed by reduceNOPs.sh
2549	07d2	0800004b		j	L_lib_lcd_33	
2550	07d3	00000000		nop	; Automatically Added by addNops.pl
2551	07d4	00000000		nop	; Automatically Added by addNops.pl
2552	07d5	00000000		nop	; Automatically Added by addNops.pl
2553				; Automatically 12 NOPs removed by reduceNOPs.sh
2554			L_lib_lcd_32:
2555	07d6	00000000		nop	; Automatically Added by addNops.pl
2556	07d7	00000000		nop	; Automatically Added by addNops.pl
2557	07d8	00000000		nop	; Automatically Added by addNops.pl
2558				; Automatically 28 NOPs removed by reduceNOPs.sh
2559	07d9	3c070000		lhi	%GPR7,$0	
2560	07da	00000000		nop	; Automatically Added by addNops.pl
2561	07db	00000000		nop	; Automatically Added by addNops.pl
2562	07dc	00000000		nop	; Automatically Added by addNops.pl
2563				; Automatically 16 NOPs removed by reduceNOPs.sh
2564	07dd	34e7006f		ori	%GPR7,%GPR7,$111	
2565	07de	00000000		nop	; Automatically Added by addNops.pl
2566	07df	00000000		nop	; Automatically Added by addNops.pl
2567	07e0	00000000		nop	; Automatically Added by addNops.pl
2568	07e1	3c060000		lhi	%GPR6,$0	
2569	07e2	00000000		nop	; Automatically Added by addNops.pl
2570	07e3	00000000		nop	; Automatically Added by addNops.pl
2571	07e4	00000000		nop	; Automatically Added by addNops.pl
2572				; Automatically 16 NOPs removed by reduceNOPs.sh
2573	07e5	34c60000		ori	%GPR6,%GPR6,$0	
2574	07e6	00000000		nop	; Automatically Added by addNops.pl
2575	07e7	00000000		nop	; Automatically Added by addNops.pl
2576	07e8	00000000		nop	; Automatically Added by addNops.pl
2577	07e9	3c050000		lhi	%GPR5,$0	
2578	07ea	00000000		nop	; Automatically Added by addNops.pl
2579	07eb	00000000		nop	; Automatically Added by addNops.pl
2580	07ec	00000000		nop	; Automatically Added by addNops.pl
2581				; Automatically 16 NOPs removed by reduceNOPs.sh
2582	07ed	34a50000		ori	%GPR5,%GPR5,$0	
2583	07ee	00000000		nop	; Automatically Added by addNops.pl
2584	07ef	00000000		nop	; Automatically Added by addNops.pl
2585	07f0	00000000		nop	; Automatically Added by addNops.pl
2586	07f1	3c020000		lhi	%GPR2,$0	
2587	07f2	00000000		nop	; Automatically Added by addNops.pl
2588	07f3	00000000		nop	; Automatically Added by addNops.pl
2589	07f4	00000000		nop	; Automatically Added by addNops.pl
2590				; Automatically 16 NOPs removed by reduceNOPs.sh
2591	07f5	34420041		ori	%GPR2,%GPR2,$65	
2592	07f6	00000000		nop	; Automatically Added by addNops.pl
2593	07f7	00000000		nop	; Automatically Added by addNops.pl
2594	07f8	00000000		nop	; Automatically Added by addNops.pl
2595	07f9	3c010000		lhi	%GPR1,$0	
2596	07fa	00000000		nop	; Automatically Added by addNops.pl
2597	07fb	00000000		nop	; Automatically Added by addNops.pl
2598	07fc	00000000		nop	; Automatically Added by addNops.pl
2599				; Automatically 16 NOPs removed by reduceNOPs.sh
2600	07fd	34210054		ori	%GPR1,%GPR1,$84	
2601	07fe	00000000		nop	; Automatically Added by addNops.pl
2602	07ff	00000000		nop	; Automatically Added by addNops.pl
2603	0800	00000000		nop	; Automatically Added by addNops.pl
2604	0801	3c040000		lhi	%GPR4,$0	
2605	0802	00000000		nop	; Automatically Added by addNops.pl
2606	0803	00000000		nop	; Automatically Added by addNops.pl
2607	0804	00000000		nop	; Automatically Added by addNops.pl
2608				; Automatically 16 NOPs removed by reduceNOPs.sh
2609	0805	34840000		ori	%GPR4,%GPR4,$0	
2610	0806	00000000		nop	; Automatically Added by addNops.pl
2611	0807	00000000		nop	; Automatically Added by addNops.pl
2612	0808	00000000		nop	; Automatically Added by addNops.pl
2613	0809	3c030000		lhi	%GPR3,$0	
2614	080a	00000000		nop	; Automatically Added by addNops.pl
2615	080b	00000000		nop	; Automatically Added by addNops.pl
2616	080c	00000000		nop	; Automatically Added by addNops.pl
2617				; Automatically 16 NOPs removed by reduceNOPs.sh
2618	080d	34630000		ori	%GPR3,%GPR3,$0	
2619	080e	00000000		nop	; Automatically Added by addNops.pl
2620	080f	00000000		nop	; Automatically Added by addNops.pl
2621	0810	00000000		nop	; Automatically Added by addNops.pl
2622				; Automatically 16 NOPs removed by reduceNOPs.sh
2623	0811	2bbd0008		subi	%GPR29,%GPR29,$8	
2624	0812	00000000		nop	; Automatically Added by addNops.pl
2625	0813	00000000		nop	; Automatically Added by addNops.pl
2626	0814	00000000		nop	; Automatically Added by addNops.pl
2627				; Automatically 16 NOPs removed by reduceNOPs.sh
2628	0815	0ffffbed		jal	sendcommand	
2629	0816	00000000		nop	; Automatically Added by addNops.pl
2630	0817	00000000		nop	; Automatically Added by addNops.pl
2631	0818	00000000		nop	; Automatically Added by addNops.pl
2632				; Automatically 16 NOPs removed by reduceNOPs.sh
2633	0819	23bd0008		addi	%GPR29,%GPR29,$8	
2634	081a	00000000		nop	; Automatically Added by addNops.pl
2635	081b	00000000		nop	; Automatically Added by addNops.pl
2636	081c	00000000		nop	; Automatically Added by addNops.pl
2637				; Automatically 28 NOPs removed by reduceNOPs.sh
2638			L_lib_lcd_33:
2639	081d	00000000		nop	; Automatically Added by addNops.pl
2640	081e	00000000		nop	; Automatically Added by addNops.pl
2641	081f	00000000		nop	; Automatically Added by addNops.pl
2642				; Automatically 16 NOPs removed by reduceNOPs.sh
2643	0820	3c1c0000		lhi	%GPR28,$0	
2644	0821	00000000		nop	; Automatically Added by addNops.pl
2645	0822	00000000		nop	; Automatically Added by addNops.pl
2646	0823	00000000		nop	; Automatically Added by addNops.pl
2647				; Automatically 16 NOPs removed by reduceNOPs.sh
2648	0824	379c0000		ori	%GPR28,%GPR28,$0	
2649	0825	00000000		nop	; Automatically Added by addNops.pl
2650	0826	00000000		nop	; Automatically Added by addNops.pl
2651	0827	00000000		nop	; Automatically Added by addNops.pl
2652				; Automatically 16 NOPs removed by reduceNOPs.sh
2653	0828	08000004		j	L_lib_lcd_34	
2654	0829	00000000		nop	; Automatically Added by addNops.pl
2655	082a	00000000		nop	; Automatically Added by addNops.pl
2656	082b	00000000		nop	; Automatically Added by addNops.pl
2657				; Automatically 16 NOPs removed by reduceNOPs.sh
2658			L_lib_lcd_34:
2659	082c	00000000		nop	; Automatically Added by addNops.pl
2660	082d	00000000		nop	; Automatically Added by addNops.pl
2661	082e	00000000		nop	; Automatically Added by addNops.pl
2662				; Automatically 16 NOPs removed by reduceNOPs.sh
2663	082f	8fdf0004		lw	%GPR31,4(%GPR30)	
2664	0830	00000000		nop	; Automatically Added by addNops.pl
2665	0831	00000000		nop	; Automatically Added by addNops.pl
2666	0832	00000000		nop	; Automatically Added by addNops.pl
2667	0833	27dd0004		addui	%GPR29,%GPR30,$4	
2668	0834	00000000		nop	; Automatically Added by addNops.pl
2669	0835	00000000		nop	; Automatically Added by addNops.pl
2670	0836	00000000		nop	; Automatically Added by addNops.pl
2671	0837	8fde0000		lw	%GPR30,0(%GPR30)	
2672	0838	00000000		nop	; Automatically Added by addNops.pl
2673	0839	00000000		nop	; Automatically Added by addNops.pl
2674	083a	00000000		nop	; Automatically Added by addNops.pl
2675				; Automatically 8 NOPs removed by reduceNOPs.sh
2676	083b	00000000		nop
2677	083c	00000000		nop
2678	083d	03e00008		jr	%GPR31	
2679	083e	00000000		nop	; Automatically Added by addNops.pl
2680	083f	00000000		nop	; Automatically Added by addNops.pl
2681	0840	00000000		nop	; Automatically Added by addNops.pl
2682				; Automatically 16 NOPs removed by reduceNOPs.sh
2683			g_print:
2684			L_lib_lcd_35:
2685	0841	00000000		nop	; Automatically Added by addNops.pl
2686	0842	00000000		nop	; Automatically Added by addNops.pl
2687	0843	00000000		nop	; Automatically Added by addNops.pl
2688				; Automatically 16 NOPs removed by reduceNOPs.sh
2689	0844	afbefffc		sw	-4(%GPR29),%GPR30	
2690	0845	00000000		nop	; Automatically Added by addNops.pl
2691	0846	00000000		nop	; Automatically Added by addNops.pl
2692	0847	00000000		nop	; Automatically Added by addNops.pl
2693	0848	00000000		nop	; Automatically added by fix-stall-insns.pl
2694	0849	afbf0000		sw	0(%GPR29),%GPR31	
2695	084a	00000000		nop	; Automatically Added by addNops.pl
2696	084b	00000000		nop	; Automatically Added by addNops.pl
2697	084c	00000000		nop	; Automatically Added by addNops.pl
2698	084d	2fbe0004		subui	%GPR30,%GPR29,$4	
2699	084e	00000000		nop	; Automatically Added by addNops.pl
2700	084f	00000000		nop	; Automatically Added by addNops.pl
2701	0850	00000000		nop	; Automatically Added by addNops.pl
2702				; Automatically 4 NOPs removed by reduceNOPs.sh
2703	0851	2bbd0014		subi	%GPR29,%GPR29,$20	
2704	0852	00000000		nop	; Automatically Added by addNops.pl
2705	0853	00000000		nop	; Automatically Added by addNops.pl
2706	0854	00000000		nop	; Automatically Added by addNops.pl
2707				; Automatically 16 NOPs removed by reduceNOPs.sh
2708	0855	afc1fff4		sw	-12(%GPR30),%GPR1	
2709	0856	00000000		nop	; Automatically Added by addNops.pl
2710	0857	00000000		nop	; Automatically Added by addNops.pl
2711	0858	00000000		nop	; Automatically Added by addNops.pl
2712				; Automatically 20 NOPs removed by reduceNOPs.sh
2713	0859	00000000		nop	; Automatically added by fix-stall-insns.pl
2714	085a	afc2fff8		sw	-8(%GPR30),%GPR2	
2715	085b	00000000		nop	; Automatically Added by addNops.pl
2716	085c	00000000		nop	; Automatically Added by addNops.pl
2717	085d	00000000		nop	; Automatically Added by addNops.pl
2718	085e	2bc10008		subi	%GPR1,%GPR30,$8	
2719	085f	00000000		nop	; Automatically Added by addNops.pl
2720	0860	00000000		nop	; Automatically Added by addNops.pl
2721	0861	00000000		nop	; Automatically Added by addNops.pl
2722				; Automatically 8 NOPs removed by reduceNOPs.sh
2723	0862	3c020000		lhi	%GPR2,$0	
2724	0863	00000000		nop	; Automatically Added by addNops.pl
2725	0864	00000000		nop	; Automatically Added by addNops.pl
2726	0865	00000000		nop	; Automatically Added by addNops.pl
2727				; Automatically 16 NOPs removed by reduceNOPs.sh
2728	0866	34420004		ori	%GPR2,%GPR2,$4	
2729	0867	00000000		nop	; Automatically Added by addNops.pl
2730	0868	00000000		nop	; Automatically Added by addNops.pl
2731	0869	00000000		nop	; Automatically Added by addNops.pl
2732				; Automatically 16 NOPs removed by reduceNOPs.sh
2733	086a	00220820		add	%GPR1,%GPR1,%GPR2	
2734	086b	00000000		nop	; Automatically Added by addNops.pl
2735	086c	00000000		nop	; Automatically Added by addNops.pl
2736	086d	00000000		nop	; Automatically Added by addNops.pl
2737				; Automatically 16 NOPs removed by reduceNOPs.sh
2738	086e	ac230000		sw	0(%GPR1),%GPR3	
2739	086f	00000000		nop	; Automatically Added by addNops.pl
2740	0870	00000000		nop	; Automatically Added by addNops.pl
2741	0871	00000000		nop	; Automatically Added by addNops.pl
2742	0872	00000000		nop	; Automatically added by fix-stall-insns.pl
2743	0873	8fc1fff4		lw	%GPR1,-12(%GPR30)	
2744	0874	00000000		nop	; Automatically Added by addNops.pl
2745	0875	00000000		nop	; Automatically Added by addNops.pl
2746	0876	00000000		nop	; Automatically Added by addNops.pl
2747				; Automatically 16 NOPs removed by reduceNOPs.sh
2748	0877	2bbd0008		subi	%GPR29,%GPR29,$8	
2749	0878	00000000		nop	; Automatically Added by addNops.pl
2750	0879	00000000		nop	; Automatically Added by addNops.pl
2751	087a	00000000		nop	; Automatically Added by addNops.pl
2752				; Automatically 16 NOPs removed by reduceNOPs.sh
2753	087b	0c00080c		jal	strlength	
2754	087c	00000000		nop	; Automatically Added by addNops.pl
2755	087d	00000000		nop	; Automatically Added by addNops.pl
2756	087e	00000000		nop	; Automatically Added by addNops.pl
2757				; Automatically 16 NOPs removed by reduceNOPs.sh
2758	087f	23bd0008		addi	%GPR29,%GPR29,$8	
2759	0880	00000000		nop	; Automatically Added by addNops.pl
2760	0881	00000000		nop	; Automatically Added by addNops.pl
2761	0882	00000000		nop	; Automatically Added by addNops.pl
2762				; Automatically 36 NOPs removed by reduceNOPs.sh
2763	0883	8fc4fff4		lw	%GPR4,-12(%GPR30)	
2764	0884	00000000		nop	; Automatically Added by addNops.pl
2765	0885	00000000		nop	; Automatically Added by addNops.pl
2766	0886	00000000		nop	; Automatically Added by addNops.pl
2767	0887	23860001		addi	%GPR6,%GPR28,$1	
2768	0888	00000000		nop	; Automatically Added by addNops.pl
2769	0889	00000000		nop	; Automatically Added by addNops.pl
2770	088a	00000000		nop	; Automatically Added by addNops.pl
2771	088b	2bc30008		subi	%GPR3,%GPR30,$8	
2772	088c	00000000		nop	; Automatically Added by addNops.pl
2773	088d	00000000		nop	; Automatically Added by addNops.pl
2774	088e	00000000		nop	; Automatically Added by addNops.pl
2775	088f	3c070000		lhi	%GPR7,$0	
2776	0890	00000000		nop	; Automatically Added by addNops.pl
2777	0891	00000000		nop	; Automatically Added by addNops.pl
2778	0892	00000000		nop	; Automatically Added by addNops.pl
2779				; Automatically 16 NOPs removed by reduceNOPs.sh
2780	0893	34e7006f		ori	%GPR7,%GPR7,$111	
2781	0894	00000000		nop	; Automatically Added by addNops.pl
2782	0895	00000000		nop	; Automatically Added by addNops.pl
2783	0896	00000000		nop	; Automatically Added by addNops.pl
2784	0897	3c050000		lhi	%GPR5,$0	
2785	0898	00000000		nop	; Automatically Added by addNops.pl
2786	0899	00000000		nop	; Automatically Added by addNops.pl
2787	089a	00000000		nop	; Automatically Added by addNops.pl
2788				; Automatically 16 NOPs removed by reduceNOPs.sh
2789	089b	34a50002		ori	%GPR5,%GPR5,$2	
2790	089c	00000000		nop	; Automatically Added by addNops.pl
2791	089d	00000000		nop	; Automatically Added by addNops.pl
2792	089e	00000000		nop	; Automatically Added by addNops.pl
2793	089f	3c020000		lhi	%GPR2,$0	
2794	08a0	00000000		nop	; Automatically Added by addNops.pl
2795	08a1	00000000		nop	; Automatically Added by addNops.pl
2796	08a2	00000000		nop	; Automatically Added by addNops.pl
2797				; Automatically 16 NOPs removed by reduceNOPs.sh
2798	08a3	3442004c		ori	%GPR2,%GPR2,$76	
2799	08a4	00000000		nop	; Automatically Added by addNops.pl
2800	08a5	00000000		nop	; Automatically Added by addNops.pl
2801	08a6	00000000		nop	; Automatically Added by addNops.pl
2802	08a7	3c010000		lhi	%GPR1,$0	
2803	08a8	00000000		nop	; Automatically Added by addNops.pl
2804	08a9	00000000		nop	; Automatically Added by addNops.pl
2805	08aa	00000000		nop	; Automatically Added by addNops.pl
2806				; Automatically 16 NOPs removed by reduceNOPs.sh
2807	08ab	3421005a		ori	%GPR1,%GPR1,$90	
2808	08ac	00000000		nop	; Automatically Added by addNops.pl
2809	08ad	00000000		nop	; Automatically Added by addNops.pl
2810	08ae	00000000		nop	; Automatically Added by addNops.pl
2811				; Automatically 16 NOPs removed by reduceNOPs.sh
2812	08af	2bbd0008		subi	%GPR29,%GPR29,$8	
2813	08b0	00000000		nop	; Automatically Added by addNops.pl
2814	08b1	00000000		nop	; Automatically Added by addNops.pl
2815	08b2	00000000		nop	; Automatically Added by addNops.pl
2816				; Automatically 16 NOPs removed by reduceNOPs.sh
2817	08b3	0ffffb4f		jal	sendcommand	
2818	08b4	00000000		nop	; Automatically Added by addNops.pl
2819	08b5	00000000		nop	; Automatically Added by addNops.pl
2820	08b6	00000000		nop	; Automatically Added by addNops.pl
2821				; Automatically 16 NOPs removed by reduceNOPs.sh
2822	08b7	23bd0008		addi	%GPR29,%GPR29,$8	
2823	08b8	00000000		nop	; Automatically Added by addNops.pl
2824	08b9	00000000		nop	; Automatically Added by addNops.pl
2825	08ba	00000000		nop	; Automatically Added by addNops.pl
2826				; Automatically 36 NOPs removed by reduceNOPs.sh
2827	08bb	3c1c0000		lhi	%GPR28,$0	
2828	08bc	00000000		nop	; Automatically Added by addNops.pl
2829	08bd	00000000		nop	; Automatically Added by addNops.pl
2830	08be	00000000		nop	; Automatically Added by addNops.pl
2831				; Automatically 16 NOPs removed by reduceNOPs.sh
2832	08bf	379c0000		ori	%GPR28,%GPR28,$0	
2833	08c0	00000000		nop	; Automatically Added by addNops.pl
2834	08c1	00000000		nop	; Automatically Added by addNops.pl
2835	08c2	00000000		nop	; Automatically Added by addNops.pl
2836				; Automatically 16 NOPs removed by reduceNOPs.sh
2837	08c3	08000004		j	L_lib_lcd_36	
2838	08c4	00000000		nop	; Automatically Added by addNops.pl
2839	08c5	00000000		nop	; Automatically Added by addNops.pl
2840	08c6	00000000		nop	; Automatically Added by addNops.pl
2841				; Automatically 16 NOPs removed by reduceNOPs.sh
2842			L_lib_lcd_36:
2843	08c7	00000000		nop	; Automatically Added by addNops.pl
2844	08c8	00000000		nop	; Automatically Added by addNops.pl
2845	08c9	00000000		nop	; Automatically Added by addNops.pl
2846				; Automatically 16 NOPs removed by reduceNOPs.sh
2847	08ca	8fdf0004		lw	%GPR31,4(%GPR30)	
2848	08cb	00000000		nop	; Automatically Added by addNops.pl
2849	08cc	00000000		nop	; Automatically Added by addNops.pl
2850	08cd	00000000		nop	; Automatically Added by addNops.pl
2851	08ce	27dd0004		addui	%GPR29,%GPR30,$4	
2852	08cf	00000000		nop	; Automatically Added by addNops.pl
2853	08d0	00000000		nop	; Automatically Added by addNops.pl
2854	08d1	00000000		nop	; Automatically Added by addNops.pl
2855	08d2	8fde0000		lw	%GPR30,0(%GPR30)	
2856	08d3	00000000		nop	; Automatically Added by addNops.pl
2857	08d4	00000000		nop	; Automatically Added by addNops.pl
2858	08d5	00000000		nop	; Automatically Added by addNops.pl
2859				; Automatically 8 NOPs removed by reduceNOPs.sh
2860	08d6	00000000		nop
2861	08d7	00000000		nop
2862	08d8	03e00008		jr	%GPR31	
2863	08d9	00000000		nop	; Automatically Added by addNops.pl
2864	08da	00000000		nop	; Automatically Added by addNops.pl
2865	08db	00000000		nop	; Automatically Added by addNops.pl
2866				; Automatically 16 NOPs removed by reduceNOPs.sh
2867			g_drawrect:
2868			L_lib_lcd_37:
2869	08dc	00000000		nop	; Automatically Added by addNops.pl
2870	08dd	00000000		nop	; Automatically Added by addNops.pl
2871	08de	00000000		nop	; Automatically Added by addNops.pl
2872				; Automatically 16 NOPs removed by reduceNOPs.sh
2873	08df	afbefffc		sw	-4(%GPR29),%GPR30	
2874	08e0	00000000		nop	; Automatically Added by addNops.pl
2875	08e1	00000000		nop	; Automatically Added by addNops.pl
2876	08e2	00000000		nop	; Automatically Added by addNops.pl
2877	08e3	00000000		nop	; Automatically added by fix-stall-insns.pl
2878	08e4	afbf0000		sw	0(%GPR29),%GPR31	
2879	08e5	00000000		nop	; Automatically Added by addNops.pl
2880	08e6	00000000		nop	; Automatically Added by addNops.pl
2881	08e7	00000000		nop	; Automatically Added by addNops.pl
2882	08e8	2fbe0004		subui	%GPR30,%GPR29,$4	
2883	08e9	00000000		nop	; Automatically Added by addNops.pl
2884	08ea	00000000		nop	; Automatically Added by addNops.pl
2885	08eb	00000000		nop	; Automatically Added by addNops.pl
2886				; Automatically 4 NOPs removed by reduceNOPs.sh
2887	08ec	2bbd0018		subi	%GPR29,%GPR29,$24	
2888	08ed	00000000		nop	; Automatically Added by addNops.pl
2889	08ee	00000000		nop	; Automatically Added by addNops.pl
2890	08ef	00000000		nop	; Automatically Added by addNops.pl
2891				; Automatically 16 NOPs removed by reduceNOPs.sh
2892	08f0	00804020		add	%GPR8,%GPR4,%GPR0	
2893	08f1	00000000		nop	; Automatically Added by addNops.pl
2894	08f2	00000000		nop	; Automatically Added by addNops.pl
2895	08f3	00000000		nop	; Automatically Added by addNops.pl
2896	08f4	00602020		add	%GPR4,%GPR3,%GPR0	
2897	08f5	00000000		nop	; Automatically Added by addNops.pl
2898	08f6	00000000		nop	; Automatically Added by addNops.pl
2899	08f7	00000000		nop	; Automatically Added by addNops.pl
2900				; Automatically 20 NOPs removed by reduceNOPs.sh
2901	08f8	afc1fff0		sw	-16(%GPR30),%GPR1	
2902	08f9	00000000		nop	; Automatically Added by addNops.pl
2903	08fa	00000000		nop	; Automatically Added by addNops.pl
2904	08fb	00000000		nop	; Automatically Added by addNops.pl
2905	08fc	2bc30010		subi	%GPR3,%GPR30,$16	
2906	08fd	00000000		nop	; Automatically Added by addNops.pl
2907	08fe	00000000		nop	; Automatically Added by addNops.pl
2908	08ff	00000000		nop	; Automatically Added by addNops.pl
2909				; Automatically 8 NOPs removed by reduceNOPs.sh
2910	0900	3c010000		lhi	%GPR1,$0	
2911	0901	00000000		nop	; Automatically Added by addNops.pl
2912	0902	00000000		nop	; Automatically Added by addNops.pl
2913	0903	00000000		nop	; Automatically Added by addNops.pl
2914				; Automatically 16 NOPs removed by reduceNOPs.sh
2915	0904	34210004		ori	%GPR1,%GPR1,$4	
2916	0905	00000000		nop	; Automatically Added by addNops.pl
2917	0906	00000000		nop	; Automatically Added by addNops.pl
2918	0907	00000000		nop	; Automatically Added by addNops.pl
2919	0908	2bc50010		subi	%GPR5,%GPR30,$16	
2920	0909	00000000		nop	; Automatically Added by addNops.pl
2921	090a	00000000		nop	; Automatically Added by addNops.pl
2922	090b	00000000		nop	; Automatically Added by addNops.pl
2923				; Automatically 8 NOPs removed by reduceNOPs.sh
2924	090c	3c060000		lhi	%GPR6,$0	
2925	090d	00000000		nop	; Automatically Added by addNops.pl
2926	090e	00000000		nop	; Automatically Added by addNops.pl
2927	090f	00000000		nop	; Automatically Added by addNops.pl
2928				; Automatically 16 NOPs removed by reduceNOPs.sh
2929	0910	34c60008		ori	%GPR6,%GPR6,$8	
2930	0911	00000000		nop	; Automatically Added by addNops.pl
2931	0912	00000000		nop	; Automatically Added by addNops.pl
2932	0913	00000000		nop	; Automatically Added by addNops.pl
2933	0914	00610820		add	%GPR1,%GPR3,%GPR1	
2934	0915	00000000		nop	; Automatically Added by addNops.pl
2935	0916	00000000		nop	; Automatically Added by addNops.pl
2936	0917	00000000		nop	; Automatically Added by addNops.pl
2937	0918	2bc90010		subi	%GPR9,%GPR30,$16	
2938	0919	00000000		nop	; Automatically Added by addNops.pl
2939	091a	00000000		nop	; Automatically Added by addNops.pl
2940	091b	00000000		nop	; Automatically Added by addNops.pl
2941	091c	3c0a0000		lhi	%GPR10,$0	
2942	091d	00000000		nop	; Automatically Added by addNops.pl
2943	091e	00000000		nop	; Automatically Added by addNops.pl
2944	091f	00000000		nop	; Automatically Added by addNops.pl
2945				; Automatically 16 NOPs removed by reduceNOPs.sh
2946	0920	354a000c		ori	%GPR10,%GPR10,$12	
2947	0921	00000000		nop	; Automatically Added by addNops.pl
2948	0922	00000000		nop	; Automatically Added by addNops.pl
2949	0923	00000000		nop	; Automatically Added by addNops.pl
2950	0924	00a65820		add	%GPR11,%GPR5,%GPR6	
2951	0925	00000000		nop	; Automatically Added by addNops.pl
2952	0926	00000000		nop	; Automatically Added by addNops.pl
2953	0927	00000000		nop	; Automatically Added by addNops.pl
2954	0928	ac220000		sw	0(%GPR1),%GPR2	
2955	0929	00000000		nop	; Automatically Added by addNops.pl
2956	092a	00000000		nop	; Automatically Added by addNops.pl
2957	092b	00000000		nop	; Automatically Added by addNops.pl
2958				; Automatically 16 NOPs removed by reduceNOPs.sh
2959	092c	00000000		nop	; Automatically added by fix-stall-insns.pl
2960	092d	ad640000		sw	0(%GPR11),%GPR4	
2961	092e	00000000		nop	; Automatically Added by addNops.pl
2962	092f	00000000		nop	; Automatically Added by addNops.pl
2963	0930	00000000		nop	; Automatically Added by addNops.pl
2964				; Automatically 12 NOPs removed by reduceNOPs.sh
2965	0931	012a4820		add	%GPR9,%GPR9,%GPR10	
2966	0932	00000000		nop	; Automatically Added by addNops.pl
2967	0933	00000000		nop	; Automatically Added by addNops.pl
2968	0934	00000000		nop	; Automatically Added by addNops.pl
2969				; Automatically 8 NOPs removed by reduceNOPs.sh
2970	0935	2bc30010		subi	%GPR3,%GPR30,$16	
2971	0936	00000000		nop	; Automatically Added by addNops.pl
2972	0937	00000000		nop	; Automatically Added by addNops.pl
2973	0938	00000000		nop	; Automatically Added by addNops.pl
2974	0939	3c070000		lhi	%GPR7,$0	
2975	093a	00000000		nop	; Automatically Added by addNops.pl
2976	093b	00000000		nop	; Automatically Added by addNops.pl
2977	093c	00000000		nop	; Automatically Added by addNops.pl
2978				; Automatically 16 NOPs removed by reduceNOPs.sh
2979	093d	34e7006f		ori	%GPR7,%GPR7,$111	
2980	093e	00000000		nop	; Automatically Added by addNops.pl
2981	093f	00000000		nop	; Automatically Added by addNops.pl
2982	0940	00000000		nop	; Automatically Added by addNops.pl
2983	0941	3c060000		lhi	%GPR6,$0	
2984	0942	00000000		nop	; Automatically Added by addNops.pl
2985	0943	00000000		nop	; Automatically Added by addNops.pl
2986	0944	00000000		nop	; Automatically Added by addNops.pl
2987				; Automatically 16 NOPs removed by reduceNOPs.sh
2988	0945	34c60000		ori	%GPR6,%GPR6,$0	
2989	0946	00000000		nop	; Automatically Added by addNops.pl
2990	0947	00000000		nop	; Automatically Added by addNops.pl
2991	0948	00000000		nop	; Automatically Added by addNops.pl
2992	0949	3c050000		lhi	%GPR5,$0	
2993	094a	00000000		nop	; Automatically Added by addNops.pl
2994	094b	00000000		nop	; Automatically Added by addNops.pl
2995	094c	00000000		nop	; Automatically Added by addNops.pl
2996				; Automatically 16 NOPs removed by reduceNOPs.sh
2997	094d	34a50004		ori	%GPR5,%GPR5,$4	
2998	094e	00000000		nop	; Automatically Added by addNops.pl
2999	094f	00000000		nop	; Automatically Added by addNops.pl
3000	0950	00000000		nop	; Automatically Added by addNops.pl
3001	0951	3c020000		lhi	%GPR2,$0	
3002	0952	00000000		nop	; Automatically Added by addNops.pl
3003	0953	00000000		nop	; Automatically Added by addNops.pl
3004	0954	00000000		nop	; Automatically Added by addNops.pl
3005				; Automatically 16 NOPs removed by reduceNOPs.sh
3006	0955	34420052		ori	%GPR2,%GPR2,$82	
3007	0956	00000000		nop	; Automatically Added by addNops.pl
3008	0957	00000000		nop	; Automatically Added by addNops.pl
3009	0958	00000000		nop	; Automatically Added by addNops.pl
3010	0959	3c010000		lhi	%GPR1,$0	
3011	095a	00000000		nop	; Automatically Added by addNops.pl
3012	095b	00000000		nop	; Automatically Added by addNops.pl
3013	095c	00000000		nop	; Automatically Added by addNops.pl
3014				; Automatically 16 NOPs removed by reduceNOPs.sh
3015	095d	34210047		ori	%GPR1,%GPR1,$71	
3016	095e	00000000		nop	; Automatically Added by addNops.pl
3017	095f	00000000		nop	; Automatically Added by addNops.pl
3018	0960	00000000		nop	; Automatically Added by addNops.pl
3019	0961	ad280000		sw	0(%GPR9),%GPR8	
3020	0962	00000000		nop	; Automatically Added by addNops.pl
3021	0963	00000000		nop	; Automatically Added by addNops.pl
3022	0964	00000000		nop	; Automatically Added by addNops.pl
3023	0965	3c040000		lhi	%GPR4,$0	
3024	0966	00000000		nop	; Automatically Added by addNops.pl
3025	0967	00000000		nop	; Automatically Added by addNops.pl
3026	0968	00000000		nop	; Automatically Added by addNops.pl
3027				; Automatically 16 NOPs removed by reduceNOPs.sh
3028	0969	34840000		ori	%GPR4,%GPR4,$0	
3029	096a	00000000		nop	; Automatically Added by addNops.pl
3030	096b	00000000		nop	; Automatically Added by addNops.pl
3031	096c	00000000		nop	; Automatically Added by addNops.pl
3032				; Automatically 16 NOPs removed by reduceNOPs.sh
3033	096d	2bbd0008		subi	%GPR29,%GPR29,$8	
3034	096e	00000000		nop	; Automatically Added by addNops.pl
3035	096f	00000000		nop	; Automatically Added by addNops.pl
3036	0970	00000000		nop	; Automatically Added by addNops.pl
3037				; Automatically 16 NOPs removed by reduceNOPs.sh
3038	0971	0ffffa91		jal	sendcommand	
3039	0972	00000000		nop	; Automatically Added by addNops.pl
3040	0973	00000000		nop	; Automatically Added by addNops.pl
3041	0974	00000000		nop	; Automatically Added by addNops.pl
3042				; Automatically 16 NOPs removed by reduceNOPs.sh
3043	0975	23bd0008		addi	%GPR29,%GPR29,$8	
3044	0976	00000000		nop	; Automatically Added by addNops.pl
3045	0977	00000000		nop	; Automatically Added by addNops.pl
3046	0978	00000000		nop	; Automatically Added by addNops.pl
3047				; Automatically 36 NOPs removed by reduceNOPs.sh
3048	0979	3c1c0000		lhi	%GPR28,$0	
3049	097a	00000000		nop	; Automatically Added by addNops.pl
3050	097b	00000000		nop	; Automatically Added by addNops.pl
3051	097c	00000000		nop	; Automatically Added by addNops.pl
3052				; Automatically 16 NOPs removed by reduceNOPs.sh
3053	097d	379c0000		ori	%GPR28,%GPR28,$0	
3054	097e	00000000		nop	; Automatically Added by addNops.pl
3055	097f	00000000		nop	; Automatically Added by addNops.pl
3056	0980	00000000		nop	; Automatically Added by addNops.pl
3057				; Automatically 16 NOPs removed by reduceNOPs.sh
3058	0981	08000004		j	L_lib_lcd_38	
3059	0982	00000000		nop	; Automatically Added by addNops.pl
3060	0983	00000000		nop	; Automatically Added by addNops.pl
3061	0984	00000000		nop	; Automatically Added by addNops.pl
3062				; Automatically 16 NOPs removed by reduceNOPs.sh
3063			L_lib_lcd_38:
3064	0985	00000000		nop	; Automatically Added by addNops.pl
3065	0986	00000000		nop	; Automatically Added by addNops.pl
3066	0987	00000000		nop	; Automatically Added by addNops.pl
3067				; Automatically 16 NOPs removed by reduceNOPs.sh
3068	0988	8fdf0004		lw	%GPR31,4(%GPR30)	
3069	0989	00000000		nop	; Automatically Added by addNops.pl
3070	098a	00000000		nop	; Automatically Added by addNops.pl
3071	098b	00000000		nop	; Automatically Added by addNops.pl
3072	098c	27dd0004		addui	%GPR29,%GPR30,$4	
3073	098d	00000000		nop	; Automatically Added by addNops.pl
3074	098e	00000000		nop	; Automatically Added by addNops.pl
3075	098f	00000000		nop	; Automatically Added by addNops.pl
3076	0990	8fde0000		lw	%GPR30,0(%GPR30)	
3077	0991	00000000		nop	; Automatically Added by addNops.pl
3078	0992	00000000		nop	; Automatically Added by addNops.pl
3079	0993	00000000		nop	; Automatically Added by addNops.pl
3080				; Automatically 8 NOPs removed by reduceNOPs.sh
3081	0994	00000000		nop
3082	0995	00000000		nop
3083	0996	03e00008		jr	%GPR31	
3084	0997	00000000		nop	; Automatically Added by addNops.pl
3085	0998	00000000		nop	; Automatically Added by addNops.pl
3086	0999	00000000		nop	; Automatically Added by addNops.pl
3087				; Automatically 16 NOPs removed by reduceNOPs.sh
3088			g_drawline:
3089			L_lib_lcd_39:
3090	099a	00000000		nop	; Automatically Added by addNops.pl
3091	099b	00000000		nop	; Automatically Added by addNops.pl
3092	099c	00000000		nop	; Automatically Added by addNops.pl
3093				; Automatically 16 NOPs removed by reduceNOPs.sh
3094	099d	afbefffc		sw	-4(%GPR29),%GPR30	
3095	099e	00000000		nop	; Automatically Added by addNops.pl
3096	099f	00000000		nop	; Automatically Added by addNops.pl
3097	09a0	00000000		nop	; Automatically Added by addNops.pl
3098	09a1	00000000		nop	; Automatically added by fix-stall-insns.pl
3099	09a2	afbf0000		sw	0(%GPR29),%GPR31	
3100	09a3	00000000		nop	; Automatically Added by addNops.pl
3101	09a4	00000000		nop	; Automatically Added by addNops.pl
3102	09a5	00000000		nop	; Automatically Added by addNops.pl
3103	09a6	2fbe0004		subui	%GPR30,%GPR29,$4	
3104	09a7	00000000		nop	; Automatically Added by addNops.pl
3105	09a8	00000000		nop	; Automatically Added by addNops.pl
3106	09a9	00000000		nop	; Automatically Added by addNops.pl
3107				; Automatically 4 NOPs removed by reduceNOPs.sh
3108	09aa	2bbd0018		subi	%GPR29,%GPR29,$24	
3109	09ab	00000000		nop	; Automatically Added by addNops.pl
3110	09ac	00000000		nop	; Automatically Added by addNops.pl
3111	09ad	00000000		nop	; Automatically Added by addNops.pl
3112				; Automatically 16 NOPs removed by reduceNOPs.sh
3113	09ae	00804020		add	%GPR8,%GPR4,%GPR0	
3114	09af	00000000		nop	; Automatically Added by addNops.pl
3115	09b0	00000000		nop	; Automatically Added by addNops.pl
3116	09b1	00000000		nop	; Automatically Added by addNops.pl
3117	09b2	00602020		add	%GPR4,%GPR3,%GPR0	
3118	09b3	00000000		nop	; Automatically Added by addNops.pl
3119	09b4	00000000		nop	; Automatically Added by addNops.pl
3120	09b5	00000000		nop	; Automatically Added by addNops.pl
3121				; Automatically 20 NOPs removed by reduceNOPs.sh
3122	09b6	afc1fff0		sw	-16(%GPR30),%GPR1	
3123	09b7	00000000		nop	; Automatically Added by addNops.pl
3124	09b8	00000000		nop	; Automatically Added by addNops.pl
3125	09b9	00000000		nop	; Automatically Added by addNops.pl
3126	09ba	2bc30010		subi	%GPR3,%GPR30,$16	
3127	09bb	00000000		nop	; Automatically Added by addNops.pl
3128	09bc	00000000		nop	; Automatically Added by addNops.pl
3129	09bd	00000000		nop	; Automatically Added by addNops.pl
3130				; Automatically 8 NOPs removed by reduceNOPs.sh
3131	09be	3c010000		lhi	%GPR1,$0	
3132	09bf	00000000		nop	; Automatically Added by addNops.pl
3133	09c0	00000000		nop	; Automatically Added by addNops.pl
3134	09c1	00000000		nop	; Automatically Added by addNops.pl
3135				; Automatically 16 NOPs removed by reduceNOPs.sh
3136	09c2	34210004		ori	%GPR1,%GPR1,$4	
3137	09c3	00000000		nop	; Automatically Added by addNops.pl
3138	09c4	00000000		nop	; Automatically Added by addNops.pl
3139	09c5	00000000		nop	; Automatically Added by addNops.pl
3140	09c6	2bc50010		subi	%GPR5,%GPR30,$16	
3141	09c7	00000000		nop	; Automatically Added by addNops.pl
3142	09c8	00000000		nop	; Automatically Added by addNops.pl
3143	09c9	00000000		nop	; Automatically Added by addNops.pl
3144				; Automatically 8 NOPs removed by reduceNOPs.sh
3145	09ca	3c060000		lhi	%GPR6,$0	
3146	09cb	00000000		nop	; Automatically Added by addNops.pl
3147	09cc	00000000		nop	; Automatically Added by addNops.pl
3148	09cd	00000000		nop	; Automatically Added by addNops.pl
3149				; Automatically 16 NOPs removed by reduceNOPs.sh
3150	09ce	34c60008		ori	%GPR6,%GPR6,$8	
3151	09cf	00000000		nop	; Automatically Added by addNops.pl
3152	09d0	00000000		nop	; Automatically Added by addNops.pl
3153	09d1	00000000		nop	; Automatically Added by addNops.pl
3154	09d2	00610820		add	%GPR1,%GPR3,%GPR1	
3155	09d3	00000000		nop	; Automatically Added by addNops.pl
3156	09d4	00000000		nop	; Automatically Added by addNops.pl
3157	09d5	00000000		nop	; Automatically Added by addNops.pl
3158	09d6	2bc90010		subi	%GPR9,%GPR30,$16	
3159	09d7	00000000		nop	; Automatically Added by addNops.pl
3160	09d8	00000000		nop	; Automatically Added by addNops.pl
3161	09d9	00000000		nop	; Automatically Added by addNops.pl
3162	09da	3c0a0000		lhi	%GPR10,$0	
3163	09db	00000000		nop	; Automatically Added by addNops.pl
3164	09dc	00000000		nop	; Automatically Added by addNops.pl
3165	09dd	00000000		nop	; Automatically Added by addNops.pl
3166				; Automatically 16 NOPs removed by reduceNOPs.sh
3167	09de	354a000c		ori	%GPR10,%GPR10,$12	
3168	09df	00000000		nop	; Automatically Added by addNops.pl
3169	09e0	00000000		nop	; Automatically Added by addNops.pl
3170	09e1	00000000		nop	; Automatically Added by addNops.pl
3171	09e2	00a65820		add	%GPR11,%GPR5,%GPR6	
3172	09e3	00000000		nop	; Automatically Added by addNops.pl
3173	09e4	00000000		nop	; Automatically Added by addNops.pl
3174	09e5	00000000		nop	; Automatically Added by addNops.pl
3175	09e6	ac220000		sw	0(%GPR1),%GPR2	
3176	09e7	00000000		nop	; Automatically Added by addNops.pl
3177	09e8	00000000		nop	; Automatically Added by addNops.pl
3178	09e9	00000000		nop	; Automatically Added by addNops.pl
3179				; Automatically 16 NOPs removed by reduceNOPs.sh
3180	09ea	00000000		nop	; Automatically added by fix-stall-insns.pl
3181	09eb	ad640000		sw	0(%GPR11),%GPR4	
3182	09ec	00000000		nop	; Automatically Added by addNops.pl
3183	09ed	00000000		nop	; Automatically Added by addNops.pl
3184	09ee	00000000		nop	; Automatically Added by addNops.pl
3185				; Automatically 12 NOPs removed by reduceNOPs.sh
3186	09ef	012a4820		add	%GPR9,%GPR9,%GPR10	
3187	09f0	00000000		nop	; Automatically Added by addNops.pl
3188	09f1	00000000		nop	; Automatically Added by addNops.pl
3189	09f2	00000000		nop	; Automatically Added by addNops.pl
3190				; Automatically 8 NOPs removed by reduceNOPs.sh
3191	09f3	2bc30010		subi	%GPR3,%GPR30,$16	
3192	09f4	00000000		nop	; Automatically Added by addNops.pl
3193	09f5	00000000		nop	; Automatically Added by addNops.pl
3194	09f6	00000000		nop	; Automatically Added by addNops.pl
3195	09f7	3c070000		lhi	%GPR7,$0	
3196	09f8	00000000		nop	; Automatically Added by addNops.pl
3197	09f9	00000000		nop	; Automatically Added by addNops.pl
3198	09fa	00000000		nop	; Automatically Added by addNops.pl
3199				; Automatically 16 NOPs removed by reduceNOPs.sh
3200	09fb	34e7006f		ori	%GPR7,%GPR7,$111	
3201	09fc	00000000		nop	; Automatically Added by addNops.pl
3202	09fd	00000000		nop	; Automatically Added by addNops.pl
3203	09fe	00000000		nop	; Automatically Added by addNops.pl
3204	09ff	3c060000		lhi	%GPR6,$0	
3205	0a00	00000000		nop	; Automatically Added by addNops.pl
3206	0a01	00000000		nop	; Automatically Added by addNops.pl
3207	0a02	00000000		nop	; Automatically Added by addNops.pl
3208				; Automatically 16 NOPs removed by reduceNOPs.sh
3209	0a03	34c60000		ori	%GPR6,%GPR6,$0	
3210	0a04	00000000		nop	; Automatically Added by addNops.pl
3211	0a05	00000000		nop	; Automatically Added by addNops.pl
3212	0a06	00000000		nop	; Automatically Added by addNops.pl
3213	0a07	3c050000		lhi	%GPR5,$0	
3214	0a08	00000000		nop	; Automatically Added by addNops.pl
3215	0a09	00000000		nop	; Automatically Added by addNops.pl
3216	0a0a	00000000		nop	; Automatically Added by addNops.pl
3217				; Automatically 16 NOPs removed by reduceNOPs.sh
3218	0a0b	34a50004		ori	%GPR5,%GPR5,$4	
3219	0a0c	00000000		nop	; Automatically Added by addNops.pl
3220	0a0d	00000000		nop	; Automatically Added by addNops.pl
3221	0a0e	00000000		nop	; Automatically Added by addNops.pl
3222	0a0f	3c020000		lhi	%GPR2,$0	
3223	0a10	00000000		nop	; Automatically Added by addNops.pl
3224	0a11	00000000		nop	; Automatically Added by addNops.pl
3225	0a12	00000000		nop	; Automatically Added by addNops.pl
3226				; Automatically 16 NOPs removed by reduceNOPs.sh
3227	0a13	34420044		ori	%GPR2,%GPR2,$68	
3228	0a14	00000000		nop	; Automatically Added by addNops.pl
3229	0a15	00000000		nop	; Automatically Added by addNops.pl
3230	0a16	00000000		nop	; Automatically Added by addNops.pl
3231	0a17	3c010000		lhi	%GPR1,$0	
3232	0a18	00000000		nop	; Automatically Added by addNops.pl
3233	0a19	00000000		nop	; Automatically Added by addNops.pl
3234	0a1a	00000000		nop	; Automatically Added by addNops.pl
3235				; Automatically 16 NOPs removed by reduceNOPs.sh
3236	0a1b	34210047		ori	%GPR1,%GPR1,$71	
3237	0a1c	00000000		nop	; Automatically Added by addNops.pl
3238	0a1d	00000000		nop	; Automatically Added by addNops.pl
3239	0a1e	00000000		nop	; Automatically Added by addNops.pl
3240	0a1f	ad280000		sw	0(%GPR9),%GPR8	
3241	0a20	00000000		nop	; Automatically Added by addNops.pl
3242	0a21	00000000		nop	; Automatically Added by addNops.pl
3243	0a22	00000000		nop	; Automatically Added by addNops.pl
3244	0a23	3c040000		lhi	%GPR4,$0	
3245	0a24	00000000		nop	; Automatically Added by addNops.pl
3246	0a25	00000000		nop	; Automatically Added by addNops.pl
3247	0a26	00000000		nop	; Automatically Added by addNops.pl
3248				; Automatically 16 NOPs removed by reduceNOPs.sh
3249	0a27	34840000		ori	%GPR4,%GPR4,$0	
3250	0a28	00000000		nop	; Automatically Added by addNops.pl
3251	0a29	00000000		nop	; Automatically Added by addNops.pl
3252	0a2a	00000000		nop	; Automatically Added by addNops.pl
3253				; Automatically 16 NOPs removed by reduceNOPs.sh
3254	0a2b	2bbd0008		subi	%GPR29,%GPR29,$8	
3255	0a2c	00000000		nop	; Automatically Added by addNops.pl
3256	0a2d	00000000		nop	; Automatically Added by addNops.pl
3257	0a2e	00000000		nop	; Automatically Added by addNops.pl
3258				; Automatically 16 NOPs removed by reduceNOPs.sh
3259	0a2f	0ffff9d3		jal	sendcommand	
3260	0a30	00000000		nop	; Automatically Added by addNops.pl
3261	0a31	00000000		nop	; Automatically Added by addNops.pl
3262	0a32	00000000		nop	; Automatically Added by addNops.pl
3263				; Automatically 16 NOPs removed by reduceNOPs.sh
3264	0a33	23bd0008		addi	%GPR29,%GPR29,$8	
3265	0a34	00000000		nop	; Automatically Added by addNops.pl
3266	0a35	00000000		nop	; Automatically Added by addNops.pl
3267	0a36	00000000		nop	; Automatically Added by addNops.pl
3268				; Automatically 36 NOPs removed by reduceNOPs.sh
3269	0a37	3c1c0000		lhi	%GPR28,$0	
3270	0a38	00000000		nop	; Automatically Added by addNops.pl
3271	0a39	00000000		nop	; Automatically Added by addNops.pl
3272	0a3a	00000000		nop	; Automatically Added by addNops.pl
3273				; Automatically 16 NOPs removed by reduceNOPs.sh
3274	0a3b	379c0000		ori	%GPR28,%GPR28,$0	
3275	0a3c	00000000		nop	; Automatically Added by addNops.pl
3276	0a3d	00000000		nop	; Automatically Added by addNops.pl
3277	0a3e	00000000		nop	; Automatically Added by addNops.pl
3278				; Automatically 16 NOPs removed by reduceNOPs.sh
3279	0a3f	08000004		j	L_lib_lcd_40	
3280	0a40	00000000		nop	; Automatically Added by addNops.pl
3281	0a41	00000000		nop	; Automatically Added by addNops.pl
3282	0a42	00000000		nop	; Automatically Added by addNops.pl
3283				; Automatically 16 NOPs removed by reduceNOPs.sh
3284			L_lib_lcd_40:
3285	0a43	00000000		nop	; Automatically Added by addNops.pl
3286	0a44	00000000		nop	; Automatically Added by addNops.pl
3287	0a45	00000000		nop	; Automatically Added by addNops.pl
3288				; Automatically 16 NOPs removed by reduceNOPs.sh
3289	0a46	8fdf0004		lw	%GPR31,4(%GPR30)	
3290	0a47	00000000		nop	; Automatically Added by addNops.pl
3291	0a48	00000000		nop	; Automatically Added by addNops.pl
3292	0a49	00000000		nop	; Automatically Added by addNops.pl
3293	0a4a	27dd0004		addui	%GPR29,%GPR30,$4	
3294	0a4b	00000000		nop	; Automatically Added by addNops.pl
3295	0a4c	00000000		nop	; Automatically Added by addNops.pl
3296	0a4d	00000000		nop	; Automatically Added by addNops.pl
3297	0a4e	8fde0000		lw	%GPR30,0(%GPR30)	
3298	0a4f	00000000		nop	; Automatically Added by addNops.pl
3299	0a50	00000000		nop	; Automatically Added by addNops.pl
3300	0a51	00000000		nop	; Automatically Added by addNops.pl
3301				; Automatically 8 NOPs removed by reduceNOPs.sh
3302	0a52	00000000		nop
3303	0a53	00000000		nop
3304	0a54	03e00008		jr	%GPR31	
3305	0a55	00000000		nop	; Automatically Added by addNops.pl
3306	0a56	00000000		nop	; Automatically Added by addNops.pl
3307	0a57	00000000		nop	; Automatically Added by addNops.pl
3308				; Automatically 16 NOPs removed by reduceNOPs.sh
3309			g_makebar:
3310			L_lib_lcd_41:
3311	0a58	00000000		nop	; Automatically Added by addNops.pl
3312	0a59	00000000		nop	; Automatically Added by addNops.pl
3313	0a5a	00000000		nop	; Automatically Added by addNops.pl
3314				; Automatically 16 NOPs removed by reduceNOPs.sh
3315	0a5b	afbefffc		sw	-4(%GPR29),%GPR30	
3316	0a5c	00000000		nop	; Automatically Added by addNops.pl
3317	0a5d	00000000		nop	; Automatically Added by addNops.pl
3318	0a5e	00000000		nop	; Automatically Added by addNops.pl
3319	0a5f	00000000		nop	; Automatically added by fix-stall-insns.pl
3320	0a60	afbf0000		sw	0(%GPR29),%GPR31	
3321	0a61	00000000		nop	; Automatically Added by addNops.pl
3322	0a62	00000000		nop	; Automatically Added by addNops.pl
3323	0a63	00000000		nop	; Automatically Added by addNops.pl
3324	0a64	2fbe0004		subui	%GPR30,%GPR29,$4	
3325	0a65	00000000		nop	; Automatically Added by addNops.pl
3326	0a66	00000000		nop	; Automatically Added by addNops.pl
3327	0a67	00000000		nop	; Automatically Added by addNops.pl
3328				; Automatically 4 NOPs removed by reduceNOPs.sh
3329	0a68	2bbd0034		subi	%GPR29,%GPR29,$52	
3330	0a69	00000000		nop	; Automatically Added by addNops.pl
3331	0a6a	00000000		nop	; Automatically Added by addNops.pl
3332	0a6b	00000000		nop	; Automatically Added by addNops.pl
3333				; Automatically 16 NOPs removed by reduceNOPs.sh
3334	0a6c	afc7ffd8		sw	-40(%GPR30),%GPR7	
3335	0a6d	00000000		nop	; Automatically Added by addNops.pl
3336	0a6e	00000000		nop	; Automatically Added by addNops.pl
3337	0a6f	00000000		nop	; Automatically Added by addNops.pl
3338	0a70	00000000		nop	; Automatically added by fix-stall-insns.pl
3339	0a71	afcaffd4		sw	-44(%GPR30),%GPR10	
3340	0a72	00000000		nop	; Automatically Added by addNops.pl
3341	0a73	00000000		nop	; Automatically Added by addNops.pl
3342	0a74	00000000		nop	; Automatically Added by addNops.pl
3343				; Automatically 12 NOPs removed by reduceNOPs.sh
3344	0a75	3c070000		lhi	%GPR7,$( L_lib_lcd_1	/0x10000)
3345	0a76	00000000		nop
3346	0a77	00000000		nop
3347	0a78	00000000		nop
3348	0a79	34e70000		ori	%GPR7,%GPR7,$( L_lib_lcd_1	%0x10000)
3349	0a7a	00000000		nop	; Automatically Added by addNops.pl
3350	0a7b	00000000		nop	; Automatically Added by addNops.pl
3351	0a7c	00000000		nop	; Automatically Added by addNops.pl
3352				; Automatically 16 NOPs removed by reduceNOPs.sh
3353	0a7d	8ce70000		lw	%GPR7,0(%GPR7)	
3354	0a7e	00000000		nop	; Automatically Added by addNops.pl
3355	0a7f	00000000		nop	; Automatically Added by addNops.pl
3356	0a80	00000000		nop	; Automatically Added by addNops.pl
3357	0a81	3c0a0000		lhi	%GPR10,$0	
3358	0a82	00000000		nop	; Automatically Added by addNops.pl
3359	0a83	00000000		nop	; Automatically Added by addNops.pl
3360	0a84	00000000		nop	; Automatically Added by addNops.pl
3361				; Automatically 16 NOPs removed by reduceNOPs.sh
3362	0a85	354a0020		ori	%GPR10,%GPR10,$32	
3363	0a86	00000000		nop	; Automatically Added by addNops.pl
3364	0a87	00000000		nop	; Automatically Added by addNops.pl
3365	0a88	00000000		nop	; Automatically Added by addNops.pl
3366				; Automatically 16 NOPs removed by reduceNOPs.sh
3367	0a89	00ead82a		slt	%GPR27,%GPR7,%GPR10	
3368	0a8a	00000000		nop	; Automatically Added by addNops.pl
3369	0a8b	00000000		nop	; Automatically Added by addNops.pl
3370	0a8c	00000000		nop	; Automatically Added by addNops.pl
3371	0a8d	17600008		bnez	%GPR27,L_lib_lcd_42	
3372	0a8e	00000000		nop	; Automatically Added by addNops.pl
3373	0a8f	00000000		nop	; Automatically Added by addNops.pl
3374	0a90	00000000		nop	; Automatically Added by addNops.pl
3375				; Automatically 16 NOPs removed by reduceNOPs.sh
3376	0a91	08000200		j	L_lib_lcd_45	
3377	0a92	00000000		nop	; Automatically Added by addNops.pl
3378	0a93	00000000		nop	; Automatically Added by addNops.pl
3379	0a94	00000000		nop	; Automatically Added by addNops.pl
3380				; Automatically 16 NOPs removed by reduceNOPs.sh
3381			L_lib_lcd_42:
3382	0a95	00000000		nop	; Automatically Added by addNops.pl
3383	0a96	00000000		nop	; Automatically Added by addNops.pl
3384	0a97	00000000		nop	; Automatically Added by addNops.pl
3385	0a98	3c070000		lhi	%GPR7,$( L_lib_lcd_1	/0x10000)
3386	0a99	00000000		nop
3387	0a9a	00000000		nop
3388	0a9b	00000000		nop
3389	0a9c	34e70000		ori	%GPR7,%GPR7,$( L_lib_lcd_1	%0x10000)
3390	0a9d	00000000		nop	; Automatically Added by addNops.pl
3391	0a9e	00000000		nop	; Automatically Added by addNops.pl
3392	0a9f	00000000		nop	; Automatically Added by addNops.pl
3393				; Automatically 8 NOPs removed by reduceNOPs.sh
3394	0aa0	2bca0024		subi	%GPR10,%GPR30,$36	
3395	0aa1	00000000		nop	; Automatically Added by addNops.pl
3396	0aa2	00000000		nop	; Automatically Added by addNops.pl
3397	0aa3	00000000		nop	; Automatically Added by addNops.pl
3398				; Automatically 8 NOPs removed by reduceNOPs.sh
3399	0aa4	8ce70000		lw	%GPR7,0(%GPR7)	
3400	0aa5	00000000		nop	; Automatically Added by addNops.pl
3401	0aa6	00000000		nop	; Automatically Added by addNops.pl
3402	0aa7	00000000		nop	; Automatically Added by addNops.pl
3403	0aa8	3c0b0000		lhi	%GPR11,$0	
3404	0aa9	00000000		nop	; Automatically Added by addNops.pl
3405	0aaa	00000000		nop	; Automatically Added by addNops.pl
3406	0aab	00000000		nop	; Automatically Added by addNops.pl
3407				; Automatically 16 NOPs removed by reduceNOPs.sh
3408	0aac	356b0004		ori	%GPR11,%GPR11,$4	
3409	0aad	00000000		nop	; Automatically Added by addNops.pl
3410	0aae	00000000		nop	; Automatically Added by addNops.pl
3411	0aaf	00000000		nop	; Automatically Added by addNops.pl
3412	0ab0	2bcc0024		subi	%GPR12,%GPR30,$36	
3413	0ab1	00000000		nop	; Automatically Added by addNops.pl
3414	0ab2	00000000		nop	; Automatically Added by addNops.pl
3415	0ab3	00000000		nop	; Automatically Added by addNops.pl
3416				; Automatically 8 NOPs removed by reduceNOPs.sh
3417	0ab4	afc7ffdc		sw	-36(%GPR30),%GPR7	
3418	0ab5	00000000		nop	; Automatically Added by addNops.pl
3419	0ab6	00000000		nop	; Automatically Added by addNops.pl
3420	0ab7	00000000		nop	; Automatically Added by addNops.pl
3421	0ab8	014b5020		add	%GPR10,%GPR10,%GPR11	
3422	0ab9	00000000		nop	; Automatically Added by addNops.pl
3423	0aba	00000000		nop	; Automatically Added by addNops.pl
3424	0abb	00000000		nop	; Automatically Added by addNops.pl
3425	0abc	3c070000		lhi	%GPR7,$0	
3426	0abd	00000000		nop	; Automatically Added by addNops.pl
3427	0abe	00000000		nop	; Automatically Added by addNops.pl
3428	0abf	00000000		nop	; Automatically Added by addNops.pl
3429				; Automatically 16 NOPs removed by reduceNOPs.sh
3430	0ac0	34e70008		ori	%GPR7,%GPR7,$8	
3431	0ac1	00000000		nop	; Automatically Added by addNops.pl
3432	0ac2	00000000		nop	; Automatically Added by addNops.pl
3433	0ac3	00000000		nop	; Automatically Added by addNops.pl
3434	0ac4	2bcb0024		subi	%GPR11,%GPR30,$36	
3435	0ac5	00000000		nop	; Automatically Added by addNops.pl
3436	0ac6	00000000		nop	; Automatically Added by addNops.pl
3437	0ac7	00000000		nop	; Automatically Added by addNops.pl
3438	0ac8	3c0d0000		lhi	%GPR13,$0	
3439	0ac9	00000000		nop	; Automatically Added by addNops.pl
3440	0aca	00000000		nop	; Automatically Added by addNops.pl
3441	0acb	00000000		nop	; Automatically Added by addNops.pl
3442				; Automatically 16 NOPs removed by reduceNOPs.sh
3443	0acc	35ad000c		ori	%GPR13,%GPR13,$12	
3444	0acd	00000000		nop	; Automatically Added by addNops.pl
3445	0ace	00000000		nop	; Automatically Added by addNops.pl
3446	0acf	00000000		nop	; Automatically Added by addNops.pl
3447	0ad0	ad410000		sw	0(%GPR10),%GPR1	
3448	0ad1	00000000		nop	; Automatically Added by addNops.pl
3449	0ad2	00000000		nop	; Automatically Added by addNops.pl
3450	0ad3	00000000		nop	; Automatically Added by addNops.pl
3451	0ad4	01870820		add	%GPR1,%GPR12,%GPR7	
3452	0ad5	00000000		nop	; Automatically Added by addNops.pl
3453	0ad6	00000000		nop	; Automatically Added by addNops.pl
3454	0ad7	00000000		nop	; Automatically Added by addNops.pl
3455				; Automatically 8 NOPs removed by reduceNOPs.sh
3456	0ad8	2bc70024		subi	%GPR7,%GPR30,$36	
3457	0ad9	00000000		nop	; Automatically Added by addNops.pl
3458	0ada	00000000		nop	; Automatically Added by addNops.pl
3459	0adb	00000000		nop	; Automatically Added by addNops.pl
3460				; Automatically 8 NOPs removed by reduceNOPs.sh
3461	0adc	ac220000		sw	0(%GPR1),%GPR2	
3462	0add	00000000		nop	; Automatically Added by addNops.pl
3463	0ade	00000000		nop	; Automatically Added by addNops.pl
3464	0adf	00000000		nop	; Automatically Added by addNops.pl
3465	0ae0	016d0820		add	%GPR1,%GPR11,%GPR13	
3466	0ae1	00000000		nop	; Automatically Added by addNops.pl
3467	0ae2	00000000		nop	; Automatically Added by addNops.pl
3468	0ae3	00000000		nop	; Automatically Added by addNops.pl
3469	0ae4	3c0a0000		lhi	%GPR10,$0	
3470	0ae5	00000000		nop	; Automatically Added by addNops.pl
3471	0ae6	00000000		nop	; Automatically Added by addNops.pl
3472	0ae7	00000000		nop	; Automatically Added by addNops.pl
3473				; Automatically 16 NOPs removed by reduceNOPs.sh
3474	0ae8	354a0010		ori	%GPR10,%GPR10,$16	
3475	0ae9	00000000		nop	; Automatically Added by addNops.pl
3476	0aea	00000000		nop	; Automatically Added by addNops.pl
3477	0aeb	00000000		nop	; Automatically Added by addNops.pl
3478	0aec	2bc20024		subi	%GPR2,%GPR30,$36	
3479	0aed	00000000		nop	; Automatically Added by addNops.pl
3480	0aee	00000000		nop	; Automatically Added by addNops.pl
3481	0aef	00000000		nop	; Automatically Added by addNops.pl
3482	0af0	3c0b0000		lhi	%GPR11,$0	
3483	0af1	00000000		nop	; Automatically Added by addNops.pl
3484	0af2	00000000		nop	; Automatically Added by addNops.pl
3485	0af3	00000000		nop	; Automatically Added by addNops.pl
3486				; Automatically 16 NOPs removed by reduceNOPs.sh
3487	0af4	356b0014		ori	%GPR11,%GPR11,$20	
3488	0af5	00000000		nop	; Automatically Added by addNops.pl
3489	0af6	00000000		nop	; Automatically Added by addNops.pl
3490	0af7	00000000		nop	; Automatically Added by addNops.pl
3491	0af8	ac230000		sw	0(%GPR1),%GPR3	
3492	0af9	00000000		nop	; Automatically Added by addNops.pl
3493	0afa	00000000		nop	; Automatically Added by addNops.pl
3494	0afb	00000000		nop	; Automatically Added by addNops.pl
3495	0afc	00ea0820		add	%GPR1,%GPR7,%GPR10	
3496	0afd	00000000		nop	; Automatically Added by addNops.pl
3497	0afe	00000000		nop	; Automatically Added by addNops.pl
3498	0aff	00000000		nop	; Automatically Added by addNops.pl
3499				; Automatically 8 NOPs removed by reduceNOPs.sh
3500	0b00	2bc30024		subi	%GPR3,%GPR30,$36	
3501	0b01	00000000		nop	; Automatically Added by addNops.pl
3502	0b02	00000000		nop	; Automatically Added by addNops.pl
3503	0b03	00000000		nop	; Automatically Added by addNops.pl
3504				; Automatically 8 NOPs removed by reduceNOPs.sh
3505	0b04	ac240000		sw	0(%GPR1),%GPR4	
3506	0b05	00000000		nop	; Automatically Added by addNops.pl
3507	0b06	00000000		nop	; Automatically Added by addNops.pl
3508	0b07	00000000		nop	; Automatically Added by addNops.pl
3509	0b08	004b0820		add	%GPR1,%GPR2,%GPR11	
3510	0b09	00000000		nop	; Automatically Added by addNops.pl
3511	0b0a	00000000		nop	; Automatically Added by addNops.pl
3512	0b0b	00000000		nop	; Automatically Added by addNops.pl
3513	0b0c	3c070000		lhi	%GPR7,$0	
3514	0b0d	00000000		nop	; Automatically Added by addNops.pl
3515	0b0e	00000000		nop	; Automatically Added by addNops.pl
3516	0b0f	00000000		nop	; Automatically Added by addNops.pl
3517				; Automatically 16 NOPs removed by reduceNOPs.sh
3518	0b10	34e70018		ori	%GPR7,%GPR7,$24	
3519	0b11	00000000		nop	; Automatically Added by addNops.pl
3520	0b12	00000000		nop	; Automatically Added by addNops.pl
3521	0b13	00000000		nop	; Automatically Added by addNops.pl
3522	0b14	3c040000		lhi	%GPR4,$0	
3523	0b15	00000000		nop	; Automatically Added by addNops.pl
3524	0b16	00000000		nop	; Automatically Added by addNops.pl
3525	0b17	00000000		nop	; Automatically Added by addNops.pl
3526				; Automatically 16 NOPs removed by reduceNOPs.sh
3527	0b18	3484001c		ori	%GPR4,%GPR4,$28	
3528	0b19	00000000		nop	; Automatically Added by addNops.pl
3529	0b1a	00000000		nop	; Automatically Added by addNops.pl
3530	0b1b	00000000		nop	; Automatically Added by addNops.pl
3531	0b1c	2bc20024		subi	%GPR2,%GPR30,$36	
3532	0b1d	00000000		nop	; Automatically Added by addNops.pl
3533	0b1e	00000000		nop	; Automatically Added by addNops.pl
3534	0b1f	00000000		nop	; Automatically Added by addNops.pl
3535	0b20	ac250000		sw	0(%GPR1),%GPR5	
3536	0b21	00000000		nop	; Automatically Added by addNops.pl
3537	0b22	00000000		nop	; Automatically Added by addNops.pl
3538	0b23	00000000		nop	; Automatically Added by addNops.pl
3539	0b24	00670820		add	%GPR1,%GPR3,%GPR7	
3540	0b25	00000000		nop	; Automatically Added by addNops.pl
3541	0b26	00000000		nop	; Automatically Added by addNops.pl
3542	0b27	00000000		nop	; Automatically Added by addNops.pl
3543				; Automatically 8 NOPs removed by reduceNOPs.sh
3544	0b28	00442020		add	%GPR4,%GPR2,%GPR4	
3545	0b29	00000000		nop	; Automatically Added by addNops.pl
3546	0b2a	00000000		nop	; Automatically Added by addNops.pl
3547	0b2b	00000000		nop	; Automatically Added by addNops.pl
3548	0b2c	2bca0024		subi	%GPR10,%GPR30,$36	
3549	0b2d	00000000		nop	; Automatically Added by addNops.pl
3550	0b2e	00000000		nop	; Automatically Added by addNops.pl
3551	0b2f	00000000		nop	; Automatically Added by addNops.pl
3552	0b30	ac260000		sw	0(%GPR1),%GPR6	
3553	0b31	00000000		nop	; Automatically Added by addNops.pl
3554	0b32	00000000		nop	; Automatically Added by addNops.pl
3555	0b33	00000000		nop	; Automatically Added by addNops.pl
3556	0b34	3c0b0000		lhi	%GPR11,$0	
3557	0b35	00000000		nop	; Automatically Added by addNops.pl
3558	0b36	00000000		nop	; Automatically Added by addNops.pl
3559	0b37	00000000		nop	; Automatically Added by addNops.pl
3560				; Automatically 16 NOPs removed by reduceNOPs.sh
3561	0b38	356b0020		ori	%GPR11,%GPR11,$32	
3562	0b39	00000000		nop	; Automatically Added by addNops.pl
3563	0b3a	00000000		nop	; Automatically Added by addNops.pl
3564	0b3b	00000000		nop	; Automatically Added by addNops.pl
3565				; Automatically 12 NOPs removed by reduceNOPs.sh
3566	0b3c	ac880000		sw	0(%GPR4),%GPR8	
3567	0b3d	00000000		nop	; Automatically Added by addNops.pl
3568	0b3e	00000000		nop	; Automatically Added by addNops.pl
3569	0b3f	00000000		nop	; Automatically Added by addNops.pl
3570				; Automatically 16 NOPs removed by reduceNOPs.sh
3571	0b40	014b5020		add	%GPR10,%GPR10,%GPR11	
3572	0b41	00000000		nop	; Automatically Added by addNops.pl
3573	0b42	00000000		nop	; Automatically Added by addNops.pl
3574	0b43	00000000		nop	; Automatically Added by addNops.pl
3575				; Automatically 8 NOPs removed by reduceNOPs.sh
3576	0b44	2bc30024		subi	%GPR3,%GPR30,$36	
3577	0b45	00000000		nop	; Automatically Added by addNops.pl
3578	0b46	00000000		nop	; Automatically Added by addNops.pl
3579	0b47	00000000		nop	; Automatically Added by addNops.pl
3580	0b48	3c070000		lhi	%GPR7,$0	
3581	0b49	00000000		nop	; Automatically Added by addNops.pl
3582	0b4a	00000000		nop	; Automatically Added by addNops.pl
3583	0b4b	00000000		nop	; Automatically Added by addNops.pl
3584				; Automatically 16 NOPs removed by reduceNOPs.sh
3585	0b4c	34e7006f		ori	%GPR7,%GPR7,$111	
3586	0b4d	00000000		nop	; Automatically Added by addNops.pl
3587	0b4e	00000000		nop	; Automatically Added by addNops.pl
3588	0b4f	00000000		nop	; Automatically Added by addNops.pl
3589	0b50	3c060000		lhi	%GPR6,$0	
3590	0b51	00000000		nop	; Automatically Added by addNops.pl
3591	0b52	00000000		nop	; Automatically Added by addNops.pl
3592	0b53	00000000		nop	; Automatically Added by addNops.pl
3593				; Automatically 16 NOPs removed by reduceNOPs.sh
3594	0b54	34c60000		ori	%GPR6,%GPR6,$0	
3595	0b55	00000000		nop	; Automatically Added by addNops.pl
3596	0b56	00000000		nop	; Automatically Added by addNops.pl
3597	0b57	00000000		nop	; Automatically Added by addNops.pl
3598	0b58	3c050000		lhi	%GPR5,$0	
3599	0b59	00000000		nop	; Automatically Added by addNops.pl
3600	0b5a	00000000		nop	; Automatically Added by addNops.pl
3601	0b5b	00000000		nop	; Automatically Added by addNops.pl
3602				; Automatically 16 NOPs removed by reduceNOPs.sh
3603	0b5c	34a50009		ori	%GPR5,%GPR5,$9	
3604	0b5d	00000000		nop	; Automatically Added by addNops.pl
3605	0b5e	00000000		nop	; Automatically Added by addNops.pl
3606	0b5f	00000000		nop	; Automatically Added by addNops.pl
3607	0b60	3c020000		lhi	%GPR2,$0	
3608	0b61	00000000		nop	; Automatically Added by addNops.pl
3609	0b62	00000000		nop	; Automatically Added by addNops.pl
3610	0b63	00000000		nop	; Automatically Added by addNops.pl
3611				; Automatically 16 NOPs removed by reduceNOPs.sh
3612	0b64	34420052		ori	%GPR2,%GPR2,$82	
3613	0b65	00000000		nop	; Automatically Added by addNops.pl
3614	0b66	00000000		nop	; Automatically Added by addNops.pl
3615	0b67	00000000		nop	; Automatically Added by addNops.pl
3616	0b68	3c010000		lhi	%GPR1,$0	
3617	0b69	00000000		nop	; Automatically Added by addNops.pl
3618	0b6a	00000000		nop	; Automatically Added by addNops.pl
3619	0b6b	00000000		nop	; Automatically Added by addNops.pl
3620				; Automatically 16 NOPs removed by reduceNOPs.sh
3621	0b6c	34210042		ori	%GPR1,%GPR1,$66	
3622	0b6d	00000000		nop	; Automatically Added by addNops.pl
3623	0b6e	00000000		nop	; Automatically Added by addNops.pl
3624	0b6f	00000000		nop	; Automatically Added by addNops.pl
3625	0b70	ad490000		sw	0(%GPR10),%GPR9	
3626	0b71	00000000		nop	; Automatically Added by addNops.pl
3627	0b72	00000000		nop	; Automatically Added by addNops.pl
3628	0b73	00000000		nop	; Automatically Added by addNops.pl
3629	0b74	3c040000		lhi	%GPR4,$0	
3630	0b75	00000000		nop	; Automatically Added by addNops.pl
3631	0b76	00000000		nop	; Automatically Added by addNops.pl
3632	0b77	00000000		nop	; Automatically Added by addNops.pl
3633				; Automatically 16 NOPs removed by reduceNOPs.sh
3634	0b78	34840000		ori	%GPR4,%GPR4,$0	
3635	0b79	00000000		nop	; Automatically Added by addNops.pl
3636	0b7a	00000000		nop	; Automatically Added by addNops.pl
3637	0b7b	00000000		nop	; Automatically Added by addNops.pl
3638				; Automatically 16 NOPs removed by reduceNOPs.sh
3639	0b7c	2bbd0008		subi	%GPR29,%GPR29,$8	
3640	0b7d	00000000		nop	; Automatically Added by addNops.pl
3641	0b7e	00000000		nop	; Automatically Added by addNops.pl
3642	0b7f	00000000		nop	; Automatically Added by addNops.pl
3643				; Automatically 16 NOPs removed by reduceNOPs.sh
3644	0b80	0ffff882		jal	sendcommand	
3645	0b81	00000000		nop	; Automatically Added by addNops.pl
3646	0b82	00000000		nop	; Automatically Added by addNops.pl
3647	0b83	00000000		nop	; Automatically Added by addNops.pl
3648				; Automatically 16 NOPs removed by reduceNOPs.sh
3649	0b84	23bd0008		addi	%GPR29,%GPR29,$8	
3650	0b85	00000000		nop	; Automatically Added by addNops.pl
3651	0b86	00000000		nop	; Automatically Added by addNops.pl
3652	0b87	00000000		nop	; Automatically Added by addNops.pl
3653				; Automatically 24 NOPs removed by reduceNOPs.sh
3654	0b88	8fc2ffd4		lw	%GPR2,-44(%GPR30)	
3655	0b89	00000000		nop	; Automatically Added by addNops.pl
3656	0b8a	00000000		nop	; Automatically Added by addNops.pl
3657	0b8b	00000000		nop	; Automatically Added by addNops.pl
3658				; Automatically 12 NOPs removed by reduceNOPs.sh
3659	0b8c	3c010000		lhi	%GPR1,$0	
3660	0b8d	00000000		nop	; Automatically Added by addNops.pl
3661	0b8e	00000000		nop	; Automatically Added by addNops.pl
3662	0b8f	00000000		nop	; Automatically Added by addNops.pl
3663				; Automatically 16 NOPs removed by reduceNOPs.sh
3664	0b90	34210000		ori	%GPR1,%GPR1,$0	
3665	0b91	00000000		nop	; Automatically Added by addNops.pl
3666	0b92	00000000		nop	; Automatically Added by addNops.pl
3667	0b93	00000000		nop	; Automatically Added by addNops.pl
3668				; Automatically 16 NOPs removed by reduceNOPs.sh
3669	0b94	0041d82f		sne	%GPR27,%GPR2,%GPR1	
3670	0b95	00000000		nop	; Automatically Added by addNops.pl
3671	0b96	00000000		nop	; Automatically Added by addNops.pl
3672	0b97	00000000		nop	; Automatically Added by addNops.pl
3673	0b98	17600008		bnez	%GPR27,L_lib_lcd_43	
3674	0b99	00000000		nop	; Automatically Added by addNops.pl
3675	0b9a	00000000		nop	; Automatically Added by addNops.pl
3676	0b9b	00000000		nop	; Automatically Added by addNops.pl
3677				; Automatically 16 NOPs removed by reduceNOPs.sh
3678	0b9c	08000057		j	L_lib_lcd_44	
3679	0b9d	00000000		nop	; Automatically Added by addNops.pl
3680	0b9e	00000000		nop	; Automatically Added by addNops.pl
3681	0b9f	00000000		nop	; Automatically Added by addNops.pl
3682				; Automatically 16 NOPs removed by reduceNOPs.sh
3683			L_lib_lcd_43:
3684	0ba0	00000000		nop	; Automatically Added by addNops.pl
3685	0ba1	00000000		nop	; Automatically Added by addNops.pl
3686	0ba2	00000000		nop	; Automatically Added by addNops.pl
3687	0ba3	3c010000		lhi	%GPR1,$( L_lib_lcd_1	/0x10000)
3688	0ba4	00000000		nop
3689	0ba5	00000000		nop
3690	0ba6	00000000		nop
3691	0ba7	34210000		ori	%GPR1,%GPR1,$( L_lib_lcd_1	%0x10000)
3692	0ba8	00000000		nop	; Automatically Added by addNops.pl
3693	0ba9	00000000		nop	; Automatically Added by addNops.pl
3694	0baa	00000000		nop	; Automatically Added by addNops.pl
3695				; Automatically 16 NOPs removed by reduceNOPs.sh
3696	0bab	8c280000		lw	%GPR8,0(%GPR1)	
3697	0bac	00000000		nop	; Automatically Added by addNops.pl
3698	0bad	00000000		nop	; Automatically Added by addNops.pl
3699	0bae	00000000		nop	; Automatically Added by addNops.pl
3700				; Automatically 16 NOPs removed by reduceNOPs.sh
3701	0baf	2bc30024		subi	%GPR3,%GPR30,$36	
3702	0bb0	00000000		nop	; Automatically Added by addNops.pl
3703	0bb1	00000000		nop	; Automatically Added by addNops.pl
3704	0bb2	00000000		nop	; Automatically Added by addNops.pl
3705	0bb3	3c070000		lhi	%GPR7,$0	
3706	0bb4	00000000		nop	; Automatically Added by addNops.pl
3707	0bb5	00000000		nop	; Automatically Added by addNops.pl
3708	0bb6	00000000		nop	; Automatically Added by addNops.pl
3709				; Automatically 16 NOPs removed by reduceNOPs.sh
3710	0bb7	34e7006f		ori	%GPR7,%GPR7,$111	
3711	0bb8	00000000		nop	; Automatically Added by addNops.pl
3712	0bb9	00000000		nop	; Automatically Added by addNops.pl
3713	0bba	00000000		nop	; Automatically Added by addNops.pl
3714	0bbb	3c060000		lhi	%GPR6,$0	
3715	0bbc	00000000		nop	; Automatically Added by addNops.pl
3716	0bbd	00000000		nop	; Automatically Added by addNops.pl
3717	0bbe	00000000		nop	; Automatically Added by addNops.pl
3718				; Automatically 16 NOPs removed by reduceNOPs.sh
3719	0bbf	34c60000		ori	%GPR6,%GPR6,$0	
3720	0bc0	00000000		nop	; Automatically Added by addNops.pl
3721	0bc1	00000000		nop	; Automatically Added by addNops.pl
3722	0bc2	00000000		nop	; Automatically Added by addNops.pl
3723	0bc3	3c050000		lhi	%GPR5,$0	
3724	0bc4	00000000		nop	; Automatically Added by addNops.pl
3725	0bc5	00000000		nop	; Automatically Added by addNops.pl
3726	0bc6	00000000		nop	; Automatically Added by addNops.pl
3727				; Automatically 16 NOPs removed by reduceNOPs.sh
3728	0bc7	34a50001		ori	%GPR5,%GPR5,$1	
3729	0bc8	00000000		nop	; Automatically Added by addNops.pl
3730	0bc9	00000000		nop	; Automatically Added by addNops.pl
3731	0bca	00000000		nop	; Automatically Added by addNops.pl
3732	0bcb	afc8ffdc		sw	-36(%GPR30),%GPR8	
3733	0bcc	00000000		nop	; Automatically Added by addNops.pl
3734	0bcd	00000000		nop	; Automatically Added by addNops.pl
3735	0bce	00000000		nop	; Automatically Added by addNops.pl
3736	0bcf	3c020000		lhi	%GPR2,$0	
3737	0bd0	00000000		nop	; Automatically Added by addNops.pl
3738	0bd1	00000000		nop	; Automatically Added by addNops.pl
3739	0bd2	00000000		nop	; Automatically Added by addNops.pl
3740				; Automatically 16 NOPs removed by reduceNOPs.sh
3741	0bd3	34420042		ori	%GPR2,%GPR2,$66	
3742	0bd4	00000000		nop	; Automatically Added by addNops.pl
3743	0bd5	00000000		nop	; Automatically Added by addNops.pl
3744	0bd6	00000000		nop	; Automatically Added by addNops.pl
3745	0bd7	3c010000		lhi	%GPR1,$0	
3746	0bd8	00000000		nop	; Automatically Added by addNops.pl
3747	0bd9	00000000		nop	; Automatically Added by addNops.pl
3748	0bda	00000000		nop	; Automatically Added by addNops.pl
3749				; Automatically 16 NOPs removed by reduceNOPs.sh
3750	0bdb	34210041		ori	%GPR1,%GPR1,$65	
3751	0bdc	00000000		nop	; Automatically Added by addNops.pl
3752	0bdd	00000000		nop	; Automatically Added by addNops.pl
3753	0bde	00000000		nop	; Automatically Added by addNops.pl
3754	0bdf	3c040000		lhi	%GPR4,$0	
3755	0be0	00000000		nop	; Automatically Added by addNops.pl
3756	0be1	00000000		nop	; Automatically Added by addNops.pl
3757	0be2	00000000		nop	; Automatically Added by addNops.pl
3758				; Automatically 16 NOPs removed by reduceNOPs.sh
3759	0be3	34840000		ori	%GPR4,%GPR4,$0	
3760	0be4	00000000		nop	; Automatically Added by addNops.pl
3761	0be5	00000000		nop	; Automatically Added by addNops.pl
3762	0be6	00000000		nop	; Automatically Added by addNops.pl
3763				; Automatically 16 NOPs removed by reduceNOPs.sh
3764	0be7	2bbd0008		subi	%GPR29,%GPR29,$8	
3765	0be8	00000000		nop	; Automatically Added by addNops.pl
3766	0be9	00000000		nop	; Automatically Added by addNops.pl
3767	0bea	00000000		nop	; Automatically Added by addNops.pl
3768				; Automatically 16 NOPs removed by reduceNOPs.sh
3769	0beb	0ffff817		jal	sendcommand	
3770	0bec	00000000		nop	; Automatically Added by addNops.pl
3771	0bed	00000000		nop	; Automatically Added by addNops.pl
3772	0bee	00000000		nop	; Automatically Added by addNops.pl
3773				; Automatically 16 NOPs removed by reduceNOPs.sh
3774	0bef	23bd0008		addi	%GPR29,%GPR29,$8	
3775	0bf0	00000000		nop	; Automatically Added by addNops.pl
3776	0bf1	00000000		nop	; Automatically Added by addNops.pl
3777	0bf2	00000000		nop	; Automatically Added by addNops.pl
3778				; Automatically 28 NOPs removed by reduceNOPs.sh
3779			L_lib_lcd_44:
3780	0bf3	00000000		nop	; Automatically Added by addNops.pl
3781	0bf4	00000000		nop	; Automatically Added by addNops.pl
3782	0bf5	00000000		nop	; Automatically Added by addNops.pl
3783				; Automatically 12 NOPs removed by reduceNOPs.sh
3784	0bf6	3c010000		lhi	%GPR1,$( L_lib_lcd_1	/0x10000)
3785	0bf7	00000000		nop
3786	0bf8	00000000		nop
3787	0bf9	00000000		nop
3788	0bfa	34210000		ori	%GPR1,%GPR1,$( L_lib_lcd_1	%0x10000)
3789	0bfb	00000000		nop	; Automatically Added by addNops.pl
3790	0bfc	00000000		nop	; Automatically Added by addNops.pl
3791	0bfd	00000000		nop	; Automatically Added by addNops.pl
3792	0bfe	3c020000		lhi	%GPR2,$( L_lib_lcd_1	/0x10000)
3793	0bff	00000000		nop
3794	0c00	00000000		nop
3795	0c01	00000000		nop
3796	0c02	34420000		ori	%GPR2,%GPR2,$( L_lib_lcd_1	%0x10000)
3797	0c03	00000000		nop	; Automatically Added by addNops.pl
3798	0c04	00000000		nop	; Automatically Added by addNops.pl
3799	0c05	00000000		nop	; Automatically Added by addNops.pl
3800				; Automatically 8 NOPs removed by reduceNOPs.sh
3801	0c06	3c030000		lhi	%GPR3,$( L_lib_lcd_1	/0x10000)
3802	0c07	00000000		nop
3803	0c08	00000000		nop
3804	0c09	00000000		nop
3805	0c0a	34630000		ori	%GPR3,%GPR3,$( L_lib_lcd_1	%0x10000)
3806	0c0b	00000000		nop	; Automatically Added by addNops.pl
3807	0c0c	00000000		nop	; Automatically Added by addNops.pl
3808	0c0d	00000000		nop	; Automatically Added by addNops.pl
3809	0c0e	8c240000		lw	%GPR4,0(%GPR1)	
3810	0c0f	00000000		nop	; Automatically Added by addNops.pl
3811	0c10	00000000		nop	; Automatically Added by addNops.pl
3812	0c11	00000000		nop	; Automatically Added by addNops.pl
3813	0c12	00000000		nop	; Automatically added by fix-stall-insns.pl
3814	0c13	8c410000		lw	%GPR1,0(%GPR2)	
3815	0c14	00000000		nop	; Automatically Added by addNops.pl
3816	0c15	00000000		nop	; Automatically Added by addNops.pl
3817	0c16	00000000		nop	; Automatically Added by addNops.pl
3818	0c17	2bc80024		subi	%GPR8,%GPR30,$36	
3819	0c18	00000000		nop	; Automatically Added by addNops.pl
3820	0c19	00000000		nop	; Automatically Added by addNops.pl
3821	0c1a	00000000		nop	; Automatically Added by addNops.pl
3822	0c1b	3c090000		lhi	%GPR9,$0	
3823	0c1c	00000000		nop	; Automatically Added by addNops.pl
3824	0c1d	00000000		nop	; Automatically Added by addNops.pl
3825	0c1e	00000000		nop	; Automatically Added by addNops.pl
3826				; Automatically 16 NOPs removed by reduceNOPs.sh
3827	0c1f	35290004		ori	%GPR9,%GPR9,$4	
3828	0c20	00000000		nop	; Automatically Added by addNops.pl
3829	0c21	00000000		nop	; Automatically Added by addNops.pl
3830	0c22	00000000		nop	; Automatically Added by addNops.pl
3831	0c23	20820001		addi	%GPR2,%GPR4,$1	
3832	0c24	00000000		nop	; Automatically Added by addNops.pl
3833	0c25	00000000		nop	; Automatically Added by addNops.pl
3834	0c26	00000000		nop	; Automatically Added by addNops.pl
3835				; Automatically 12 NOPs removed by reduceNOPs.sh
3836	0c27	01094020		add	%GPR8,%GPR8,%GPR9	
3837	0c28	00000000		nop	; Automatically Added by addNops.pl
3838	0c29	00000000		nop	; Automatically Added by addNops.pl
3839	0c2a	00000000		nop	; Automatically Added by addNops.pl
3840	0c2b	ac620000		sw	0(%GPR3),%GPR2	
3841	0c2c	00000000		nop	; Automatically Added by addNops.pl
3842	0c2d	00000000		nop	; Automatically Added by addNops.pl
3843	0c2e	00000000		nop	; Automatically Added by addNops.pl
3844				; Automatically 16 NOPs removed by reduceNOPs.sh
3845	0c2f	00000000		nop	; Automatically added by fix-stall-insns.pl
3846	0c30	afc1ffdc		sw	-36(%GPR30),%GPR1	
3847	0c31	00000000		nop	; Automatically Added by addNops.pl
3848	0c32	00000000		nop	; Automatically Added by addNops.pl
3849	0c33	00000000		nop	; Automatically Added by addNops.pl
3850	0c34	00000000		nop	; Automatically added by fix-stall-insns.pl
3851	0c35	8fc9ffd8		lw	%GPR9,-40(%GPR30)	
3852	0c36	00000000		nop	; Automatically Added by addNops.pl
3853	0c37	00000000		nop	; Automatically Added by addNops.pl
3854	0c38	00000000		nop	; Automatically Added by addNops.pl
3855	0c39	3c040000		lhi	%GPR4,$0	
3856	0c3a	00000000		nop	; Automatically Added by addNops.pl
3857	0c3b	00000000		nop	; Automatically Added by addNops.pl
3858	0c3c	00000000		nop	; Automatically Added by addNops.pl
3859				; Automatically 16 NOPs removed by reduceNOPs.sh
3860	0c3d	34840000		ori	%GPR4,%GPR4,$0	
3861	0c3e	00000000		nop	; Automatically Added by addNops.pl
3862	0c3f	00000000		nop	; Automatically Added by addNops.pl
3863	0c40	00000000		nop	; Automatically Added by addNops.pl
3864	0c41	3c070000		lhi	%GPR7,$0	
3865	0c42	00000000		nop	; Automatically Added by addNops.pl
3866	0c43	00000000		nop	; Automatically Added by addNops.pl
3867	0c44	00000000		nop	; Automatically Added by addNops.pl
3868				; Automatically 16 NOPs removed by reduceNOPs.sh
3869	0c45	34e7006f		ori	%GPR7,%GPR7,$111	
3870	0c46	00000000		nop	; Automatically Added by addNops.pl
3871	0c47	00000000		nop	; Automatically Added by addNops.pl
3872	0c48	00000000		nop	; Automatically Added by addNops.pl
3873	0c49	3c060000		lhi	%GPR6,$0	
3874	0c4a	00000000		nop	; Automatically Added by addNops.pl
3875	0c4b	00000000		nop	; Automatically Added by addNops.pl
3876	0c4c	00000000		nop	; Automatically Added by addNops.pl
3877				; Automatically 16 NOPs removed by reduceNOPs.sh
3878	0c4d	34c60000		ori	%GPR6,%GPR6,$0	
3879	0c4e	00000000		nop	; Automatically Added by addNops.pl
3880	0c4f	00000000		nop	; Automatically Added by addNops.pl
3881	0c50	00000000		nop	; Automatically Added by addNops.pl
3882	0c51	2bc30024		subi	%GPR3,%GPR30,$36	
3883	0c52	00000000		nop	; Automatically Added by addNops.pl
3884	0c53	00000000		nop	; Automatically Added by addNops.pl
3885	0c54	00000000		nop	; Automatically Added by addNops.pl
3886	0c55	3c050000		lhi	%GPR5,$0	
3887	0c56	00000000		nop	; Automatically Added by addNops.pl
3888	0c57	00000000		nop	; Automatically Added by addNops.pl
3889	0c58	00000000		nop	; Automatically Added by addNops.pl
3890				; Automatically 16 NOPs removed by reduceNOPs.sh
3891	0c59	34a50002		ori	%GPR5,%GPR5,$2	
3892	0c5a	00000000		nop	; Automatically Added by addNops.pl
3893	0c5b	00000000		nop	; Automatically Added by addNops.pl
3894	0c5c	00000000		nop	; Automatically Added by addNops.pl
3895	0c5d	3c020000		lhi	%GPR2,$0	
3896	0c5e	00000000		nop	; Automatically Added by addNops.pl
3897	0c5f	00000000		nop	; Automatically Added by addNops.pl
3898	0c60	00000000		nop	; Automatically Added by addNops.pl
3899				; Automatically 16 NOPs removed by reduceNOPs.sh
3900	0c61	34420041		ori	%GPR2,%GPR2,$65	
3901	0c62	00000000		nop	; Automatically Added by addNops.pl
3902	0c63	00000000		nop	; Automatically Added by addNops.pl
3903	0c64	00000000		nop	; Automatically Added by addNops.pl
3904	0c65	3c010000		lhi	%GPR1,$0	
3905	0c66	00000000		nop	; Automatically Added by addNops.pl
3906	0c67	00000000		nop	; Automatically Added by addNops.pl
3907	0c68	00000000		nop	; Automatically Added by addNops.pl
3908				; Automatically 16 NOPs removed by reduceNOPs.sh
3909	0c69	34210042		ori	%GPR1,%GPR1,$66	
3910	0c6a	00000000		nop	; Automatically Added by addNops.pl
3911	0c6b	00000000		nop	; Automatically Added by addNops.pl
3912	0c6c	00000000		nop	; Automatically Added by addNops.pl
3913	0c6d	ad090000		sw	0(%GPR8),%GPR9	
3914	0c6e	00000000		nop	; Automatically Added by addNops.pl
3915	0c6f	00000000		nop	; Automatically Added by addNops.pl
3916	0c70	00000000		nop	; Automatically Added by addNops.pl
3917				; Automatically 16 NOPs removed by reduceNOPs.sh
3918	0c71	2bbd0008		subi	%GPR29,%GPR29,$8	
3919	0c72	00000000		nop	; Automatically Added by addNops.pl
3920	0c73	00000000		nop	; Automatically Added by addNops.pl
3921	0c74	00000000		nop	; Automatically Added by addNops.pl
3922				; Automatically 16 NOPs removed by reduceNOPs.sh
3923	0c75	0ffff78d		jal	sendcommand	
3924	0c76	00000000		nop	; Automatically Added by addNops.pl
3925	0c77	00000000		nop	; Automatically Added by addNops.pl
3926	0c78	00000000		nop	; Automatically Added by addNops.pl
3927				; Automatically 16 NOPs removed by reduceNOPs.sh
3928	0c79	23bd0008		addi	%GPR29,%GPR29,$8	
3929	0c7a	00000000		nop	; Automatically Added by addNops.pl
3930	0c7b	00000000		nop	; Automatically Added by addNops.pl
3931	0c7c	00000000		nop	; Automatically Added by addNops.pl
3932				; Automatically 16 NOPs removed by reduceNOPs.sh
3933	0c7d	3c010000		lhi	%GPR1,$( L_lib_lcd_1	/0x10000)
3934	0c7e	00000000		nop
3935	0c7f	00000000		nop
3936	0c80	00000000		nop
3937	0c81	34210000		ori	%GPR1,%GPR1,$( L_lib_lcd_1	%0x10000)
3938	0c82	00000000		nop	; Automatically Added by addNops.pl
3939	0c83	00000000		nop	; Automatically Added by addNops.pl
3940	0c84	00000000		nop	; Automatically Added by addNops.pl
3941				; Automatically 16 NOPs removed by reduceNOPs.sh
3942	0c85	8c210000		lw	%GPR1,0(%GPR1)	
3943	0c86	00000000		nop	; Automatically Added by addNops.pl
3944	0c87	00000000		nop	; Automatically Added by addNops.pl
3945	0c88	00000000		nop	; Automatically Added by addNops.pl
3946				; Automatically 16 NOPs removed by reduceNOPs.sh
3947	0c89	283c0001		subi	%GPR28,%GPR1,$1	
3948	0c8a	00000000		nop	; Automatically Added by addNops.pl
3949	0c8b	00000000		nop	; Automatically Added by addNops.pl
3950	0c8c	00000000		nop	; Automatically Added by addNops.pl
3951				; Automatically 16 NOPs removed by reduceNOPs.sh
3952	0c8d	08000013		j	L_lib_lcd_46	
3953	0c8e	00000000		nop	; Automatically Added by addNops.pl
3954	0c8f	00000000		nop	; Automatically Added by addNops.pl
3955	0c90	00000000		nop	; Automatically Added by addNops.pl
3956				; Automatically 16 NOPs removed by reduceNOPs.sh
3957			L_lib_lcd_45:
3958	0c91	00000000		nop	; Automatically Added by addNops.pl
3959	0c92	00000000		nop	; Automatically Added by addNops.pl
3960	0c93	00000000		nop	; Automatically Added by addNops.pl
3961				; Automatically 16 NOPs removed by reduceNOPs.sh
3962	0c94	3c1cffff		lhi	%GPR28,$65535	
3963	0c95	00000000		nop	; Automatically Added by addNops.pl
3964	0c96	00000000		nop	; Automatically Added by addNops.pl
3965	0c97	00000000		nop	; Automatically Added by addNops.pl
3966				; Automatically 16 NOPs removed by reduceNOPs.sh
3967	0c98	379cffff		ori	%GPR28,%GPR28,$-1	
3968	0c99	00000000		nop	; Automatically Added by addNops.pl
3969	0c9a	00000000		nop	; Automatically Added by addNops.pl
3970	0c9b	00000000		nop	; Automatically Added by addNops.pl
3971				; Automatically 16 NOPs removed by reduceNOPs.sh
3972	0c9c	08000004		j	L_lib_lcd_46	
3973	0c9d	00000000		nop	; Automatically Added by addNops.pl
3974	0c9e	00000000		nop	; Automatically Added by addNops.pl
3975	0c9f	00000000		nop	; Automatically Added by addNops.pl
3976				; Automatically 16 NOPs removed by reduceNOPs.sh
3977			L_lib_lcd_46:
3978	0ca0	00000000		nop	; Automatically Added by addNops.pl
3979	0ca1	00000000		nop	; Automatically Added by addNops.pl
3980	0ca2	00000000		nop	; Automatically Added by addNops.pl
3981				; Automatically 16 NOPs removed by reduceNOPs.sh
3982	0ca3	8fdf0004		lw	%GPR31,4(%GPR30)	
3983	0ca4	00000000		nop	; Automatically Added by addNops.pl
3984	0ca5	00000000		nop	; Automatically Added by addNops.pl
3985	0ca6	00000000		nop	; Automatically Added by addNops.pl
3986	0ca7	27dd0004		addui	%GPR29,%GPR30,$4	
3987	0ca8	00000000		nop	; Automatically Added by addNops.pl
3988	0ca9	00000000		nop	; Automatically Added by addNops.pl
3989	0caa	00000000		nop	; Automatically Added by addNops.pl
3990	0cab	8fde0000		lw	%GPR30,0(%GPR30)	
3991	0cac	00000000		nop	; Automatically Added by addNops.pl
3992	0cad	00000000		nop	; Automatically Added by addNops.pl
3993	0cae	00000000		nop	; Automatically Added by addNops.pl
3994				; Automatically 8 NOPs removed by reduceNOPs.sh
3995	0caf	00000000		nop
3996	0cb0	00000000		nop
3997	0cb1	03e00008		jr	%GPR31	
3998	0cb2	00000000		nop	; Automatically Added by addNops.pl
3999	0cb3	00000000		nop	; Automatically Added by addNops.pl
4000	0cb4	00000000		nop	; Automatically Added by addNops.pl
4001				; Automatically 16 NOPs removed by reduceNOPs.sh
4002			g_setbar:
4003			L_lib_lcd_47:
4004	0cb5	00000000		nop	; Automatically Added by addNops.pl
4005	0cb6	00000000		nop	; Automatically Added by addNops.pl
4006	0cb7	00000000		nop	; Automatically Added by addNops.pl
4007				; Automatically 16 NOPs removed by reduceNOPs.sh
4008	0cb8	afbefffc		sw	-4(%GPR29),%GPR30	
4009	0cb9	00000000		nop	; Automatically Added by addNops.pl
4010	0cba	00000000		nop	; Automatically Added by addNops.pl
4011	0cbb	00000000		nop	; Automatically Added by addNops.pl
4012	0cbc	00000000		nop	; Automatically added by fix-stall-insns.pl
4013	0cbd	afbf0000		sw	0(%GPR29),%GPR31	
4014	0cbe	00000000		nop	; Automatically Added by addNops.pl
4015	0cbf	00000000		nop	; Automatically Added by addNops.pl
4016	0cc0	00000000		nop	; Automatically Added by addNops.pl
4017	0cc1	2fbe0004		subui	%GPR30,%GPR29,$4	
4018	0cc2	00000000		nop	; Automatically Added by addNops.pl
4019	0cc3	00000000		nop	; Automatically Added by addNops.pl
4020	0cc4	00000000		nop	; Automatically Added by addNops.pl
4021				; Automatically 4 NOPs removed by reduceNOPs.sh
4022	0cc5	2bbd0010		subi	%GPR29,%GPR29,$16	
4023	0cc6	00000000		nop	; Automatically Added by addNops.pl
4024	0cc7	00000000		nop	; Automatically Added by addNops.pl
4025	0cc8	00000000		nop	; Automatically Added by addNops.pl
4026				; Automatically 16 NOPs removed by reduceNOPs.sh
4027	0cc9	00404020		add	%GPR8,%GPR2,%GPR0	
4028	0cca	00000000		nop	; Automatically Added by addNops.pl
4029	0ccb	00000000		nop	; Automatically Added by addNops.pl
4030	0ccc	00000000		nop	; Automatically Added by addNops.pl
4031				; Automatically 20 NOPs removed by reduceNOPs.sh
4032	0ccd	2bc40008		subi	%GPR4,%GPR30,$8	
4033	0cce	00000000		nop	; Automatically Added by addNops.pl
4034	0ccf	00000000		nop	; Automatically Added by addNops.pl
4035	0cd0	00000000		nop	; Automatically Added by addNops.pl
4036	0cd1	afc1fff8		sw	-8(%GPR30),%GPR1	
4037	0cd2	00000000		nop	; Automatically Added by addNops.pl
4038	0cd3	00000000		nop	; Automatically Added by addNops.pl
4039	0cd4	00000000		nop	; Automatically Added by addNops.pl
4040				; Automatically 8 NOPs removed by reduceNOPs.sh
4041	0cd5	3c090000		lhi	%GPR9,$0	
4042	0cd6	00000000		nop	; Automatically Added by addNops.pl
4043	0cd7	00000000		nop	; Automatically Added by addNops.pl
4044	0cd8	00000000		nop	; Automatically Added by addNops.pl
4045				; Automatically 16 NOPs removed by reduceNOPs.sh
4046	0cd9	35290004		ori	%GPR9,%GPR9,$4	
4047	0cda	00000000		nop	; Automatically Added by addNops.pl
4048	0cdb	00000000		nop	; Automatically Added by addNops.pl
4049	0cdc	00000000		nop	; Automatically Added by addNops.pl
4050				; Automatically 16 NOPs removed by reduceNOPs.sh
4051	0cdd	00894820		add	%GPR9,%GPR4,%GPR9	
4052	0cde	00000000		nop	; Automatically Added by addNops.pl
4053	0cdf	00000000		nop	; Automatically Added by addNops.pl
4054	0ce0	00000000		nop	; Automatically Added by addNops.pl
4055				; Automatically 12 NOPs removed by reduceNOPs.sh
4056	0ce1	2bc30008		subi	%GPR3,%GPR30,$8	
4057	0ce2	00000000		nop	; Automatically Added by addNops.pl
4058	0ce3	00000000		nop	; Automatically Added by addNops.pl
4059	0ce4	00000000		nop	; Automatically Added by addNops.pl
4060	0ce5	3c070000		lhi	%GPR7,$0	
4061	0ce6	00000000		nop	; Automatically Added by addNops.pl
4062	0ce7	00000000		nop	; Automatically Added by addNops.pl
4063	0ce8	00000000		nop	; Automatically Added by addNops.pl
4064				; Automatically 16 NOPs removed by reduceNOPs.sh
4065	0ce9	34e7006f		ori	%GPR7,%GPR7,$111	
4066	0cea	00000000		nop	; Automatically Added by addNops.pl
4067	0ceb	00000000		nop	; Automatically Added by addNops.pl
4068	0cec	00000000		nop	; Automatically Added by addNops.pl
4069	0ced	3c060000		lhi	%GPR6,$0	
4070	0cee	00000000		nop	; Automatically Added by addNops.pl
4071	0cef	00000000		nop	; Automatically Added by addNops.pl
4072	0cf0	00000000		nop	; Automatically Added by addNops.pl
4073				; Automatically 16 NOPs removed by reduceNOPs.sh
4074	0cf1	34c60000		ori	%GPR6,%GPR6,$0	
4075	0cf2	00000000		nop	; Automatically Added by addNops.pl
4076	0cf3	00000000		nop	; Automatically Added by addNops.pl
4077	0cf4	00000000		nop	; Automatically Added by addNops.pl
4078	0cf5	3c050000		lhi	%GPR5,$0	
4079	0cf6	00000000		nop	; Automatically Added by addNops.pl
4080	0cf7	00000000		nop	; Automatically Added by addNops.pl
4081	0cf8	00000000		nop	; Automatically Added by addNops.pl
4082				; Automatically 16 NOPs removed by reduceNOPs.sh
4083	0cf9	34a50002		ori	%GPR5,%GPR5,$2	
4084	0cfa	00000000		nop	; Automatically Added by addNops.pl
4085	0cfb	00000000		nop	; Automatically Added by addNops.pl
4086	0cfc	00000000		nop	; Automatically Added by addNops.pl
4087	0cfd	3c020000		lhi	%GPR2,$0	
4088	0cfe	00000000		nop	; Automatically Added by addNops.pl
4089	0cff	00000000		nop	; Automatically Added by addNops.pl
4090	0d00	00000000		nop	; Automatically Added by addNops.pl
4091				; Automatically 16 NOPs removed by reduceNOPs.sh
4092	0d01	34420041		ori	%GPR2,%GPR2,$65	
4093	0d02	00000000		nop	; Automatically Added by addNops.pl
4094	0d03	00000000		nop	; Automatically Added by addNops.pl
4095	0d04	00000000		nop	; Automatically Added by addNops.pl
4096	0d05	ad280000		sw	0(%GPR9),%GPR8	
4097	0d06	00000000		nop	; Automatically Added by addNops.pl
4098	0d07	00000000		nop	; Automatically Added by addNops.pl
4099	0d08	00000000		nop	; Automatically Added by addNops.pl
4100	0d09	3c010000		lhi	%GPR1,$0	
4101	0d0a	00000000		nop	; Automatically Added by addNops.pl
4102	0d0b	00000000		nop	; Automatically Added by addNops.pl
4103	0d0c	00000000		nop	; Automatically Added by addNops.pl
4104				; Automatically 16 NOPs removed by reduceNOPs.sh
4105	0d0d	34210042		ori	%GPR1,%GPR1,$66	
4106	0d0e	00000000		nop	; Automatically Added by addNops.pl
4107	0d0f	00000000		nop	; Automatically Added by addNops.pl
4108	0d10	00000000		nop	; Automatically Added by addNops.pl
4109	0d11	3c040000		lhi	%GPR4,$0	
4110	0d12	00000000		nop	; Automatically Added by addNops.pl
4111	0d13	00000000		nop	; Automatically Added by addNops.pl
4112	0d14	00000000		nop	; Automatically Added by addNops.pl
4113				; Automatically 16 NOPs removed by reduceNOPs.sh
4114	0d15	34840000		ori	%GPR4,%GPR4,$0	
4115	0d16	00000000		nop	; Automatically Added by addNops.pl
4116	0d17	00000000		nop	; Automatically Added by addNops.pl
4117	0d18	00000000		nop	; Automatically Added by addNops.pl
4118				; Automatically 16 NOPs removed by reduceNOPs.sh
4119	0d19	2bbd0008		subi	%GPR29,%GPR29,$8	
4120	0d1a	00000000		nop	; Automatically Added by addNops.pl
4121	0d1b	00000000		nop	; Automatically Added by addNops.pl
4122	0d1c	00000000		nop	; Automatically Added by addNops.pl
4123				; Automatically 16 NOPs removed by reduceNOPs.sh
4124	0d1d	0ffff6e5		jal	sendcommand	
4125	0d1e	00000000		nop	; Automatically Added by addNops.pl
4126	0d1f	00000000		nop	; Automatically Added by addNops.pl
4127	0d20	00000000		nop	; Automatically Added by addNops.pl
4128				; Automatically 16 NOPs removed by reduceNOPs.sh
4129	0d21	23bd0008		addi	%GPR29,%GPR29,$8	
4130	0d22	00000000		nop	; Automatically Added by addNops.pl
4131	0d23	00000000		nop	; Automatically Added by addNops.pl
4132	0d24	00000000		nop	; Automatically Added by addNops.pl
4133				; Automatically 36 NOPs removed by reduceNOPs.sh
4134	0d25	3c1c0000		lhi	%GPR28,$0	
4135	0d26	00000000		nop	; Automatically Added by addNops.pl
4136	0d27	00000000		nop	; Automatically Added by addNops.pl
4137	0d28	00000000		nop	; Automatically Added by addNops.pl
4138				; Automatically 16 NOPs removed by reduceNOPs.sh
4139	0d29	379c0000		ori	%GPR28,%GPR28,$0	
4140	0d2a	00000000		nop	; Automatically Added by addNops.pl
4141	0d2b	00000000		nop	; Automatically Added by addNops.pl
4142	0d2c	00000000		nop	; Automatically Added by addNops.pl
4143				; Automatically 16 NOPs removed by reduceNOPs.sh
4144	0d2d	08000004		j	L_lib_lcd_48	
4145	0d2e	00000000		nop	; Automatically Added by addNops.pl
4146	0d2f	00000000		nop	; Automatically Added by addNops.pl
4147	0d30	00000000		nop	; Automatically Added by addNops.pl
4148				; Automatically 16 NOPs removed by reduceNOPs.sh
4149			L_lib_lcd_48:
4150	0d31	00000000		nop	; Automatically Added by addNops.pl
4151	0d32	00000000		nop	; Automatically Added by addNops.pl
4152	0d33	00000000		nop	; Automatically Added by addNops.pl
4153				; Automatically 16 NOPs removed by reduceNOPs.sh
4154	0d34	8fdf0004		lw	%GPR31,4(%GPR30)	
4155	0d35	00000000		nop	; Automatically Added by addNops.pl
4156	0d36	00000000		nop	; Automatically Added by addNops.pl
4157	0d37	00000000		nop	; Automatically Added by addNops.pl
4158	0d38	27dd0004		addui	%GPR29,%GPR30,$4	
4159	0d39	00000000		nop	; Automatically Added by addNops.pl
4160	0d3a	00000000		nop	; Automatically Added by addNops.pl
4161	0d3b	00000000		nop	; Automatically Added by addNops.pl
4162	0d3c	8fde0000		lw	%GPR30,0(%GPR30)	
4163	0d3d	00000000		nop	; Automatically Added by addNops.pl
4164	0d3e	00000000		nop	; Automatically Added by addNops.pl
4165	0d3f	00000000		nop	; Automatically Added by addNops.pl
4166				; Automatically 8 NOPs removed by reduceNOPs.sh
4167	0d40	00000000		nop
4168	0d41	00000000		nop
4169	0d42	03e00008		jr	%GPR31	
4170	0d43	00000000		nop	; Automatically Added by addNops.pl
4171	0d44	00000000		nop	; Automatically Added by addNops.pl
4172	0d45	00000000		nop	; Automatically Added by addNops.pl
4173				; Automatically 16 NOPs removed by reduceNOPs.sh
4174			g_makeswitch:
4175			L_lib_lcd_49:
4176	0d46	00000000		nop	; Automatically Added by addNops.pl
4177	0d47	00000000		nop	; Automatically Added by addNops.pl
4178	0d48	00000000		nop	; Automatically Added by addNops.pl
4179				; Automatically 16 NOPs removed by reduceNOPs.sh
4180	0d49	afbefffc		sw	-4(%GPR29),%GPR30	
4181	0d4a	00000000		nop	; Automatically Added by addNops.pl
4182	0d4b	00000000		nop	; Automatically Added by addNops.pl
4183	0d4c	00000000		nop	; Automatically Added by addNops.pl
4184	0d4d	00000000		nop	; Automatically added by fix-stall-insns.pl
4185	0d4e	afbf0000		sw	0(%GPR29),%GPR31	
4186	0d4f	00000000		nop	; Automatically Added by addNops.pl
4187	0d50	00000000		nop	; Automatically Added by addNops.pl
4188	0d51	00000000		nop	; Automatically Added by addNops.pl
4189	0d52	2fbe0004		subui	%GPR30,%GPR29,$4	
4190	0d53	00000000		nop	; Automatically Added by addNops.pl
4191	0d54	00000000		nop	; Automatically Added by addNops.pl
4192	0d55	00000000		nop	; Automatically Added by addNops.pl
4193				; Automatically 4 NOPs removed by reduceNOPs.sh
4194	0d56	2bbd0024		subi	%GPR29,%GPR29,$36	
4195	0d57	00000000		nop	; Automatically Added by addNops.pl
4196	0d58	00000000		nop	; Automatically Added by addNops.pl
4197	0d59	00000000		nop	; Automatically Added by addNops.pl
4198				; Automatically 16 NOPs removed by reduceNOPs.sh
4199	0d5a	afc1ffe4		sw	-28(%GPR30),%GPR1	
4200	0d5b	00000000		nop	; Automatically Added by addNops.pl
4201	0d5c	00000000		nop	; Automatically Added by addNops.pl
4202	0d5d	00000000		nop	; Automatically Added by addNops.pl
4203				; Automatically 20 NOPs removed by reduceNOPs.sh
4204	0d5e	00000000		nop	; Automatically added by fix-stall-insns.pl
4205	0d5f	afc2ffe8		sw	-24(%GPR30),%GPR2	
4206	0d60	00000000		nop	; Automatically Added by addNops.pl
4207	0d61	00000000		nop	; Automatically Added by addNops.pl
4208	0d62	00000000		nop	; Automatically Added by addNops.pl
4209	0d63	2bc10018		subi	%GPR1,%GPR30,$24	
4210	0d64	00000000		nop	; Automatically Added by addNops.pl
4211	0d65	00000000		nop	; Automatically Added by addNops.pl
4212	0d66	00000000		nop	; Automatically Added by addNops.pl
4213				; Automatically 8 NOPs removed by reduceNOPs.sh
4214	0d67	3c020000		lhi	%GPR2,$0	
4215	0d68	00000000		nop	; Automatically Added by addNops.pl
4216	0d69	00000000		nop	; Automatically Added by addNops.pl
4217	0d6a	00000000		nop	; Automatically Added by addNops.pl
4218				; Automatically 16 NOPs removed by reduceNOPs.sh
4219	0d6b	34420004		ori	%GPR2,%GPR2,$4	
4220	0d6c	00000000		nop	; Automatically Added by addNops.pl
4221	0d6d	00000000		nop	; Automatically Added by addNops.pl
4222	0d6e	00000000		nop	; Automatically Added by addNops.pl
4223	0d6f	2bc80018		subi	%GPR8,%GPR30,$24	
4224	0d70	00000000		nop	; Automatically Added by addNops.pl
4225	0d71	00000000		nop	; Automatically Added by addNops.pl
4226	0d72	00000000		nop	; Automatically Added by addNops.pl
4227				; Automatically 8 NOPs removed by reduceNOPs.sh
4228	0d73	3c090000		lhi	%GPR9,$0	
4229	0d74	00000000		nop	; Automatically Added by addNops.pl
4230	0d75	00000000		nop	; Automatically Added by addNops.pl
4231	0d76	00000000		nop	; Automatically Added by addNops.pl
4232				; Automatically 16 NOPs removed by reduceNOPs.sh
4233	0d77	35290008		ori	%GPR9,%GPR9,$8	
4234	0d78	00000000		nop	; Automatically Added by addNops.pl
4235	0d79	00000000		nop	; Automatically Added by addNops.pl
4236	0d7a	00000000		nop	; Automatically Added by addNops.pl
4237	0d7b	00220820		add	%GPR1,%GPR1,%GPR2	
4238	0d7c	00000000		nop	; Automatically Added by addNops.pl
4239	0d7d	00000000		nop	; Automatically Added by addNops.pl
4240	0d7e	00000000		nop	; Automatically Added by addNops.pl
4241	0d7f	2bc20018		subi	%GPR2,%GPR30,$24	
4242	0d80	00000000		nop	; Automatically Added by addNops.pl
4243	0d81	00000000		nop	; Automatically Added by addNops.pl
4244	0d82	00000000		nop	; Automatically Added by addNops.pl
4245				; Automatically 8 NOPs removed by reduceNOPs.sh
4246	0d83	3c0a0000		lhi	%GPR10,$0	
4247	0d84	00000000		nop	; Automatically Added by addNops.pl
4248	0d85	00000000		nop	; Automatically Added by addNops.pl
4249	0d86	00000000		nop	; Automatically Added by addNops.pl
4250				; Automatically 16 NOPs removed by reduceNOPs.sh
4251	0d87	354a000c		ori	%GPR10,%GPR10,$12	
4252	0d88	00000000		nop	; Automatically Added by addNops.pl
4253	0d89	00000000		nop	; Automatically Added by addNops.pl
4254	0d8a	00000000		nop	; Automatically Added by addNops.pl
4255	0d8b	ac230000		sw	0(%GPR1),%GPR3	
4256	0d8c	00000000		nop	; Automatically Added by addNops.pl
4257	0d8d	00000000		nop	; Automatically Added by addNops.pl
4258	0d8e	00000000		nop	; Automatically Added by addNops.pl
4259	0d8f	01090820		add	%GPR1,%GPR8,%GPR9	
4260	0d90	00000000		nop	; Automatically Added by addNops.pl
4261	0d91	00000000		nop	; Automatically Added by addNops.pl
4262	0d92	00000000		nop	; Automatically Added by addNops.pl
4263	0d93	2bc30018		subi	%GPR3,%GPR30,$24	
4264	0d94	00000000		nop	; Automatically Added by addNops.pl
4265	0d95	00000000		nop	; Automatically Added by addNops.pl
4266	0d96	00000000		nop	; Automatically Added by addNops.pl
4267				; Automatically 8 NOPs removed by reduceNOPs.sh
4268	0d97	3c080000		lhi	%GPR8,$0	
4269	0d98	00000000		nop	; Automatically Added by addNops.pl
4270	0d99	00000000		nop	; Automatically Added by addNops.pl
4271	0d9a	00000000		nop	; Automatically Added by addNops.pl
4272				; Automatically 16 NOPs removed by reduceNOPs.sh
4273	0d9b	35080010		ori	%GPR8,%GPR8,$16	
4274	0d9c	00000000		nop	; Automatically Added by addNops.pl
4275	0d9d	00000000		nop	; Automatically Added by addNops.pl
4276	0d9e	00000000		nop	; Automatically Added by addNops.pl
4277	0d9f	ac240000		sw	0(%GPR1),%GPR4	
4278	0da0	00000000		nop	; Automatically Added by addNops.pl
4279	0da1	00000000		nop	; Automatically Added by addNops.pl
4280	0da2	00000000		nop	; Automatically Added by addNops.pl
4281	0da3	004a0820		add	%GPR1,%GPR2,%GPR10	
4282	0da4	00000000		nop	; Automatically Added by addNops.pl
4283	0da5	00000000		nop	; Automatically Added by addNops.pl
4284	0da6	00000000		nop	; Automatically Added by addNops.pl
4285	0da7	3c040000		lhi	%GPR4,$0	
4286	0da8	00000000		nop	; Automatically Added by addNops.pl
4287	0da9	00000000		nop	; Automatically Added by addNops.pl
4288	0daa	00000000		nop	; Automatically Added by addNops.pl
4289				; Automatically 16 NOPs removed by reduceNOPs.sh
4290	0dab	34840014		ori	%GPR4,%GPR4,$20	
4291	0dac	00000000		nop	; Automatically Added by addNops.pl
4292	0dad	00000000		nop	; Automatically Added by addNops.pl
4293	0dae	00000000		nop	; Automatically Added by addNops.pl
4294	0daf	00681820		add	%GPR3,%GPR3,%GPR8	
4295	0db0	00000000		nop	; Automatically Added by addNops.pl
4296	0db1	00000000		nop	; Automatically Added by addNops.pl
4297	0db2	00000000		nop	; Automatically Added by addNops.pl
4298	0db3	2bc20018		subi	%GPR2,%GPR30,$24	
4299	0db4	00000000		nop	; Automatically Added by addNops.pl
4300	0db5	00000000		nop	; Automatically Added by addNops.pl
4301	0db6	00000000		nop	; Automatically Added by addNops.pl
4302	0db7	ac250000		sw	0(%GPR1),%GPR5	
4303	0db8	00000000		nop	; Automatically Added by addNops.pl
4304	0db9	00000000		nop	; Automatically Added by addNops.pl
4305	0dba	00000000		nop	; Automatically Added by addNops.pl
4306				; Automatically 12 NOPs removed by reduceNOPs.sh
4307	0dbb	00440820		add	%GPR1,%GPR2,%GPR4	
4308	0dbc	00000000		nop	; Automatically Added by addNops.pl
4309	0dbd	00000000		nop	; Automatically Added by addNops.pl
4310	0dbe	00000000		nop	; Automatically Added by addNops.pl
4311	0dbf	ac660000		sw	0(%GPR3),%GPR6	
4312	0dc0	00000000		nop	; Automatically Added by addNops.pl
4313	0dc1	00000000		nop	; Automatically Added by addNops.pl
4314	0dc2	00000000		nop	; Automatically Added by addNops.pl
4315				; Automatically 16 NOPs removed by reduceNOPs.sh
4316	0dc3	00000000		nop	; Automatically added by fix-stall-insns.pl
4317	0dc4	ac270000		sw	0(%GPR1),%GPR7	
4318	0dc5	00000000		nop	; Automatically Added by addNops.pl
4319	0dc6	00000000		nop	; Automatically Added by addNops.pl
4320	0dc7	00000000		nop	; Automatically Added by addNops.pl
4321	0dc8	00000000		nop	; Automatically added by fix-stall-insns.pl
4322	0dc9	8fc1ffe4		lw	%GPR1,-28(%GPR30)	
4323	0dca	00000000		nop	; Automatically Added by addNops.pl
4324	0dcb	00000000		nop	; Automatically Added by addNops.pl
4325	0dcc	00000000		nop	; Automatically Added by addNops.pl
4326				; Automatically 16 NOPs removed by reduceNOPs.sh
4327	0dcd	2bbd0008		subi	%GPR29,%GPR29,$8	
4328	0dce	00000000		nop	; Automatically Added by addNops.pl
4329	0dcf	00000000		nop	; Automatically Added by addNops.pl
4330	0dd0	00000000		nop	; Automatically Added by addNops.pl
4331				; Automatically 16 NOPs removed by reduceNOPs.sh
4332	0dd1	0c0002b6		jal	strlength	
4333	0dd2	00000000		nop	; Automatically Added by addNops.pl
4334	0dd3	00000000		nop	; Automatically Added by addNops.pl
4335	0dd4	00000000		nop	; Automatically Added by addNops.pl
4336				; Automatically 16 NOPs removed by reduceNOPs.sh
4337	0dd5	23bd0008		addi	%GPR29,%GPR29,$8	
4338	0dd6	00000000		nop	; Automatically Added by addNops.pl
4339	0dd7	00000000		nop	; Automatically Added by addNops.pl
4340	0dd8	00000000		nop	; Automatically Added by addNops.pl
4341				; Automatically 36 NOPs removed by reduceNOPs.sh
4342	0dd9	8fc4ffe4		lw	%GPR4,-28(%GPR30)	
4343	0dda	00000000		nop	; Automatically Added by addNops.pl
4344	0ddb	00000000		nop	; Automatically Added by addNops.pl
4345	0ddc	00000000		nop	; Automatically Added by addNops.pl
4346	0ddd	23860001		addi	%GPR6,%GPR28,$1	
4347	0dde	00000000		nop	; Automatically Added by addNops.pl
4348	0ddf	00000000		nop	; Automatically Added by addNops.pl
4349	0de0	00000000		nop	; Automatically Added by addNops.pl
4350	0de1	2bc30018		subi	%GPR3,%GPR30,$24	
4351	0de2	00000000		nop	; Automatically Added by addNops.pl
4352	0de3	00000000		nop	; Automatically Added by addNops.pl
4353	0de4	00000000		nop	; Automatically Added by addNops.pl
4354	0de5	3c070000		lhi	%GPR7,$0	
4355	0de6	00000000		nop	; Automatically Added by addNops.pl
4356	0de7	00000000		nop	; Automatically Added by addNops.pl
4357	0de8	00000000		nop	; Automatically Added by addNops.pl
4358				; Automatically 16 NOPs removed by reduceNOPs.sh
4359	0de9	34e7006f		ori	%GPR7,%GPR7,$111	
4360	0dea	00000000		nop	; Automatically Added by addNops.pl
4361	0deb	00000000		nop	; Automatically Added by addNops.pl
4362	0dec	00000000		nop	; Automatically Added by addNops.pl
4363	0ded	3c050000		lhi	%GPR5,$0	
4364	0dee	00000000		nop	; Automatically Added by addNops.pl
4365	0def	00000000		nop	; Automatically Added by addNops.pl
4366	0df0	00000000		nop	; Automatically Added by addNops.pl
4367				; Automatically 16 NOPs removed by reduceNOPs.sh
4368	0df1	34a50006		ori	%GPR5,%GPR5,$6	
4369	0df2	00000000		nop	; Automatically Added by addNops.pl
4370	0df3	00000000		nop	; Automatically Added by addNops.pl
4371	0df4	00000000		nop	; Automatically Added by addNops.pl
4372	0df5	3c020000		lhi	%GPR2,$0	
4373	0df6	00000000		nop	; Automatically Added by addNops.pl
4374	0df7	00000000		nop	; Automatically Added by addNops.pl
4375	0df8	00000000		nop	; Automatically Added by addNops.pl
4376				; Automatically 16 NOPs removed by reduceNOPs.sh
4377	0df9	3442004b		ori	%GPR2,%GPR2,$75	
4378	0dfa	00000000		nop	; Automatically Added by addNops.pl
4379	0dfb	00000000		nop	; Automatically Added by addNops.pl
4380	0dfc	00000000		nop	; Automatically Added by addNops.pl
4381	0dfd	3c010000		lhi	%GPR1,$0	
4382	0dfe	00000000		nop	; Automatically Added by addNops.pl
4383	0dff	00000000		nop	; Automatically Added by addNops.pl
4384	0e00	00000000		nop	; Automatically Added by addNops.pl
4385				; Automatically 16 NOPs removed by reduceNOPs.sh
4386	0e01	34210041		ori	%GPR1,%GPR1,$65	
4387	0e02	00000000		nop	; Automatically Added by addNops.pl
4388	0e03	00000000		nop	; Automatically Added by addNops.pl
4389	0e04	00000000		nop	; Automatically Added by addNops.pl
4390				; Automatically 16 NOPs removed by reduceNOPs.sh
4391	0e05	2bbd0008		subi	%GPR29,%GPR29,$8	
4392	0e06	00000000		nop	; Automatically Added by addNops.pl
4393	0e07	00000000		nop	; Automatically Added by addNops.pl
4394	0e08	00000000		nop	; Automatically Added by addNops.pl
4395				; Automatically 16 NOPs removed by reduceNOPs.sh
4396	0e09	0ffff5f9		jal	sendcommand	
4397	0e0a	00000000		nop	; Automatically Added by addNops.pl
4398	0e0b	00000000		nop	; Automatically Added by addNops.pl
4399	0e0c	00000000		nop	; Automatically Added by addNops.pl
4400				; Automatically 16 NOPs removed by reduceNOPs.sh
4401	0e0d	23bd0008		addi	%GPR29,%GPR29,$8	
4402	0e0e	00000000		nop	; Automatically Added by addNops.pl
4403	0e0f	00000000		nop	; Automatically Added by addNops.pl
4404	0e10	00000000		nop	; Automatically Added by addNops.pl
4405				; Automatically 36 NOPs removed by reduceNOPs.sh
4406	0e11	3c1c0000		lhi	%GPR28,$0	
4407	0e12	00000000		nop	; Automatically Added by addNops.pl
4408	0e13	00000000		nop	; Automatically Added by addNops.pl
4409	0e14	00000000		nop	; Automatically Added by addNops.pl
4410				; Automatically 16 NOPs removed by reduceNOPs.sh
4411	0e15	379c0000		ori	%GPR28,%GPR28,$0	
4412	0e16	00000000		nop	; Automatically Added by addNops.pl
4413	0e17	00000000		nop	; Automatically Added by addNops.pl
4414	0e18	00000000		nop	; Automatically Added by addNops.pl
4415				; Automatically 16 NOPs removed by reduceNOPs.sh
4416	0e19	08000004		j	L_lib_lcd_50	
4417	0e1a	00000000		nop	; Automatically Added by addNops.pl
4418	0e1b	00000000		nop	; Automatically Added by addNops.pl
4419	0e1c	00000000		nop	; Automatically Added by addNops.pl
4420				; Automatically 16 NOPs removed by reduceNOPs.sh
4421			L_lib_lcd_50:
4422	0e1d	00000000		nop	; Automatically Added by addNops.pl
4423	0e1e	00000000		nop	; Automatically Added by addNops.pl
4424	0e1f	00000000		nop	; Automatically Added by addNops.pl
4425				; Automatically 16 NOPs removed by reduceNOPs.sh
4426	0e20	8fdf0004		lw	%GPR31,4(%GPR30)	
4427	0e21	00000000		nop	; Automatically Added by addNops.pl
4428	0e22	00000000		nop	; Automatically Added by addNops.pl
4429	0e23	00000000		nop	; Automatically Added by addNops.pl
4430	0e24	27dd0004		addui	%GPR29,%GPR30,$4	
4431	0e25	00000000		nop	; Automatically Added by addNops.pl
4432	0e26	00000000		nop	; Automatically Added by addNops.pl
4433	0e27	00000000		nop	; Automatically Added by addNops.pl
4434	0e28	8fde0000		lw	%GPR30,0(%GPR30)	
4435	0e29	00000000		nop	; Automatically Added by addNops.pl
4436	0e2a	00000000		nop	; Automatically Added by addNops.pl
4437	0e2b	00000000		nop	; Automatically Added by addNops.pl
4438				; Automatically 8 NOPs removed by reduceNOPs.sh
4439	0e2c	00000000		nop
4440	0e2d	00000000		nop
4441	0e2e	03e00008		jr	%GPR31	
4442	0e2f	00000000		nop	; Automatically Added by addNops.pl
4443	0e30	00000000		nop	; Automatically Added by addNops.pl
4444	0e31	00000000		nop	; Automatically Added by addNops.pl
4445				; Automatically 16 NOPs removed by reduceNOPs.sh
4446			g_makemenubutton:
4447			L_lib_lcd_51:
4448	0e32	00000000		nop	; Automatically Added by addNops.pl
4449	0e33	00000000		nop	; Automatically Added by addNops.pl
4450	0e34	00000000		nop	; Automatically Added by addNops.pl
4451				; Automatically 16 NOPs removed by reduceNOPs.sh
4452	0e35	afbefffc		sw	-4(%GPR29),%GPR30	
4453	0e36	00000000		nop	; Automatically Added by addNops.pl
4454	0e37	00000000		nop	; Automatically Added by addNops.pl
4455	0e38	00000000		nop	; Automatically Added by addNops.pl
4456	0e39	00000000		nop	; Automatically added by fix-stall-insns.pl
4457	0e3a	afbf0000		sw	0(%GPR29),%GPR31	
4458	0e3b	00000000		nop	; Automatically Added by addNops.pl
4459	0e3c	00000000		nop	; Automatically Added by addNops.pl
4460	0e3d	00000000		nop	; Automatically Added by addNops.pl
4461	0e3e	2fbe0004		subui	%GPR30,%GPR29,$4	
4462	0e3f	00000000		nop	; Automatically Added by addNops.pl
4463	0e40	00000000		nop	; Automatically Added by addNops.pl
4464	0e41	00000000		nop	; Automatically Added by addNops.pl
4465				; Automatically 4 NOPs removed by reduceNOPs.sh
4466	0e42	2bbd002c		subi	%GPR29,%GPR29,$44	
4467	0e43	00000000		nop	; Automatically Added by addNops.pl
4468	0e44	00000000		nop	; Automatically Added by addNops.pl
4469	0e45	00000000		nop	; Automatically Added by addNops.pl
4470				; Automatically 16 NOPs removed by reduceNOPs.sh
4471	0e46	afc1ffdc		sw	-36(%GPR30),%GPR1	
4472	0e47	00000000		nop	; Automatically Added by addNops.pl
4473	0e48	00000000		nop	; Automatically Added by addNops.pl
4474	0e49	00000000		nop	; Automatically Added by addNops.pl
4475	0e4a	00000000		nop	; Automatically added by fix-stall-insns.pl
4476	0e4b	afc9fffc		sw	-4(%GPR30),%GPR9	
4477	0e4c	00000000		nop	; Automatically Added by addNops.pl
4478	0e4d	00000000		nop	; Automatically Added by addNops.pl
4479	0e4e	00000000		nop	; Automatically Added by addNops.pl
4480				; Automatically 20 NOPs removed by reduceNOPs.sh
4481	0e4f	00000000		nop	; Automatically added by fix-stall-insns.pl
4482	0e50	afc2ffe0		sw	-32(%GPR30),%GPR2	
4483	0e51	00000000		nop	; Automatically Added by addNops.pl
4484	0e52	00000000		nop	; Automatically Added by addNops.pl
4485	0e53	00000000		nop	; Automatically Added by addNops.pl
4486	0e54	2bc10020		subi	%GPR1,%GPR30,$32	
4487	0e55	00000000		nop	; Automatically Added by addNops.pl
4488	0e56	00000000		nop	; Automatically Added by addNops.pl
4489	0e57	00000000		nop	; Automatically Added by addNops.pl
4490				; Automatically 8 NOPs removed by reduceNOPs.sh
4491	0e58	3c020000		lhi	%GPR2,$0	
4492	0e59	00000000		nop	; Automatically Added by addNops.pl
4493	0e5a	00000000		nop	; Automatically Added by addNops.pl
4494	0e5b	00000000		nop	; Automatically Added by addNops.pl
4495				; Automatically 16 NOPs removed by reduceNOPs.sh
4496	0e5c	34420004		ori	%GPR2,%GPR2,$4	
4497	0e5d	00000000		nop	; Automatically Added by addNops.pl
4498	0e5e	00000000		nop	; Automatically Added by addNops.pl
4499	0e5f	00000000		nop	; Automatically Added by addNops.pl
4500	0e60	2bc90020		subi	%GPR9,%GPR30,$32	
4501	0e61	00000000		nop	; Automatically Added by addNops.pl
4502	0e62	00000000		nop	; Automatically Added by addNops.pl
4503	0e63	00000000		nop	; Automatically Added by addNops.pl
4504				; Automatically 8 NOPs removed by reduceNOPs.sh
4505	0e64	3c0a0000		lhi	%GPR10,$0	
4506	0e65	00000000		nop	; Automatically Added by addNops.pl
4507	0e66	00000000		nop	; Automatically Added by addNops.pl
4508	0e67	00000000		nop	; Automatically Added by addNops.pl
4509				; Automatically 16 NOPs removed by reduceNOPs.sh
4510	0e68	354a0008		ori	%GPR10,%GPR10,$8	
4511	0e69	00000000		nop	; Automatically Added by addNops.pl
4512	0e6a	00000000		nop	; Automatically Added by addNops.pl
4513	0e6b	00000000		nop	; Automatically Added by addNops.pl
4514	0e6c	00220820		add	%GPR1,%GPR1,%GPR2	
4515	0e6d	00000000		nop	; Automatically Added by addNops.pl
4516	0e6e	00000000		nop	; Automatically Added by addNops.pl
4517	0e6f	00000000		nop	; Automatically Added by addNops.pl
4518	0e70	2bc20020		subi	%GPR2,%GPR30,$32	
4519	0e71	00000000		nop	; Automatically Added by addNops.pl
4520	0e72	00000000		nop	; Automatically Added by addNops.pl
4521	0e73	00000000		nop	; Automatically Added by addNops.pl
4522	0e74	3c0b0000		lhi	%GPR11,$0	
4523	0e75	00000000		nop	; Automatically Added by addNops.pl
4524	0e76	00000000		nop	; Automatically Added by addNops.pl
4525	0e77	00000000		nop	; Automatically Added by addNops.pl
4526				; Automatically 16 NOPs removed by reduceNOPs.sh
4527	0e78	356b000c		ori	%GPR11,%GPR11,$12	
4528	0e79	00000000		nop	; Automatically Added by addNops.pl
4529	0e7a	00000000		nop	; Automatically Added by addNops.pl
4530	0e7b	00000000		nop	; Automatically Added by addNops.pl
4531				; Automatically 8 NOPs removed by reduceNOPs.sh
4532	0e7c	ac230000		sw	0(%GPR1),%GPR3	
4533	0e7d	00000000		nop	; Automatically Added by addNops.pl
4534	0e7e	00000000		nop	; Automatically Added by addNops.pl
4535	0e7f	00000000		nop	; Automatically Added by addNops.pl
4536	0e80	012a0820		add	%GPR1,%GPR9,%GPR10	
4537	0e81	00000000		nop	; Automatically Added by addNops.pl
4538	0e82	00000000		nop	; Automatically Added by addNops.pl
4539	0e83	00000000		nop	; Automatically Added by addNops.pl
4540	0e84	2bc30020		subi	%GPR3,%GPR30,$32	
4541	0e85	00000000		nop	; Automatically Added by addNops.pl
4542	0e86	00000000		nop	; Automatically Added by addNops.pl
4543	0e87	00000000		nop	; Automatically Added by addNops.pl
4544				; Automatically 8 NOPs removed by reduceNOPs.sh
4545	0e88	3c090000		lhi	%GPR9,$0	
4546	0e89	00000000		nop	; Automatically Added by addNops.pl
4547	0e8a	00000000		nop	; Automatically Added by addNops.pl
4548	0e8b	00000000		nop	; Automatically Added by addNops.pl
4549				; Automatically 16 NOPs removed by reduceNOPs.sh
4550	0e8c	35290010		ori	%GPR9,%GPR9,$16	
4551	0e8d	00000000		nop	; Automatically Added by addNops.pl
4552	0e8e	00000000		nop	; Automatically Added by addNops.pl
4553	0e8f	00000000		nop	; Automatically Added by addNops.pl
4554	0e90	ac240000		sw	0(%GPR1),%GPR4	
4555	0e91	00000000		nop	; Automatically Added by addNops.pl
4556	0e92	00000000		nop	; Automatically Added by addNops.pl
4557	0e93	00000000		nop	; Automatically Added by addNops.pl
4558	0e94	004b0820		add	%GPR1,%GPR2,%GPR11	
4559	0e95	00000000		nop	; Automatically Added by addNops.pl
4560	0e96	00000000		nop	; Automatically Added by addNops.pl
4561	0e97	00000000		nop	; Automatically Added by addNops.pl
4562	0e98	2bc20020		subi	%GPR2,%GPR30,$32	
4563	0e99	00000000		nop	; Automatically Added by addNops.pl
4564	0e9a	00000000		nop	; Automatically Added by addNops.pl
4565	0e9b	00000000		nop	; Automatically Added by addNops.pl
4566				; Automatically 8 NOPs removed by reduceNOPs.sh
4567	0e9c	3c040000		lhi	%GPR4,$0	
4568	0e9d	00000000		nop	; Automatically Added by addNops.pl
4569	0e9e	00000000		nop	; Automatically Added by addNops.pl
4570	0e9f	00000000		nop	; Automatically Added by addNops.pl
4571				; Automatically 16 NOPs removed by reduceNOPs.sh
4572	0ea0	34840014		ori	%GPR4,%GPR4,$20	
4573	0ea1	00000000		nop	; Automatically Added by addNops.pl
4574	0ea2	00000000		nop	; Automatically Added by addNops.pl
4575	0ea3	00000000		nop	; Automatically Added by addNops.pl
4576	0ea4	ac250000		sw	0(%GPR1),%GPR5	
4577	0ea5	00000000		nop	; Automatically Added by addNops.pl
4578	0ea6	00000000		nop	; Automatically Added by addNops.pl
4579	0ea7	00000000		nop	; Automatically Added by addNops.pl
4580	0ea8	00690820		add	%GPR1,%GPR3,%GPR9	
4581	0ea9	00000000		nop	; Automatically Added by addNops.pl
4582	0eaa	00000000		nop	; Automatically Added by addNops.pl
4583	0eab	00000000		nop	; Automatically Added by addNops.pl
4584	0eac	3c050000		lhi	%GPR5,$0	
4585	0ead	00000000		nop	; Automatically Added by addNops.pl
4586	0eae	00000000		nop	; Automatically Added by addNops.pl
4587	0eaf	00000000		nop	; Automatically Added by addNops.pl
4588				; Automatically 16 NOPs removed by reduceNOPs.sh
4589	0eb0	34a50018		ori	%GPR5,%GPR5,$24	
4590	0eb1	00000000		nop	; Automatically Added by addNops.pl
4591	0eb2	00000000		nop	; Automatically Added by addNops.pl
4592	0eb3	00000000		nop	; Automatically Added by addNops.pl
4593	0eb4	00441020		add	%GPR2,%GPR2,%GPR4	
4594	0eb5	00000000		nop	; Automatically Added by addNops.pl
4595	0eb6	00000000		nop	; Automatically Added by addNops.pl
4596	0eb7	00000000		nop	; Automatically Added by addNops.pl
4597	0eb8	2bc30020		subi	%GPR3,%GPR30,$32	
4598	0eb9	00000000		nop	; Automatically Added by addNops.pl
4599	0eba	00000000		nop	; Automatically Added by addNops.pl
4600	0ebb	00000000		nop	; Automatically Added by addNops.pl
4601	0ebc	ac260000		sw	0(%GPR1),%GPR6	
4602	0ebd	00000000		nop	; Automatically Added by addNops.pl
4603	0ebe	00000000		nop	; Automatically Added by addNops.pl
4604	0ebf	00000000		nop	; Automatically Added by addNops.pl
4605				; Automatically 12 NOPs removed by reduceNOPs.sh
4606	0ec0	00650820		add	%GPR1,%GPR3,%GPR5	
4607	0ec1	00000000		nop	; Automatically Added by addNops.pl
4608	0ec2	00000000		nop	; Automatically Added by addNops.pl
4609	0ec3	00000000		nop	; Automatically Added by addNops.pl
4610	0ec4	ac470000		sw	0(%GPR2),%GPR7	
4611	0ec5	00000000		nop	; Automatically Added by addNops.pl
4612	0ec6	00000000		nop	; Automatically Added by addNops.pl
4613	0ec7	00000000		nop	; Automatically Added by addNops.pl
4614				; Automatically 16 NOPs removed by reduceNOPs.sh
4615	0ec8	00000000		nop	; Automatically added by fix-stall-insns.pl
4616	0ec9	ac280000		sw	0(%GPR1),%GPR8	
4617	0eca	00000000		nop	; Automatically Added by addNops.pl
4618	0ecb	00000000		nop	; Automatically Added by addNops.pl
4619	0ecc	00000000		nop	; Automatically Added by addNops.pl
4620	0ecd	00000000		nop	; Automatically added by fix-stall-insns.pl
4621	0ece	8fc1ffdc		lw	%GPR1,-36(%GPR30)	
4622	0ecf	00000000		nop	; Automatically Added by addNops.pl
4623	0ed0	00000000		nop	; Automatically Added by addNops.pl
4624	0ed1	00000000		nop	; Automatically Added by addNops.pl
4625				; Automatically 16 NOPs removed by reduceNOPs.sh
4626	0ed2	2bbd0008		subi	%GPR29,%GPR29,$8	
4627	0ed3	00000000		nop	; Automatically Added by addNops.pl
4628	0ed4	00000000		nop	; Automatically Added by addNops.pl
4629	0ed5	00000000		nop	; Automatically Added by addNops.pl
4630				; Automatically 16 NOPs removed by reduceNOPs.sh
4631	0ed6	0c0001b1		jal	strlength	
4632	0ed7	00000000		nop	; Automatically Added by addNops.pl
4633	0ed8	00000000		nop	; Automatically Added by addNops.pl
4634	0ed9	00000000		nop	; Automatically Added by addNops.pl
4635				; Automatically 16 NOPs removed by reduceNOPs.sh
4636	0eda	23bd0008		addi	%GPR29,%GPR29,$8	
4637	0edb	00000000		nop	; Automatically Added by addNops.pl
4638	0edc	00000000		nop	; Automatically Added by addNops.pl
4639	0edd	00000000		nop	; Automatically Added by addNops.pl
4640				; Automatically 36 NOPs removed by reduceNOPs.sh
4641	0ede	8fc4ffdc		lw	%GPR4,-36(%GPR30)	
4642	0edf	00000000		nop	; Automatically Added by addNops.pl
4643	0ee0	00000000		nop	; Automatically Added by addNops.pl
4644	0ee1	00000000		nop	; Automatically Added by addNops.pl
4645	0ee2	23860001		addi	%GPR6,%GPR28,$1	
4646	0ee3	00000000		nop	; Automatically Added by addNops.pl
4647	0ee4	00000000		nop	; Automatically Added by addNops.pl
4648	0ee5	00000000		nop	; Automatically Added by addNops.pl
4649	0ee6	2bc30020		subi	%GPR3,%GPR30,$32	
4650	0ee7	00000000		nop	; Automatically Added by addNops.pl
4651	0ee8	00000000		nop	; Automatically Added by addNops.pl
4652	0ee9	00000000		nop	; Automatically Added by addNops.pl
4653	0eea	3c070000		lhi	%GPR7,$0	
4654	0eeb	00000000		nop	; Automatically Added by addNops.pl
4655	0eec	00000000		nop	; Automatically Added by addNops.pl
4656	0eed	00000000		nop	; Automatically Added by addNops.pl
4657				; Automatically 16 NOPs removed by reduceNOPs.sh
4658	0eee	34e7006f		ori	%GPR7,%GPR7,$111	
4659	0eef	00000000		nop	; Automatically Added by addNops.pl
4660	0ef0	00000000		nop	; Automatically Added by addNops.pl
4661	0ef1	00000000		nop	; Automatically Added by addNops.pl
4662	0ef2	3c050000		lhi	%GPR5,$0	
4663	0ef3	00000000		nop	; Automatically Added by addNops.pl
4664	0ef4	00000000		nop	; Automatically Added by addNops.pl
4665	0ef5	00000000		nop	; Automatically Added by addNops.pl
4666				; Automatically 16 NOPs removed by reduceNOPs.sh
4667	0ef6	34a50007		ori	%GPR5,%GPR5,$7	
4668	0ef7	00000000		nop	; Automatically Added by addNops.pl
4669	0ef8	00000000		nop	; Automatically Added by addNops.pl
4670	0ef9	00000000		nop	; Automatically Added by addNops.pl
4671	0efa	3c020000		lhi	%GPR2,$0	
4672	0efb	00000000		nop	; Automatically Added by addNops.pl
4673	0efc	00000000		nop	; Automatically Added by addNops.pl
4674	0efd	00000000		nop	; Automatically Added by addNops.pl
4675				; Automatically 16 NOPs removed by reduceNOPs.sh
4676	0efe	3442004d		ori	%GPR2,%GPR2,$77	
4677	0eff	00000000		nop	; Automatically Added by addNops.pl
4678	0f00	00000000		nop	; Automatically Added by addNops.pl
4679	0f01	00000000		nop	; Automatically Added by addNops.pl
4680	0f02	3c010000		lhi	%GPR1,$0	
4681	0f03	00000000		nop	; Automatically Added by addNops.pl
4682	0f04	00000000		nop	; Automatically Added by addNops.pl
4683	0f05	00000000		nop	; Automatically Added by addNops.pl
4684				; Automatically 16 NOPs removed by reduceNOPs.sh
4685	0f06	34210041		ori	%GPR1,%GPR1,$65	
4686	0f07	00000000		nop	; Automatically Added by addNops.pl
4687	0f08	00000000		nop	; Automatically Added by addNops.pl
4688	0f09	00000000		nop	; Automatically Added by addNops.pl
4689				; Automatically 16 NOPs removed by reduceNOPs.sh
4690	0f0a	2bbd0008		subi	%GPR29,%GPR29,$8	
4691	0f0b	00000000		nop	; Automatically Added by addNops.pl
4692	0f0c	00000000		nop	; Automatically Added by addNops.pl
4693	0f0d	00000000		nop	; Automatically Added by addNops.pl
4694				; Automatically 16 NOPs removed by reduceNOPs.sh
4695	0f0e	0ffff4f4		jal	sendcommand	
4696	0f0f	00000000		nop	; Automatically Added by addNops.pl
4697	0f10	00000000		nop	; Automatically Added by addNops.pl
4698	0f11	00000000		nop	; Automatically Added by addNops.pl
4699				; Automatically 16 NOPs removed by reduceNOPs.sh
4700	0f12	23bd0008		addi	%GPR29,%GPR29,$8	
4701	0f13	00000000		nop	; Automatically Added by addNops.pl
4702	0f14	00000000		nop	; Automatically Added by addNops.pl
4703	0f15	00000000		nop	; Automatically Added by addNops.pl
4704				; Automatically 24 NOPs removed by reduceNOPs.sh
4705	0f16	8fc1fffc		lw	%GPR1,-4(%GPR30)	
4706	0f17	00000000		nop	; Automatically Added by addNops.pl
4707	0f18	00000000		nop	; Automatically Added by addNops.pl
4708	0f19	00000000		nop	; Automatically Added by addNops.pl
4709				; Automatically 12 NOPs removed by reduceNOPs.sh
4710	0f1a	3c020000		lhi	%GPR2,$0	
4711	0f1b	00000000		nop	; Automatically Added by addNops.pl
4712	0f1c	00000000		nop	; Automatically Added by addNops.pl
4713	0f1d	00000000		nop	; Automatically Added by addNops.pl
4714				; Automatically 16 NOPs removed by reduceNOPs.sh
4715	0f1e	34420000		ori	%GPR2,%GPR2,$0	
4716	0f1f	00000000		nop	; Automatically Added by addNops.pl
4717	0f20	00000000		nop	; Automatically Added by addNops.pl
4718	0f21	00000000		nop	; Automatically Added by addNops.pl
4719				; Automatically 16 NOPs removed by reduceNOPs.sh
4720	0f22	0022d82b		sgt	%GPR27,%GPR1,%GPR2	
4721	0f23	00000000		nop	; Automatically Added by addNops.pl
4722	0f24	00000000		nop	; Automatically Added by addNops.pl
4723	0f25	00000000		nop	; Automatically Added by addNops.pl
4724	0f26	17600008		bnez	%GPR27,L_lib_lcd_52	
4725	0f27	00000000		nop	; Automatically Added by addNops.pl
4726	0f28	00000000		nop	; Automatically Added by addNops.pl
4727	0f29	00000000		nop	; Automatically Added by addNops.pl
4728				; Automatically 16 NOPs removed by reduceNOPs.sh
4729	0f2a	08000047		j	L_lib_lcd_53	
4730	0f2b	00000000		nop	; Automatically Added by addNops.pl
4731	0f2c	00000000		nop	; Automatically Added by addNops.pl
4732	0f2d	00000000		nop	; Automatically Added by addNops.pl
4733				; Automatically 16 NOPs removed by reduceNOPs.sh
4734			L_lib_lcd_52:
4735	0f2e	00000000		nop	; Automatically Added by addNops.pl
4736	0f2f	00000000		nop	; Automatically Added by addNops.pl
4737	0f30	00000000		nop	; Automatically Added by addNops.pl
4738				; Automatically 24 NOPs removed by reduceNOPs.sh
4739	0f31	2bc30004		subi	%GPR3,%GPR30,$4	
4740	0f32	00000000		nop	; Automatically Added by addNops.pl
4741	0f33	00000000		nop	; Automatically Added by addNops.pl
4742	0f34	00000000		nop	; Automatically Added by addNops.pl
4743	0f35	3c070000		lhi	%GPR7,$0	
4744	0f36	00000000		nop	; Automatically Added by addNops.pl
4745	0f37	00000000		nop	; Automatically Added by addNops.pl
4746	0f38	00000000		nop	; Automatically Added by addNops.pl
4747				; Automatically 16 NOPs removed by reduceNOPs.sh
4748	0f39	34e7006f		ori	%GPR7,%GPR7,$111	
4749	0f3a	00000000		nop	; Automatically Added by addNops.pl
4750	0f3b	00000000		nop	; Automatically Added by addNops.pl
4751	0f3c	00000000		nop	; Automatically Added by addNops.pl
4752	0f3d	3c060000		lhi	%GPR6,$0	
4753	0f3e	00000000		nop	; Automatically Added by addNops.pl
4754	0f3f	00000000		nop	; Automatically Added by addNops.pl
4755	0f40	00000000		nop	; Automatically Added by addNops.pl
4756				; Automatically 16 NOPs removed by reduceNOPs.sh
4757	0f41	34c60000		ori	%GPR6,%GPR6,$0	
4758	0f42	00000000		nop	; Automatically Added by addNops.pl
4759	0f43	00000000		nop	; Automatically Added by addNops.pl
4760	0f44	00000000		nop	; Automatically Added by addNops.pl
4761	0f45	3c050000		lhi	%GPR5,$0	
4762	0f46	00000000		nop	; Automatically Added by addNops.pl
4763	0f47	00000000		nop	; Automatically Added by addNops.pl
4764	0f48	00000000		nop	; Automatically Added by addNops.pl
4765				; Automatically 16 NOPs removed by reduceNOPs.sh
4766	0f49	34a50001		ori	%GPR5,%GPR5,$1	
4767	0f4a	00000000		nop	; Automatically Added by addNops.pl
4768	0f4b	00000000		nop	; Automatically Added by addNops.pl
4769	0f4c	00000000		nop	; Automatically Added by addNops.pl
4770	0f4d	3c020000		lhi	%GPR2,$0	
4771	0f4e	00000000		nop	; Automatically Added by addNops.pl
4772	0f4f	00000000		nop	; Automatically Added by addNops.pl
4773	0f50	00000000		nop	; Automatically Added by addNops.pl
4774				; Automatically 16 NOPs removed by reduceNOPs.sh
4775	0f51	34420059		ori	%GPR2,%GPR2,$89	
4776	0f52	00000000		nop	; Automatically Added by addNops.pl
4777	0f53	00000000		nop	; Automatically Added by addNops.pl
4778	0f54	00000000		nop	; Automatically Added by addNops.pl
4779	0f55	3c010000		lhi	%GPR1,$0	
4780	0f56	00000000		nop	; Automatically Added by addNops.pl
4781	0f57	00000000		nop	; Automatically Added by addNops.pl
4782	0f58	00000000		nop	; Automatically Added by addNops.pl
4783				; Automatically 16 NOPs removed by reduceNOPs.sh
4784	0f59	3421004e		ori	%GPR1,%GPR1,$78	
4785	0f5a	00000000		nop	; Automatically Added by addNops.pl
4786	0f5b	00000000		nop	; Automatically Added by addNops.pl
4787	0f5c	00000000		nop	; Automatically Added by addNops.pl
4788	0f5d	3c040000		lhi	%GPR4,$0	
4789	0f5e	00000000		nop	; Automatically Added by addNops.pl
4790	0f5f	00000000		nop	; Automatically Added by addNops.pl
4791	0f60	00000000		nop	; Automatically Added by addNops.pl
4792				; Automatically 16 NOPs removed by reduceNOPs.sh
4793	0f61	34840000		ori	%GPR4,%GPR4,$0	
4794	0f62	00000000		nop	; Automatically Added by addNops.pl
4795	0f63	00000000		nop	; Automatically Added by addNops.pl
4796	0f64	00000000		nop	; Automatically Added by addNops.pl
4797				; Automatically 16 NOPs removed by reduceNOPs.sh
4798	0f65	2bbd0008		subi	%GPR29,%GPR29,$8	
4799	0f66	00000000		nop	; Automatically Added by addNops.pl
4800	0f67	00000000		nop	; Automatically Added by addNops.pl
4801	0f68	00000000		nop	; Automatically Added by addNops.pl
4802				; Automatically 16 NOPs removed by reduceNOPs.sh
4803	0f69	0ffff499		jal	sendcommand	
4804	0f6a	00000000		nop	; Automatically Added by addNops.pl
4805	0f6b	00000000		nop	; Automatically Added by addNops.pl
4806	0f6c	00000000		nop	; Automatically Added by addNops.pl
4807				; Automatically 16 NOPs removed by reduceNOPs.sh
4808	0f6d	23bd0008		addi	%GPR29,%GPR29,$8	
4809	0f6e	00000000		nop	; Automatically Added by addNops.pl
4810	0f6f	00000000		nop	; Automatically Added by addNops.pl
4811	0f70	00000000		nop	; Automatically Added by addNops.pl
4812				; Automatically 28 NOPs removed by reduceNOPs.sh
4813			L_lib_lcd_53:
4814	0f71	00000000		nop	; Automatically Added by addNops.pl
4815	0f72	00000000		nop	; Automatically Added by addNops.pl
4816	0f73	00000000		nop	; Automatically Added by addNops.pl
4817				; Automatically 16 NOPs removed by reduceNOPs.sh
4818	0f74	3c1c0000		lhi	%GPR28,$0	
4819	0f75	00000000		nop	; Automatically Added by addNops.pl
4820	0f76	00000000		nop	; Automatically Added by addNops.pl
4821	0f77	00000000		nop	; Automatically Added by addNops.pl
4822				; Automatically 16 NOPs removed by reduceNOPs.sh
4823	0f78	379c0000		ori	%GPR28,%GPR28,$0	
4824	0f79	00000000		nop	; Automatically Added by addNops.pl
4825	0f7a	00000000		nop	; Automatically Added by addNops.pl
4826	0f7b	00000000		nop	; Automatically Added by addNops.pl
4827				; Automatically 16 NOPs removed by reduceNOPs.sh
4828	0f7c	08000004		j	L_lib_lcd_54	
4829	0f7d	00000000		nop	; Automatically Added by addNops.pl
4830	0f7e	00000000		nop	; Automatically Added by addNops.pl
4831	0f7f	00000000		nop	; Automatically Added by addNops.pl
4832				; Automatically 16 NOPs removed by reduceNOPs.sh
4833			L_lib_lcd_54:
4834	0f80	00000000		nop	; Automatically Added by addNops.pl
4835	0f81	00000000		nop	; Automatically Added by addNops.pl
4836	0f82	00000000		nop	; Automatically Added by addNops.pl
4837				; Automatically 16 NOPs removed by reduceNOPs.sh
4838	0f83	8fdf0004		lw	%GPR31,4(%GPR30)	
4839	0f84	00000000		nop	; Automatically Added by addNops.pl
4840	0f85	00000000		nop	; Automatically Added by addNops.pl
4841	0f86	00000000		nop	; Automatically Added by addNops.pl
4842	0f87	27dd0004		addui	%GPR29,%GPR30,$4	
4843	0f88	00000000		nop	; Automatically Added by addNops.pl
4844	0f89	00000000		nop	; Automatically Added by addNops.pl
4845	0f8a	00000000		nop	; Automatically Added by addNops.pl
4846	0f8b	8fde0000		lw	%GPR30,0(%GPR30)	
4847	0f8c	00000000		nop	; Automatically Added by addNops.pl
4848	0f8d	00000000		nop	; Automatically Added by addNops.pl
4849	0f8e	00000000		nop	; Automatically Added by addNops.pl
4850				; Automatically 8 NOPs removed by reduceNOPs.sh
4851	0f8f	00000000		nop
4852	0f90	00000000		nop
4853	0f91	03e00008		jr	%GPR31	
4854	0f92	00000000		nop	; Automatically Added by addNops.pl
4855	0f93	00000000		nop	; Automatically Added by addNops.pl
4856	0f94	00000000		nop	; Automatically Added by addNops.pl
4857				; Automatically 16 NOPs removed by reduceNOPs.sh
4858			g_makeradiogroup:
4859			L_lib_lcd_55:
4860	0f95	00000000		nop	; Automatically Added by addNops.pl
4861	0f96	00000000		nop	; Automatically Added by addNops.pl
4862	0f97	00000000		nop	; Automatically Added by addNops.pl
4863				; Automatically 16 NOPs removed by reduceNOPs.sh
4864	0f98	afbefffc		sw	-4(%GPR29),%GPR30	
4865	0f99	00000000		nop	; Automatically Added by addNops.pl
4866	0f9a	00000000		nop	; Automatically Added by addNops.pl
4867	0f9b	00000000		nop	; Automatically Added by addNops.pl
4868	0f9c	00000000		nop	; Automatically added by fix-stall-insns.pl
4869	0f9d	afbf0000		sw	0(%GPR29),%GPR31	
4870	0f9e	00000000		nop	; Automatically Added by addNops.pl
4871	0f9f	00000000		nop	; Automatically Added by addNops.pl
4872	0fa0	00000000		nop	; Automatically Added by addNops.pl
4873	0fa1	2fbe0004		subui	%GPR30,%GPR29,$4	
4874	0fa2	00000000		nop	; Automatically Added by addNops.pl
4875	0fa3	00000000		nop	; Automatically Added by addNops.pl
4876	0fa4	00000000		nop	; Automatically Added by addNops.pl
4877				; Automatically 4 NOPs removed by reduceNOPs.sh
4878	0fa5	2bbd000c		subi	%GPR29,%GPR29,$12	
4879	0fa6	00000000		nop	; Automatically Added by addNops.pl
4880	0fa7	00000000		nop	; Automatically Added by addNops.pl
4881	0fa8	00000000		nop	; Automatically Added by addNops.pl
4882				; Automatically 16 NOPs removed by reduceNOPs.sh
4883	0fa9	afc1fffc		sw	-4(%GPR30),%GPR1	
4884	0faa	00000000		nop	; Automatically Added by addNops.pl
4885	0fab	00000000		nop	; Automatically Added by addNops.pl
4886	0fac	00000000		nop	; Automatically Added by addNops.pl
4887				; Automatically 40 NOPs removed by reduceNOPs.sh
4888	0fad	2bc30004		subi	%GPR3,%GPR30,$4	
4889	0fae	00000000		nop	; Automatically Added by addNops.pl
4890	0faf	00000000		nop	; Automatically Added by addNops.pl
4891	0fb0	00000000		nop	; Automatically Added by addNops.pl
4892	0fb1	3c070000		lhi	%GPR7,$0	
4893	0fb2	00000000		nop	; Automatically Added by addNops.pl
4894	0fb3	00000000		nop	; Automatically Added by addNops.pl
4895	0fb4	00000000		nop	; Automatically Added by addNops.pl
4896				; Automatically 16 NOPs removed by reduceNOPs.sh
4897	0fb5	34e7006f		ori	%GPR7,%GPR7,$111	
4898	0fb6	00000000		nop	; Automatically Added by addNops.pl
4899	0fb7	00000000		nop	; Automatically Added by addNops.pl
4900	0fb8	00000000		nop	; Automatically Added by addNops.pl
4901	0fb9	3c060000		lhi	%GPR6,$0	
4902	0fba	00000000		nop	; Automatically Added by addNops.pl
4903	0fbb	00000000		nop	; Automatically Added by addNops.pl
4904	0fbc	00000000		nop	; Automatically Added by addNops.pl
4905				; Automatically 16 NOPs removed by reduceNOPs.sh
4906	0fbd	34c60000		ori	%GPR6,%GPR6,$0	
4907	0fbe	00000000		nop	; Automatically Added by addNops.pl
4908	0fbf	00000000		nop	; Automatically Added by addNops.pl
4909	0fc0	00000000		nop	; Automatically Added by addNops.pl
4910	0fc1	3c050000		lhi	%GPR5,$0	
4911	0fc2	00000000		nop	; Automatically Added by addNops.pl
4912	0fc3	00000000		nop	; Automatically Added by addNops.pl
4913	0fc4	00000000		nop	; Automatically Added by addNops.pl
4914				; Automatically 16 NOPs removed by reduceNOPs.sh
4915	0fc5	34a50001		ori	%GPR5,%GPR5,$1	
4916	0fc6	00000000		nop	; Automatically Added by addNops.pl
4917	0fc7	00000000		nop	; Automatically Added by addNops.pl
4918	0fc8	00000000		nop	; Automatically Added by addNops.pl
4919	0fc9	3c020000		lhi	%GPR2,$0	
4920	0fca	00000000		nop	; Automatically Added by addNops.pl
4921	0fcb	00000000		nop	; Automatically Added by addNops.pl
4922	0fcc	00000000		nop	; Automatically Added by addNops.pl
4923				; Automatically 16 NOPs removed by reduceNOPs.sh
4924	0fcd	34420052		ori	%GPR2,%GPR2,$82	
4925	0fce	00000000		nop	; Automatically Added by addNops.pl
4926	0fcf	00000000		nop	; Automatically Added by addNops.pl
4927	0fd0	00000000		nop	; Automatically Added by addNops.pl
4928	0fd1	3c010000		lhi	%GPR1,$0	
4929	0fd2	00000000		nop	; Automatically Added by addNops.pl
4930	0fd3	00000000		nop	; Automatically Added by addNops.pl
4931	0fd4	00000000		nop	; Automatically Added by addNops.pl
4932				; Automatically 16 NOPs removed by reduceNOPs.sh
4933	0fd5	34210041		ori	%GPR1,%GPR1,$65	
4934	0fd6	00000000		nop	; Automatically Added by addNops.pl
4935	0fd7	00000000		nop	; Automatically Added by addNops.pl
4936	0fd8	00000000		nop	; Automatically Added by addNops.pl
4937	0fd9	3c040000		lhi	%GPR4,$0	
4938	0fda	00000000		nop	; Automatically Added by addNops.pl
4939	0fdb	00000000		nop	; Automatically Added by addNops.pl
4940	0fdc	00000000		nop	; Automatically Added by addNops.pl
4941				; Automatically 16 NOPs removed by reduceNOPs.sh
4942	0fdd	34840000		ori	%GPR4,%GPR4,$0	
4943	0fde	00000000		nop	; Automatically Added by addNops.pl
4944	0fdf	00000000		nop	; Automatically Added by addNops.pl
4945	0fe0	00000000		nop	; Automatically Added by addNops.pl
4946				; Automatically 16 NOPs removed by reduceNOPs.sh
4947	0fe1	2bbd0008		subi	%GPR29,%GPR29,$8	
4948	0fe2	00000000		nop	; Automatically Added by addNops.pl
4949	0fe3	00000000		nop	; Automatically Added by addNops.pl
4950	0fe4	00000000		nop	; Automatically Added by addNops.pl
4951				; Automatically 16 NOPs removed by reduceNOPs.sh
4952	0fe5	0ffff41d		jal	sendcommand	
4953	0fe6	00000000		nop	; Automatically Added by addNops.pl
4954	0fe7	00000000		nop	; Automatically Added by addNops.pl
4955	0fe8	00000000		nop	; Automatically Added by addNops.pl
4956				; Automatically 16 NOPs removed by reduceNOPs.sh
4957	0fe9	23bd0008		addi	%GPR29,%GPR29,$8	
4958	0fea	00000000		nop	; Automatically Added by addNops.pl
4959	0feb	00000000		nop	; Automatically Added by addNops.pl
4960	0fec	00000000		nop	; Automatically Added by addNops.pl
4961				; Automatically 36 NOPs removed by reduceNOPs.sh
4962	0fed	3c1c0000		lhi	%GPR28,$0	
4963	0fee	00000000		nop	; Automatically Added by addNops.pl
4964	0fef	00000000		nop	; Automatically Added by addNops.pl
4965	0ff0	00000000		nop	; Automatically Added by addNops.pl
4966				; Automatically 16 NOPs removed by reduceNOPs.sh
4967	0ff1	379c0000		ori	%GPR28,%GPR28,$0	
4968	0ff2	00000000		nop	; Automatically Added by addNops.pl
4969	0ff3	00000000		nop	; Automatically Added by addNops.pl
4970	0ff4	00000000		nop	; Automatically Added by addNops.pl
4971				; Automatically 16 NOPs removed by reduceNOPs.sh
4972	0ff5	08000004		j	L_lib_lcd_56	
4973	0ff6	00000000		nop	; Automatically Added by addNops.pl
4974	0ff7	00000000		nop	; Automatically Added by addNops.pl
4975	0ff8	00000000		nop	; Automatically Added by addNops.pl
4976				; Automatically 16 NOPs removed by reduceNOPs.sh
4977			L_lib_lcd_56:
4978	0ff9	00000000		nop	; Automatically Added by addNops.pl
4979	0ffa	00000000		nop	; Automatically Added by addNops.pl
4980	0ffb	00000000		nop	; Automatically Added by addNops.pl
4981				; Automatically 16 NOPs removed by reduceNOPs.sh
4982	0ffc	8fdf0004		lw	%GPR31,4(%GPR30)	
4983	0ffd	00000000		nop	; Automatically Added by addNops.pl
4984	0ffe	00000000		nop	; Automatically Added by addNops.pl
4985	0fff	00000000		nop	; Automatically Added by addNops.pl
4986	1000	27dd0004		addui	%GPR29,%GPR30,$4	
4987	1001	00000000		nop	; Automatically Added by addNops.pl
4988	1002	00000000		nop	; Automatically Added by addNops.pl
4989	1003	00000000		nop	; Automatically Added by addNops.pl
4990	1004	8fde0000		lw	%GPR30,0(%GPR30)	
4991	1005	00000000		nop	; Automatically Added by addNops.pl
4992	1006	00000000		nop	; Automatically Added by addNops.pl
4993	1007	00000000		nop	; Automatically Added by addNops.pl
4994				; Automatically 8 NOPs removed by reduceNOPs.sh
4995	1008	00000000		nop
4996	1009	00000000		nop
4997	100a	03e00008		jr	%GPR31	
4998	100b	00000000		nop	; Automatically Added by addNops.pl
4999	100c	00000000		nop	; Automatically Added by addNops.pl
5000	100d	00000000		nop	; Automatically Added by addNops.pl
5001				; Automatically 16 NOPs removed by reduceNOPs.sh
5002			d_clear:
5003			L_lib_lcd_57:
5004	100e	00000000		nop	; Automatically Added by addNops.pl
5005	100f	00000000		nop	; Automatically Added by addNops.pl
5006	1010	00000000		nop	; Automatically Added by addNops.pl
5007				; Automatically 16 NOPs removed by reduceNOPs.sh
5008	1011	afbefffc		sw	-4(%GPR29),%GPR30	
5009	1012	00000000		nop	; Automatically Added by addNops.pl
5010	1013	00000000		nop	; Automatically Added by addNops.pl
5011	1014	00000000		nop	; Automatically Added by addNops.pl
5012	1015	00000000		nop	; Automatically added by fix-stall-insns.pl
5013	1016	afbf0000		sw	0(%GPR29),%GPR31	
5014	1017	00000000		nop	; Automatically Added by addNops.pl
5015	1018	00000000		nop	; Automatically Added by addNops.pl
5016	1019	00000000		nop	; Automatically Added by addNops.pl
5017	101a	2fbe0004		subui	%GPR30,%GPR29,$4	
5018	101b	00000000		nop	; Automatically Added by addNops.pl
5019	101c	00000000		nop	; Automatically Added by addNops.pl
5020	101d	00000000		nop	; Automatically Added by addNops.pl
5021				; Automatically 4 NOPs removed by reduceNOPs.sh
5022	101e	2bbd0008		subi	%GPR29,%GPR29,$8	
5023	101f	00000000		nop	; Automatically Added by addNops.pl
5024	1020	00000000		nop	; Automatically Added by addNops.pl
5025	1021	00000000		nop	; Automatically Added by addNops.pl
5026				; Automatically 60 NOPs removed by reduceNOPs.sh
5027	1022	3c070000		lhi	%GPR7,$0	
5028	1023	00000000		nop	; Automatically Added by addNops.pl
5029	1024	00000000		nop	; Automatically Added by addNops.pl
5030	1025	00000000		nop	; Automatically Added by addNops.pl
5031				; Automatically 16 NOPs removed by reduceNOPs.sh
5032	1026	34e7006f		ori	%GPR7,%GPR7,$111	
5033	1027	00000000		nop	; Automatically Added by addNops.pl
5034	1028	00000000		nop	; Automatically Added by addNops.pl
5035	1029	00000000		nop	; Automatically Added by addNops.pl
5036	102a	3c060000		lhi	%GPR6,$0	
5037	102b	00000000		nop	; Automatically Added by addNops.pl
5038	102c	00000000		nop	; Automatically Added by addNops.pl
5039	102d	00000000		nop	; Automatically Added by addNops.pl
5040				; Automatically 16 NOPs removed by reduceNOPs.sh
5041	102e	34c60000		ori	%GPR6,%GPR6,$0	
5042	102f	00000000		nop	; Automatically Added by addNops.pl
5043	1030	00000000		nop	; Automatically Added by addNops.pl
5044	1031	00000000		nop	; Automatically Added by addNops.pl
5045	1032	3c050000		lhi	%GPR5,$0	
5046	1033	00000000		nop	; Automatically Added by addNops.pl
5047	1034	00000000		nop	; Automatically Added by addNops.pl
5048	1035	00000000		nop	; Automatically Added by addNops.pl
5049				; Automatically 16 NOPs removed by reduceNOPs.sh
5050	1036	34a50000		ori	%GPR5,%GPR5,$0	
5051	1037	00000000		nop	; Automatically Added by addNops.pl
5052	1038	00000000		nop	; Automatically Added by addNops.pl
5053	1039	00000000		nop	; Automatically Added by addNops.pl
5054	103a	3c020000		lhi	%GPR2,$0	
5055	103b	00000000		nop	; Automatically Added by addNops.pl
5056	103c	00000000		nop	; Automatically Added by addNops.pl
5057	103d	00000000		nop	; Automatically Added by addNops.pl
5058				; Automatically 16 NOPs removed by reduceNOPs.sh
5059	103e	3442004c		ori	%GPR2,%GPR2,$76	
5060	103f	00000000		nop	; Automatically Added by addNops.pl
5061	1040	00000000		nop	; Automatically Added by addNops.pl
5062	1041	00000000		nop	; Automatically Added by addNops.pl
5063	1042	3c010000		lhi	%GPR1,$0	
5064	1043	00000000		nop	; Automatically Added by addNops.pl
5065	1044	00000000		nop	; Automatically Added by addNops.pl
5066	1045	00000000		nop	; Automatically Added by addNops.pl
5067				; Automatically 16 NOPs removed by reduceNOPs.sh
5068	1046	34210044		ori	%GPR1,%GPR1,$68	
5069	1047	00000000		nop	; Automatically Added by addNops.pl
5070	1048	00000000		nop	; Automatically Added by addNops.pl
5071	1049	00000000		nop	; Automatically Added by addNops.pl
5072	104a	3c040000		lhi	%GPR4,$0	
5073	104b	00000000		nop	; Automatically Added by addNops.pl
5074	104c	00000000		nop	; Automatically Added by addNops.pl
5075	104d	00000000		nop	; Automatically Added by addNops.pl
5076				; Automatically 16 NOPs removed by reduceNOPs.sh
5077	104e	34840000		ori	%GPR4,%GPR4,$0	
5078	104f	00000000		nop	; Automatically Added by addNops.pl
5079	1050	00000000		nop	; Automatically Added by addNops.pl
5080	1051	00000000		nop	; Automatically Added by addNops.pl
5081	1052	3c030000		lhi	%GPR3,$0	
5082	1053	00000000		nop	; Automatically Added by addNops.pl
5083	1054	00000000		nop	; Automatically Added by addNops.pl
5084	1055	00000000		nop	; Automatically Added by addNops.pl
5085				; Automatically 16 NOPs removed by reduceNOPs.sh
5086	1056	34630000		ori	%GPR3,%GPR3,$0	
5087	1057	00000000		nop	; Automatically Added by addNops.pl
5088	1058	00000000		nop	; Automatically Added by addNops.pl
5089	1059	00000000		nop	; Automatically Added by addNops.pl
5090				; Automatically 16 NOPs removed by reduceNOPs.sh
5091	105a	2bbd0008		subi	%GPR29,%GPR29,$8	
5092	105b	00000000		nop	; Automatically Added by addNops.pl
5093	105c	00000000		nop	; Automatically Added by addNops.pl
5094	105d	00000000		nop	; Automatically Added by addNops.pl
5095				; Automatically 16 NOPs removed by reduceNOPs.sh
5096	105e	0ffff3a4		jal	sendcommand	
5097	105f	00000000		nop	; Automatically Added by addNops.pl
5098	1060	00000000		nop	; Automatically Added by addNops.pl
5099	1061	00000000		nop	; Automatically Added by addNops.pl
5100				; Automatically 16 NOPs removed by reduceNOPs.sh
5101	1062	23bd0008		addi	%GPR29,%GPR29,$8	
5102	1063	00000000		nop	; Automatically Added by addNops.pl
5103	1064	00000000		nop	; Automatically Added by addNops.pl
5104	1065	00000000		nop	; Automatically Added by addNops.pl
5105				; Automatically 36 NOPs removed by reduceNOPs.sh
5106	1066	3c1c0000		lhi	%GPR28,$0	
5107	1067	00000000		nop	; Automatically Added by addNops.pl
5108	1068	00000000		nop	; Automatically Added by addNops.pl
5109	1069	00000000		nop	; Automatically Added by addNops.pl
5110				; Automatically 16 NOPs removed by reduceNOPs.sh
5111	106a	379c0000		ori	%GPR28,%GPR28,$0	
5112	106b	00000000		nop	; Automatically Added by addNops.pl
5113	106c	00000000		nop	; Automatically Added by addNops.pl
5114	106d	00000000		nop	; Automatically Added by addNops.pl
5115				; Automatically 16 NOPs removed by reduceNOPs.sh
5116	106e	08000004		j	L_lib_lcd_58	
5117	106f	00000000		nop	; Automatically Added by addNops.pl
5118	1070	00000000		nop	; Automatically Added by addNops.pl
5119	1071	00000000		nop	; Automatically Added by addNops.pl
5120				; Automatically 16 NOPs removed by reduceNOPs.sh
5121			L_lib_lcd_58:
5122	1072	00000000		nop	; Automatically Added by addNops.pl
5123	1073	00000000		nop	; Automatically Added by addNops.pl
5124	1074	00000000		nop	; Automatically Added by addNops.pl
5125				; Automatically 16 NOPs removed by reduceNOPs.sh
5126	1075	8fdf0004		lw	%GPR31,4(%GPR30)	
5127	1076	00000000		nop	; Automatically Added by addNops.pl
5128	1077	00000000		nop	; Automatically Added by addNops.pl
5129	1078	00000000		nop	; Automatically Added by addNops.pl
5130	1079	27dd0004		addui	%GPR29,%GPR30,$4	
5131	107a	00000000		nop	; Automatically Added by addNops.pl
5132	107b	00000000		nop	; Automatically Added by addNops.pl
5133	107c	00000000		nop	; Automatically Added by addNops.pl
5134	107d	8fde0000		lw	%GPR30,0(%GPR30)	
5135	107e	00000000		nop	; Automatically Added by addNops.pl
5136	107f	00000000		nop	; Automatically Added by addNops.pl
5137	1080	00000000		nop	; Automatically Added by addNops.pl
5138				; Automatically 8 NOPs removed by reduceNOPs.sh
5139	1081	00000000		nop
5140	1082	00000000		nop
5141	1083	03e00008		jr	%GPR31	
5142	1084	00000000		nop	; Automatically Added by addNops.pl
5143	1085	00000000		nop	; Automatically Added by addNops.pl
5144	1086	00000000		nop	; Automatically Added by addNops.pl
5145				; Automatically 16 NOPs removed by reduceNOPs.sh
5146			strlength:
5147			L_lib_lcd_59:
5148	1087	00000000		nop	; Automatically Added by addNops.pl
5149	1088	00000000		nop	; Automatically Added by addNops.pl
5150	1089	00000000		nop	; Automatically Added by addNops.pl
5151				; Automatically 16 NOPs removed by reduceNOPs.sh
5152	108a	afbefffc		sw	-4(%GPR29),%GPR30	
5153	108b	00000000		nop	; Automatically Added by addNops.pl
5154	108c	00000000		nop	; Automatically Added by addNops.pl
5155	108d	00000000		nop	; Automatically Added by addNops.pl
5156	108e	00000000		nop	; Automatically added by fix-stall-insns.pl
5157	108f	afbf0000		sw	0(%GPR29),%GPR31	
5158	1090	00000000		nop	; Automatically Added by addNops.pl
5159	1091	00000000		nop	; Automatically Added by addNops.pl
5160	1092	00000000		nop	; Automatically Added by addNops.pl
5161	1093	2fbe0004		subui	%GPR30,%GPR29,$4	
5162	1094	00000000		nop	; Automatically Added by addNops.pl
5163	1095	00000000		nop	; Automatically Added by addNops.pl
5164	1096	00000000		nop	; Automatically Added by addNops.pl
5165				; Automatically 4 NOPs removed by reduceNOPs.sh
5166	1097	2bbd0010		subi	%GPR29,%GPR29,$16	
5167	1098	00000000		nop	; Automatically Added by addNops.pl
5168	1099	00000000		nop	; Automatically Added by addNops.pl
5169	109a	00000000		nop	; Automatically Added by addNops.pl
5170				; Automatically 44 NOPs removed by reduceNOPs.sh
5171	109b	afc1fffc		sw	-4(%GPR30),%GPR1	
5172	109c	00000000		nop	; Automatically Added by addNops.pl
5173	109d	00000000		nop	; Automatically Added by addNops.pl
5174	109e	00000000		nop	; Automatically Added by addNops.pl
5175				; Automatically 12 NOPs removed by reduceNOPs.sh
5176	109f	3c010000		lhi	%GPR1,$0	
5177	10a0	00000000		nop	; Automatically Added by addNops.pl
5178	10a1	00000000		nop	; Automatically Added by addNops.pl
5179	10a2	00000000		nop	; Automatically Added by addNops.pl
5180				; Automatically 16 NOPs removed by reduceNOPs.sh
5181	10a3	34210000		ori	%GPR1,%GPR1,$0	
5182	10a4	00000000		nop	; Automatically Added by addNops.pl
5183	10a5	00000000		nop	; Automatically Added by addNops.pl
5184	10a6	00000000		nop	; Automatically Added by addNops.pl
5185				; Automatically 16 NOPs removed by reduceNOPs.sh
5186	10a7	afc1fff8		sw	-8(%GPR30),%GPR1	
5187	10a8	00000000		nop	; Automatically Added by addNops.pl
5188	10a9	00000000		nop	; Automatically Added by addNops.pl
5189	10aa	00000000		nop	; Automatically Added by addNops.pl
5190				; Automatically 12 NOPs removed by reduceNOPs.sh
5191			L_lib_lcd_60:
5192	10ab	00000000		nop	; Automatically Added by addNops.pl
5193	10ac	00000000		nop	; Automatically Added by addNops.pl
5194	10ad	00000000		nop	; Automatically Added by addNops.pl
5195	10ae	8fc1fffc		lw	%GPR1,-4(%GPR30)	
5196	10af	00000000		nop	; Automatically Added by addNops.pl
5197	10b0	00000000		nop	; Automatically Added by addNops.pl
5198	10b1	00000000		nop	; Automatically Added by addNops.pl
5199				; Automatically 16 NOPs removed by reduceNOPs.sh
5200	10b2	00201820		add	%GPR3,%GPR1,%GPR0	
5201	10b3	00000000		nop	; Automatically Added by addNops.pl
5202	10b4	00000000		nop	; Automatically Added by addNops.pl
5203	10b5	00000000		nop	; Automatically Added by addNops.pl
5204	10b6	3c020000		lhi	%GPR2,$0	
5205	10b7	00000000		nop	; Automatically Added by addNops.pl
5206	10b8	00000000		nop	; Automatically Added by addNops.pl
5207	10b9	00000000		nop	; Automatically Added by addNops.pl
5208				; Automatically 16 NOPs removed by reduceNOPs.sh
5209	10ba	34420001		ori	%GPR2,%GPR2,$1	
5210	10bb	00000000		nop	; Automatically Added by addNops.pl
5211	10bc	00000000		nop	; Automatically Added by addNops.pl
5212	10bd	00000000		nop	; Automatically Added by addNops.pl
5213				; Automatically 16 NOPs removed by reduceNOPs.sh
5214	10be	00621020		add	%GPR2,%GPR3,%GPR2	
5215	10bf	00000000		nop	; Automatically Added by addNops.pl
5216	10c0	00000000		nop	; Automatically Added by addNops.pl
5217	10c1	00000000		nop	; Automatically Added by addNops.pl
5218				; Automatically 16 NOPs removed by reduceNOPs.sh
5219	10c2	afc2fffc		sw	-4(%GPR30),%GPR2	
5220	10c3	00000000		nop	; Automatically Added by addNops.pl
5221	10c4	00000000		nop	; Automatically Added by addNops.pl
5222	10c5	00000000		nop	; Automatically Added by addNops.pl
5223				; Automatically 16 NOPs removed by reduceNOPs.sh
5224	10c6	2bbd0008		subi	%GPR29,%GPR29,$8	
5225	10c7	00000000		nop	; Automatically Added by addNops.pl
5226	10c8	00000000		nop	; Automatically Added by addNops.pl
5227	10c9	00000000		nop	; Automatically Added by addNops.pl
5228				; Automatically 16 NOPs removed by reduceNOPs.sh
5229	10ca	0c000132		jal	loadByteUnsigned	
5230	10cb	00000000		nop	; Automatically Added by addNops.pl
5231	10cc	00000000		nop	; Automatically Added by addNops.pl
5232	10cd	00000000		nop	; Automatically Added by addNops.pl
5233				; Automatically 16 NOPs removed by reduceNOPs.sh
5234	10ce	23bd0008		addi	%GPR29,%GPR29,$8	
5235	10cf	00000000		nop	; Automatically Added by addNops.pl
5236	10d0	00000000		nop	; Automatically Added by addNops.pl
5237	10d1	00000000		nop	; Automatically Added by addNops.pl
5238				; Automatically 36 NOPs removed by reduceNOPs.sh
5239	10d2	3c010000		lhi	%GPR1,$0	
5240	10d3	00000000		nop	; Automatically Added by addNops.pl
5241	10d4	00000000		nop	; Automatically Added by addNops.pl
5242	10d5	00000000		nop	; Automatically Added by addNops.pl
5243				; Automatically 16 NOPs removed by reduceNOPs.sh
5244	10d6	34210000		ori	%GPR1,%GPR1,$0	
5245	10d7	00000000		nop	; Automatically Added by addNops.pl
5246	10d8	00000000		nop	; Automatically Added by addNops.pl
5247	10d9	00000000		nop	; Automatically Added by addNops.pl
5248				; Automatically 16 NOPs removed by reduceNOPs.sh
5249	10da	0381d82f		sne	%GPR27,%GPR28,%GPR1	
5250	10db	00000000		nop	; Automatically Added by addNops.pl
5251	10dc	00000000		nop	; Automatically Added by addNops.pl
5252	10dd	00000000		nop	; Automatically Added by addNops.pl
5253	10de	17600008		bnez	%GPR27,L_lib_lcd_61	
5254	10df	00000000		nop	; Automatically Added by addNops.pl
5255	10e0	00000000		nop	; Automatically Added by addNops.pl
5256	10e1	00000000		nop	; Automatically Added by addNops.pl
5257				; Automatically 16 NOPs removed by reduceNOPs.sh
5258	10e2	08000017		j	L_lib_lcd_62	
5259	10e3	00000000		nop	; Automatically Added by addNops.pl
5260	10e4	00000000		nop	; Automatically Added by addNops.pl
5261	10e5	00000000		nop	; Automatically Added by addNops.pl
5262				; Automatically 16 NOPs removed by reduceNOPs.sh
5263			L_lib_lcd_61:
5264	10e6	00000000		nop	; Automatically Added by addNops.pl
5265	10e7	00000000		nop	; Automatically Added by addNops.pl
5266	10e8	00000000		nop	; Automatically Added by addNops.pl
5267	10e9	8fc1fff8		lw	%GPR1,-8(%GPR30)	
5268	10ea	00000000		nop	; Automatically Added by addNops.pl
5269	10eb	00000000		nop	; Automatically Added by addNops.pl
5270	10ec	00000000		nop	; Automatically Added by addNops.pl
5271				; Automatically 16 NOPs removed by reduceNOPs.sh
5272	10ed	20210001		addi	%GPR1,%GPR1,$1	
5273	10ee	00000000		nop	; Automatically Added by addNops.pl
5274	10ef	00000000		nop	; Automatically Added by addNops.pl
5275	10f0	00000000		nop	; Automatically Added by addNops.pl
5276				; Automatically 16 NOPs removed by reduceNOPs.sh
5277	10f1	afc1fff8		sw	-8(%GPR30),%GPR1	
5278	10f2	00000000		nop	; Automatically Added by addNops.pl
5279	10f3	00000000		nop	; Automatically Added by addNops.pl
5280	10f4	00000000		nop	; Automatically Added by addNops.pl
5281	10f5	0bffffb6		j	L_lib_lcd_60	
5282	10f6	00000000		nop	; Automatically Added by addNops.pl
5283	10f7	00000000		nop	; Automatically Added by addNops.pl
5284	10f8	00000000		nop	; Automatically Added by addNops.pl
5285				; Automatically 12 NOPs removed by reduceNOPs.sh
5286			L_lib_lcd_62:
5287	10f9	00000000		nop	; Automatically Added by addNops.pl
5288	10fa	00000000		nop	; Automatically Added by addNops.pl
5289	10fb	00000000		nop	; Automatically Added by addNops.pl
5290	10fc	8fdcfff8		lw	%GPR28,-8(%GPR30)	
5291	10fd	00000000		nop	; Automatically Added by addNops.pl
5292	10fe	00000000		nop	; Automatically Added by addNops.pl
5293	10ff	00000000		nop	; Automatically Added by addNops.pl
5294				; Automatically 32 NOPs removed by reduceNOPs.sh
5295	1100	08000004		j	L_lib_lcd_63	
5296	1101	00000000		nop	; Automatically Added by addNops.pl
5297	1102	00000000		nop	; Automatically Added by addNops.pl
5298	1103	00000000		nop	; Automatically Added by addNops.pl
5299				; Automatically 16 NOPs removed by reduceNOPs.sh
5300			L_lib_lcd_63:
5301	1104	00000000		nop	; Automatically Added by addNops.pl
5302	1105	00000000		nop	; Automatically Added by addNops.pl
5303	1106	00000000		nop	; Automatically Added by addNops.pl
5304				; Automatically 16 NOPs removed by reduceNOPs.sh
5305	1107	8fdf0004		lw	%GPR31,4(%GPR30)	
5306	1108	00000000		nop	; Automatically Added by addNops.pl
5307	1109	00000000		nop	; Automatically Added by addNops.pl
5308	110a	00000000		nop	; Automatically Added by addNops.pl
5309	110b	27dd0004		addui	%GPR29,%GPR30,$4	
5310	110c	00000000		nop	; Automatically Added by addNops.pl
5311	110d	00000000		nop	; Automatically Added by addNops.pl
5312	110e	00000000		nop	; Automatically Added by addNops.pl
5313	110f	8fde0000		lw	%GPR30,0(%GPR30)	
5314	1110	00000000		nop	; Automatically Added by addNops.pl
5315	1111	00000000		nop	; Automatically Added by addNops.pl
5316	1112	00000000		nop	; Automatically Added by addNops.pl
5317				; Automatically 8 NOPs removed by reduceNOPs.sh
5318	1113	00000000		nop
5319	1114	00000000		nop
5320	1115	03e00008		jr	%GPR31	
5321	1116	00000000		nop	; Automatically Added by addNops.pl
5322	1117	00000000		nop	; Automatically Added by addNops.pl
5323	1118	00000000		nop	; Automatically Added by addNops.pl
5324				; Automatically 16 NOPs removed by reduceNOPs.sh
5325			wait:
5326			L_lib_lcd_64:
5327	1119	00000000		nop	; Automatically Added by addNops.pl
5328	111a	00000000		nop	; Automatically Added by addNops.pl
5329	111b	00000000		nop	; Automatically Added by addNops.pl
5330				; Automatically 16 NOPs removed by reduceNOPs.sh
5331	111c	afbefffc		sw	-4(%GPR29),%GPR30	
5332	111d	00000000		nop	; Automatically Added by addNops.pl
5333	111e	00000000		nop	; Automatically Added by addNops.pl
5334	111f	00000000		nop	; Automatically Added by addNops.pl
5335	1120	00000000		nop	; Automatically added by fix-stall-insns.pl
5336	1121	afbf0000		sw	0(%GPR29),%GPR31	
5337	1122	00000000		nop	; Automatically Added by addNops.pl
5338	1123	00000000		nop	; Automatically Added by addNops.pl
5339	1124	00000000		nop	; Automatically Added by addNops.pl
5340	1125	2fbe0004		subui	%GPR30,%GPR29,$4	
5341	1126	00000000		nop	; Automatically Added by addNops.pl
5342	1127	00000000		nop	; Automatically Added by addNops.pl
5343	1128	00000000		nop	; Automatically Added by addNops.pl
5344				; Automatically 4 NOPs removed by reduceNOPs.sh
5345	1129	2bbd0008		subi	%GPR29,%GPR29,$8	
5346	112a	00000000		nop	; Automatically Added by addNops.pl
5347	112b	00000000		nop	; Automatically Added by addNops.pl
5348	112c	00000000		nop	; Automatically Added by addNops.pl
5349				; Automatically 56 NOPs removed by reduceNOPs.sh
5350	112d	3c020000		lhi	%GPR2,$0	
5351	112e	00000000		nop	; Automatically Added by addNops.pl
5352	112f	00000000		nop	; Automatically Added by addNops.pl
5353	1130	00000000		nop	; Automatically Added by addNops.pl
5354				; Automatically 16 NOPs removed by reduceNOPs.sh
5355	1131	34420000		ori	%GPR2,%GPR2,$0	
5356	1132	00000000		nop	; Automatically Added by addNops.pl
5357	1133	00000000		nop	; Automatically Added by addNops.pl
5358	1134	00000000		nop	; Automatically Added by addNops.pl
5359				; Automatically 12 NOPs removed by reduceNOPs.sh
5360			L_lib_lcd_65:
5361	1135	00000000		nop	; Automatically Added by addNops.pl
5362	1136	00000000		nop	; Automatically Added by addNops.pl
5363	1137	00000000		nop	; Automatically Added by addNops.pl
5364	1138	00401820		add	%GPR3,%GPR2,%GPR0	
5365	1139	00000000		nop	; Automatically Added by addNops.pl
5366	113a	00000000		nop	; Automatically Added by addNops.pl
5367	113b	00000000		nop	; Automatically Added by addNops.pl
5368	113c	20420001		addi	%GPR2,%GPR2,$1	
5369	113d	00000000		nop	; Automatically Added by addNops.pl
5370	113e	00000000		nop	; Automatically Added by addNops.pl
5371	113f	00000000		nop	; Automatically Added by addNops.pl
5372				; Automatically 12 NOPs removed by reduceNOPs.sh
5373	1140	0061d82f		sne	%GPR27,%GPR3,%GPR1	
5374	1141	00000000		nop	; Automatically Added by addNops.pl
5375	1142	00000000		nop	; Automatically Added by addNops.pl
5376	1143	00000000		nop	; Automatically Added by addNops.pl
5377	1144	1760fff1		bnez	%GPR27,L_lib_lcd_65	
5378	1145	00000000		nop	; Automatically Added by addNops.pl
5379	1146	00000000		nop	; Automatically Added by addNops.pl
5380	1147	00000000		nop	; Automatically Added by addNops.pl
5381				; Automatically 16 NOPs removed by reduceNOPs.sh
5382	1148	08000004		j	L_lib_lcd_66	
5383	1149	00000000		nop	; Automatically Added by addNops.pl
5384	114a	00000000		nop	; Automatically Added by addNops.pl
5385	114b	00000000		nop	; Automatically Added by addNops.pl
5386				; Automatically 16 NOPs removed by reduceNOPs.sh
5387			L_lib_lcd_66:
5388	114c	00000000		nop	; Automatically Added by addNops.pl
5389	114d	00000000		nop	; Automatically Added by addNops.pl
5390	114e	00000000		nop	; Automatically Added by addNops.pl
5391	114f	285c0001		subi	%GPR28,%GPR2,$1	
5392	1150	00000000		nop	; Automatically Added by addNops.pl
5393	1151	00000000		nop	; Automatically Added by addNops.pl
5394	1152	00000000		nop	; Automatically Added by addNops.pl
5395				; Automatically 16 NOPs removed by reduceNOPs.sh
5396	1153	08000004		j	L_lib_lcd_67	
5397	1154	00000000		nop	; Automatically Added by addNops.pl
5398	1155	00000000		nop	; Automatically Added by addNops.pl
5399	1156	00000000		nop	; Automatically Added by addNops.pl
5400				; Automatically 16 NOPs removed by reduceNOPs.sh
5401			L_lib_lcd_67:
5402	1157	00000000		nop	; Automatically Added by addNops.pl
5403	1158	00000000		nop	; Automatically Added by addNops.pl
5404	1159	00000000		nop	; Automatically Added by addNops.pl
5405				; Automatically 16 NOPs removed by reduceNOPs.sh
5406	115a	8fdf0004		lw	%GPR31,4(%GPR30)	
5407	115b	00000000		nop	; Automatically Added by addNops.pl
5408	115c	00000000		nop	; Automatically Added by addNops.pl
5409	115d	00000000		nop	; Automatically Added by addNops.pl
5410	115e	27dd0004		addui	%GPR29,%GPR30,$4	
5411	115f	00000000		nop	; Automatically Added by addNops.pl
5412	1160	00000000		nop	; Automatically Added by addNops.pl
5413	1161	00000000		nop	; Automatically Added by addNops.pl
5414	1162	8fde0000		lw	%GPR30,0(%GPR30)	
5415	1163	00000000		nop	; Automatically Added by addNops.pl
5416	1164	00000000		nop	; Automatically Added by addNops.pl
5417	1165	00000000		nop	; Automatically Added by addNops.pl
5418				; Automatically 8 NOPs removed by reduceNOPs.sh
5419	1166	00000000		nop
5420	1167	00000000		nop
5421	1168	03e00008		jr	%GPR31	
5422	1169	00000000		nop	; Automatically Added by addNops.pl
5423	116a	00000000		nop	; Automatically Added by addNops.pl
5424	116b	00000000		nop	; Automatically Added by addNops.pl
5425				; Automatically 16 NOPs removed by reduceNOPs.sh
5426			getack:
5427			L_lib_lcd_68:
5428	116c	00000000		nop	; Automatically Added by addNops.pl
5429	116d	00000000		nop	; Automatically Added by addNops.pl
5430	116e	00000000		nop	; Automatically Added by addNops.pl
5431				; Automatically 16 NOPs removed by reduceNOPs.sh
5432	116f	afbefffc		sw	-4(%GPR29),%GPR30	
5433	1170	00000000		nop	; Automatically Added by addNops.pl
5434	1171	00000000		nop	; Automatically Added by addNops.pl
5435	1172	00000000		nop	; Automatically Added by addNops.pl
5436	1173	00000000		nop	; Automatically added by fix-stall-insns.pl
5437	1174	afbf0000		sw	0(%GPR29),%GPR31	
5438	1175	00000000		nop	; Automatically Added by addNops.pl
5439	1176	00000000		nop	; Automatically Added by addNops.pl
5440	1177	00000000		nop	; Automatically Added by addNops.pl
5441	1178	2fbe0004		subui	%GPR30,%GPR29,$4	
5442	1179	00000000		nop	; Automatically Added by addNops.pl
5443	117a	00000000		nop	; Automatically Added by addNops.pl
5444	117b	00000000		nop	; Automatically Added by addNops.pl
5445				; Automatically 4 NOPs removed by reduceNOPs.sh
5446	117c	2bbd0008		subi	%GPR29,%GPR29,$8	
5447	117d	00000000		nop	; Automatically Added by addNops.pl
5448	117e	00000000		nop	; Automatically Added by addNops.pl
5449	117f	00000000		nop	; Automatically Added by addNops.pl
5450				; Automatically 41 NOPs removed by reduceNOPs.sh
5451			
5452			
5453	1180	00000000		nop	; Automatically Added by addNops.pl
5454	1181	00000000		nop	; Automatically Added by addNops.pl
5455	1182	00000000		nop	; Automatically Added by addNops.pl
5456	1183	3c020200		lhi	%GPR2, $0x200
5457	1184	00000000		nop	; Automatically Added by addNops.pl
5458	1185	00000000		nop	; Automatically Added by addNops.pl
5459	1186	00000000		nop	; Automatically Added by addNops.pl
5460				; Automatically 9 NOPs removed by reduceNOPs.sh
5461			
5462	1187	00000000		nop	; Automatically Added by addNops.pl
5463	1188	00000000		nop	; Automatically Added by addNops.pl
5464	1189	00000000		nop	; Automatically Added by addNops.pl
5465				; Automatically 20 NOPs removed by reduceNOPs.sh
5466	118a	3c030000		lhi	%GPR3,$0	
5467	118b	00000000		nop	; Automatically Added by addNops.pl
5468	118c	00000000		nop	; Automatically Added by addNops.pl
5469	118d	00000000		nop	; Automatically Added by addNops.pl
5470				; Automatically 16 NOPs removed by reduceNOPs.sh
5471	118e	34630000		ori	%GPR3,%GPR3,$0	
5472			
5473			
5474	118f	00000000		nop	; Automatically Added by addNops.pl
5475	1190	00000000		nop	; Automatically Added by addNops.pl
5476	1191	00000000		nop	; Automatically Added by addNops.pl
5477				; Automatically 12 NOPs removed by reduceNOPs.sh
5478	1192	ac430000		sw	0(%GPR2), %GPR3
5479			
5480	1193	00000000		nop	; Automatically Added by addNops.pl
5481	1194	00000000		nop	; Automatically Added by addNops.pl
5482	1195	00000000		nop	; Automatically Added by addNops.pl
5483	1196	20210001		addi	%GPR1,%GPR1,$1	
5484			
5485			
5486	1197	00000000		nop	; Automatically Added by addNops.pl
5487	1198	00000000		nop	; Automatically Added by addNops.pl
5488	1199	00000000		nop	; Automatically Added by addNops.pl
5489				; Automatically 12 NOPs removed by reduceNOPs.sh
5490	119a	ac410000		sw	0(%GPR2), %GPR1
5491			
5492	119b	00000000		nop	; Automatically Added by addNops.pl
5493	119c	00000000		nop	; Automatically Added by addNops.pl
5494	119d	00000000		nop	; Automatically Added by addNops.pl
5495				; Automatically 20 NOPs removed by reduceNOPs.sh
5496	119e	3c010000		lhi	%GPR1,$0	
5497	119f	00000000		nop	; Automatically Added by addNops.pl
5498	11a0	00000000		nop	; Automatically Added by addNops.pl
5499	11a1	00000000		nop	; Automatically Added by addNops.pl
5500				; Automatically 16 NOPs removed by reduceNOPs.sh
5501	11a2	34210001		ori	%GPR1,%GPR1,$1	
5502			
5503			
5504	11a3	00000000		nop	; Automatically Added by addNops.pl
5505	11a4	00000000		nop	; Automatically Added by addNops.pl
5506	11a5	00000000		nop	; Automatically Added by addNops.pl
5507				; Automatically 12 NOPs removed by reduceNOPs.sh
5508	11a6	ac410000		sw	0(%GPR2), %GPR1
5509			
5510			
5511			
5512	11a7	00000000		nop	; Automatically Added by addNops.pl
5513	11a8	00000000		nop	; Automatically Added by addNops.pl
5514	11a9	00000000		nop	; Automatically Added by addNops.pl
5515				; Automatically 12 NOPs removed by reduceNOPs.sh
5516	11aa	00000000		nop	; Automatically added by fix-stall-insns.pl
5517	11ab	8c410000		lw	%GPR1,0(%GPR2)
5518	11ac	00000000		nop	; Automatically Added by addNops.pl
5519	11ad	00000000		nop	; Automatically Added by addNops.pl
5520	11ae	00000000		nop	; Automatically Added by addNops.pl
5521				; Automatically 9 NOPs removed by reduceNOPs.sh
5522			
5523	11af	00000000		nop	; Automatically Added by addNops.pl
5524	11b0	00000000		nop	; Automatically Added by addNops.pl
5525	11b1	00000000		nop	; Automatically Added by addNops.pl
5526				; Automatically 20 NOPs removed by reduceNOPs.sh
5527	11b2	3c020000		lhi	%GPR2,$0	
5528	11b3	00000000		nop	; Automatically Added by addNops.pl
5529	11b4	00000000		nop	; Automatically Added by addNops.pl
5530	11b5	00000000		nop	; Automatically Added by addNops.pl
5531				; Automatically 16 NOPs removed by reduceNOPs.sh
5532	11b6	3442000f		ori	%GPR2,%GPR2,$15	
5533	11b7	00000000		nop	; Automatically Added by addNops.pl
5534	11b8	00000000		nop	; Automatically Added by addNops.pl
5535	11b9	00000000		nop	; Automatically Added by addNops.pl
5536				; Automatically 16 NOPs removed by reduceNOPs.sh
5537	11ba	0022d82e		seq	%GPR27,%GPR1,%GPR2	
5538	11bb	00000000		nop	; Automatically Added by addNops.pl
5539	11bc	00000000		nop	; Automatically Added by addNops.pl
5540	11bd	00000000		nop	; Automatically Added by addNops.pl
5541	11be	17600008		bnez	%GPR27,L_lib_lcd_69	
5542	11bf	00000000		nop	; Automatically Added by addNops.pl
5543	11c0	00000000		nop	; Automatically Added by addNops.pl
5544	11c1	00000000		nop	; Automatically Added by addNops.pl
5545				; Automatically 16 NOPs removed by reduceNOPs.sh
5546	11c2	08000013		j	L_lib_lcd_70	
5547	11c3	00000000		nop	; Automatically Added by addNops.pl
5548	11c4	00000000		nop	; Automatically Added by addNops.pl
5549	11c5	00000000		nop	; Automatically Added by addNops.pl
5550				; Automatically 16 NOPs removed by reduceNOPs.sh
5551			L_lib_lcd_69:
5552	11c6	00000000		nop	; Automatically Added by addNops.pl
5553	11c7	00000000		nop	; Automatically Added by addNops.pl
5554	11c8	00000000		nop	; Automatically Added by addNops.pl
5555				; Automatically 16 NOPs removed by reduceNOPs.sh
5556	11c9	3c1c0000		lhi	%GPR28,$0	
5557	11ca	00000000		nop	; Automatically Added by addNops.pl
5558	11cb	00000000		nop	; Automatically Added by addNops.pl
5559	11cc	00000000		nop	; Automatically Added by addNops.pl
5560				; Automatically 16 NOPs removed by reduceNOPs.sh
5561	11cd	379c0001		ori	%GPR28,%GPR28,$1	
5562	11ce	00000000		nop	; Automatically Added by addNops.pl
5563	11cf	00000000		nop	; Automatically Added by addNops.pl
5564	11d0	00000000		nop	; Automatically Added by addNops.pl
5565				; Automatically 16 NOPs removed by reduceNOPs.sh
5566	11d1	08000013		j	L_lib_lcd_71	
5567	11d2	00000000		nop	; Automatically Added by addNops.pl
5568	11d3	00000000		nop	; Automatically Added by addNops.pl
5569	11d4	00000000		nop	; Automatically Added by addNops.pl
5570				; Automatically 16 NOPs removed by reduceNOPs.sh
5571			L_lib_lcd_70:
5572	11d5	00000000		nop	; Automatically Added by addNops.pl
5573	11d6	00000000		nop	; Automatically Added by addNops.pl
5574	11d7	00000000		nop	; Automatically Added by addNops.pl
5575				; Automatically 16 NOPs removed by reduceNOPs.sh
5576	11d8	3c1c0000		lhi	%GPR28,$0	
5577	11d9	00000000		nop	; Automatically Added by addNops.pl
5578	11da	00000000		nop	; Automatically Added by addNops.pl
5579	11db	00000000		nop	; Automatically Added by addNops.pl
5580				; Automatically 16 NOPs removed by reduceNOPs.sh
5581	11dc	379c0000		ori	%GPR28,%GPR28,$0	
5582	11dd	00000000		nop	; Automatically Added by addNops.pl
5583	11de	00000000		nop	; Automatically Added by addNops.pl
5584	11df	00000000		nop	; Automatically Added by addNops.pl
5585				; Automatically 16 NOPs removed by reduceNOPs.sh
5586	11e0	08000004		j	L_lib_lcd_71	
5587	11e1	00000000		nop	; Automatically Added by addNops.pl
5588	11e2	00000000		nop	; Automatically Added by addNops.pl
5589	11e3	00000000		nop	; Automatically Added by addNops.pl
5590				; Automatically 16 NOPs removed by reduceNOPs.sh
5591			L_lib_lcd_71:
5592	11e4	00000000		nop	; Automatically Added by addNops.pl
5593	11e5	00000000		nop	; Automatically Added by addNops.pl
5594	11e6	00000000		nop	; Automatically Added by addNops.pl
5595				; Automatically 16 NOPs removed by reduceNOPs.sh
5596	11e7	8fdf0004		lw	%GPR31,4(%GPR30)	
5597	11e8	00000000		nop	; Automatically Added by addNops.pl
5598	11e9	00000000		nop	; Automatically Added by addNops.pl
5599	11ea	00000000		nop	; Automatically Added by addNops.pl
5600	11eb	27dd0004		addui	%GPR29,%GPR30,$4	
5601	11ec	00000000		nop	; Automatically Added by addNops.pl
5602	11ed	00000000		nop	; Automatically Added by addNops.pl
5603	11ee	00000000		nop	; Automatically Added by addNops.pl
5604	11ef	8fde0000		lw	%GPR30,0(%GPR30)	
5605	11f0	00000000		nop	; Automatically Added by addNops.pl
5606	11f1	00000000		nop	; Automatically Added by addNops.pl
5607	11f2	00000000		nop	; Automatically Added by addNops.pl
5608				; Automatically 8 NOPs removed by reduceNOPs.sh
5609	11f3	00000000		nop
5610	11f4	00000000		nop
5611	11f5	03e00008		jr	%GPR31	
5612	11f6	00000000		nop	; Automatically Added by addNops.pl
5613	11f7	00000000		nop	; Automatically Added by addNops.pl
5614	11f8	00000000		nop	; Automatically Added by addNops.pl
5615				.section	.data
5616				.section	.text
5617				.addressing	Word
5618				;.addressing	Word
5619	11f9	00000000		nop	; Automatically Added by addNops.pl
5620	11fa	00000000		nop	; Automatically Added by addNops.pl
5621	11fb	00000000		nop	; Automatically Added by addNops.pl
5622			loadByteUnsigned:
5623			L_loadStoreByte_1:
5624	11fc	00000000		nop	; Automatically Added by addNops.pl
5625	11fd	00000000		nop	; Automatically Added by addNops.pl
5626	11fe	00000000		nop	; Automatically Added by addNops.pl
5627				; Automatically 16 NOPs removed by reduceNOPs.sh
5628	11ff	afbefffc		sw	-4(%GPR29),%GPR30	
5629	1200	00000000		nop	; Automatically Added by addNops.pl
5630	1201	00000000		nop	; Automatically Added by addNops.pl
5631	1202	00000000		nop	; Automatically Added by addNops.pl
5632	1203	00000000		nop	; Automatically added by fix-stall-insns.pl
5633	1204	afbf0000		sw	0(%GPR29),%GPR31	
5634	1205	00000000		nop	; Automatically Added by addNops.pl
5635	1206	00000000		nop	; Automatically Added by addNops.pl
5636	1207	00000000		nop	; Automatically Added by addNops.pl
5637	1208	2fbe0004		subui	%GPR30,%GPR29,$4	
5638	1209	00000000		nop	; Automatically Added by addNops.pl
5639	120a	00000000		nop	; Automatically Added by addNops.pl
5640	120b	00000000		nop	; Automatically Added by addNops.pl
5641				; Automatically 4 NOPs removed by reduceNOPs.sh
5642	120c	2bbd0008		subi	%GPR29,%GPR29,$8	
5643	120d	00000000		nop	; Automatically Added by addNops.pl
5644	120e	00000000		nop	; Automatically Added by addNops.pl
5645	120f	00000000		nop	; Automatically Added by addNops.pl
5646				; Automatically 36 NOPs removed by reduceNOPs.sh
5647	1210	30220003		andi	%GPR2,%GPR1,$3	
5648	1211	00000000		nop	; Automatically Added by addNops.pl
5649	1212	00000000		nop	; Automatically Added by addNops.pl
5650	1213	00000000		nop	; Automatically Added by addNops.pl
5651	1214	3021fffc		andi	%GPR1,%GPR1,$-4	
5652	1215	00000000		nop	; Automatically Added by addNops.pl
5653	1216	00000000		nop	; Automatically Added by addNops.pl
5654	1217	00000000		nop	; Automatically Added by addNops.pl
5655				; Automatically 12 NOPs removed by reduceNOPs.sh
5656	1218	20420001		addi	%GPR2,%GPR2,$1	
5657	1219	00000000		nop	; Automatically Added by addNops.pl
5658	121a	00000000		nop	; Automatically Added by addNops.pl
5659	121b	00000000		nop	; Automatically Added by addNops.pl
5660				; Automatically 16 NOPs removed by reduceNOPs.sh
5661	121c	00021023		subu	%GPR2,%GPR0,%GPR2	
5662	121d	00000000		nop	; Automatically Added by addNops.pl
5663	121e	00000000		nop	; Automatically Added by addNops.pl
5664	121f	00000000		nop	; Automatically Added by addNops.pl
5665	1220	8c210000		lw	%GPR1,0(%GPR1)	
5666	1221	00000000		nop	; Automatically Added by addNops.pl
5667	1222	00000000		nop	; Automatically Added by addNops.pl
5668	1223	00000000		nop	; Automatically Added by addNops.pl
5669				; Automatically 12 NOPs removed by reduceNOPs.sh
5670	1224	40420003		slli	%GPR2,%GPR2,$3	
5671	1225	00000000		nop	; Automatically Added by addNops.pl
5672	1226	00000000		nop	; Automatically Added by addNops.pl
5673	1227	00000000		nop	; Automatically Added by addNops.pl
5674				; Automatically 16 NOPs removed by reduceNOPs.sh
5675	1228	00220803		sra	%GPR1,%GPR1,%GPR2	
5676	1229	00000000		nop	; Automatically Added by addNops.pl
5677	122a	00000000		nop	; Automatically Added by addNops.pl
5678	122b	00000000		nop	; Automatically Added by addNops.pl
5679				; Automatically 16 NOPs removed by reduceNOPs.sh
5680	122c	303c00ff		andi	%GPR28,%GPR1,$255	
5681	122d	00000000		nop	; Automatically Added by addNops.pl
5682	122e	00000000		nop	; Automatically Added by addNops.pl
5683	122f	00000000		nop	; Automatically Added by addNops.pl
5684				; Automatically 16 NOPs removed by reduceNOPs.sh
5685	1230	08000004		j	L_loadStoreByte_2	
5686	1231	00000000		nop	; Automatically Added by addNops.pl
5687	1232	00000000		nop	; Automatically Added by addNops.pl
5688	1233	00000000		nop	; Automatically Added by addNops.pl
5689				; Automatically 16 NOPs removed by reduceNOPs.sh
5690			L_loadStoreByte_2:
5691	1234	00000000		nop	; Automatically Added by addNops.pl
5692	1235	00000000		nop	; Automatically Added by addNops.pl
5693	1236	00000000		nop	; Automatically Added by addNops.pl
5694				; Automatically 16 NOPs removed by reduceNOPs.sh
5695	1237	8fdf0004		lw	%GPR31,4(%GPR30)	
5696	1238	00000000		nop	; Automatically Added by addNops.pl
5697	1239	00000000		nop	; Automatically Added by addNops.pl
5698	123a	00000000		nop	; Automatically Added by addNops.pl
5699	123b	27dd0004		addui	%GPR29,%GPR30,$4	
5700	123c	00000000		nop	; Automatically Added by addNops.pl
5701	123d	00000000		nop	; Automatically Added by addNops.pl
5702	123e	00000000		nop	; Automatically Added by addNops.pl
5703	123f	8fde0000		lw	%GPR30,0(%GPR30)	
5704	1240	00000000		nop	; Automatically Added by addNops.pl
5705	1241	00000000		nop	; Automatically Added by addNops.pl
5706	1242	00000000		nop	; Automatically Added by addNops.pl
5707				; Automatically 8 NOPs removed by reduceNOPs.sh
5708	1243	00000000		nop
5709	1244	00000000		nop
5710	1245	03e00008		jr	%GPR31	
5711	1246	00000000		nop	; Automatically Added by addNops.pl
5712	1247	00000000		nop	; Automatically Added by addNops.pl
5713	1248	00000000		nop	; Automatically Added by addNops.pl
5714				; Automatically 16 NOPs removed by reduceNOPs.sh
5715			loadByteSigned:
5716			L_loadStoreByte_3:
5717	1249	00000000		nop	; Automatically Added by addNops.pl
5718	124a	00000000		nop	; Automatically Added by addNops.pl
5719	124b	00000000		nop	; Automatically Added by addNops.pl
5720				; Automatically 16 NOPs removed by reduceNOPs.sh
5721	124c	afbefffc		sw	-4(%GPR29),%GPR30	
5722	124d	00000000		nop	; Automatically Added by addNops.pl
5723	124e	00000000		nop	; Automatically Added by addNops.pl
5724	124f	00000000		nop	; Automatically Added by addNops.pl
5725	1250	00000000		nop	; Automatically added by fix-stall-insns.pl
5726	1251	afbf0000		sw	0(%GPR29),%GPR31	
5727	1252	00000000		nop	; Automatically Added by addNops.pl
5728	1253	00000000		nop	; Automatically Added by addNops.pl
5729	1254	00000000		nop	; Automatically Added by addNops.pl
5730	1255	2fbe0004		subui	%GPR30,%GPR29,$4	
5731	1256	00000000		nop	; Automatically Added by addNops.pl
5732	1257	00000000		nop	; Automatically Added by addNops.pl
5733	1258	00000000		nop	; Automatically Added by addNops.pl
5734				; Automatically 4 NOPs removed by reduceNOPs.sh
5735	1259	2bbd0008		subi	%GPR29,%GPR29,$8	
5736	125a	00000000		nop	; Automatically Added by addNops.pl
5737	125b	00000000		nop	; Automatically Added by addNops.pl
5738	125c	00000000		nop	; Automatically Added by addNops.pl
5739				; Automatically 36 NOPs removed by reduceNOPs.sh
5740	125d	30220003		andi	%GPR2,%GPR1,$3	
5741	125e	00000000		nop	; Automatically Added by addNops.pl
5742	125f	00000000		nop	; Automatically Added by addNops.pl
5743	1260	00000000		nop	; Automatically Added by addNops.pl
5744	1261	3021fffc		andi	%GPR1,%GPR1,$-4	
5745	1262	00000000		nop	; Automatically Added by addNops.pl
5746	1263	00000000		nop	; Automatically Added by addNops.pl
5747	1264	00000000		nop	; Automatically Added by addNops.pl
5748				; Automatically 12 NOPs removed by reduceNOPs.sh
5749	1265	20420001		addi	%GPR2,%GPR2,$1	
5750	1266	00000000		nop	; Automatically Added by addNops.pl
5751	1267	00000000		nop	; Automatically Added by addNops.pl
5752	1268	00000000		nop	; Automatically Added by addNops.pl
5753				; Automatically 16 NOPs removed by reduceNOPs.sh
5754	1269	00021023		subu	%GPR2,%GPR0,%GPR2	
5755	126a	00000000		nop	; Automatically Added by addNops.pl
5756	126b	00000000		nop	; Automatically Added by addNops.pl
5757	126c	00000000		nop	; Automatically Added by addNops.pl
5758	126d	8c210000		lw	%GPR1,0(%GPR1)	
5759	126e	00000000		nop	; Automatically Added by addNops.pl
5760	126f	00000000		nop	; Automatically Added by addNops.pl
5761	1270	00000000		nop	; Automatically Added by addNops.pl
5762				; Automatically 12 NOPs removed by reduceNOPs.sh
5763	1271	40420003		slli	%GPR2,%GPR2,$3	
5764	1272	00000000		nop	; Automatically Added by addNops.pl
5765	1273	00000000		nop	; Automatically Added by addNops.pl
5766	1274	00000000		nop	; Automatically Added by addNops.pl
5767				; Automatically 16 NOPs removed by reduceNOPs.sh
5768	1275	00220803		sra	%GPR1,%GPR1,%GPR2	
5769	1276	00000000		nop	; Automatically Added by addNops.pl
5770	1277	00000000		nop	; Automatically Added by addNops.pl
5771	1278	00000000		nop	; Automatically Added by addNops.pl
5772				; Automatically 16 NOPs removed by reduceNOPs.sh
5773	1279	302100ff		andi	%GPR1,%GPR1,$255	
5774	127a	00000000		nop	; Automatically Added by addNops.pl
5775	127b	00000000		nop	; Automatically Added by addNops.pl
5776	127c	00000000		nop	; Automatically Added by addNops.pl
5777				; Automatically 16 NOPs removed by reduceNOPs.sh
5778	127d	40210018		slli	%GPR1,%GPR1,$24	
5779	127e	00000000		nop	; Automatically Added by addNops.pl
5780	127f	00000000		nop	; Automatically Added by addNops.pl
5781	1280	00000000		nop	; Automatically Added by addNops.pl
5782				; Automatically 16 NOPs removed by reduceNOPs.sh
5783	1281	483c0018		srai	%GPR28,%GPR1,$24	
5784	1282	00000000		nop	; Automatically Added by addNops.pl
5785	1283	00000000		nop	; Automatically Added by addNops.pl
5786	1284	00000000		nop	; Automatically Added by addNops.pl
5787				; Automatically 16 NOPs removed by reduceNOPs.sh
5788	1285	08000004		j	L_loadStoreByte_4	
5789	1286	00000000		nop	; Automatically Added by addNops.pl
5790	1287	00000000		nop	; Automatically Added by addNops.pl
5791	1288	00000000		nop	; Automatically Added by addNops.pl
5792				; Automatically 16 NOPs removed by reduceNOPs.sh
5793			L_loadStoreByte_4:
5794	1289	00000000		nop	; Automatically Added by addNops.pl
5795	128a	00000000		nop	; Automatically Added by addNops.pl
5796	128b	00000000		nop	; Automatically Added by addNops.pl
5797				; Automatically 16 NOPs removed by reduceNOPs.sh
5798	128c	8fdf0004		lw	%GPR31,4(%GPR30)	
5799	128d	00000000		nop	; Automatically Added by addNops.pl
5800	128e	00000000		nop	; Automatically Added by addNops.pl
5801	128f	00000000		nop	; Automatically Added by addNops.pl
5802	1290	27dd0004		addui	%GPR29,%GPR30,$4	
5803	1291	00000000		nop	; Automatically Added by addNops.pl
5804	1292	00000000		nop	; Automatically Added by addNops.pl
5805	1293	00000000		nop	; Automatically Added by addNops.pl
5806	1294	8fde0000		lw	%GPR30,0(%GPR30)	
5807	1295	00000000		nop	; Automatically Added by addNops.pl
5808	1296	00000000		nop	; Automatically Added by addNops.pl
5809	1297	00000000		nop	; Automatically Added by addNops.pl
5810				; Automatically 8 NOPs removed by reduceNOPs.sh
5811	1298	00000000		nop
5812	1299	00000000		nop
5813	129a	03e00008		jr	%GPR31	
5814	129b	00000000		nop	; Automatically Added by addNops.pl
5815	129c	00000000		nop	; Automatically Added by addNops.pl
5816	129d	00000000		nop	; Automatically Added by addNops.pl
5817				; Automatically 16 NOPs removed by reduceNOPs.sh
5818			storeByte:
5819			L_loadStoreByte_5:
5820	129e	00000000		nop	; Automatically Added by addNops.pl
5821	129f	00000000		nop	; Automatically Added by addNops.pl
5822	12a0	00000000		nop	; Automatically Added by addNops.pl
5823				; Automatically 16 NOPs removed by reduceNOPs.sh
5824	12a1	afbefffc		sw	-4(%GPR29),%GPR30	
5825	12a2	00000000		nop	; Automatically Added by addNops.pl
5826	12a3	00000000		nop	; Automatically Added by addNops.pl
5827	12a4	00000000		nop	; Automatically Added by addNops.pl
5828	12a5	00000000		nop	; Automatically added by fix-stall-insns.pl
5829	12a6	afbf0000		sw	0(%GPR29),%GPR31	
5830	12a7	00000000		nop	; Automatically Added by addNops.pl
5831	12a8	00000000		nop	; Automatically Added by addNops.pl
5832	12a9	00000000		nop	; Automatically Added by addNops.pl
5833	12aa	2fbe0004		subui	%GPR30,%GPR29,$4	
5834	12ab	00000000		nop	; Automatically Added by addNops.pl
5835	12ac	00000000		nop	; Automatically Added by addNops.pl
5836	12ad	00000000		nop	; Automatically Added by addNops.pl
5837				; Automatically 4 NOPs removed by reduceNOPs.sh
5838	12ae	2bbd0008		subi	%GPR29,%GPR29,$8	
5839	12af	00000000		nop	; Automatically Added by addNops.pl
5840	12b0	00000000		nop	; Automatically Added by addNops.pl
5841	12b1	00000000		nop	; Automatically Added by addNops.pl
5842				; Automatically 44 NOPs removed by reduceNOPs.sh
5843	12b2	30230003		andi	%GPR3,%GPR1,$3	
5844	12b3	00000000		nop	; Automatically Added by addNops.pl
5845	12b4	00000000		nop	; Automatically Added by addNops.pl
5846	12b5	00000000		nop	; Automatically Added by addNops.pl
5847				; Automatically 8 NOPs removed by reduceNOPs.sh
5848	12b6	30240003		andi	%GPR4,%GPR1,$3	
5849	12b7	00000000		nop	; Automatically Added by addNops.pl
5850	12b8	00000000		nop	; Automatically Added by addNops.pl
5851	12b9	00000000		nop	; Automatically Added by addNops.pl
5852	12ba	3c050000		lhi	%GPR5,$0	
5853	12bb	00000000		nop	; Automatically Added by addNops.pl
5854	12bc	00000000		nop	; Automatically Added by addNops.pl
5855	12bd	00000000		nop	; Automatically Added by addNops.pl
5856				; Automatically 16 NOPs removed by reduceNOPs.sh
5857	12be	34a50003		ori	%GPR5,%GPR5,$3	
5858	12bf	00000000		nop	; Automatically Added by addNops.pl
5859	12c0	00000000		nop	; Automatically Added by addNops.pl
5860	12c1	00000000		nop	; Automatically Added by addNops.pl
5861	12c2	3021fffc		andi	%GPR1,%GPR1,$-4	
5862	12c3	00000000		nop	; Automatically Added by addNops.pl
5863	12c4	00000000		nop	; Automatically Added by addNops.pl
5864	12c5	00000000		nop	; Automatically Added by addNops.pl
5865	12c6	3c060000		lhi	%GPR6,$0	
5866	12c7	00000000		nop	; Automatically Added by addNops.pl
5867	12c8	00000000		nop	; Automatically Added by addNops.pl
5868	12c9	00000000		nop	; Automatically Added by addNops.pl
5869				; Automatically 16 NOPs removed by reduceNOPs.sh
5870	12ca	34c600ff		ori	%GPR6,%GPR6,$255	
5871	12cb	00000000		nop	; Automatically Added by addNops.pl
5872	12cc	00000000		nop	; Automatically Added by addNops.pl
5873	12cd	00000000		nop	; Automatically Added by addNops.pl
5874	12ce	20840001		addi	%GPR4,%GPR4,$1	
5875	12cf	00000000		nop	; Automatically Added by addNops.pl
5876	12d0	00000000		nop	; Automatically Added by addNops.pl
5877	12d1	00000000		nop	; Automatically Added by addNops.pl
5878				; Automatically 16 NOPs removed by reduceNOPs.sh
5879	12d2	00042023		subu	%GPR4,%GPR0,%GPR4	
5880	12d3	00000000		nop	; Automatically Added by addNops.pl
5881	12d4	00000000		nop	; Automatically Added by addNops.pl
5882	12d5	00000000		nop	; Automatically Added by addNops.pl
5883	12d6	00a31822		sub	%GPR3,%GPR5,%GPR3	
5884	12d7	00000000		nop	; Automatically Added by addNops.pl
5885	12d8	00000000		nop	; Automatically Added by addNops.pl
5886	12d9	00000000		nop	; Automatically Added by addNops.pl
5887	12da	8c3c0000		lw	%GPR28,0(%GPR1)	
5888	12db	00000000		nop	; Automatically Added by addNops.pl
5889	12dc	00000000		nop	; Automatically Added by addNops.pl
5890	12dd	00000000		nop	; Automatically Added by addNops.pl
5891				; Automatically 8 NOPs removed by reduceNOPs.sh
5892	12de	40840003		slli	%GPR4,%GPR4,$3	
5893	12df	00000000		nop	; Automatically Added by addNops.pl
5894	12e0	00000000		nop	; Automatically Added by addNops.pl
5895	12e1	00000000		nop	; Automatically Added by addNops.pl
5896	12e2	40630003		slli	%GPR3,%GPR3,$3	
5897	12e3	00000000		nop	; Automatically Added by addNops.pl
5898	12e4	00000000		nop	; Automatically Added by addNops.pl
5899	12e5	00000000		nop	; Automatically Added by addNops.pl
5900				; Automatically 12 NOPs removed by reduceNOPs.sh
5901	12e6	00441000		sll	%GPR2,%GPR2,%GPR4	
5902	12e7	00000000		nop	; Automatically Added by addNops.pl
5903	12e8	00000000		nop	; Automatically Added by addNops.pl
5904	12e9	00000000		nop	; Automatically Added by addNops.pl
5905	12ea	00c31800		sll	%GPR3,%GPR6,%GPR3	
5906	12eb	00000000		nop	; Automatically Added by addNops.pl
5907	12ec	00000000		nop	; Automatically Added by addNops.pl
5908	12ed	00000000		nop	; Automatically Added by addNops.pl
5909				; Automatically 16 NOPs removed by reduceNOPs.sh
5910	12ee	20630001		addi	%GPR3,%GPR3,$1	
5911	12ef	00000000		nop	; Automatically Added by addNops.pl
5912	12f0	00000000		nop	; Automatically Added by addNops.pl
5913	12f1	00000000		nop	; Automatically Added by addNops.pl
5914				; Automatically 16 NOPs removed by reduceNOPs.sh
5915	12f2	00031823		subu	%GPR3,%GPR0,%GPR3	
5916	12f3	00000000		nop	; Automatically Added by addNops.pl
5917	12f4	00000000		nop	; Automatically Added by addNops.pl
5918	12f5	00000000		nop	; Automatically Added by addNops.pl
5919				; Automatically 16 NOPs removed by reduceNOPs.sh
5920	12f6	0383e024		and	%GPR28,%GPR28,%GPR3	
5921	12f7	00000000		nop	; Automatically Added by addNops.pl
5922	12f8	00000000		nop	; Automatically Added by addNops.pl
5923	12f9	00000000		nop	; Automatically Added by addNops.pl
5924				; Automatically 16 NOPs removed by reduceNOPs.sh
5925	12fa	0382e025		or	%GPR28,%GPR28,%GPR2	
5926	12fb	00000000		nop	; Automatically Added by addNops.pl
5927	12fc	00000000		nop	; Automatically Added by addNops.pl
5928	12fd	00000000		nop	; Automatically Added by addNops.pl
5929				; Automatically 16 NOPs removed by reduceNOPs.sh
5930	12fe	ac3c0000		sw	0(%GPR1),%GPR28	
5931	12ff	00000000		nop	; Automatically Added by addNops.pl
5932	1300	00000000		nop	; Automatically Added by addNops.pl
5933	1301	00000000		nop	; Automatically Added by addNops.pl
5934	1302	08000004		j	L_loadStoreByte_6	
5935	1303	00000000		nop	; Automatically Added by addNops.pl
5936	1304	00000000		nop	; Automatically Added by addNops.pl
5937	1305	00000000		nop	; Automatically Added by addNops.pl
5938				; Automatically 16 NOPs removed by reduceNOPs.sh
5939			L_loadStoreByte_6:
5940	1306	00000000		nop	; Automatically Added by addNops.pl
5941	1307	00000000		nop	; Automatically Added by addNops.pl
5942	1308	00000000		nop	; Automatically Added by addNops.pl
5943				; Automatically 16 NOPs removed by reduceNOPs.sh
5944	1309	8fdf0004		lw	%GPR31,4(%GPR30)	
5945	130a	00000000		nop	; Automatically Added by addNops.pl
5946	130b	00000000		nop	; Automatically Added by addNops.pl
5947	130c	00000000		nop	; Automatically Added by addNops.pl
5948	130d	27dd0004		addui	%GPR29,%GPR30,$4	
5949	130e	00000000		nop	; Automatically Added by addNops.pl
5950	130f	00000000		nop	; Automatically Added by addNops.pl
5951	1310	00000000		nop	; Automatically Added by addNops.pl
5952	1311	8fde0000		lw	%GPR30,0(%GPR30)	
5953	1312	00000000		nop	; Automatically Added by addNops.pl
5954	1313	00000000		nop	; Automatically Added by addNops.pl
5955	1314	00000000		nop	; Automatically Added by addNops.pl
5956				; Automatically 8 NOPs removed by reduceNOPs.sh
5957	1315	00000000		nop
5958	1316	00000000		nop
5959	1317	03e00008		jr	%GPR31	
5960	1318	00000000		nop	; Automatically Added by addNops.pl
5961	1319	00000000		nop	; Automatically Added by addNops.pl
5962	131a	00000000		nop	; Automatically Added by addNops.pl
5963				.section	.data
5964				.align	4
5965			L_main_1:
5966	0004	00000001		.data.32	1
5967			L_main_2:
5968	0008	48		.data.8	72
5969	0009	61		.data.8	97
5970	000a	6c		.data.8	108
5971	000b	6c		.data.8	108
5972	000c	6f		.data.8	111
5973	000d	20		.data.8	32
5974	000e	57		.data.8	87
5975	000f	65		.data.8	101
5976	0010	6c		.data.8	108
5977	0011	74		.data.8	116
5978	0012	0d		.data.8	13
5979	0013	0a		.data.8	10
5980	0014	00		.space	1
5981			L_main_3:
5982	0015	59		.data.8	89
5983	0016	65		.data.8	101
5984	0017	74		.data.8	116
5985	0018	20		.data.8	32
5986	0019	41		.data.8	65
5987	001a	6e		.data.8	110
5988	001b	6f		.data.8	111
5989	001c	74		.data.8	116
5990	001d	68		.data.8	104
5991	001e	65		.data.8	101
5992	001f	72		.data.8	114
5993	0020	20		.data.8	32
5994	0021	53		.data.8	83
5995	0022	77		.data.8	119
5996	0023	69		.data.8	105
5997	0024	74		.data.8	116
5998	0025	63		.data.8	99
5999	0026	68		.data.8	104
6000	0027	00		.space	1
6001				.section	.text
6002				.addressing	Word
6003				;.addressing	Word
6004			redrawBarGraph:
6005			L_main_4:
6006	131b	00000000		nop	; Automatically Added by addNops.pl
6007	131c	00000000		nop	; Automatically Added by addNops.pl
6008	131d	00000000		nop	; Automatically Added by addNops.pl
6009				; Automatically 16 NOPs removed by reduceNOPs.sh
6010	131e	afbefffc		sw	-4(%GPR29),%GPR30	
6011	131f	00000000		nop	; Automatically Added by addNops.pl
6012	1320	00000000		nop	; Automatically Added by addNops.pl
6013	1321	00000000		nop	; Automatically Added by addNops.pl
6014	1322	00000000		nop	; Automatically added by fix-stall-insns.pl
6015	1323	afbf0000		sw	0(%GPR29),%GPR31	
6016	1324	00000000		nop	; Automatically Added by addNops.pl
6017	1325	00000000		nop	; Automatically Added by addNops.pl
6018	1326	00000000		nop	; Automatically Added by addNops.pl
6019	1327	2fbe0004		subui	%GPR30,%GPR29,$4	
6020	1328	00000000		nop	; Automatically Added by addNops.pl
6021	1329	00000000		nop	; Automatically Added by addNops.pl
6022	132a	00000000		nop	; Automatically Added by addNops.pl
6023				; Automatically 4 NOPs removed by reduceNOPs.sh
6024	132b	2bbd0034		subi	%GPR29,%GPR29,$52	
6025	132c	00000000		nop	; Automatically Added by addNops.pl
6026	132d	00000000		nop	; Automatically Added by addNops.pl
6027	132e	00000000		nop	; Automatically Added by addNops.pl
6028				; Automatically 16 NOPs removed by reduceNOPs.sh
6029	132f	afc1ffd8		sw	-40(%GPR30),%GPR1	
6030	1330	00000000		nop	; Automatically Added by addNops.pl
6031	1331	00000000		nop	; Automatically Added by addNops.pl
6032	1332	00000000		nop	; Automatically Added by addNops.pl
6033	1333	00000000		nop	; Automatically added by fix-stall-insns.pl
6034	1334	afc2ffd4		sw	-44(%GPR30),%GPR2	
6035	1335	00000000		nop	; Automatically Added by addNops.pl
6036	1336	00000000		nop	; Automatically Added by addNops.pl
6037	1337	00000000		nop	; Automatically Added by addNops.pl
6038				; Automatically 12 NOPs removed by reduceNOPs.sh
6039	1338	3c010000		lhi	%GPR1,$( L_main_1	/0x10000)
6040	1339	00000000		nop
6041	133a	00000000		nop
6042	133b	00000000		nop
6043	133c	34210004		ori	%GPR1,%GPR1,$( L_main_1	%0x10000)
6044	133d	00000000		nop	; Automatically Added by addNops.pl
6045	133e	00000000		nop	; Automatically Added by addNops.pl
6046	133f	00000000		nop	; Automatically Added by addNops.pl
6047				; Automatically 16 NOPs removed by reduceNOPs.sh
6048	1340	8c210000		lw	%GPR1,0(%GPR1)	
6049	1341	00000000		nop	; Automatically Added by addNops.pl
6050	1342	00000000		nop	; Automatically Added by addNops.pl
6051	1343	00000000		nop	; Automatically Added by addNops.pl
6052	1344	3c020000		lhi	%GPR2,$0	
6053	1345	00000000		nop	; Automatically Added by addNops.pl
6054	1346	00000000		nop	; Automatically Added by addNops.pl
6055	1347	00000000		nop	; Automatically Added by addNops.pl
6056				; Automatically 16 NOPs removed by reduceNOPs.sh
6057	1348	34420001		ori	%GPR2,%GPR2,$1	
6058	1349	00000000		nop	; Automatically Added by addNops.pl
6059	134a	00000000		nop	; Automatically Added by addNops.pl
6060	134b	00000000		nop	; Automatically Added by addNops.pl
6061				; Automatically 16 NOPs removed by reduceNOPs.sh
6062	134c	0022d82e		seq	%GPR27,%GPR1,%GPR2	
6063	134d	00000000		nop	; Automatically Added by addNops.pl
6064	134e	00000000		nop	; Automatically Added by addNops.pl
6065	134f	00000000		nop	; Automatically Added by addNops.pl
6066	1350	17600008		bnez	%GPR27,L_main_5	
6067	1351	00000000		nop	; Automatically Added by addNops.pl
6068	1352	00000000		nop	; Automatically Added by addNops.pl
6069	1353	00000000		nop	; Automatically Added by addNops.pl
6070				; Automatically 16 NOPs removed by reduceNOPs.sh
6071	1354	08000083		j	L_main_6	
6072	1355	00000000		nop	; Automatically Added by addNops.pl
6073	1356	00000000		nop	; Automatically Added by addNops.pl
6074	1357	00000000		nop	; Automatically Added by addNops.pl
6075				; Automatically 16 NOPs removed by reduceNOPs.sh
6076			L_main_5:
6077	1358	00000000		nop	; Automatically Added by addNops.pl
6078	1359	00000000		nop	; Automatically Added by addNops.pl
6079	135a	00000000		nop	; Automatically Added by addNops.pl
6080				; Automatically 8 NOPs removed by reduceNOPs.sh
6081	135b	2bc40024		subi	%GPR4,%GPR30,$36	
6082	135c	00000000		nop	; Automatically Added by addNops.pl
6083	135d	00000000		nop	; Automatically Added by addNops.pl
6084	135e	00000000		nop	; Automatically Added by addNops.pl
6085				; Automatically 8 NOPs removed by reduceNOPs.sh
6086	135f	3c080000		lhi	%GPR8,$0	
6087	1360	00000000		nop	; Automatically Added by addNops.pl
6088	1361	00000000		nop	; Automatically Added by addNops.pl
6089	1362	00000000		nop	; Automatically Added by addNops.pl
6090				; Automatically 16 NOPs removed by reduceNOPs.sh
6091	1363	3508000a		ori	%GPR8,%GPR8,$10	
6092	1364	00000000		nop	; Automatically Added by addNops.pl
6093	1365	00000000		nop	; Automatically Added by addNops.pl
6094	1366	00000000		nop	; Automatically Added by addNops.pl
6095	1367	3c090000		lhi	%GPR9,$0	
6096	1368	00000000		nop	; Automatically Added by addNops.pl
6097	1369	00000000		nop	; Automatically Added by addNops.pl
6098	136a	00000000		nop	; Automatically Added by addNops.pl
6099				; Automatically 16 NOPs removed by reduceNOPs.sh
6100	136b	35290004		ori	%GPR9,%GPR9,$4	
6101	136c	00000000		nop	; Automatically Added by addNops.pl
6102	136d	00000000		nop	; Automatically Added by addNops.pl
6103	136e	00000000		nop	; Automatically Added by addNops.pl
6104				; Automatically 12 NOPs removed by reduceNOPs.sh
6105	136f	afc8ffdc		sw	-36(%GPR30),%GPR8	
6106	1370	00000000		nop	; Automatically Added by addNops.pl
6107	1371	00000000		nop	; Automatically Added by addNops.pl
6108	1372	00000000		nop	; Automatically Added by addNops.pl
6109	1373	00894020		add	%GPR8,%GPR4,%GPR9	
6110	1374	00000000		nop	; Automatically Added by addNops.pl
6111	1375	00000000		nop	; Automatically Added by addNops.pl
6112	1376	00000000		nop	; Automatically Added by addNops.pl
6113				; Automatically 16 NOPs removed by reduceNOPs.sh
6114	1377	3c0a0000		lhi	%GPR10,$0	
6115	1378	00000000		nop	; Automatically Added by addNops.pl
6116	1379	00000000		nop	; Automatically Added by addNops.pl
6117	137a	00000000		nop	; Automatically Added by addNops.pl
6118				; Automatically 16 NOPs removed by reduceNOPs.sh
6119	137b	354a0001		ori	%GPR10,%GPR10,$1	
6120	137c	00000000		nop	; Automatically Added by addNops.pl
6121	137d	00000000		nop	; Automatically Added by addNops.pl
6122	137e	00000000		nop	; Automatically Added by addNops.pl
6123				; Automatically 8 NOPs removed by reduceNOPs.sh
6124	137f	2bc30024		subi	%GPR3,%GPR30,$36	
6125	1380	00000000		nop	; Automatically Added by addNops.pl
6126	1381	00000000		nop	; Automatically Added by addNops.pl
6127	1382	00000000		nop	; Automatically Added by addNops.pl
6128	1383	3c070000		lhi	%GPR7,$0	
6129	1384	00000000		nop	; Automatically Added by addNops.pl
6130	1385	00000000		nop	; Automatically Added by addNops.pl
6131	1386	00000000		nop	; Automatically Added by addNops.pl
6132				; Automatically 16 NOPs removed by reduceNOPs.sh
6133	1387	34e7006f		ori	%GPR7,%GPR7,$111	
6134	1388	00000000		nop	; Automatically Added by addNops.pl
6135	1389	00000000		nop	; Automatically Added by addNops.pl
6136	138a	00000000		nop	; Automatically Added by addNops.pl
6137	138b	3c060000		lhi	%GPR6,$0	
6138	138c	00000000		nop	; Automatically Added by addNops.pl
6139	138d	00000000		nop	; Automatically Added by addNops.pl
6140	138e	00000000		nop	; Automatically Added by addNops.pl
6141				; Automatically 16 NOPs removed by reduceNOPs.sh
6142	138f	34c60000		ori	%GPR6,%GPR6,$0	
6143	1390	00000000		nop	; Automatically Added by addNops.pl
6144	1391	00000000		nop	; Automatically Added by addNops.pl
6145	1392	00000000		nop	; Automatically Added by addNops.pl
6146	1393	3c050000		lhi	%GPR5,$0	
6147	1394	00000000		nop	; Automatically Added by addNops.pl
6148	1395	00000000		nop	; Automatically Added by addNops.pl
6149	1396	00000000		nop	; Automatically Added by addNops.pl
6150				; Automatically 16 NOPs removed by reduceNOPs.sh
6151	1397	34a50002		ori	%GPR5,%GPR5,$2	
6152	1398	00000000		nop	; Automatically Added by addNops.pl
6153	1399	00000000		nop	; Automatically Added by addNops.pl
6154	139a	00000000		nop	; Automatically Added by addNops.pl
6155	139b	3c020000		lhi	%GPR2,$0	
6156	139c	00000000		nop	; Automatically Added by addNops.pl
6157	139d	00000000		nop	; Automatically Added by addNops.pl
6158	139e	00000000		nop	; Automatically Added by addNops.pl
6159				; Automatically 16 NOPs removed by reduceNOPs.sh
6160	139f	34420044		ori	%GPR2,%GPR2,$68	
6161	13a0	00000000		nop	; Automatically Added by addNops.pl
6162	13a1	00000000		nop	; Automatically Added by addNops.pl
6163	13a2	00000000		nop	; Automatically Added by addNops.pl
6164	13a3	3c010000		lhi	%GPR1,$0	
6165	13a4	00000000		nop	; Automatically Added by addNops.pl
6166	13a5	00000000		nop	; Automatically Added by addNops.pl
6167	13a6	00000000		nop	; Automatically Added by addNops.pl
6168				; Automatically 16 NOPs removed by reduceNOPs.sh
6169	13a7	34210042		ori	%GPR1,%GPR1,$66	
6170	13a8	00000000		nop	; Automatically Added by addNops.pl
6171	13a9	00000000		nop	; Automatically Added by addNops.pl
6172	13aa	00000000		nop	; Automatically Added by addNops.pl
6173	13ab	ad0a0000		sw	0(%GPR8),%GPR10	
6174	13ac	00000000		nop	; Automatically Added by addNops.pl
6175	13ad	00000000		nop	; Automatically Added by addNops.pl
6176	13ae	00000000		nop	; Automatically Added by addNops.pl
6177	13af	3c040000		lhi	%GPR4,$0	
6178	13b0	00000000		nop	; Automatically Added by addNops.pl
6179	13b1	00000000		nop	; Automatically Added by addNops.pl
6180	13b2	00000000		nop	; Automatically Added by addNops.pl
6181				; Automatically 16 NOPs removed by reduceNOPs.sh
6182	13b3	34840000		ori	%GPR4,%GPR4,$0	
6183	13b4	00000000		nop	; Automatically Added by addNops.pl
6184	13b5	00000000		nop	; Automatically Added by addNops.pl
6185	13b6	00000000		nop	; Automatically Added by addNops.pl
6186				; Automatically 16 NOPs removed by reduceNOPs.sh
6187	13b7	2bbd0008		subi	%GPR29,%GPR29,$8	
6188	13b8	00000000		nop	; Automatically Added by addNops.pl
6189	13b9	00000000		nop	; Automatically Added by addNops.pl
6190	13ba	00000000		nop	; Automatically Added by addNops.pl
6191				; Automatically 16 NOPs removed by reduceNOPs.sh
6192	13bb	0ffff047		jal	sendcommand	
6193	13bc	00000000		nop	; Automatically Added by addNops.pl
6194	13bd	00000000		nop	; Automatically Added by addNops.pl
6195	13be	00000000		nop	; Automatically Added by addNops.pl
6196				; Automatically 16 NOPs removed by reduceNOPs.sh
6197	13bf	23bd0008		addi	%GPR29,%GPR29,$8	
6198	13c0	00000000		nop	; Automatically Added by addNops.pl
6199	13c1	00000000		nop	; Automatically Added by addNops.pl
6200	13c2	00000000		nop	; Automatically Added by addNops.pl
6201				; Automatically 24 NOPs removed by reduceNOPs.sh
6202	13c3	3c010000		lhi	%GPR1,$( L_main_1	/0x10000)
6203	13c4	00000000		nop
6204	13c5	00000000		nop
6205	13c6	00000000		nop
6206	13c7	34210004		ori	%GPR1,%GPR1,$( L_main_1	%0x10000)
6207	13c8	00000000		nop	; Automatically Added by addNops.pl
6208	13c9	00000000		nop	; Automatically Added by addNops.pl
6209	13ca	00000000		nop	; Automatically Added by addNops.pl
6210				; Automatically 12 NOPs removed by reduceNOPs.sh
6211	13cb	3c020000		lhi	%GPR2,$0	
6212	13cc	00000000		nop	; Automatically Added by addNops.pl
6213	13cd	00000000		nop	; Automatically Added by addNops.pl
6214	13ce	00000000		nop	; Automatically Added by addNops.pl
6215				; Automatically 16 NOPs removed by reduceNOPs.sh
6216	13cf	34420000		ori	%GPR2,%GPR2,$0	
6217	13d0	00000000		nop	; Automatically Added by addNops.pl
6218	13d1	00000000		nop	; Automatically Added by addNops.pl
6219	13d2	00000000		nop	; Automatically Added by addNops.pl
6220				; Automatically 16 NOPs removed by reduceNOPs.sh
6221	13d3	ac220000		sw	0(%GPR1),%GPR2	
6222	13d4	00000000		nop	; Automatically Added by addNops.pl
6223	13d5	00000000		nop	; Automatically Added by addNops.pl
6224	13d6	00000000		nop	; Automatically Added by addNops.pl
6225				; Automatically 12 NOPs removed by reduceNOPs.sh
6226			L_main_6:
6227	13d7	00000000		nop	; Automatically Added by addNops.pl
6228	13d8	00000000		nop	; Automatically Added by addNops.pl
6229	13d9	00000000		nop	; Automatically Added by addNops.pl
6230				; Automatically 20 NOPs removed by reduceNOPs.sh
6231	13da	2bc10024		subi	%GPR1,%GPR30,$36	
6232	13db	00000000		nop	; Automatically Added by addNops.pl
6233	13dc	00000000		nop	; Automatically Added by addNops.pl
6234	13dd	00000000		nop	; Automatically Added by addNops.pl
6235				; Automatically 8 NOPs removed by reduceNOPs.sh
6236	13de	3c020000		lhi	%GPR2,$0	
6237	13df	00000000		nop	; Automatically Added by addNops.pl
6238	13e0	00000000		nop	; Automatically Added by addNops.pl
6239	13e1	00000000		nop	; Automatically Added by addNops.pl
6240				; Automatically 16 NOPs removed by reduceNOPs.sh
6241	13e2	3442000a		ori	%GPR2,%GPR2,$10	
6242	13e3	00000000		nop	; Automatically Added by addNops.pl
6243	13e4	00000000		nop	; Automatically Added by addNops.pl
6244	13e5	00000000		nop	; Automatically Added by addNops.pl
6245	13e6	3c030000		lhi	%GPR3,$0	
6246	13e7	00000000		nop	; Automatically Added by addNops.pl
6247	13e8	00000000		nop	; Automatically Added by addNops.pl
6248	13e9	00000000		nop	; Automatically Added by addNops.pl
6249				; Automatically 16 NOPs removed by reduceNOPs.sh
6250	13ea	34630004		ori	%GPR3,%GPR3,$4	
6251	13eb	00000000		nop	; Automatically Added by addNops.pl
6252	13ec	00000000		nop	; Automatically Added by addNops.pl
6253	13ed	00000000		nop	; Automatically Added by addNops.pl
6254				; Automatically 8 NOPs removed by reduceNOPs.sh
6255	13ee	2bc40024		subi	%GPR4,%GPR30,$36	
6256	13ef	00000000		nop	; Automatically Added by addNops.pl
6257	13f0	00000000		nop	; Automatically Added by addNops.pl
6258	13f1	00000000		nop	; Automatically Added by addNops.pl
6259	13f2	afc2ffdc		sw	-36(%GPR30),%GPR2	
6260	13f3	00000000		nop	; Automatically Added by addNops.pl
6261	13f4	00000000		nop	; Automatically Added by addNops.pl
6262	13f5	00000000		nop	; Automatically Added by addNops.pl
6263	13f6	00230820		add	%GPR1,%GPR1,%GPR3	
6264	13f7	00000000		nop	; Automatically Added by addNops.pl
6265	13f8	00000000		nop	; Automatically Added by addNops.pl
6266	13f9	00000000		nop	; Automatically Added by addNops.pl
6267	13fa	3c020000		lhi	%GPR2,$0	
6268	13fb	00000000		nop	; Automatically Added by addNops.pl
6269	13fc	00000000		nop	; Automatically Added by addNops.pl
6270	13fd	00000000		nop	; Automatically Added by addNops.pl
6271				; Automatically 16 NOPs removed by reduceNOPs.sh
6272	13fe	3442000a		ori	%GPR2,%GPR2,$10	
6273	13ff	00000000		nop	; Automatically Added by addNops.pl
6274	1400	00000000		nop	; Automatically Added by addNops.pl
6275	1401	00000000		nop	; Automatically Added by addNops.pl
6276	1402	3c050000		lhi	%GPR5,$0	
6277	1403	00000000		nop	; Automatically Added by addNops.pl
6278	1404	00000000		nop	; Automatically Added by addNops.pl
6279	1405	00000000		nop	; Automatically Added by addNops.pl
6280				; Automatically 16 NOPs removed by reduceNOPs.sh
6281	1406	34a50008		ori	%GPR5,%GPR5,$8	
6282	1407	00000000		nop	; Automatically Added by addNops.pl
6283	1408	00000000		nop	; Automatically Added by addNops.pl
6284	1409	00000000		nop	; Automatically Added by addNops.pl
6285				; Automatically 12 NOPs removed by reduceNOPs.sh
6286	140a	ac220000		sw	0(%GPR1),%GPR2	
6287	140b	00000000		nop	; Automatically Added by addNops.pl
6288	140c	00000000		nop	; Automatically Added by addNops.pl
6289	140d	00000000		nop	; Automatically Added by addNops.pl
6290	140e	00852020		add	%GPR4,%GPR4,%GPR5	
6291	140f	00000000		nop	; Automatically Added by addNops.pl
6292	1410	00000000		nop	; Automatically Added by addNops.pl
6293	1411	00000000		nop	; Automatically Added by addNops.pl
6294	1412	3c010000		lhi	%GPR1,$0	
6295	1413	00000000		nop	; Automatically Added by addNops.pl
6296	1414	00000000		nop	; Automatically Added by addNops.pl
6297	1415	00000000		nop	; Automatically Added by addNops.pl
6298				; Automatically 16 NOPs removed by reduceNOPs.sh
6299	1416	34210064		ori	%GPR1,%GPR1,$100	
6300	1417	00000000		nop	; Automatically Added by addNops.pl
6301	1418	00000000		nop	; Automatically Added by addNops.pl
6302	1419	00000000		nop	; Automatically Added by addNops.pl
6303	141a	2bc30024		subi	%GPR3,%GPR30,$36	
6304	141b	00000000		nop	; Automatically Added by addNops.pl
6305	141c	00000000		nop	; Automatically Added by addNops.pl
6306	141d	00000000		nop	; Automatically Added by addNops.pl
6307	141e	3c020000		lhi	%GPR2,$0	
6308	141f	00000000		nop	; Automatically Added by addNops.pl
6309	1420	00000000		nop	; Automatically Added by addNops.pl
6310	1421	00000000		nop	; Automatically Added by addNops.pl
6311				; Automatically 16 NOPs removed by reduceNOPs.sh
6312	1422	3442000c		ori	%GPR2,%GPR2,$12	
6313	1423	00000000		nop	; Automatically Added by addNops.pl
6314	1424	00000000		nop	; Automatically Added by addNops.pl
6315	1425	00000000		nop	; Automatically Added by addNops.pl
6316				; Automatically 12 NOPs removed by reduceNOPs.sh
6317	1426	ac810000		sw	0(%GPR4),%GPR1	
6318	1427	00000000		nop	; Automatically Added by addNops.pl
6319	1428	00000000		nop	; Automatically Added by addNops.pl
6320	1429	00000000		nop	; Automatically Added by addNops.pl
6321	142a	00621020		add	%GPR2,%GPR3,%GPR2	
6322	142b	00000000		nop	; Automatically Added by addNops.pl
6323	142c	00000000		nop	; Automatically Added by addNops.pl
6324	142d	00000000		nop	; Automatically Added by addNops.pl
6325	142e	3c010000		lhi	%GPR1,$0	
6326	142f	00000000		nop	; Automatically Added by addNops.pl
6327	1430	00000000		nop	; Automatically Added by addNops.pl
6328	1431	00000000		nop	; Automatically Added by addNops.pl
6329				; Automatically 16 NOPs removed by reduceNOPs.sh
6330	1432	342100c8		ori	%GPR1,%GPR1,$200	
6331	1433	00000000		nop	; Automatically Added by addNops.pl
6332	1434	00000000		nop	; Automatically Added by addNops.pl
6333	1435	00000000		nop	; Automatically Added by addNops.pl
6334	1436	2bc50024		subi	%GPR5,%GPR30,$36	
6335	1437	00000000		nop	; Automatically Added by addNops.pl
6336	1438	00000000		nop	; Automatically Added by addNops.pl
6337	1439	00000000		nop	; Automatically Added by addNops.pl
6338	143a	3c040000		lhi	%GPR4,$0	
6339	143b	00000000		nop	; Automatically Added by addNops.pl
6340	143c	00000000		nop	; Automatically Added by addNops.pl
6341	143d	00000000		nop	; Automatically Added by addNops.pl
6342				; Automatically 16 NOPs removed by reduceNOPs.sh
6343	143e	34840010		ori	%GPR4,%GPR4,$16	
6344	143f	00000000		nop	; Automatically Added by addNops.pl
6345	1440	00000000		nop	; Automatically Added by addNops.pl
6346	1441	00000000		nop	; Automatically Added by addNops.pl
6347				; Automatically 12 NOPs removed by reduceNOPs.sh
6348	1442	ac410000		sw	0(%GPR2),%GPR1	
6349	1443	00000000		nop	; Automatically Added by addNops.pl
6350	1444	00000000		nop	; Automatically Added by addNops.pl
6351	1445	00000000		nop	; Automatically Added by addNops.pl
6352	1446	00a42020		add	%GPR4,%GPR5,%GPR4	
6353	1447	00000000		nop	; Automatically Added by addNops.pl
6354	1448	00000000		nop	; Automatically Added by addNops.pl
6355	1449	00000000		nop	; Automatically Added by addNops.pl
6356	144a	3c010000		lhi	%GPR1,$0	
6357	144b	00000000		nop	; Automatically Added by addNops.pl
6358	144c	00000000		nop	; Automatically Added by addNops.pl
6359	144d	00000000		nop	; Automatically Added by addNops.pl
6360				; Automatically 16 NOPs removed by reduceNOPs.sh
6361	144e	34210082		ori	%GPR1,%GPR1,$130	
6362	144f	00000000		nop	; Automatically Added by addNops.pl
6363	1450	00000000		nop	; Automatically Added by addNops.pl
6364	1451	00000000		nop	; Automatically Added by addNops.pl
6365	1452	2bc30024		subi	%GPR3,%GPR30,$36	
6366	1453	00000000		nop	; Automatically Added by addNops.pl
6367	1454	00000000		nop	; Automatically Added by addNops.pl
6368	1455	00000000		nop	; Automatically Added by addNops.pl
6369	1456	3c020000		lhi	%GPR2,$0	
6370	1457	00000000		nop	; Automatically Added by addNops.pl
6371	1458	00000000		nop	; Automatically Added by addNops.pl
6372	1459	00000000		nop	; Automatically Added by addNops.pl
6373				; Automatically 16 NOPs removed by reduceNOPs.sh
6374	145a	34420014		ori	%GPR2,%GPR2,$20	
6375	145b	00000000		nop	; Automatically Added by addNops.pl
6376	145c	00000000		nop	; Automatically Added by addNops.pl
6377	145d	00000000		nop	; Automatically Added by addNops.pl
6378				; Automatically 12 NOPs removed by reduceNOPs.sh
6379	145e	ac810000		sw	0(%GPR4),%GPR1	
6380	145f	00000000		nop	; Automatically Added by addNops.pl
6381	1460	00000000		nop	; Automatically Added by addNops.pl
6382	1461	00000000		nop	; Automatically Added by addNops.pl
6383	1462	00621020		add	%GPR2,%GPR3,%GPR2	
6384	1463	00000000		nop	; Automatically Added by addNops.pl
6385	1464	00000000		nop	; Automatically Added by addNops.pl
6386	1465	00000000		nop	; Automatically Added by addNops.pl
6387	1466	3c010000		lhi	%GPR1,$0	
6388	1467	00000000		nop	; Automatically Added by addNops.pl
6389	1468	00000000		nop	; Automatically Added by addNops.pl
6390	1469	00000000		nop	; Automatically Added by addNops.pl
6391				; Automatically 16 NOPs removed by reduceNOPs.sh
6392	146a	34210000		ori	%GPR1,%GPR1,$0	
6393	146b	00000000		nop	; Automatically Added by addNops.pl
6394	146c	00000000		nop	; Automatically Added by addNops.pl
6395	146d	00000000		nop	; Automatically Added by addNops.pl
6396	146e	2bc50024		subi	%GPR5,%GPR30,$36	
6397	146f	00000000		nop	; Automatically Added by addNops.pl
6398	1470	00000000		nop	; Automatically Added by addNops.pl
6399	1471	00000000		nop	; Automatically Added by addNops.pl
6400	1472	3c040000		lhi	%GPR4,$0	
6401	1473	00000000		nop	; Automatically Added by addNops.pl
6402	1474	00000000		nop	; Automatically Added by addNops.pl
6403	1475	00000000		nop	; Automatically Added by addNops.pl
6404				; Automatically 16 NOPs removed by reduceNOPs.sh
6405	1476	34840018		ori	%GPR4,%GPR4,$24	
6406	1477	00000000		nop	; Automatically Added by addNops.pl
6407	1478	00000000		nop	; Automatically Added by addNops.pl
6408	1479	00000000		nop	; Automatically Added by addNops.pl
6409				; Automatically 12 NOPs removed by reduceNOPs.sh
6410	147a	ac410000		sw	0(%GPR2),%GPR1	
6411	147b	00000000		nop	; Automatically Added by addNops.pl
6412	147c	00000000		nop	; Automatically Added by addNops.pl
6413	147d	00000000		nop	; Automatically Added by addNops.pl
6414	147e	00a42020		add	%GPR4,%GPR5,%GPR4	
6415	147f	00000000		nop	; Automatically Added by addNops.pl
6416	1480	00000000		nop	; Automatically Added by addNops.pl
6417	1481	00000000		nop	; Automatically Added by addNops.pl
6418	1482	2bc30024		subi	%GPR3,%GPR30,$36	
6419	1483	00000000		nop	; Automatically Added by addNops.pl
6420	1484	00000000		nop	; Automatically Added by addNops.pl
6421	1485	00000000		nop	; Automatically Added by addNops.pl
6422	1486	3c010000		lhi	%GPR1,$0	
6423	1487	00000000		nop	; Automatically Added by addNops.pl
6424	1488	00000000		nop	; Automatically Added by addNops.pl
6425	1489	00000000		nop	; Automatically Added by addNops.pl
6426				; Automatically 16 NOPs removed by reduceNOPs.sh
6427	148a	342100fe		ori	%GPR1,%GPR1,$254	
6428	148b	00000000		nop	; Automatically Added by addNops.pl
6429	148c	00000000		nop	; Automatically Added by addNops.pl
6430	148d	00000000		nop	; Automatically Added by addNops.pl
6431	148e	3c020000		lhi	%GPR2,$0	
6432	148f	00000000		nop	; Automatically Added by addNops.pl
6433	1490	00000000		nop	; Automatically Added by addNops.pl
6434	1491	00000000		nop	; Automatically Added by addNops.pl
6435				; Automatically 16 NOPs removed by reduceNOPs.sh
6436	1492	3442001c		ori	%GPR2,%GPR2,$28	
6437	1493	00000000		nop	; Automatically Added by addNops.pl
6438	1494	00000000		nop	; Automatically Added by addNops.pl
6439	1495	00000000		nop	; Automatically Added by addNops.pl
6440				; Automatically 12 NOPs removed by reduceNOPs.sh
6441	1496	ac810000		sw	0(%GPR4),%GPR1	
6442	1497	00000000		nop	; Automatically Added by addNops.pl
6443	1498	00000000		nop	; Automatically Added by addNops.pl
6444	1499	00000000		nop	; Automatically Added by addNops.pl
6445	149a	00625820		add	%GPR11,%GPR3,%GPR2	
6446	149b	00000000		nop	; Automatically Added by addNops.pl
6447	149c	00000000		nop	; Automatically Added by addNops.pl
6448	149d	00000000		nop	; Automatically Added by addNops.pl
6449	149e	3c090000		lhi	%GPR9,$0	
6450	149f	00000000		nop	; Automatically Added by addNops.pl
6451	14a0	00000000		nop	; Automatically Added by addNops.pl
6452	14a1	00000000		nop	; Automatically Added by addNops.pl
6453				; Automatically 16 NOPs removed by reduceNOPs.sh
6454	14a2	35290001		ori	%GPR9,%GPR9,$1	
6455	14a3	00000000		nop	; Automatically Added by addNops.pl
6456	14a4	00000000		nop	; Automatically Added by addNops.pl
6457	14a5	00000000		nop	; Automatically Added by addNops.pl
6458	14a6	2bc80024		subi	%GPR8,%GPR30,$36	
6459	14a7	00000000		nop	; Automatically Added by addNops.pl
6460	14a8	00000000		nop	; Automatically Added by addNops.pl
6461	14a9	00000000		nop	; Automatically Added by addNops.pl
6462	14aa	3c0a0000		lhi	%GPR10,$0	
6463	14ab	00000000		nop	; Automatically Added by addNops.pl
6464	14ac	00000000		nop	; Automatically Added by addNops.pl
6465	14ad	00000000		nop	; Automatically Added by addNops.pl
6466				; Automatically 16 NOPs removed by reduceNOPs.sh
6467	14ae	354a0020		ori	%GPR10,%GPR10,$32	
6468	14af	00000000		nop	; Automatically Added by addNops.pl
6469	14b0	00000000		nop	; Automatically Added by addNops.pl
6470	14b1	00000000		nop	; Automatically Added by addNops.pl
6471				; Automatically 8 NOPs removed by reduceNOPs.sh
6472	14b2	ad690000		sw	0(%GPR11),%GPR9	
6473	14b3	00000000		nop	; Automatically Added by addNops.pl
6474	14b4	00000000		nop	; Automatically Added by addNops.pl
6475	14b5	00000000		nop	; Automatically Added by addNops.pl
6476				; Automatically 20 NOPs removed by reduceNOPs.sh
6477	14b6	010a4020		add	%GPR8,%GPR8,%GPR10	
6478	14b7	00000000		nop	; Automatically Added by addNops.pl
6479	14b8	00000000		nop	; Automatically Added by addNops.pl
6480	14b9	00000000		nop	; Automatically Added by addNops.pl
6481	14ba	8fc9ffd4		lw	%GPR9,-44(%GPR30)	
6482	14bb	00000000		nop	; Automatically Added by addNops.pl
6483	14bc	00000000		nop	; Automatically Added by addNops.pl
6484	14bd	00000000		nop	; Automatically Added by addNops.pl
6485	14be	3c040000		lhi	%GPR4,$0	
6486	14bf	00000000		nop	; Automatically Added by addNops.pl
6487	14c0	00000000		nop	; Automatically Added by addNops.pl
6488	14c1	00000000		nop	; Automatically Added by addNops.pl
6489				; Automatically 16 NOPs removed by reduceNOPs.sh
6490	14c2	34840000		ori	%GPR4,%GPR4,$0	
6491	14c3	00000000		nop	; Automatically Added by addNops.pl
6492	14c4	00000000		nop	; Automatically Added by addNops.pl
6493	14c5	00000000		nop	; Automatically Added by addNops.pl
6494	14c6	2bc30024		subi	%GPR3,%GPR30,$36	
6495	14c7	00000000		nop	; Automatically Added by addNops.pl
6496	14c8	00000000		nop	; Automatically Added by addNops.pl
6497	14c9	00000000		nop	; Automatically Added by addNops.pl
6498	14ca	3c070000		lhi	%GPR7,$0	
6499	14cb	00000000		nop	; Automatically Added by addNops.pl
6500	14cc	00000000		nop	; Automatically Added by addNops.pl
6501	14cd	00000000		nop	; Automatically Added by addNops.pl
6502				; Automatically 16 NOPs removed by reduceNOPs.sh
6503	14ce	34e7006f		ori	%GPR7,%GPR7,$111	
6504	14cf	00000000		nop	; Automatically Added by addNops.pl
6505	14d0	00000000		nop	; Automatically Added by addNops.pl
6506	14d1	00000000		nop	; Automatically Added by addNops.pl
6507	14d2	3c060000		lhi	%GPR6,$0	
6508	14d3	00000000		nop	; Automatically Added by addNops.pl
6509	14d4	00000000		nop	; Automatically Added by addNops.pl
6510	14d5	00000000		nop	; Automatically Added by addNops.pl
6511				; Automatically 16 NOPs removed by reduceNOPs.sh
6512	14d6	34c60000		ori	%GPR6,%GPR6,$0	
6513	14d7	00000000		nop	; Automatically Added by addNops.pl
6514	14d8	00000000		nop	; Automatically Added by addNops.pl
6515	14d9	00000000		nop	; Automatically Added by addNops.pl
6516	14da	3c050000		lhi	%GPR5,$0	
6517	14db	00000000		nop	; Automatically Added by addNops.pl
6518	14dc	00000000		nop	; Automatically Added by addNops.pl
6519	14dd	00000000		nop	; Automatically Added by addNops.pl
6520				; Automatically 16 NOPs removed by reduceNOPs.sh
6521	14de	34a50009		ori	%GPR5,%GPR5,$9	
6522	14df	00000000		nop	; Automatically Added by addNops.pl
6523	14e0	00000000		nop	; Automatically Added by addNops.pl
6524	14e1	00000000		nop	; Automatically Added by addNops.pl
6525	14e2	3c020000		lhi	%GPR2,$0	
6526	14e3	00000000		nop	; Automatically Added by addNops.pl
6527	14e4	00000000		nop	; Automatically Added by addNops.pl
6528	14e5	00000000		nop	; Automatically Added by addNops.pl
6529				; Automatically 16 NOPs removed by reduceNOPs.sh
6530	14e6	34420052		ori	%GPR2,%GPR2,$82	
6531	14e7	00000000		nop	; Automatically Added by addNops.pl
6532	14e8	00000000		nop	; Automatically Added by addNops.pl
6533	14e9	00000000		nop	; Automatically Added by addNops.pl
6534	14ea	3c010000		lhi	%GPR1,$0	
6535	14eb	00000000		nop	; Automatically Added by addNops.pl
6536	14ec	00000000		nop	; Automatically Added by addNops.pl
6537	14ed	00000000		nop	; Automatically Added by addNops.pl
6538				; Automatically 16 NOPs removed by reduceNOPs.sh
6539	14ee	34210042		ori	%GPR1,%GPR1,$66	
6540	14ef	00000000		nop	; Automatically Added by addNops.pl
6541	14f0	00000000		nop	; Automatically Added by addNops.pl
6542	14f1	00000000		nop	; Automatically Added by addNops.pl
6543	14f2	ad090000		sw	0(%GPR8),%GPR9	
6544	14f3	00000000		nop	; Automatically Added by addNops.pl
6545	14f4	00000000		nop	; Automatically Added by addNops.pl
6546	14f5	00000000		nop	; Automatically Added by addNops.pl
6547				; Automatically 16 NOPs removed by reduceNOPs.sh
6548	14f6	2bbd0008		subi	%GPR29,%GPR29,$8	
6549	14f7	00000000		nop	; Automatically Added by addNops.pl
6550	14f8	00000000		nop	; Automatically Added by addNops.pl
6551	14f9	00000000		nop	; Automatically Added by addNops.pl
6552				; Automatically 16 NOPs removed by reduceNOPs.sh
6553	14fa	0fffef08		jal	sendcommand	
6554	14fb	00000000		nop	; Automatically Added by addNops.pl
6555	14fc	00000000		nop	; Automatically Added by addNops.pl
6556	14fd	00000000		nop	; Automatically Added by addNops.pl
6557				; Automatically 16 NOPs removed by reduceNOPs.sh
6558	14fe	23bd0008		addi	%GPR29,%GPR29,$8	
6559	14ff	00000000		nop	; Automatically Added by addNops.pl
6560	1500	00000000		nop	; Automatically Added by addNops.pl
6561	1501	00000000		nop	; Automatically Added by addNops.pl
6562				; Automatically 28 NOPs removed by reduceNOPs.sh
6563	1502	2bc40024		subi	%GPR4,%GPR30,$36	
6564	1503	00000000		nop	; Automatically Added by addNops.pl
6565	1504	00000000		nop	; Automatically Added by addNops.pl
6566	1505	00000000		nop	; Automatically Added by addNops.pl
6567				; Automatically 8 NOPs removed by reduceNOPs.sh
6568	1506	3c090000		lhi	%GPR9,$0	
6569	1507	00000000		nop	; Automatically Added by addNops.pl
6570	1508	00000000		nop	; Automatically Added by addNops.pl
6571	1509	00000000		nop	; Automatically Added by addNops.pl
6572				; Automatically 16 NOPs removed by reduceNOPs.sh
6573	150a	3529000a		ori	%GPR9,%GPR9,$10	
6574	150b	00000000		nop	; Automatically Added by addNops.pl
6575	150c	00000000		nop	; Automatically Added by addNops.pl
6576	150d	00000000		nop	; Automatically Added by addNops.pl
6577	150e	3c080000		lhi	%GPR8,$0	
6578	150f	00000000		nop	; Automatically Added by addNops.pl
6579	1510	00000000		nop	; Automatically Added by addNops.pl
6580	1511	00000000		nop	; Automatically Added by addNops.pl
6581				; Automatically 16 NOPs removed by reduceNOPs.sh
6582	1512	35080004		ori	%GPR8,%GPR8,$4	
6583	1513	00000000		nop	; Automatically Added by addNops.pl
6584	1514	00000000		nop	; Automatically Added by addNops.pl
6585	1515	00000000		nop	; Automatically Added by addNops.pl
6586				; Automatically 12 NOPs removed by reduceNOPs.sh
6587	1516	afc9ffdc		sw	-36(%GPR30),%GPR9	
6588	1517	00000000		nop	; Automatically Added by addNops.pl
6589	1518	00000000		nop	; Automatically Added by addNops.pl
6590	1519	00000000		nop	; Automatically Added by addNops.pl
6591	151a	00884020		add	%GPR8,%GPR4,%GPR8	
6592	151b	00000000		nop	; Automatically Added by addNops.pl
6593	151c	00000000		nop	; Automatically Added by addNops.pl
6594	151d	00000000		nop	; Automatically Added by addNops.pl
6595				; Automatically 12 NOPs removed by reduceNOPs.sh
6596	151e	8fc9ffd8		lw	%GPR9,-40(%GPR30)	
6597	151f	00000000		nop	; Automatically Added by addNops.pl
6598	1520	00000000		nop	; Automatically Added by addNops.pl
6599	1521	00000000		nop	; Automatically Added by addNops.pl
6600				; Automatically 8 NOPs removed by reduceNOPs.sh
6601	1522	2bc30024		subi	%GPR3,%GPR30,$36	
6602	1523	00000000		nop	; Automatically Added by addNops.pl
6603	1524	00000000		nop	; Automatically Added by addNops.pl
6604	1525	00000000		nop	; Automatically Added by addNops.pl
6605	1526	3c070000		lhi	%GPR7,$0	
6606	1527	00000000		nop	; Automatically Added by addNops.pl
6607	1528	00000000		nop	; Automatically Added by addNops.pl
6608	1529	00000000		nop	; Automatically Added by addNops.pl
6609				; Automatically 16 NOPs removed by reduceNOPs.sh
6610	152a	34e7006f		ori	%GPR7,%GPR7,$111	
6611	152b	00000000		nop	; Automatically Added by addNops.pl
6612	152c	00000000		nop	; Automatically Added by addNops.pl
6613	152d	00000000		nop	; Automatically Added by addNops.pl
6614	152e	3c060000		lhi	%GPR6,$0	
6615	152f	00000000		nop	; Automatically Added by addNops.pl
6616	1530	00000000		nop	; Automatically Added by addNops.pl
6617	1531	00000000		nop	; Automatically Added by addNops.pl
6618				; Automatically 16 NOPs removed by reduceNOPs.sh
6619	1532	34c60000		ori	%GPR6,%GPR6,$0	
6620	1533	00000000		nop	; Automatically Added by addNops.pl
6621	1534	00000000		nop	; Automatically Added by addNops.pl
6622	1535	00000000		nop	; Automatically Added by addNops.pl
6623	1536	3c050000		lhi	%GPR5,$0	
6624	1537	00000000		nop	; Automatically Added by addNops.pl
6625	1538	00000000		nop	; Automatically Added by addNops.pl
6626	1539	00000000		nop	; Automatically Added by addNops.pl
6627				; Automatically 16 NOPs removed by reduceNOPs.sh
6628	153a	34a50002		ori	%GPR5,%GPR5,$2	
6629	153b	00000000		nop	; Automatically Added by addNops.pl
6630	153c	00000000		nop	; Automatically Added by addNops.pl
6631	153d	00000000		nop	; Automatically Added by addNops.pl
6632	153e	3c020000		lhi	%GPR2,$0	
6633	153f	00000000		nop	; Automatically Added by addNops.pl
6634	1540	00000000		nop	; Automatically Added by addNops.pl
6635	1541	00000000		nop	; Automatically Added by addNops.pl
6636				; Automatically 16 NOPs removed by reduceNOPs.sh
6637	1542	34420041		ori	%GPR2,%GPR2,$65	
6638	1543	00000000		nop	; Automatically Added by addNops.pl
6639	1544	00000000		nop	; Automatically Added by addNops.pl
6640	1545	00000000		nop	; Automatically Added by addNops.pl
6641	1546	3c010000		lhi	%GPR1,$0	
6642	1547	00000000		nop	; Automatically Added by addNops.pl
6643	1548	00000000		nop	; Automatically Added by addNops.pl
6644	1549	00000000		nop	; Automatically Added by addNops.pl
6645				; Automatically 16 NOPs removed by reduceNOPs.sh
6646	154a	34210042		ori	%GPR1,%GPR1,$66	
6647	154b	00000000		nop	; Automatically Added by addNops.pl
6648	154c	00000000		nop	; Automatically Added by addNops.pl
6649	154d	00000000		nop	; Automatically Added by addNops.pl
6650	154e	ad090000		sw	0(%GPR8),%GPR9	
6651	154f	00000000		nop	; Automatically Added by addNops.pl
6652	1550	00000000		nop	; Automatically Added by addNops.pl
6653	1551	00000000		nop	; Automatically Added by addNops.pl
6654	1552	3c040000		lhi	%GPR4,$0	
6655	1553	00000000		nop	; Automatically Added by addNops.pl
6656	1554	00000000		nop	; Automatically Added by addNops.pl
6657	1555	00000000		nop	; Automatically Added by addNops.pl
6658				; Automatically 16 NOPs removed by reduceNOPs.sh
6659	1556	34840000		ori	%GPR4,%GPR4,$0	
6660	1557	00000000		nop	; Automatically Added by addNops.pl
6661	1558	00000000		nop	; Automatically Added by addNops.pl
6662	1559	00000000		nop	; Automatically Added by addNops.pl
6663				; Automatically 16 NOPs removed by reduceNOPs.sh
6664	155a	2bbd0008		subi	%GPR29,%GPR29,$8	
6665	155b	00000000		nop	; Automatically Added by addNops.pl
6666	155c	00000000		nop	; Automatically Added by addNops.pl
6667	155d	00000000		nop	; Automatically Added by addNops.pl
6668				; Automatically 16 NOPs removed by reduceNOPs.sh
6669	155e	0fffeea4		jal	sendcommand	
6670	155f	00000000		nop	; Automatically Added by addNops.pl
6671	1560	00000000		nop	; Automatically Added by addNops.pl
6672	1561	00000000		nop	; Automatically Added by addNops.pl
6673				; Automatically 16 NOPs removed by reduceNOPs.sh
6674	1562	23bd0008		addi	%GPR29,%GPR29,$8	
6675	1563	00000000		nop	; Automatically Added by addNops.pl
6676	1564	00000000		nop	; Automatically Added by addNops.pl
6677	1565	00000000		nop	; Automatically Added by addNops.pl
6678				; Automatically 36 NOPs removed by reduceNOPs.sh
6679	1566	3c1c0000		lhi	%GPR28,$0	
6680	1567	00000000		nop	; Automatically Added by addNops.pl
6681	1568	00000000		nop	; Automatically Added by addNops.pl
6682	1569	00000000		nop	; Automatically Added by addNops.pl
6683				; Automatically 16 NOPs removed by reduceNOPs.sh
6684	156a	379c0000		ori	%GPR28,%GPR28,$0	
6685	156b	00000000		nop	; Automatically Added by addNops.pl
6686	156c	00000000		nop	; Automatically Added by addNops.pl
6687	156d	00000000		nop	; Automatically Added by addNops.pl
6688				; Automatically 16 NOPs removed by reduceNOPs.sh
6689	156e	08000004		j	L_main_7	
6690	156f	00000000		nop	; Automatically Added by addNops.pl
6691	1570	00000000		nop	; Automatically Added by addNops.pl
6692	1571	00000000		nop	; Automatically Added by addNops.pl
6693				; Automatically 16 NOPs removed by reduceNOPs.sh
6694			L_main_7:
6695	1572	00000000		nop	; Automatically Added by addNops.pl
6696	1573	00000000		nop	; Automatically Added by addNops.pl
6697	1574	00000000		nop	; Automatically Added by addNops.pl
6698				; Automatically 16 NOPs removed by reduceNOPs.sh
6699	1575	8fdf0004		lw	%GPR31,4(%GPR30)	
6700	1576	00000000		nop	; Automatically Added by addNops.pl
6701	1577	00000000		nop	; Automatically Added by addNops.pl
6702	1578	00000000		nop	; Automatically Added by addNops.pl
6703	1579	27dd0004		addui	%GPR29,%GPR30,$4	
6704	157a	00000000		nop	; Automatically Added by addNops.pl
6705	157b	00000000		nop	; Automatically Added by addNops.pl
6706	157c	00000000		nop	; Automatically Added by addNops.pl
6707	157d	8fde0000		lw	%GPR30,0(%GPR30)	
6708	157e	00000000		nop	; Automatically Added by addNops.pl
6709	157f	00000000		nop	; Automatically Added by addNops.pl
6710	1580	00000000		nop	; Automatically Added by addNops.pl
6711				; Automatically 8 NOPs removed by reduceNOPs.sh
6712	1581	00000000		nop
6713	1582	00000000		nop
6714	1583	03e00008		jr	%GPR31	
6715	1584	00000000		nop	; Automatically Added by addNops.pl
6716	1585	00000000		nop	; Automatically Added by addNops.pl
6717	1586	00000000		nop	; Automatically Added by addNops.pl
6718				; Automatically 16 NOPs removed by reduceNOPs.sh
6719			main:
6720			L_main_8:
6721	1587	00000000		nop	; Automatically Added by addNops.pl
6722	1588	00000000		nop	; Automatically Added by addNops.pl
6723	1589	00000000		nop	; Automatically Added by addNops.pl
6724				; Automatically 16 NOPs removed by reduceNOPs.sh
6725	158a	afbefffc		sw	-4(%GPR29),%GPR30	
6726	158b	00000000		nop	; Automatically Added by addNops.pl
6727	158c	00000000		nop	; Automatically Added by addNops.pl
6728	158d	00000000		nop	; Automatically Added by addNops.pl
6729	158e	00000000		nop	; Automatically added by fix-stall-insns.pl
6730	158f	afbf0000		sw	0(%GPR29),%GPR31	
6731	1590	00000000		nop	; Automatically Added by addNops.pl
6732	1591	00000000		nop	; Automatically Added by addNops.pl
6733	1592	00000000		nop	; Automatically Added by addNops.pl
6734	1593	2fbe0004		subui	%GPR30,%GPR29,$4	
6735	1594	00000000		nop	; Automatically Added by addNops.pl
6736	1595	00000000		nop	; Automatically Added by addNops.pl
6737	1596	00000000		nop	; Automatically Added by addNops.pl
6738				; Automatically 4 NOPs removed by reduceNOPs.sh
6739	1597	2bbd0020		subi	%GPR29,%GPR29,$32	
6740	1598	00000000		nop	; Automatically Added by addNops.pl
6741	1599	00000000		nop	; Automatically Added by addNops.pl
6742	159a	00000000		nop	; Automatically Added by addNops.pl
6743				; Automatically 28 NOPs removed by reduceNOPs.sh
6744	159b	3c010000		lhi	%GPR1,$( L_main_2	/0x10000)
6745	159c	00000000		nop
6746	159d	00000000		nop
6747	159e	00000000		nop
6748	159f	34210008		ori	%GPR1,%GPR1,$( L_main_2	%0x10000)
6749	15a0	00000000		nop	; Automatically Added by addNops.pl
6750	15a1	00000000		nop	; Automatically Added by addNops.pl
6751	15a2	00000000		nop	; Automatically Added by addNops.pl
6752				; Automatically 16 NOPs removed by reduceNOPs.sh
6753	15a3	2bbd0008		subi	%GPR29,%GPR29,$8	
6754	15a4	00000000		nop	; Automatically Added by addNops.pl
6755	15a5	00000000		nop	; Automatically Added by addNops.pl
6756	15a6	00000000		nop	; Automatically Added by addNops.pl
6757				; Automatically 16 NOPs removed by reduceNOPs.sh
6758	15a7	0ffff0c2		jal	t_print	
6759	15a8	00000000		nop	; Automatically Added by addNops.pl
6760	15a9	00000000		nop	; Automatically Added by addNops.pl
6761	15aa	00000000		nop	; Automatically Added by addNops.pl
6762				; Automatically 16 NOPs removed by reduceNOPs.sh
6763	15ab	23bd0008		addi	%GPR29,%GPR29,$8	
6764	15ac	00000000		nop	; Automatically Added by addNops.pl
6765	15ad	00000000		nop	; Automatically Added by addNops.pl
6766	15ae	00000000		nop	; Automatically Added by addNops.pl
6767				; Automatically 36 NOPs removed by reduceNOPs.sh
6768	15af	3c040000		lhi	%GPR4,$0	
6769	15b0	00000000		nop	; Automatically Added by addNops.pl
6770	15b1	00000000		nop	; Automatically Added by addNops.pl
6771	15b2	00000000		nop	; Automatically Added by addNops.pl
6772				; Automatically 16 NOPs removed by reduceNOPs.sh
6773	15b3	34840014		ori	%GPR4,%GPR4,$20	
6774	15b4	00000000		nop	; Automatically Added by addNops.pl
6775	15b5	00000000		nop	; Automatically Added by addNops.pl
6776	15b6	00000000		nop	; Automatically Added by addNops.pl
6777	15b7	3c030000		lhi	%GPR3,$0	
6778	15b8	00000000		nop	; Automatically Added by addNops.pl
6779	15b9	00000000		nop	; Automatically Added by addNops.pl
6780	15ba	00000000		nop	; Automatically Added by addNops.pl
6781				; Automatically 16 NOPs removed by reduceNOPs.sh
6782	15bb	34630014		ori	%GPR3,%GPR3,$20	
6783	15bc	00000000		nop	; Automatically Added by addNops.pl
6784	15bd	00000000		nop	; Automatically Added by addNops.pl
6785	15be	00000000		nop	; Automatically Added by addNops.pl
6786	15bf	3c020000		lhi	%GPR2,$0	
6787	15c0	00000000		nop	; Automatically Added by addNops.pl
6788	15c1	00000000		nop	; Automatically Added by addNops.pl
6789	15c2	00000000		nop	; Automatically Added by addNops.pl
6790				; Automatically 16 NOPs removed by reduceNOPs.sh
6791	15c3	3442000a		ori	%GPR2,%GPR2,$10	
6792	15c4	00000000		nop	; Automatically Added by addNops.pl
6793	15c5	00000000		nop	; Automatically Added by addNops.pl
6794	15c6	00000000		nop	; Automatically Added by addNops.pl
6795	15c7	3c010000		lhi	%GPR1,$0	
6796	15c8	00000000		nop	; Automatically Added by addNops.pl
6797	15c9	00000000		nop	; Automatically Added by addNops.pl
6798	15ca	00000000		nop	; Automatically Added by addNops.pl
6799				; Automatically 16 NOPs removed by reduceNOPs.sh
6800	15cb	3421000a		ori	%GPR1,%GPR1,$10	
6801	15cc	00000000		nop	; Automatically Added by addNops.pl
6802	15cd	00000000		nop	; Automatically Added by addNops.pl
6803	15ce	00000000		nop	; Automatically Added by addNops.pl
6804				; Automatically 16 NOPs removed by reduceNOPs.sh
6805	15cf	2bbd0008		subi	%GPR29,%GPR29,$8	
6806	15d0	00000000		nop	; Automatically Added by addNops.pl
6807	15d1	00000000		nop	; Automatically Added by addNops.pl
6808	15d2	00000000		nop	; Automatically Added by addNops.pl
6809				; Automatically 16 NOPs removed by reduceNOPs.sh
6810	15d3	0ffff309		jal	g_drawrect	
6811	15d4	00000000		nop	; Automatically Added by addNops.pl
6812	15d5	00000000		nop	; Automatically Added by addNops.pl
6813	15d6	00000000		nop	; Automatically Added by addNops.pl
6814				; Automatically 16 NOPs removed by reduceNOPs.sh
6815	15d7	23bd0008		addi	%GPR29,%GPR29,$8	
6816	15d8	00000000		nop	; Automatically Added by addNops.pl
6817	15d9	00000000		nop	; Automatically Added by addNops.pl
6818	15da	00000000		nop	; Automatically Added by addNops.pl
6819				; Automatically 16 NOPs removed by reduceNOPs.sh
6820	15db	3c010000		lhi	%GPR1,$( L_main_3	/0x10000)
6821	15dc	00000000		nop
6822	15dd	00000000		nop
6823	15de	00000000		nop
6824	15df	34210015		ori	%GPR1,%GPR1,$( L_main_3	%0x10000)
6825	15e0	00000000		nop	; Automatically Added by addNops.pl
6826	15e1	00000000		nop	; Automatically Added by addNops.pl
6827	15e2	00000000		nop	; Automatically Added by addNops.pl
6828				; Automatically 32 NOPs removed by reduceNOPs.sh
6829	15e3	3c070000		lhi	%GPR7,$0	
6830	15e4	00000000		nop	; Automatically Added by addNops.pl
6831	15e5	00000000		nop	; Automatically Added by addNops.pl
6832	15e6	00000000		nop	; Automatically Added by addNops.pl
6833				; Automatically 16 NOPs removed by reduceNOPs.sh
6834	15e7	34e70000		ori	%GPR7,%GPR7,$0	
6835	15e8	00000000		nop	; Automatically Added by addNops.pl
6836	15e9	00000000		nop	; Automatically Added by addNops.pl
6837	15ea	00000000		nop	; Automatically Added by addNops.pl
6838	15eb	3c060000		lhi	%GPR6,$0	
6839	15ec	00000000		nop	; Automatically Added by addNops.pl
6840	15ed	00000000		nop	; Automatically Added by addNops.pl
6841	15ee	00000000		nop	; Automatically Added by addNops.pl
6842				; Automatically 16 NOPs removed by reduceNOPs.sh
6843	15ef	34c60000		ori	%GPR6,%GPR6,$0	
6844	15f0	00000000		nop	; Automatically Added by addNops.pl
6845	15f1	00000000		nop	; Automatically Added by addNops.pl
6846	15f2	00000000		nop	; Automatically Added by addNops.pl
6847	15f3	3c050000		lhi	%GPR5,$0	
6848	15f4	00000000		nop	; Automatically Added by addNops.pl
6849	15f5	00000000		nop	; Automatically Added by addNops.pl
6850	15f6	00000000		nop	; Automatically Added by addNops.pl
6851				; Automatically 16 NOPs removed by reduceNOPs.sh
6852	15f7	34a5001e		ori	%GPR5,%GPR5,$30	
6853	15f8	00000000		nop	; Automatically Added by addNops.pl
6854	15f9	00000000		nop	; Automatically Added by addNops.pl
6855	15fa	00000000		nop	; Automatically Added by addNops.pl
6856	15fb	3c040000		lhi	%GPR4,$0	
6857	15fc	00000000		nop	; Automatically Added by addNops.pl
6858	15fd	00000000		nop	; Automatically Added by addNops.pl
6859	15fe	00000000		nop	; Automatically Added by addNops.pl
6860				; Automatically 16 NOPs removed by reduceNOPs.sh
6861	15ff	348400c8		ori	%GPR4,%GPR4,$200	
6862	1600	00000000		nop	; Automatically Added by addNops.pl
6863	1601	00000000		nop	; Automatically Added by addNops.pl
6864	1602	00000000		nop	; Automatically Added by addNops.pl
6865	1603	3c030000		lhi	%GPR3,$0	
6866	1604	00000000		nop	; Automatically Added by addNops.pl
6867	1605	00000000		nop	; Automatically Added by addNops.pl
6868	1606	00000000		nop	; Automatically Added by addNops.pl
6869				; Automatically 16 NOPs removed by reduceNOPs.sh
6870	1607	3463000a		ori	%GPR3,%GPR3,$10	
6871	1608	00000000		nop	; Automatically Added by addNops.pl
6872	1609	00000000		nop	; Automatically Added by addNops.pl
6873	160a	00000000		nop	; Automatically Added by addNops.pl
6874	160b	3c020000		lhi	%GPR2,$0	
6875	160c	00000000		nop	; Automatically Added by addNops.pl
6876	160d	00000000		nop	; Automatically Added by addNops.pl
6877	160e	00000000		nop	; Automatically Added by addNops.pl
6878				; Automatically 16 NOPs removed by reduceNOPs.sh
6879	160f	3442001e		ori	%GPR2,%GPR2,$30	
6880	1610	00000000		nop	; Automatically Added by addNops.pl
6881	1611	00000000		nop	; Automatically Added by addNops.pl
6882	1612	00000000		nop	; Automatically Added by addNops.pl
6883				; Automatically 16 NOPs removed by reduceNOPs.sh
6884	1613	2bbd0008		subi	%GPR29,%GPR29,$8	
6885	1614	00000000		nop	; Automatically Added by addNops.pl
6886	1615	00000000		nop	; Automatically Added by addNops.pl
6887	1616	00000000		nop	; Automatically Added by addNops.pl
6888				; Automatically 16 NOPs removed by reduceNOPs.sh
6889	1617	0ffff72f		jal	g_makeswitch	
6890	1618	00000000		nop	; Automatically Added by addNops.pl
6891	1619	00000000		nop	; Automatically Added by addNops.pl
6892	161a	00000000		nop	; Automatically Added by addNops.pl
6893				; Automatically 16 NOPs removed by reduceNOPs.sh
6894	161b	23bd0008		addi	%GPR29,%GPR29,$8	
6895	161c	00000000		nop	; Automatically Added by addNops.pl
6896	161d	00000000		nop	; Automatically Added by addNops.pl
6897	161e	00000000		nop	; Automatically Added by addNops.pl
6898				; Automatically 60 NOPs removed by reduceNOPs.sh
6899	161f	3c0a0000		lhi	%GPR10,$0	
6900	1620	00000000		nop	; Automatically Added by addNops.pl
6901	1621	00000000		nop	; Automatically Added by addNops.pl
6902	1622	00000000		nop	; Automatically Added by addNops.pl
6903				; Automatically 16 NOPs removed by reduceNOPs.sh
6904	1623	354a0001		ori	%GPR10,%GPR10,$1	
6905	1624	00000000		nop	; Automatically Added by addNops.pl
6906	1625	00000000		nop	; Automatically Added by addNops.pl
6907	1626	00000000		nop	; Automatically Added by addNops.pl
6908	1627	3c090000		lhi	%GPR9,$0	
6909	1628	00000000		nop	; Automatically Added by addNops.pl
6910	1629	00000000		nop	; Automatically Added by addNops.pl
6911	162a	00000000		nop	; Automatically Added by addNops.pl
6912				; Automatically 16 NOPs removed by reduceNOPs.sh
6913	162b	35290001		ori	%GPR9,%GPR9,$1	
6914	162c	00000000		nop	; Automatically Added by addNops.pl
6915	162d	00000000		nop	; Automatically Added by addNops.pl
6916	162e	00000000		nop	; Automatically Added by addNops.pl
6917	162f	3c080000		lhi	%GPR8,$0	
6918	1630	00000000		nop	; Automatically Added by addNops.pl
6919	1631	00000000		nop	; Automatically Added by addNops.pl
6920	1632	00000000		nop	; Automatically Added by addNops.pl
6921				; Automatically 16 NOPs removed by reduceNOPs.sh
6922	1633	35080001		ori	%GPR8,%GPR8,$1	
6923	1634	00000000		nop	; Automatically Added by addNops.pl
6924	1635	00000000		nop	; Automatically Added by addNops.pl
6925	1636	00000000		nop	; Automatically Added by addNops.pl
6926	1637	3c070000		lhi	%GPR7,$0	
6927	1638	00000000		nop	; Automatically Added by addNops.pl
6928	1639	00000000		nop	; Automatically Added by addNops.pl
6929	163a	00000000		nop	; Automatically Added by addNops.pl
6930				; Automatically 16 NOPs removed by reduceNOPs.sh
6931	163b	34e70032		ori	%GPR7,%GPR7,$50	
6932	163c	00000000		nop	; Automatically Added by addNops.pl
6933	163d	00000000		nop	; Automatically Added by addNops.pl
6934	163e	00000000		nop	; Automatically Added by addNops.pl
6935	163f	3c060000		lhi	%GPR6,$0	
6936	1640	00000000		nop	; Automatically Added by addNops.pl
6937	1641	00000000		nop	; Automatically Added by addNops.pl
6938	1642	00000000		nop	; Automatically Added by addNops.pl
6939				; Automatically 16 NOPs removed by reduceNOPs.sh
6940	1643	34c600fe		ori	%GPR6,%GPR6,$254	
6941	1644	00000000		nop	; Automatically Added by addNops.pl
6942	1645	00000000		nop	; Automatically Added by addNops.pl
6943	1646	00000000		nop	; Automatically Added by addNops.pl
6944	1647	3c050000		lhi	%GPR5,$0	
6945	1648	00000000		nop	; Automatically Added by addNops.pl
6946	1649	00000000		nop	; Automatically Added by addNops.pl
6947	164a	00000000		nop	; Automatically Added by addNops.pl
6948				; Automatically 16 NOPs removed by reduceNOPs.sh
6949	164b	34a50000		ori	%GPR5,%GPR5,$0	
6950	164c	00000000		nop	; Automatically Added by addNops.pl
6951	164d	00000000		nop	; Automatically Added by addNops.pl
6952	164e	00000000		nop	; Automatically Added by addNops.pl
6953	164f	3c040000		lhi	%GPR4,$0	
6954	1650	00000000		nop	; Automatically Added by addNops.pl
6955	1651	00000000		nop	; Automatically Added by addNops.pl
6956	1652	00000000		nop	; Automatically Added by addNops.pl
6957				; Automatically 16 NOPs removed by reduceNOPs.sh
6958	1653	3484003c		ori	%GPR4,%GPR4,$60	
6959	1654	00000000		nop	; Automatically Added by addNops.pl
6960	1655	00000000		nop	; Automatically Added by addNops.pl
6961	1656	00000000		nop	; Automatically Added by addNops.pl
6962	1657	3c030000		lhi	%GPR3,$0	
6963	1658	00000000		nop	; Automatically Added by addNops.pl
6964	1659	00000000		nop	; Automatically Added by addNops.pl
6965	165a	00000000		nop	; Automatically Added by addNops.pl
6966				; Automatically 16 NOPs removed by reduceNOPs.sh
6967	165b	346300c8		ori	%GPR3,%GPR3,$200	
6968	165c	00000000		nop	; Automatically Added by addNops.pl
6969	165d	00000000		nop	; Automatically Added by addNops.pl
6970	165e	00000000		nop	; Automatically Added by addNops.pl
6971	165f	3c020000		lhi	%GPR2,$0	
6972	1660	00000000		nop	; Automatically Added by addNops.pl
6973	1661	00000000		nop	; Automatically Added by addNops.pl
6974	1662	00000000		nop	; Automatically Added by addNops.pl
6975				; Automatically 16 NOPs removed by reduceNOPs.sh
6976	1663	34420028		ori	%GPR2,%GPR2,$40	
6977	1664	00000000		nop	; Automatically Added by addNops.pl
6978	1665	00000000		nop	; Automatically Added by addNops.pl
6979	1666	00000000		nop	; Automatically Added by addNops.pl
6980	1667	3c010000		lhi	%GPR1,$0	
6981	1668	00000000		nop	; Automatically Added by addNops.pl
6982	1669	00000000		nop	; Automatically Added by addNops.pl
6983	166a	00000000		nop	; Automatically Added by addNops.pl
6984				; Automatically 16 NOPs removed by reduceNOPs.sh
6985	166b	3421000a		ori	%GPR1,%GPR1,$10	
6986	166c	00000000		nop	; Automatically Added by addNops.pl
6987	166d	00000000		nop	; Automatically Added by addNops.pl
6988	166e	00000000		nop	; Automatically Added by addNops.pl
6989				; Automatically 16 NOPs removed by reduceNOPs.sh
6990	166f	2bbd0008		subi	%GPR29,%GPR29,$8	
6991	1670	00000000		nop	; Automatically Added by addNops.pl
6992	1671	00000000		nop	; Automatically Added by addNops.pl
6993	1672	00000000		nop	; Automatically Added by addNops.pl
6994				; Automatically 16 NOPs removed by reduceNOPs.sh
6995	1673	0ffff3e5		jal	g_makebar	
6996	1674	00000000		nop	; Automatically Added by addNops.pl
6997	1675	00000000		nop	; Automatically Added by addNops.pl
6998	1676	00000000		nop	; Automatically Added by addNops.pl
6999				; Automatically 16 NOPs removed by reduceNOPs.sh
7000	1677	23bd0008		addi	%GPR29,%GPR29,$8	
7001	1678	00000000		nop	; Automatically Added by addNops.pl
7002	1679	00000000		nop	; Automatically Added by addNops.pl
7003	167a	00000000		nop	; Automatically Added by addNops.pl
7004				; Automatically 60 NOPs removed by reduceNOPs.sh
7005	167b	3c0a0000		lhi	%GPR10,$0	
7006	167c	00000000		nop	; Automatically Added by addNops.pl
7007	167d	00000000		nop	; Automatically Added by addNops.pl
7008	167e	00000000		nop	; Automatically Added by addNops.pl
7009				; Automatically 16 NOPs removed by reduceNOPs.sh
7010	167f	354a0000		ori	%GPR10,%GPR10,$0	
7011	1680	00000000		nop	; Automatically Added by addNops.pl
7012	1681	00000000		nop	; Automatically Added by addNops.pl
7013	1682	00000000		nop	; Automatically Added by addNops.pl
7014	1683	3c090000		lhi	%GPR9,$0	
7015	1684	00000000		nop	; Automatically Added by addNops.pl
7016	1685	00000000		nop	; Automatically Added by addNops.pl
7017	1686	00000000		nop	; Automatically Added by addNops.pl
7018				; Automatically 16 NOPs removed by reduceNOPs.sh
7019	1687	35290001		ori	%GPR9,%GPR9,$1	
7020	1688	00000000		nop	; Automatically Added by addNops.pl
7021	1689	00000000		nop	; Automatically Added by addNops.pl
7022	168a	00000000		nop	; Automatically Added by addNops.pl
7023	168b	3c080000		lhi	%GPR8,$0	
7024	168c	00000000		nop	; Automatically Added by addNops.pl
7025	168d	00000000		nop	; Automatically Added by addNops.pl
7026	168e	00000000		nop	; Automatically Added by addNops.pl
7027				; Automatically 16 NOPs removed by reduceNOPs.sh
7028	168f	35080001		ori	%GPR8,%GPR8,$1	
7029	1690	00000000		nop	; Automatically Added by addNops.pl
7030	1691	00000000		nop	; Automatically Added by addNops.pl
7031	1692	00000000		nop	; Automatically Added by addNops.pl
7032	1693	3c070000		lhi	%GPR7,$0	
7033	1694	00000000		nop	; Automatically Added by addNops.pl
7034	1695	00000000		nop	; Automatically Added by addNops.pl
7035	1696	00000000		nop	; Automatically Added by addNops.pl
7036				; Automatically 16 NOPs removed by reduceNOPs.sh
7037	1697	34e70000		ori	%GPR7,%GPR7,$0	
7038	1698	00000000		nop	; Automatically Added by addNops.pl
7039	1699	00000000		nop	; Automatically Added by addNops.pl
7040	169a	00000000		nop	; Automatically Added by addNops.pl
7041	169b	3c060000		lhi	%GPR6,$0	
7042	169c	00000000		nop	; Automatically Added by addNops.pl
7043	169d	00000000		nop	; Automatically Added by addNops.pl
7044	169e	00000000		nop	; Automatically Added by addNops.pl
7045				; Automatically 16 NOPs removed by reduceNOPs.sh
7046	169f	34c600fe		ori	%GPR6,%GPR6,$254	
7047	16a0	00000000		nop	; Automatically Added by addNops.pl
7048	16a1	00000000		nop	; Automatically Added by addNops.pl
7049	16a2	00000000		nop	; Automatically Added by addNops.pl
7050	16a3	3c050000		lhi	%GPR5,$0	
7051	16a4	00000000		nop	; Automatically Added by addNops.pl
7052	16a5	00000000		nop	; Automatically Added by addNops.pl
7053	16a6	00000000		nop	; Automatically Added by addNops.pl
7054				; Automatically 16 NOPs removed by reduceNOPs.sh
7055	16a7	34a50000		ori	%GPR5,%GPR5,$0	
7056	16a8	00000000		nop	; Automatically Added by addNops.pl
7057	16a9	00000000		nop	; Automatically Added by addNops.pl
7058	16aa	00000000		nop	; Automatically Added by addNops.pl
7059	16ab	3c040000		lhi	%GPR4,$0	
7060	16ac	00000000		nop	; Automatically Added by addNops.pl
7061	16ad	00000000		nop	; Automatically Added by addNops.pl
7062	16ae	00000000		nop	; Automatically Added by addNops.pl
7063				; Automatically 16 NOPs removed by reduceNOPs.sh
7064	16af	3484005a		ori	%GPR4,%GPR4,$90	
7065	16b0	00000000		nop	; Automatically Added by addNops.pl
7066	16b1	00000000		nop	; Automatically Added by addNops.pl
7067	16b2	00000000		nop	; Automatically Added by addNops.pl
7068	16b3	3c030000		lhi	%GPR3,$0	
7069	16b4	00000000		nop	; Automatically Added by addNops.pl
7070	16b5	00000000		nop	; Automatically Added by addNops.pl
7071	16b6	00000000		nop	; Automatically Added by addNops.pl
7072				; Automatically 16 NOPs removed by reduceNOPs.sh
7073	16b7	346300c8		ori	%GPR3,%GPR3,$200	
7074	16b8	00000000		nop	; Automatically Added by addNops.pl
7075	16b9	00000000		nop	; Automatically Added by addNops.pl
7076	16ba	00000000		nop	; Automatically Added by addNops.pl
7077	16bb	3c020000		lhi	%GPR2,$0	
7078	16bc	00000000		nop	; Automatically Added by addNops.pl
7079	16bd	00000000		nop	; Automatically Added by addNops.pl
7080	16be	00000000		nop	; Automatically Added by addNops.pl
7081				; Automatically 16 NOPs removed by reduceNOPs.sh
7082	16bf	34420046		ori	%GPR2,%GPR2,$70	
7083	16c0	00000000		nop	; Automatically Added by addNops.pl
7084	16c1	00000000		nop	; Automatically Added by addNops.pl
7085	16c2	00000000		nop	; Automatically Added by addNops.pl
7086	16c3	3c010000		lhi	%GPR1,$0	
7087	16c4	00000000		nop	; Automatically Added by addNops.pl
7088	16c5	00000000		nop	; Automatically Added by addNops.pl
7089	16c6	00000000		nop	; Automatically Added by addNops.pl
7090				; Automatically 16 NOPs removed by reduceNOPs.sh
7091	16c7	3421000a		ori	%GPR1,%GPR1,$10	
7092	16c8	00000000		nop	; Automatically Added by addNops.pl
7093	16c9	00000000		nop	; Automatically Added by addNops.pl
7094	16ca	00000000		nop	; Automatically Added by addNops.pl
7095				; Automatically 16 NOPs removed by reduceNOPs.sh
7096	16cb	2bbd0008		subi	%GPR29,%GPR29,$8	
7097	16cc	00000000		nop	; Automatically Added by addNops.pl
7098	16cd	00000000		nop	; Automatically Added by addNops.pl
7099	16ce	00000000		nop	; Automatically Added by addNops.pl
7100				; Automatically 16 NOPs removed by reduceNOPs.sh
7101	16cf	0ffff389		jal	g_makebar	
7102	16d0	00000000		nop	; Automatically Added by addNops.pl
7103	16d1	00000000		nop	; Automatically Added by addNops.pl
7104	16d2	00000000		nop	; Automatically Added by addNops.pl
7105				; Automatically 16 NOPs removed by reduceNOPs.sh
7106	16d3	23bd0008		addi	%GPR29,%GPR29,$8	
7107	16d4	00000000		nop	; Automatically Added by addNops.pl
7108	16d5	00000000		nop	; Automatically Added by addNops.pl
7109	16d6	00000000		nop	; Automatically Added by addNops.pl
7110				; Automatically 36 NOPs removed by reduceNOPs.sh
7111	16d7	3c010000		lhi	%GPR1,$0	
7112	16d8	00000000		nop	; Automatically Added by addNops.pl
7113	16d9	00000000		nop	; Automatically Added by addNops.pl
7114	16da	00000000		nop	; Automatically Added by addNops.pl
7115				; Automatically 16 NOPs removed by reduceNOPs.sh
7116	16db	34210032		ori	%GPR1,%GPR1,$50	
7117	16dc	00000000		nop	; Automatically Added by addNops.pl
7118	16dd	00000000		nop	; Automatically Added by addNops.pl
7119	16de	00000000		nop	; Automatically Added by addNops.pl
7120	16df	afdcfffc		sw	-4(%GPR30),%GPR28	
7121	16e0	00000000		nop	; Automatically Added by addNops.pl
7122	16e1	00000000		nop	; Automatically Added by addNops.pl
7123	16e2	00000000		nop	; Automatically Added by addNops.pl
7124				; Automatically 12 NOPs removed by reduceNOPs.sh
7125	16e3	00000000		nop	; Automatically added by fix-stall-insns.pl
7126	16e4	afc1fff8		sw	-8(%GPR30),%GPR1	
7127	16e5	00000000		nop	; Automatically Added by addNops.pl
7128	16e6	00000000		nop	; Automatically Added by addNops.pl
7129	16e7	00000000		nop	; Automatically Added by addNops.pl
7130	16e8	3c010000		lhi	%GPR1,$0	
7131	16e9	00000000		nop	; Automatically Added by addNops.pl
7132	16ea	00000000		nop	; Automatically Added by addNops.pl
7133	16eb	00000000		nop	; Automatically Added by addNops.pl
7134				; Automatically 16 NOPs removed by reduceNOPs.sh
7135	16ec	3421000a		ori	%GPR1,%GPR1,$10	
7136	16ed	00000000		nop	; Automatically Added by addNops.pl
7137	16ee	00000000		nop	; Automatically Added by addNops.pl
7138	16ef	00000000		nop	; Automatically Added by addNops.pl
7139				; Automatically 16 NOPs removed by reduceNOPs.sh
7140	16f0	afc1fff4		sw	-12(%GPR30),%GPR1	
7141	16f1	00000000		nop	; Automatically Added by addNops.pl
7142	16f2	00000000		nop	; Automatically Added by addNops.pl
7143	16f3	00000000		nop	; Automatically Added by addNops.pl
7144	16f4	3c010000		lhi	%GPR1,$0	
7145	16f5	00000000		nop	; Automatically Added by addNops.pl
7146	16f6	00000000		nop	; Automatically Added by addNops.pl
7147	16f7	00000000		nop	; Automatically Added by addNops.pl
7148				; Automatically 16 NOPs removed by reduceNOPs.sh
7149	16f8	34210001		ori	%GPR1,%GPR1,$1	
7150	16f9	00000000		nop	; Automatically Added by addNops.pl
7151	16fa	00000000		nop	; Automatically Added by addNops.pl
7152	16fb	00000000		nop	; Automatically Added by addNops.pl
7153				; Automatically 16 NOPs removed by reduceNOPs.sh
7154	16fc	afc1fff0		sw	-16(%GPR30),%GPR1	
7155	16fd	00000000		nop	; Automatically Added by addNops.pl
7156	16fe	00000000		nop	; Automatically Added by addNops.pl
7157	16ff	00000000		nop	; Automatically Added by addNops.pl
7158	1700	3c010000		lhi	%GPR1,$0	
7159	1701	00000000		nop	; Automatically Added by addNops.pl
7160	1702	00000000		nop	; Automatically Added by addNops.pl
7161	1703	00000000		nop	; Automatically Added by addNops.pl
7162				; Automatically 16 NOPs removed by reduceNOPs.sh
7163	1704	34210001		ori	%GPR1,%GPR1,$1	
7164	1705	00000000		nop	; Automatically Added by addNops.pl
7165	1706	00000000		nop	; Automatically Added by addNops.pl
7166	1707	00000000		nop	; Automatically Added by addNops.pl
7167				; Automatically 16 NOPs removed by reduceNOPs.sh
7168	1708	afc1ffec		sw	-20(%GPR30),%GPR1	
7169	1709	00000000		nop	; Automatically Added by addNops.pl
7170	170a	00000000		nop	; Automatically Added by addNops.pl
7171	170b	00000000		nop	; Automatically Added by addNops.pl
7172				; Automatically 12 NOPs removed by reduceNOPs.sh
7173			L_main_9:
7174	170c	00000000		nop	; Automatically Added by addNops.pl
7175	170d	00000000		nop	; Automatically Added by addNops.pl
7176	170e	00000000		nop	; Automatically Added by addNops.pl
7177	170f	8fc1fff4		lw	%GPR1,-12(%GPR30)	
7178	1710	00000000		nop	; Automatically Added by addNops.pl
7179	1711	00000000		nop	; Automatically Added by addNops.pl
7180	1712	00000000		nop	; Automatically Added by addNops.pl
7181	1713	00000000		nop	; Automatically added by fix-stall-insns.pl
7182	1714	8fc2fff8		lw	%GPR2,-8(%GPR30)	
7183	1715	00000000		nop	; Automatically Added by addNops.pl
7184	1716	00000000		nop	; Automatically Added by addNops.pl
7185	1717	00000000		nop	; Automatically Added by addNops.pl
7186				; Automatically 16 NOPs removed by reduceNOPs.sh
7187	1718	00220820		add	%GPR1,%GPR1,%GPR2	
7188	1719	00000000		nop	; Automatically Added by addNops.pl
7189	171a	00000000		nop	; Automatically Added by addNops.pl
7190	171b	00000000		nop	; Automatically Added by addNops.pl
7191				; Automatically 16 NOPs removed by reduceNOPs.sh
7192	171c	00201020		add	%GPR2,%GPR1,%GPR0	
7193	171d	00000000		nop	; Automatically Added by addNops.pl
7194	171e	00000000		nop	; Automatically Added by addNops.pl
7195	171f	00000000		nop	; Automatically Added by addNops.pl
7196	1720	afc1fff4		sw	-12(%GPR30),%GPR1	
7197	1721	00000000		nop	; Automatically Added by addNops.pl
7198	1722	00000000		nop	; Automatically Added by addNops.pl
7199	1723	00000000		nop	; Automatically Added by addNops.pl
7200	1724	3c010000		lhi	%GPR1,$0	
7201	1725	00000000		nop	; Automatically Added by addNops.pl
7202	1726	00000000		nop	; Automatically Added by addNops.pl
7203	1727	00000000		nop	; Automatically Added by addNops.pl
7204				; Automatically 16 NOPs removed by reduceNOPs.sh
7205	1728	342100fe		ori	%GPR1,%GPR1,$254	
7206	1729	00000000		nop	; Automatically Added by addNops.pl
7207	172a	00000000		nop	; Automatically Added by addNops.pl
7208	172b	00000000		nop	; Automatically Added by addNops.pl
7209				; Automatically 16 NOPs removed by reduceNOPs.sh
7210	172c	0041d82b		sgt	%GPR27,%GPR2,%GPR1	
7211	172d	00000000		nop	; Automatically Added by addNops.pl
7212	172e	00000000		nop	; Automatically Added by addNops.pl
7213	172f	00000000		nop	; Automatically Added by addNops.pl
7214	1730	17600023		bnez	%GPR27,L_main_11	
7215	1731	00000000		nop	; Automatically Added by addNops.pl
7216	1732	00000000		nop	; Automatically Added by addNops.pl
7217	1733	00000000		nop	; Automatically Added by addNops.pl
7218				; Automatically 16 NOPs removed by reduceNOPs.sh
7219	1734	08000004		j	L_main_10	
7220	1735	00000000		nop	; Automatically Added by addNops.pl
7221	1736	00000000		nop	; Automatically Added by addNops.pl
7222	1737	00000000		nop	; Automatically Added by addNops.pl
7223				; Automatically 16 NOPs removed by reduceNOPs.sh
7224			L_main_10:
7225	1738	00000000		nop	; Automatically Added by addNops.pl
7226	1739	00000000		nop	; Automatically Added by addNops.pl
7227	173a	00000000		nop	; Automatically Added by addNops.pl
7228	173b	8fc2fff4		lw	%GPR2,-12(%GPR30)	
7229	173c	00000000		nop	; Automatically Added by addNops.pl
7230	173d	00000000		nop	; Automatically Added by addNops.pl
7231	173e	00000000		nop	; Automatically Added by addNops.pl
7232				; Automatically 12 NOPs removed by reduceNOPs.sh
7233	173f	3c010000		lhi	%GPR1,$0	
7234	1740	00000000		nop	; Automatically Added by addNops.pl
7235	1741	00000000		nop	; Automatically Added by addNops.pl
7236	1742	00000000		nop	; Automatically Added by addNops.pl
7237				; Automatically 16 NOPs removed by reduceNOPs.sh
7238	1743	3421000a		ori	%GPR1,%GPR1,$10	
7239	1744	00000000		nop	; Automatically Added by addNops.pl
7240	1745	00000000		nop	; Automatically Added by addNops.pl
7241	1746	00000000		nop	; Automatically Added by addNops.pl
7242				; Automatically 16 NOPs removed by reduceNOPs.sh
7243	1747	0041d82a		slt	%GPR27,%GPR2,%GPR1	
7244	1748	00000000		nop	; Automatically Added by addNops.pl
7245	1749	00000000		nop	; Automatically Added by addNops.pl
7246	174a	00000000		nop	; Automatically Added by addNops.pl
7247	174b	17600008		bnez	%GPR27,L_main_11	
7248	174c	00000000		nop	; Automatically Added by addNops.pl
7249	174d	00000000		nop	; Automatically Added by addNops.pl
7250	174e	00000000		nop	; Automatically Added by addNops.pl
7251				; Automatically 16 NOPs removed by reduceNOPs.sh
7252	174f	08000038		j	L_main_12	
7253	1750	00000000		nop	; Automatically Added by addNops.pl
7254	1751	00000000		nop	; Automatically Added by addNops.pl
7255	1752	00000000		nop	; Automatically Added by addNops.pl
7256				; Automatically 16 NOPs removed by reduceNOPs.sh
7257			L_main_11:
7258	1753	00000000		nop	; Automatically Added by addNops.pl
7259	1754	00000000		nop	; Automatically Added by addNops.pl
7260	1755	00000000		nop	; Automatically Added by addNops.pl
7261	1756	8fc1fff8		lw	%GPR1,-8(%GPR30)	
7262	1757	00000000		nop	; Automatically Added by addNops.pl
7263	1758	00000000		nop	; Automatically Added by addNops.pl
7264	1759	00000000		nop	; Automatically Added by addNops.pl
7265				; Automatically 16 NOPs removed by reduceNOPs.sh
7266	175a	00010822		sub	%GPR1,%GPR0,%GPR1	
7267	175b	00000000		nop	; Automatically Added by addNops.pl
7268	175c	00000000		nop	; Automatically Added by addNops.pl
7269	175d	00000000		nop	; Automatically Added by addNops.pl
7270				; Automatically 8 NOPs removed by reduceNOPs.sh
7271	175e	3c020000		lhi	%GPR2,$0	
7272	175f	00000000		nop	; Automatically Added by addNops.pl
7273	1760	00000000		nop	; Automatically Added by addNops.pl
7274	1761	00000000		nop	; Automatically Added by addNops.pl
7275				; Automatically 16 NOPs removed by reduceNOPs.sh
7276	1762	34420002		ori	%GPR2,%GPR2,$2	
7277	1763	00000000		nop	; Automatically Added by addNops.pl
7278	1764	00000000		nop	; Automatically Added by addNops.pl
7279	1765	00000000		nop	; Automatically Added by addNops.pl
7280				; Automatically 8 NOPs removed by reduceNOPs.sh
7281	1766	00201820		add	%GPR3,%GPR1,%GPR0	
7282	1767	00000000		nop	; Automatically Added by addNops.pl
7283	1768	00000000		nop	; Automatically Added by addNops.pl
7284	1769	00000000		nop	; Automatically Added by addNops.pl
7285	176a	afc1fff8		sw	-8(%GPR30),%GPR1	
7286	176b	00000000		nop	; Automatically Added by addNops.pl
7287	176c	00000000		nop	; Automatically Added by addNops.pl
7288	176d	00000000		nop	; Automatically Added by addNops.pl
7289	176e	3c010000		lhi	%GPR1,$0	
7290	176f	00000000		nop	; Automatically Added by addNops.pl
7291	1770	00000000		nop	; Automatically Added by addNops.pl
7292	1771	00000000		nop	; Automatically Added by addNops.pl
7293				; Automatically 16 NOPs removed by reduceNOPs.sh
7294	1772	34210001		ori	%GPR1,%GPR1,$1	
7295	1773	00000000		nop	; Automatically Added by addNops.pl
7296	1774	00000000		nop	; Automatically Added by addNops.pl
7297	1775	00000000		nop	; Automatically Added by addNops.pl
7298				; Automatically 16 NOPs removed by reduceNOPs.sh
7299	1776	8fc1fff4		lw	%GPR1,-12(%GPR30)	
7300	1777	00000000		nop	; Automatically Added by addNops.pl
7301	1778	00000000		nop	; Automatically Added by addNops.pl
7302	1779	00000000		nop	; Automatically Added by addNops.pl
7303				; Automatically 16 NOPs removed by reduceNOPs.sh
7304	177a	00000000		nop	; Automatically added by fix-stall-insns.pl
7305	177b	04620838		mac	%GPR1,%GPR3,%GPR2	
7306	177c	00000000		nop	; Automatically Added by addNops.pl
7307	177d	00000000		nop	; Automatically Added by addNops.pl
7308	177e	00000000		nop	; Automatically Added by addNops.pl
7309				; Automatically 16 NOPs removed by reduceNOPs.sh
7310	177f	afc1fff4		sw	-12(%GPR30),%GPR1	
7311	1780	00000000		nop	; Automatically Added by addNops.pl
7312	1781	00000000		nop	; Automatically Added by addNops.pl
7313	1782	00000000		nop	; Automatically Added by addNops.pl
7314	1783	0800000f		j	L_main_13	
7315	1784	00000000		nop	; Automatically Added by addNops.pl
7316	1785	00000000		nop	; Automatically Added by addNops.pl
7317	1786	00000000		nop	; Automatically Added by addNops.pl
7318				; Automatically 12 NOPs removed by reduceNOPs.sh
7319			L_main_12:
7320	1787	00000000		nop	; Automatically Added by addNops.pl
7321	1788	00000000		nop	; Automatically Added by addNops.pl
7322	1789	00000000		nop	; Automatically Added by addNops.pl
7323				; Automatically 16 NOPs removed by reduceNOPs.sh
7324	178a	3c010000		lhi	%GPR1,$0	
7325	178b	00000000		nop	; Automatically Added by addNops.pl
7326	178c	00000000		nop	; Automatically Added by addNops.pl
7327	178d	00000000		nop	; Automatically Added by addNops.pl
7328				; Automatically 16 NOPs removed by reduceNOPs.sh
7329	178e	34210000		ori	%GPR1,%GPR1,$0	
7330	178f	00000000		nop	; Automatically Added by addNops.pl
7331	1790	00000000		nop	; Automatically Added by addNops.pl
7332	1791	00000000		nop	; Automatically Added by addNops.pl
7333				; Automatically 12 NOPs removed by reduceNOPs.sh
7334			L_main_13:
7335	1792	00000000		nop	; Automatically Added by addNops.pl
7336	1793	00000000		nop	; Automatically Added by addNops.pl
7337	1794	00000000		nop	; Automatically Added by addNops.pl
7338	1795	8fc1ffec		lw	%GPR1,-20(%GPR30)	
7339	1796	00000000		nop	; Automatically Added by addNops.pl
7340	1797	00000000		nop	; Automatically Added by addNops.pl
7341	1798	00000000		nop	; Automatically Added by addNops.pl
7342	1799	00000000		nop	; Automatically added by fix-stall-insns.pl
7343	179a	8fc2fff0		lw	%GPR2,-16(%GPR30)	
7344	179b	00000000		nop	; Automatically Added by addNops.pl
7345	179c	00000000		nop	; Automatically Added by addNops.pl
7346	179d	00000000		nop	; Automatically Added by addNops.pl
7347				; Automatically 16 NOPs removed by reduceNOPs.sh
7348	179e	00220820		add	%GPR1,%GPR1,%GPR2	
7349	179f	00000000		nop	; Automatically Added by addNops.pl
7350	17a0	00000000		nop	; Automatically Added by addNops.pl
7351	17a1	00000000		nop	; Automatically Added by addNops.pl
7352				; Automatically 16 NOPs removed by reduceNOPs.sh
7353	17a2	00201020		add	%GPR2,%GPR1,%GPR0	
7354	17a3	00000000		nop	; Automatically Added by addNops.pl
7355	17a4	00000000		nop	; Automatically Added by addNops.pl
7356	17a5	00000000		nop	; Automatically Added by addNops.pl
7357	17a6	afc1ffec		sw	-20(%GPR30),%GPR1	
7358	17a7	00000000		nop	; Automatically Added by addNops.pl
7359	17a8	00000000		nop	; Automatically Added by addNops.pl
7360	17a9	00000000		nop	; Automatically Added by addNops.pl
7361	17aa	3c010000		lhi	%GPR1,$0	
7362	17ab	00000000		nop	; Automatically Added by addNops.pl
7363	17ac	00000000		nop	; Automatically Added by addNops.pl
7364	17ad	00000000		nop	; Automatically Added by addNops.pl
7365				; Automatically 16 NOPs removed by reduceNOPs.sh
7366	17ae	3421000f		ori	%GPR1,%GPR1,$15	
7367	17af	00000000		nop	; Automatically Added by addNops.pl
7368	17b0	00000000		nop	; Automatically Added by addNops.pl
7369	17b1	00000000		nop	; Automatically Added by addNops.pl
7370				; Automatically 16 NOPs removed by reduceNOPs.sh
7371	17b2	0041d82b		sgt	%GPR27,%GPR2,%GPR1	
7372	17b3	00000000		nop	; Automatically Added by addNops.pl
7373	17b4	00000000		nop	; Automatically Added by addNops.pl
7374	17b5	00000000		nop	; Automatically Added by addNops.pl
7375	17b6	17600023		bnez	%GPR27,L_main_15	
7376	17b7	00000000		nop	; Automatically Added by addNops.pl
7377	17b8	00000000		nop	; Automatically Added by addNops.pl
7378	17b9	00000000		nop	; Automatically Added by addNops.pl
7379				; Automatically 16 NOPs removed by reduceNOPs.sh
7380	17ba	08000004		j	L_main_14	
7381	17bb	00000000		nop	; Automatically Added by addNops.pl
7382	17bc	00000000		nop	; Automatically Added by addNops.pl
7383	17bd	00000000		nop	; Automatically Added by addNops.pl
7384				; Automatically 16 NOPs removed by reduceNOPs.sh
7385			L_main_14:
7386	17be	00000000		nop	; Automatically Added by addNops.pl
7387	17bf	00000000		nop	; Automatically Added by addNops.pl
7388	17c0	00000000		nop	; Automatically Added by addNops.pl
7389	17c1	8fc2ffec		lw	%GPR2,-20(%GPR30)	
7390	17c2	00000000		nop	; Automatically Added by addNops.pl
7391	17c3	00000000		nop	; Automatically Added by addNops.pl
7392	17c4	00000000		nop	; Automatically Added by addNops.pl
7393				; Automatically 12 NOPs removed by reduceNOPs.sh
7394	17c5	3c010000		lhi	%GPR1,$0	
7395	17c6	00000000		nop	; Automatically Added by addNops.pl
7396	17c7	00000000		nop	; Automatically Added by addNops.pl
7397	17c8	00000000		nop	; Automatically Added by addNops.pl
7398				; Automatically 16 NOPs removed by reduceNOPs.sh
7399	17c9	34210002		ori	%GPR1,%GPR1,$2	
7400	17ca	00000000		nop	; Automatically Added by addNops.pl
7401	17cb	00000000		nop	; Automatically Added by addNops.pl
7402	17cc	00000000		nop	; Automatically Added by addNops.pl
7403				; Automatically 16 NOPs removed by reduceNOPs.sh
7404	17cd	0041d82a		slt	%GPR27,%GPR2,%GPR1	
7405	17ce	00000000		nop	; Automatically Added by addNops.pl
7406	17cf	00000000		nop	; Automatically Added by addNops.pl
7407	17d0	00000000		nop	; Automatically Added by addNops.pl
7408	17d1	17600008		bnez	%GPR27,L_main_15	
7409	17d2	00000000		nop	; Automatically Added by addNops.pl
7410	17d3	00000000		nop	; Automatically Added by addNops.pl
7411	17d4	00000000		nop	; Automatically Added by addNops.pl
7412				; Automatically 16 NOPs removed by reduceNOPs.sh
7413	17d5	08000038		j	L_main_16	
7414	17d6	00000000		nop	; Automatically Added by addNops.pl
7415	17d7	00000000		nop	; Automatically Added by addNops.pl
7416	17d8	00000000		nop	; Automatically Added by addNops.pl
7417				; Automatically 16 NOPs removed by reduceNOPs.sh
7418			L_main_15:
7419	17d9	00000000		nop	; Automatically Added by addNops.pl
7420	17da	00000000		nop	; Automatically Added by addNops.pl
7421	17db	00000000		nop	; Automatically Added by addNops.pl
7422	17dc	8fc1fff0		lw	%GPR1,-16(%GPR30)	
7423	17dd	00000000		nop	; Automatically Added by addNops.pl
7424	17de	00000000		nop	; Automatically Added by addNops.pl
7425	17df	00000000		nop	; Automatically Added by addNops.pl
7426				; Automatically 16 NOPs removed by reduceNOPs.sh
7427	17e0	00010822		sub	%GPR1,%GPR0,%GPR1	
7428	17e1	00000000		nop	; Automatically Added by addNops.pl
7429	17e2	00000000		nop	; Automatically Added by addNops.pl
7430	17e3	00000000		nop	; Automatically Added by addNops.pl
7431				; Automatically 8 NOPs removed by reduceNOPs.sh
7432	17e4	3c020000		lhi	%GPR2,$0	
7433	17e5	00000000		nop	; Automatically Added by addNops.pl
7434	17e6	00000000		nop	; Automatically Added by addNops.pl
7435	17e7	00000000		nop	; Automatically Added by addNops.pl
7436				; Automatically 16 NOPs removed by reduceNOPs.sh
7437	17e8	34420002		ori	%GPR2,%GPR2,$2	
7438	17e9	00000000		nop	; Automatically Added by addNops.pl
7439	17ea	00000000		nop	; Automatically Added by addNops.pl
7440	17eb	00000000		nop	; Automatically Added by addNops.pl
7441				; Automatically 8 NOPs removed by reduceNOPs.sh
7442	17ec	00201820		add	%GPR3,%GPR1,%GPR0	
7443	17ed	00000000		nop	; Automatically Added by addNops.pl
7444	17ee	00000000		nop	; Automatically Added by addNops.pl
7445	17ef	00000000		nop	; Automatically Added by addNops.pl
7446	17f0	afc1fff0		sw	-16(%GPR30),%GPR1	
7447	17f1	00000000		nop	; Automatically Added by addNops.pl
7448	17f2	00000000		nop	; Automatically Added by addNops.pl
7449	17f3	00000000		nop	; Automatically Added by addNops.pl
7450	17f4	3c010000		lhi	%GPR1,$0	
7451	17f5	00000000		nop	; Automatically Added by addNops.pl
7452	17f6	00000000		nop	; Automatically Added by addNops.pl
7453	17f7	00000000		nop	; Automatically Added by addNops.pl
7454				; Automatically 16 NOPs removed by reduceNOPs.sh
7455	17f8	34210001		ori	%GPR1,%GPR1,$1	
7456	17f9	00000000		nop	; Automatically Added by addNops.pl
7457	17fa	00000000		nop	; Automatically Added by addNops.pl
7458	17fb	00000000		nop	; Automatically Added by addNops.pl
7459				; Automatically 16 NOPs removed by reduceNOPs.sh
7460	17fc	8fc1ffec		lw	%GPR1,-20(%GPR30)	
7461	17fd	00000000		nop	; Automatically Added by addNops.pl
7462	17fe	00000000		nop	; Automatically Added by addNops.pl
7463	17ff	00000000		nop	; Automatically Added by addNops.pl
7464				; Automatically 16 NOPs removed by reduceNOPs.sh
7465	1800	00000000		nop	; Automatically added by fix-stall-insns.pl
7466	1801	04620838		mac	%GPR1,%GPR3,%GPR2	
7467	1802	00000000		nop	; Automatically Added by addNops.pl
7468	1803	00000000		nop	; Automatically Added by addNops.pl
7469	1804	00000000		nop	; Automatically Added by addNops.pl
7470				; Automatically 16 NOPs removed by reduceNOPs.sh
7471	1805	afc1ffec		sw	-20(%GPR30),%GPR1	
7472	1806	00000000		nop	; Automatically Added by addNops.pl
7473	1807	00000000		nop	; Automatically Added by addNops.pl
7474	1808	00000000		nop	; Automatically Added by addNops.pl
7475	1809	0800000f		j	L_main_17	
7476	180a	00000000		nop	; Automatically Added by addNops.pl
7477	180b	00000000		nop	; Automatically Added by addNops.pl
7478	180c	00000000		nop	; Automatically Added by addNops.pl
7479				; Automatically 12 NOPs removed by reduceNOPs.sh
7480			L_main_16:
7481	180d	00000000		nop	; Automatically Added by addNops.pl
7482	180e	00000000		nop	; Automatically Added by addNops.pl
7483	180f	00000000		nop	; Automatically Added by addNops.pl
7484				; Automatically 16 NOPs removed by reduceNOPs.sh
7485	1810	3c010000		lhi	%GPR1,$0	
7486	1811	00000000		nop	; Automatically Added by addNops.pl
7487	1812	00000000		nop	; Automatically Added by addNops.pl
7488	1813	00000000		nop	; Automatically Added by addNops.pl
7489				; Automatically 16 NOPs removed by reduceNOPs.sh
7490	1814	34210000		ori	%GPR1,%GPR1,$0	
7491	1815	00000000		nop	; Automatically Added by addNops.pl
7492	1816	00000000		nop	; Automatically Added by addNops.pl
7493	1817	00000000		nop	; Automatically Added by addNops.pl
7494				; Automatically 12 NOPs removed by reduceNOPs.sh
7495			L_main_17:
7496	1818	00000000		nop	; Automatically Added by addNops.pl
7497	1819	00000000		nop	; Automatically Added by addNops.pl
7498	181a	00000000		nop	; Automatically Added by addNops.pl
7499	181b	8fc2ffec		lw	%GPR2,-20(%GPR30)	
7500	181c	00000000		nop	; Automatically Added by addNops.pl
7501	181d	00000000		nop	; Automatically Added by addNops.pl
7502	181e	00000000		nop	; Automatically Added by addNops.pl
7503	181f	00000000		nop	; Automatically added by fix-stall-insns.pl
7504	1820	8fc1fff4		lw	%GPR1,-12(%GPR30)	
7505	1821	00000000		nop	; Automatically Added by addNops.pl
7506	1822	00000000		nop	; Automatically Added by addNops.pl
7507	1823	00000000		nop	; Automatically Added by addNops.pl
7508				; Automatically 16 NOPs removed by reduceNOPs.sh
7509	1824	2bbd0008		subi	%GPR29,%GPR29,$8	
7510	1825	00000000		nop	; Automatically Added by addNops.pl
7511	1826	00000000		nop	; Automatically Added by addNops.pl
7512	1827	00000000		nop	; Automatically Added by addNops.pl
7513				; Automatically 16 NOPs removed by reduceNOPs.sh
7514	1828	0ffffaf3		jal	redrawBarGraph	
7515	1829	00000000		nop	; Automatically Added by addNops.pl
7516	182a	00000000		nop	; Automatically Added by addNops.pl
7517	182b	00000000		nop	; Automatically Added by addNops.pl
7518				; Automatically 16 NOPs removed by reduceNOPs.sh
7519	182c	23bd0008		addi	%GPR29,%GPR29,$8	
7520	182d	00000000		nop	; Automatically Added by addNops.pl
7521	182e	00000000		nop	; Automatically Added by addNops.pl
7522	182f	00000000		nop	; Automatically Added by addNops.pl
7523				; Automatically 36 NOPs removed by reduceNOPs.sh
7524	1830	3c010000		lhi	%GPR1,$0	
7525	1831	00000000		nop	; Automatically Added by addNops.pl
7526	1832	00000000		nop	; Automatically Added by addNops.pl
7527	1833	00000000		nop	; Automatically Added by addNops.pl
7528				; Automatically 16 NOPs removed by reduceNOPs.sh
7529	1834	34210000		ori	%GPR1,%GPR1,$0	
7530	1835	00000000		nop	; Automatically Added by addNops.pl
7531	1836	00000000		nop	; Automatically Added by addNops.pl
7532	1837	00000000		nop	; Automatically Added by addNops.pl
7533				; Automatically 16 NOPs removed by reduceNOPs.sh
7534	1838	afc1ffe8		sw	-24(%GPR30),%GPR1	
7535	1839	00000000		nop	; Automatically Added by addNops.pl
7536	183a	00000000		nop	; Automatically Added by addNops.pl
7537	183b	00000000		nop	; Automatically Added by addNops.pl
7538				; Automatically 12 NOPs removed by reduceNOPs.sh
7539			L_main_18:
7540	183c	00000000		nop	; Automatically Added by addNops.pl
7541	183d	00000000		nop	; Automatically Added by addNops.pl
7542	183e	00000000		nop	; Automatically Added by addNops.pl
7543	183f	8fc2ffe8		lw	%GPR2,-24(%GPR30)	
7544	1840	00000000		nop	; Automatically Added by addNops.pl
7545	1841	00000000		nop	; Automatically Added by addNops.pl
7546	1842	00000000		nop	; Automatically Added by addNops.pl
7547	1843	00000000		nop	; Automatically added by fix-stall-insns.pl
7548	1844	8fc1fffc		lw	%GPR1,-4(%GPR30)	
7549	1845	00000000		nop	; Automatically Added by addNops.pl
7550	1846	00000000		nop	; Automatically Added by addNops.pl
7551	1847	00000000		nop	; Automatically Added by addNops.pl
7552				; Automatically 16 NOPs removed by reduceNOPs.sh
7553	1848	2bbd0008		subi	%GPR29,%GPR29,$8	
7554	1849	00000000		nop	; Automatically Added by addNops.pl
7555	184a	00000000		nop	; Automatically Added by addNops.pl
7556	184b	00000000		nop	; Automatically Added by addNops.pl
7557				; Automatically 16 NOPs removed by reduceNOPs.sh
7558	184c	0ffff469		jal	g_setbar	
7559	184d	00000000		nop	; Automatically Added by addNops.pl
7560	184e	00000000		nop	; Automatically Added by addNops.pl
7561	184f	00000000		nop	; Automatically Added by addNops.pl
7562				; Automatically 16 NOPs removed by reduceNOPs.sh
7563	1850	23bd0008		addi	%GPR29,%GPR29,$8	
7564	1851	00000000		nop	; Automatically Added by addNops.pl
7565	1852	00000000		nop	; Automatically Added by addNops.pl
7566	1853	00000000		nop	; Automatically Added by addNops.pl
7567				; Automatically 16 NOPs removed by reduceNOPs.sh
7568	1854	8fc1ffe8		lw	%GPR1,-24(%GPR30)	
7569	1855	00000000		nop	; Automatically Added by addNops.pl
7570	1856	00000000		nop	; Automatically Added by addNops.pl
7571	1857	00000000		nop	; Automatically Added by addNops.pl
7572				; Automatically 16 NOPs removed by reduceNOPs.sh
7573	1858	20210002		addi	%GPR1,%GPR1,$2	
7574	1859	00000000		nop	; Automatically Added by addNops.pl
7575	185a	00000000		nop	; Automatically Added by addNops.pl
7576	185b	00000000		nop	; Automatically Added by addNops.pl
7577				; Automatically 16 NOPs removed by reduceNOPs.sh
7578	185c	00201020		add	%GPR2,%GPR1,%GPR0	
7579	185d	00000000		nop	; Automatically Added by addNops.pl
7580	185e	00000000		nop	; Automatically Added by addNops.pl
7581	185f	00000000		nop	; Automatically Added by addNops.pl
7582	1860	afc1ffe8		sw	-24(%GPR30),%GPR1	
7583	1861	00000000		nop	; Automatically Added by addNops.pl
7584	1862	00000000		nop	; Automatically Added by addNops.pl
7585	1863	00000000		nop	; Automatically Added by addNops.pl
7586	1864	3c010000		lhi	%GPR1,$0	
7587	1865	00000000		nop	; Automatically Added by addNops.pl
7588	1866	00000000		nop	; Automatically Added by addNops.pl
7589	1867	00000000		nop	; Automatically Added by addNops.pl
7590				; Automatically 16 NOPs removed by reduceNOPs.sh
7591	1868	342100fe		ori	%GPR1,%GPR1,$254	
7592	1869	00000000		nop	; Automatically Added by addNops.pl
7593	186a	00000000		nop	; Automatically Added by addNops.pl
7594	186b	00000000		nop	; Automatically Added by addNops.pl
7595				; Automatically 16 NOPs removed by reduceNOPs.sh
7596	186c	0041d82a		slt	%GPR27,%GPR2,%GPR1	
7597	186d	00000000		nop	; Automatically Added by addNops.pl
7598	186e	00000000		nop	; Automatically Added by addNops.pl
7599	186f	00000000		nop	; Automatically Added by addNops.pl
7600	1870	1760ffcc		bnez	%GPR27,L_main_18	
7601	1871	00000000		nop	; Automatically Added by addNops.pl
7602	1872	00000000		nop	; Automatically Added by addNops.pl
7603	1873	00000000		nop	; Automatically Added by addNops.pl
7604				; Automatically 16 NOPs removed by reduceNOPs.sh
7605	1874	08000004		j	L_main_19	
7606	1875	00000000		nop	; Automatically Added by addNops.pl
7607	1876	00000000		nop	; Automatically Added by addNops.pl
7608	1877	00000000		nop	; Automatically Added by addNops.pl
7609				; Automatically 16 NOPs removed by reduceNOPs.sh
7610			L_main_19:
7611	1878	00000000		nop	; Automatically Added by addNops.pl
7612	1879	00000000		nop	; Automatically Added by addNops.pl
7613	187a	00000000		nop	; Automatically Added by addNops.pl
7614				; Automatically 16 NOPs removed by reduceNOPs.sh
7615	187b	3c010000		lhi	%GPR1,$0	
7616	187c	00000000		nop	; Automatically Added by addNops.pl
7617	187d	00000000		nop	; Automatically Added by addNops.pl
7618	187e	00000000		nop	; Automatically Added by addNops.pl
7619				; Automatically 16 NOPs removed by reduceNOPs.sh
7620	187f	342100fe		ori	%GPR1,%GPR1,$254	
7621	1880	00000000		nop	; Automatically Added by addNops.pl
7622	1881	00000000		nop	; Automatically Added by addNops.pl
7623	1882	00000000		nop	; Automatically Added by addNops.pl
7624				; Automatically 16 NOPs removed by reduceNOPs.sh
7625	1883	afc1ffe8		sw	-24(%GPR30),%GPR1	
7626	1884	00000000		nop	; Automatically Added by addNops.pl
7627	1885	00000000		nop	; Automatically Added by addNops.pl
7628	1886	00000000		nop	; Automatically Added by addNops.pl
7629				; Automatically 12 NOPs removed by reduceNOPs.sh
7630			L_main_20:
7631	1887	00000000		nop	; Automatically Added by addNops.pl
7632	1888	00000000		nop	; Automatically Added by addNops.pl
7633	1889	00000000		nop	; Automatically Added by addNops.pl
7634	188a	8fc2ffe8		lw	%GPR2,-24(%GPR30)	
7635	188b	00000000		nop	; Automatically Added by addNops.pl
7636	188c	00000000		nop	; Automatically Added by addNops.pl
7637	188d	00000000		nop	; Automatically Added by addNops.pl
7638	188e	00000000		nop	; Automatically added by fix-stall-insns.pl
7639	188f	8fc1fffc		lw	%GPR1,-4(%GPR30)	
7640	1890	00000000		nop	; Automatically Added by addNops.pl
7641	1891	00000000		nop	; Automatically Added by addNops.pl
7642	1892	00000000		nop	; Automatically Added by addNops.pl
7643				; Automatically 16 NOPs removed by reduceNOPs.sh
7644	1893	2bbd0008		subi	%GPR29,%GPR29,$8	
7645	1894	00000000		nop	; Automatically Added by addNops.pl
7646	1895	00000000		nop	; Automatically Added by addNops.pl
7647	1896	00000000		nop	; Automatically Added by addNops.pl
7648				; Automatically 16 NOPs removed by reduceNOPs.sh
7649	1897	0ffff41e		jal	g_setbar	
7650	1898	00000000		nop	; Automatically Added by addNops.pl
7651	1899	00000000		nop	; Automatically Added by addNops.pl
7652	189a	00000000		nop	; Automatically Added by addNops.pl
7653				; Automatically 16 NOPs removed by reduceNOPs.sh
7654	189b	23bd0008		addi	%GPR29,%GPR29,$8	
7655	189c	00000000		nop	; Automatically Added by addNops.pl
7656	189d	00000000		nop	; Automatically Added by addNops.pl
7657	189e	00000000		nop	; Automatically Added by addNops.pl
7658				; Automatically 16 NOPs removed by reduceNOPs.sh
7659	189f	8fc1ffe8		lw	%GPR1,-24(%GPR30)	
7660	18a0	00000000		nop	; Automatically Added by addNops.pl
7661	18a1	00000000		nop	; Automatically Added by addNops.pl
7662	18a2	00000000		nop	; Automatically Added by addNops.pl
7663				; Automatically 16 NOPs removed by reduceNOPs.sh
7664	18a3	28210002		subi	%GPR1,%GPR1,$2	
7665	18a4	00000000		nop	; Automatically Added by addNops.pl
7666	18a5	00000000		nop	; Automatically Added by addNops.pl
7667	18a6	00000000		nop	; Automatically Added by addNops.pl
7668				; Automatically 16 NOPs removed by reduceNOPs.sh
7669	18a7	00201020		add	%GPR2,%GPR1,%GPR0	
7670	18a8	00000000		nop	; Automatically Added by addNops.pl
7671	18a9	00000000		nop	; Automatically Added by addNops.pl
7672	18aa	00000000		nop	; Automatically Added by addNops.pl
7673	18ab	afc1ffe8		sw	-24(%GPR30),%GPR1	
7674	18ac	00000000		nop	; Automatically Added by addNops.pl
7675	18ad	00000000		nop	; Automatically Added by addNops.pl
7676	18ae	00000000		nop	; Automatically Added by addNops.pl
7677	18af	3c010000		lhi	%GPR1,$0	
7678	18b0	00000000		nop	; Automatically Added by addNops.pl
7679	18b1	00000000		nop	; Automatically Added by addNops.pl
7680	18b2	00000000		nop	; Automatically Added by addNops.pl
7681				; Automatically 16 NOPs removed by reduceNOPs.sh
7682	18b3	34210000		ori	%GPR1,%GPR1,$0	
7683	18b4	00000000		nop	; Automatically Added by addNops.pl
7684	18b5	00000000		nop	; Automatically Added by addNops.pl
7685	18b6	00000000		nop	; Automatically Added by addNops.pl
7686				; Automatically 16 NOPs removed by reduceNOPs.sh
7687	18b7	0041d82b		sgt	%GPR27,%GPR2,%GPR1	
7688	18b8	00000000		nop	; Automatically Added by addNops.pl
7689	18b9	00000000		nop	; Automatically Added by addNops.pl
7690	18ba	00000000		nop	; Automatically Added by addNops.pl
7691	18bb	1760ffcc		bnez	%GPR27,L_main_20	
7692	18bc	00000000		nop	; Automatically Added by addNops.pl
7693	18bd	00000000		nop	; Automatically Added by addNops.pl
7694	18be	00000000		nop	; Automatically Added by addNops.pl
7695				; Automatically 16 NOPs removed by reduceNOPs.sh
7696	18bf	0bfffe4d		j	L_main_9	
7697	18c0	00000000		nop	; Automatically Added by addNops.pl
7698	18c1	00000000		nop	; Automatically Added by addNops.pl
7699	18c2	00000000		nop	; Automatically Added by addNops.pl
7700				; Automatically 16 NOPs removed by reduceNOPs.sh
7701			L_main_21:
7702	18c3	00000000		nop	; Automatically Added by addNops.pl
7703	18c4	00000000		nop	; Automatically Added by addNops.pl
7704	18c5	00000000		nop	; Automatically Added by addNops.pl
7705				; Automatically 16 NOPs removed by reduceNOPs.sh
7706	18c6	8fdf0004		lw	%GPR31,4(%GPR30)	
7707	18c7	00000000		nop	; Automatically Added by addNops.pl
7708	18c8	00000000		nop	; Automatically Added by addNops.pl
7709	18c9	00000000		nop	; Automatically Added by addNops.pl
7710	18ca	27dd0004		addui	%GPR29,%GPR30,$4	
7711	18cb	00000000		nop	; Automatically Added by addNops.pl
7712	18cc	00000000		nop	; Automatically Added by addNops.pl
7713	18cd	00000000		nop	; Automatically Added by addNops.pl
7714	18ce	8fde0000		lw	%GPR30,0(%GPR30)	
7715	18cf	00000000		nop	; Automatically Added by addNops.pl
7716	18d0	00000000		nop	; Automatically Added by addNops.pl
7717	18d1	00000000		nop	; Automatically Added by addNops.pl
7718				; Automatically 8 NOPs removed by reduceNOPs.sh
7719	18d2	00000000		nop
7720	18d3	00000000		nop
7721	18d4	03e00008		jr	%GPR31	
7722	18d5	00000000		nop	; Automatically Added by addNops.pl
7723	18d6	00000000		nop	; Automatically Added by addNops.pl
7724	18d7	00000000		nop	; Automatically Added by addNops.pl
7725	18d8	00000000		nop
7726			exit:
7727	18d9	00000000		nop
7728	18da	00000000		nop


******** Cross Reference List ********
Defined Symbol
name   	section	lc     	attr   	value  	lineno 
L_loadStoreByte_2	.text	1234	Label	1234	5690 
redrawBarGraph	.text	131b	Label	131b	6004 
L_loadStoreByte_3	.text	1249	Label	1249	5716 
g_makeradiogroup	.text	0f95	Label	f95	4858 
L_loadStoreByte_4	.text	1289	Label	1289	5793 
L_loadStoreByte_5	.text	129e	Label	129e	5819 
L_loadStoreByte_6	.text	1306	Label	1306	5939 
loadByteSigned	.text	1249	Label	1249	5715 
sendcommand	.text	0402	Label	402	1361 
L_lib_lcd_50	.text	0e1d	Label	e1d	4421 
loadByteUnsigned	.text	11fc	Label	11fc	5622 
L_lib_lcd_51	.text	0e32	Label	e32	4447 
d_clear	.text	100e	Label	100e	5002 
L_lib_lcd_52	.text	0f2e	Label	f2e	4734 
L_lib_lcd_53	.text	0f71	Label	f71	4813 
exit	.text	18d9	Label	18d9	7726 
L_lib_lcd_54	.text	0f80	Label	f80	4833 
L_lib_lcd_55	.text	0f95	Label	f95	4859 
L_lib_lcd_56	.text	0ff9	Label	ff9	4977 
L_lib_lcd_57	.text	100e	Label	100e	5003 
getbytes	.text	018e	Label	18e	561 
L_lib_lcd_58	.text	1072	Label	1072	5121 
L_lib_lcd_20	.text	055d	Label	55d	1788 
L_lib_lcd_59	.text	1087	Label	1087	5147 
L_lib_lcd_21	.text	059b	Label	59b	1863 
L_lib_lcd_22	.text	05c2	Label	5c2	1910 
L_lib_lcd_23	.text	060d	Label	60d	2003 
L_lib_lcd_24	.text	0645	Label	645	2073 
L_lib_lcd_25	.text	0654	Label	654	2093 
L_lib_lcd_26	.text	0669	Label	669	2119 
L_lib_lcd_27	.text	06d5	Label	6d5	2247 
L_lib_lcd_28	.text	06ea	Label	6ea	2273 
checkbuffer	.text	001d	Label	1d	42 
L_lib_lcd_29	.text	074e	Label	74e	2391 
g_drawline	.text	099a	Label	99a	3088 
g_makeswitch	.text	0d46	Label	d46	4174 
t_cursor	.text	06ea	Label	6ea	2272 
L_lib_lcd_60	.text	10ab	Label	10ab	5191 
L_lib_lcd_61	.text	10e6	Label	10e6	5263 
L_lib_lcd_62	.text	10f9	Label	10f9	5286 
L_lib_lcd_63	.text	1104	Label	1104	5300 
L_lib_lcd_64	.text	1119	Label	1119	5326 
L_main_10	.text	1738	Label	1738	7224 
L_lib_lcd_65	.text	1135	Label	1135	5360 
L_main_11	.text	1753	Label	1753	7257 
L_main_1	.data	0004	Label	4	5965 
L_lib_lcd_66	.text	114c	Label	114c	5387 
g_print	.text	0841	Label	841	2683 
L_main_12	.text	1787	Label	1787	7319 
L_main_2	.data	0008	Label	8	5967 
L_lib_lcd_67	.text	1157	Label	1157	5401 
L_main_13	.text	1792	Label	1792	7334 
L_main_3	.data	0015	Label	15	5981 
L_lib_lcd_68	.text	116c	Label	116c	5427 
L_lib_lcd_30	.text	0763	Label	763	2417 
L_main_14	.text	17be	Label	17be	7385 
L_main_4	.text	131b	Label	131b	6005 
L_lib_lcd_69	.text	11c6	Label	11c6	5551 
L_lib_lcd_31	.text	078b	Label	78b	2465 
L_main_15	.text	17d9	Label	17d9	7418 
L_main_5	.text	1358	Label	1358	6076 
L_lib_lcd_32	.text	07d6	Label	7d6	2554 
t_print	.text	0669	Label	669	2118 
L_lib_lcd_1	.data	0000	Label	0	3 
L_main_16	.text	180d	Label	180d	7480 
L_main_6	.text	13d7	Label	13d7	6226 
L_lib_lcd_33	.text	081d	Label	81d	2638 
L_lib_lcd_2	.text	001d	Label	1d	43 
L_main_17	.text	1818	Label	1818	7495 
L_main_7	.text	1572	Label	1572	6694 
L_lib_lcd_34	.text	082c	Label	82c	2658 
L_lib_lcd_3	.text	0099	Label	99	214 
L_main_18	.text	183c	Label	183c	7539 
L_main_8	.text	1587	Label	1587	6720 
L_lib_lcd_35	.text	0841	Label	841	2684 
L_lib_lcd_4	.text	010b	Label	10b	381 
L_main_19	.text	1878	Label	1878	7610 
L_main_9	.text	170c	Label	170c	7173 
L_lib_lcd_36	.text	08c7	Label	8c7	2842 
L_lib_lcd_5	.text	0157	Label	157	493 
L_lib_lcd_37	.text	08dc	Label	8dc	2868 
L_lib_lcd_6	.text	016e	Label	16e	522 
L_lib_lcd_38	.text	0985	Label	985	3063 
L_lib_lcd_7	.text	0179	Label	179	536 
L_lib_lcd_39	.text	099a	Label	99a	3089 
L_lib_lcd_8	.text	018e	Label	18e	562 
wait	.text	1119	Label	1119	5325 
L_lib_lcd_9	.text	0254	Label	254	814 
g_makebar	.text	0a58	Label	a58	3309 
getack	.text	116c	Label	116c	5426 
t_enable	.text	0763	Label	763	2416 
L_lib_lcd_70	.text	11d5	Label	11d5	5571 
L_lib_lcd_71	.text	11e4	Label	11e4	5591 
L_main_20	.text	1887	Label	1887	7630 
L_main_21	.text	18c3	Label	18c3	7701 
g_drawrect	.text	08dc	Label	8dc	2867 
strlength	.text	1087	Label	1087	5146 
L_lib_lcd_40	.text	0a43	Label	a43	3284 
L_lib_lcd_41	.text	0a58	Label	a58	3310 
L_lib_lcd_42	.text	0a95	Label	a95	3381 
g_makemenubutton	.text	0e32	Label	e32	4446 
L_lib_lcd_43	.text	0ba0	Label	ba0	3683 
L_lib_lcd_44	.text	0bf3	Label	bf3	3779 
L_lib_lcd_45	.text	0c91	Label	c91	3957 
L_lib_lcd_46	.text	0ca0	Label	ca0	3977 
L_lib_lcd_47	.text	0cb5	Label	cb5	4003 
L_lib_lcd_48	.text	0d31	Label	d31	4149 
L_lib_lcd_10	.text	02af	Label	2af	939 
L_lib_lcd_49	.text	0d46	Label	d46	4175 
L_lib_lcd_11	.text	02c7	Label	2c7	967 
L_lib_lcd_12	.text	031a	Label	31a	1066 
L_lib_lcd_13	.text	0341	Label	341	1115 
L_lib_lcd_14	.text	03c7	Label	3c7	1289 
main	.text	1587	Label	1587	6719 
L_lib_lcd_15	.text	03e2	Label	3e2	1322 
L_lib_lcd_16	.text	03ed	Label	3ed	1336 
storeByte	.text	129e	Label	129e	5818 
L_lib_lcd_17	.text	0402	Label	402	1362 
L_lib_lcd_18	.text	0456	Label	456	1460 
g_setbar	.text	0cb5	Label	cb5	4002 
L_lib_lcd_19	.text	053e	Label	53e	1751 
L_loadStoreByte_1	.text	11fc	Label	11fc	5623 


Undefined Symbol
name   	section	lc     	attr   	value  	lineno 


Multiple Defined Symbol
name   	section	lc     	attr   	value  	lineno 


******* Section Data List ******* 
Sec	Attr		Size
.text 	Writable 	18db 
addr_space : 16 
addressing : Word 
bitwidth per byte : 8 
word alignment : 4 
.data 	Data		28 
addr_space : 16 
addressing : Byte 
bitwidth per byte : 8 
word alignment : 4 
