****** Source Program List ******
LineNo	LC	Code		Source Program 
1				.section	.data
2				.section	.text
3				.addressing	Word
4				.section	.text
5				.addressing	Word
6				;.addressing	Word
7			
8	0000	03def026		xor	%GPR30, %GPR30, %GPR30
9	0001	03bde826		xor	%GPR29, %GPR29, %GPR29
10	0002	039ce026		xor	%GPR28, %GPR28, %GPR28
11	0003	00000000		nop
12	0004	3c1e000f		lhi	%GPR30, $(0xFFFFC/0x10000)
13	0005	3c1d000f		lhi	%GPR29, $(0xFFFFC/0x10000)
14	0006	00000000		nop
15	0007	00000000		nop
16	0008	37defffc		ori	%GPR30, %GPR30, $(0xFFFFC%0x10000)
17	0009	37bdfffc		ori	%GPR29, %GPR29, $(0xFFFFC%0x10000)
18	000a	00000000		nop
19	000b	00000000		nop
20	000c	00000000		nop
21	000d	afbefffc		sw	-4(%GPR29), %GPR30
22	000e	afbffff8		sw	-8(%GPR29), %GPR31
23	000f	23ddfff8		addi	%GPR29, %GPR30, $-8
24	0010	00000000		nop
25	0011	00000000		nop
26	0012	00000000		nop
27	0013	0c000c5c		jal	main	
28	0014	00000000		nop
29	0015	00000000		nop
30	0016	00000000		nop
31	0017	00000000		nop
32	0018	00000000		nop
33	0019	afa10000		sw	0(%GPR29), %GPR1
34	001a	0c000fc3		jal	exit
35	001b	00000000		nop
36	001c	00000000		nop
37			
38				;.addressing	Word
39			intToStr:
40			L_intToStr_1:
41	001d	00000000		nop
42	001e	00000000		nop
43	001f	00000000		nop
44				; Automatically 1 NOPs removed by reduceNOPs.sh
45	0020	afbefffc		sw	-4(%GPR29),%GPR30	
46	0021	afbf0000		sw	0(%GPR29),%GPR31	
47	0022	2fbe0004		subui	%GPR30,%GPR29,$4	
48	0023	00000000		nop
49	0024	2bbd0038		subi	%GPR29,%GPR29,$56	
50	0025	00000000		nop
51	0026	00000000		nop
52	0027	00000000		nop
53				; Automatically 1 NOPs removed by reduceNOPs.sh
54	0028	afc1ffdc		sw	-36(%GPR30),%GPR1	
55	0029	afc2ffd8		sw	-40(%GPR30),%GPR2	
56	002a	00000000		nop
57	002b	00000000		nop
58	002c	00000000		nop
59				; Automatically 5 NOPs removed by reduceNOPs.sh
60	002d	3c020000		lhi	%GPR2,$0	
61	002e	00000000		nop
62	002f	00000000		nop
63	0030	00000000		nop
64				; Automatically 1 NOPs removed by reduceNOPs.sh
65	0031	34420000		ori	%GPR2,%GPR2,$0	
66	0032	00000000		nop	;;8,10
67	0033	00000000		nop	;;8,10
68	0034	3c010000		lhi	%GPR1,$0	
69	0035	00000000		nop
70	0036	00000000		nop
71	0037	00000000		nop
72				; Automatically 1 NOPs removed by reduceNOPs.sh
73	0038	34210000		ori	%GPR1,%GPR1,$0	
74	0039	00000000		nop	;;10,12
75	003a	00000000		nop	;;10,12
76	003b	afc2ffd4		sw	-44(%GPR30),%GPR2	
77	003c	3c020000		lhi	%GPR2,$0	
78	003d	00000000		nop
79	003e	00000000		nop
80	003f	00000000		nop
81				; Automatically 1 NOPs removed by reduceNOPs.sh
82	0040	34420000		ori	%GPR2,%GPR2,$0	
83	0041	00000000		nop	;;13,17
84	0042	00000000		nop	;;13,17
85	0043	00000000		nop	;;13,17
86				; Automatically 1 NOPs removed by reduceNOPs.sh
87	0044	afc2ffd0		sw	-48(%GPR30),%GPR2	
88	0045	00000000		nop	; Automatically added by findLoadStoreProblem.sh
89	0046	00000000		nop	; Automatically added by fix-stall-insns.pl
90	0047	00000000		nop	; Automatically added by fix-stall-insns.pl
91	0048	00000000		nop	; Automatically added by fix-stall-insns.pl
92	0049	8fc2ffdc		lw	%GPR2,-36(%GPR30)	
93	004a	00000000		nop	;;18,22
94	004b	00000000		nop	;;18,22
95	004c	00000000		nop	;;18,22
96				; Automatically 1 NOPs removed by reduceNOPs.sh
97	004d	0041d82a		slt	%GPR27,%GPR2,%GPR1	
98	004e	00000000		nop	; Automatically added by findDataDependency.sh
99	004f	00000000		nop	; Automatically added by findDataDependency.sh
100	0050	00000000		nop	; Automatically added by findDataDependency.sh
101	0051	17600008		bnez	%GPR27,L_intToStr_2	
102	0052	00000000		nop
103	0053	00000000		nop
104	0054	00000000		nop
105				; Automatically 1 NOPs removed by reduceNOPs.sh
106	0055	08000034		j	L_intToStr_3	
107	0056	00000000		nop
108	0057	00000000		nop
109	0058	00000000		nop
110				; Automatically 1 NOPs removed by reduceNOPs.sh
111			L_intToStr_2:
112	0059	00000000		nop	; Automatically Added by addNopAfterLabels.pl
113	005a	8fc1ffdc		lw	%GPR1,-36(%GPR30)	
114	005b	00000000		nop	;;0,4
115	005c	00000000		nop	;;0,4
116	005d	00000000		nop	;;0,4
117				; Automatically 1 NOPs removed by reduceNOPs.sh
118	005e	00010822		sub	%GPR1,%GPR0,%GPR1	
119	005f	3c020000		lhi	%GPR2,$0	
120	0060	00000000		nop
121	0061	00000000		nop
122	0062	00000000		nop
123				; Automatically 1 NOPs removed by reduceNOPs.sh
124	0063	3442002d		ori	%GPR2,%GPR2,$45	
125	0064	00000000		nop	;;5,8
126	0065	00000000		nop	;;5,8
127	0066	00000000		nop	;;5,8
128	0067	afc1ffdc		sw	-36(%GPR30),%GPR1	
129	0068	00000000		nop	; Automatically added by findLoadStoreProblem.sh
130	0069	00000000		nop	; Automatically added by fix-stall-insns.pl
131	006a	00000000		nop	; Automatically added by fix-stall-insns.pl
132	006b	00000000		nop	; Automatically added by fix-stall-insns.pl
133	006c	8fc1ffd8		lw	%GPR1,-40(%GPR30)	
134	006d	00000000		nop
135	006e	00000000		nop
136	006f	00000000		nop
137				; Automatically 1 NOPs removed by reduceNOPs.sh
138	0070	2bbd0008		subi	%GPR29,%GPR29,$8	
139	0071	00000000		nop
140	0072	00000000		nop
141	0073	00000000		nop
142				; Automatically 1 NOPs removed by reduceNOPs.sh
143	0074	0c000475		jal	storeByte	
144	0075	00000000		nop
145	0076	00000000		nop
146	0077	00000000		nop
147				; Automatically 1 NOPs removed by reduceNOPs.sh
148	0078	23bd0008		addi	%GPR29,%GPR29,$8	
149	0079	00000000		nop
150	007a	00000000		nop
151	007b	00000000		nop
152				; Automatically 1 NOPs removed by reduceNOPs.sh
153	007c	8fc1ffd4		lw	%GPR1,-44(%GPR30)	
154	007d	00000000		nop	;;11,15
155	007e	00000000		nop	;;11,15
156	007f	00000000		nop	;;11,15
157				; Automatically 1 NOPs removed by reduceNOPs.sh
158	0080	20210001		addi	%GPR1,%GPR1,$1	
159	0081	00000000		nop	;;15,19
160	0082	00000000		nop	;;15,19
161	0083	00000000		nop	;;15,19
162				; Automatically 1 NOPs removed by reduceNOPs.sh
163	0084	afc1ffd4		sw	-44(%GPR30),%GPR1	
164	0085	08000042		j	L_intToStr_5	
165	0086	00000000		nop
166	0087	00000000		nop
167	0088	00000000		nop
168			L_intToStr_3:
169	0089	00000000		nop	; Automatically Added by addNopAfterLabels.pl
170	008a	8fc2ffdc		lw	%GPR2,-36(%GPR30)	
171	008b	00000000		nop	;;1,4
172	008c	00000000		nop	;;1,4
173	008d	00000000		nop	;;1,4
174	008e	3c010000		lhi	%GPR1,$0	
175	008f	00000000		nop
176	0090	00000000		nop
177	0091	00000000		nop
178				; Automatically 1 NOPs removed by reduceNOPs.sh
179	0092	34210000		ori	%GPR1,%GPR1,$0	
180	0093	00000000		nop	;;4,8
181	0094	00000000		nop	;;4,8
182	0095	00000000		nop	;;4,8
183				; Automatically 1 NOPs removed by reduceNOPs.sh
184	0096	0041d82e		seq	%GPR27,%GPR2,%GPR1	
185	0097	00000000		nop	; Automatically added by findDataDependency.sh
186	0098	00000000		nop	; Automatically added by findDataDependency.sh
187	0099	00000000		nop	; Automatically added by findDataDependency.sh
188	009a	17600008		bnez	%GPR27,L_intToStr_4	
189	009b	00000000		nop
190	009c	00000000		nop
191	009d	00000000		nop
192				; Automatically 1 NOPs removed by reduceNOPs.sh
193	009e	08000042		j	L_intToStr_6	
194	009f	00000000		nop
195	00a0	00000000		nop
196	00a1	00000000		nop
197				; Automatically 1 NOPs removed by reduceNOPs.sh
198			L_intToStr_4:
199	00a2	00000000		nop	; Automatically Added by addNopAfterLabels.pl
200	00a3	8fc1ffd8		lw	%GPR1,-40(%GPR30)	
201	00a4	00000000		nop	;;1,4
202	00a5	00000000		nop	;;1,4
203	00a6	00000000		nop	;;1,4
204	00a7	3c020000		lhi	%GPR2,$0	
205	00a8	00000000		nop
206	00a9	00000000		nop
207	00aa	00000000		nop
208				; Automatically 1 NOPs removed by reduceNOPs.sh
209	00ab	34420030		ori	%GPR2,%GPR2,$48	
210	00ac	00000000		nop
211	00ad	00000000		nop
212	00ae	00000000		nop
213				; Automatically 1 NOPs removed by reduceNOPs.sh
214	00af	2bbd0008		subi	%GPR29,%GPR29,$8	
215	00b0	00000000		nop
216	00b1	00000000		nop
217	00b2	00000000		nop
218				; Automatically 1 NOPs removed by reduceNOPs.sh
219	00b3	0c000436		jal	storeByte	
220	00b4	00000000		nop
221	00b5	00000000		nop
222	00b6	00000000		nop
223				; Automatically 1 NOPs removed by reduceNOPs.sh
224	00b7	23bd0008		addi	%GPR29,%GPR29,$8	
225	00b8	00000000		nop
226	00b9	00000000		nop
227	00ba	00000000		nop
228				; Automatically 1 NOPs removed by reduceNOPs.sh
229	00bb	8fc1ffd4		lw	%GPR1,-44(%GPR30)	
230	00bc	00000000		nop	;;6,10
231	00bd	00000000		nop	;;6,10
232	00be	00000000		nop	;;6,10
233				; Automatically 1 NOPs removed by reduceNOPs.sh
234	00bf	20210001		addi	%GPR1,%GPR1,$1	
235	00c0	00000000		nop	;;10,14
236	00c1	00000000		nop	;;10,14
237	00c2	00000000		nop	;;10,14
238				; Automatically 1 NOPs removed by reduceNOPs.sh
239	00c3	afc1ffd4		sw	-44(%GPR30),%GPR1	
240	00c4	00000000		nop
241	00c5	00000000		nop
242	00c6	00000000		nop
243			L_intToStr_5:
244	00c7	00000000		nop	; Automatically Added by addNopAfterLabels.pl
245	00c8	8fc2ffdc		lw	%GPR2,-36(%GPR30)	
246	00c9	00000000		nop	;;1,4
247	00ca	00000000		nop	;;1,4
248	00cb	00000000		nop	;;1,4
249	00cc	3c010000		lhi	%GPR1,$0	
250	00cd	00000000		nop
251	00ce	00000000		nop
252	00cf	00000000		nop
253				; Automatically 1 NOPs removed by reduceNOPs.sh
254	00d0	34210000		ori	%GPR1,%GPR1,$0	
255	00d1	00000000		nop	;;4,8
256	00d2	00000000		nop	;;4,8
257	00d3	00000000		nop	;;4,8
258				; Automatically 1 NOPs removed by reduceNOPs.sh
259	00d4	0041d82f		sne	%GPR27,%GPR2,%GPR1	
260	00d5	00000000		nop	; Automatically added by findDataDependency.sh
261	00d6	00000000		nop	; Automatically added by findDataDependency.sh
262	00d7	00000000		nop	; Automatically added by findDataDependency.sh
263	00d8	17600008		bnez	%GPR27,L_intToStr_6	
264	00d9	00000000		nop
265	00da	00000000		nop
266	00db	00000000		nop
267				; Automatically 1 NOPs removed by reduceNOPs.sh
268	00dc	08000046		j	L_intToStr_7	
269	00dd	00000000		nop
270	00de	00000000		nop
271	00df	00000000		nop
272				; Automatically 1 NOPs removed by reduceNOPs.sh
273			L_intToStr_6:
274	00e0	00000000		nop	; Automatically Added by addNopAfterLabels.pl
275	00e1	2bc10020		subi	%GPR1,%GPR30,$32	
276	00e2	8fc3ffd0		lw	%GPR3,-48(%GPR30)	
277	00e3	00000000		nop	;;1,5
278	00e4	00000000		nop	;;1,5
279	00e5	00000000		nop	;;1,5
280				; Automatically 1 NOPs removed by reduceNOPs.sh
281	00e6	00230820		add	%GPR1,%GPR1,%GPR3	
282	00e7	3c020000		lhi	%GPR2,$0	
283	00e8	00000000		nop
284	00e9	00000000		nop
285	00ea	00000000		nop
286				; Automatically 1 NOPs removed by reduceNOPs.sh
287	00eb	3442000a		ori	%GPR2,%GPR2,$10	
288	00ec	8fc3ffdc		lw	%GPR3,-36(%GPR30)	
289	00ed	00000000		nop	;;7,11
290	00ee	00000000		nop	;;7,11
291	00ef	00000000		nop	;;7,11
292				; Automatically 1 NOPs removed by reduceNOPs.sh
293	00f0	0062101c		MOD	%GPR2,%GPR3,%GPR2	
294	00f1	00000000		nop	;;11,15
295	00f2	00000000		nop	;;11,15
296	00f3	00000000		nop	;;11,15
297				; Automatically 1 NOPs removed by reduceNOPs.sh
298	00f4	20420030		addi	%GPR2,%GPR2,$48	
299	00f5	00000000		nop
300	00f6	00000000		nop
301	00f7	00000000		nop
302				; Automatically 1 NOPs removed by reduceNOPs.sh
303	00f8	2bbd0008		subi	%GPR29,%GPR29,$8	
304	00f9	00000000		nop
305	00fa	00000000		nop
306	00fb	00000000		nop
307				; Automatically 1 NOPs removed by reduceNOPs.sh
308	00fc	0c0003ed		jal	storeByte	
309	00fd	00000000		nop
310	00fe	00000000		nop
311	00ff	00000000		nop
312				; Automatically 1 NOPs removed by reduceNOPs.sh
313	0100	23bd0008		addi	%GPR29,%GPR29,$8	
314	0101	00000000		nop
315	0102	00000000		nop
316	0103	00000000		nop
317				; Automatically 1 NOPs removed by reduceNOPs.sh
318	0104	8fc1ffd0		lw	%GPR1,-48(%GPR30)	
319	0105	00000000		nop	;;17,19
320	0106	00000000		nop	;;17,19
321	0107	00000000		nop	; Automatically added by fix-stall-insns.pl
322	0108	00000000		nop	; Automatically added by fix-stall-insns.pl
323	0109	8fc2ffdc		lw	%GPR2,-36(%GPR30)	
324	010a	00000000		nop	;;19,21
325	010b	00000000		nop	;;19,21
326	010c	20210001		addi	%GPR1,%GPR1,$1	
327	010d	00000000		nop	;;21,25
328	010e	00000000		nop	;;21,25
329	010f	00000000		nop	;;21,25
330				; Automatically 1 NOPs removed by reduceNOPs.sh
331	0110	afc1ffd0		sw	-48(%GPR30),%GPR1	
332	0111	3c010000		lhi	%GPR1,$0	
333	0112	00000000		nop
334	0113	00000000		nop
335	0114	00000000		nop
336				; Automatically 1 NOPs removed by reduceNOPs.sh
337	0115	3421000a		ori	%GPR1,%GPR1,$10	
338	0116	00000000		nop	;;26,30
339	0117	00000000		nop	;;26,30
340	0118	00000000		nop	;;26,30
341				; Automatically 1 NOPs removed by reduceNOPs.sh
342	0119	0041081a		div	%GPR1,%GPR2,%GPR1	
343	011a	00000000		nop	;;30,34
344	011b	00000000		nop	;;30,34
345	011c	00000000		nop	;;30,34
346				; Automatically 1 NOPs removed by reduceNOPs.sh
347	011d	afc1ffdc		sw	-36(%GPR30),%GPR1	
348	011e	0bffffa9		j	L_intToStr_5	
349	011f	00000000		nop
350	0120	00000000		nop
351	0121	00000000		nop
352			L_intToStr_7:
353	0122	00000000		nop	; Automatically Added by addNopAfterLabels.pl
354	0123	8fc2ffd0		lw	%GPR2,-48(%GPR30)	
355	0124	00000000		nop	;;1,4
356	0125	00000000		nop	;;1,4
357	0126	00000000		nop	;;1,4
358	0127	3c010000		lhi	%GPR1,$0	
359	0128	00000000		nop
360	0129	00000000		nop
361	012a	00000000		nop
362				; Automatically 1 NOPs removed by reduceNOPs.sh
363	012b	34210000		ori	%GPR1,%GPR1,$0	
364	012c	00000000		nop	;;4,8
365	012d	00000000		nop	;;4,8
366	012e	00000000		nop	;;4,8
367				; Automatically 1 NOPs removed by reduceNOPs.sh
368	012f	0041d82b		sgt	%GPR27,%GPR2,%GPR1	
369	0130	00000000		nop	; Automatically added by findDataDependency.sh
370	0131	00000000		nop	; Automatically added by findDataDependency.sh
371	0132	00000000		nop	; Automatically added by findDataDependency.sh
372	0133	17600008		bnez	%GPR27,L_intToStr_8	
373	0134	00000000		nop
374	0135	00000000		nop
375	0136	00000000		nop
376				; Automatically 1 NOPs removed by reduceNOPs.sh
377	0137	08000042		j	L_intToStr_9	
378	0138	00000000		nop
379	0139	00000000		nop
380	013a	00000000		nop
381				; Automatically 1 NOPs removed by reduceNOPs.sh
382			L_intToStr_8:
383	013b	00000000		nop	; Automatically Added by addNopAfterLabels.pl
384	013c	8fc2ffd0		lw	%GPR2,-48(%GPR30)	
385	013d	2bc10020		subi	%GPR1,%GPR30,$32	
386	013e	00000000		nop	;;1,4
387	013f	00000000		nop	;;1,4
388	0140	00000000		nop	;;1,4
389	0141	28420001		subi	%GPR2,%GPR2,$1	
390	0142	00000000		nop	;;4,8
391	0143	00000000		nop	;;4,8
392	0144	00000000		nop	;;4,8
393				; Automatically 1 NOPs removed by reduceNOPs.sh
394	0145	00220820		add	%GPR1,%GPR1,%GPR2	
395	0146	afc2ffd0		sw	-48(%GPR30),%GPR2	
396	0147	00000000		nop	;;9,13
397	0148	00000000		nop	;;9,13
398	0149	00000000		nop	;;9,13
399				; Automatically 5 NOPs removed by reduceNOPs.sh
400	014a	2bbd0008		subi	%GPR29,%GPR29,$8	
401	014b	00000000		nop
402	014c	00000000		nop
403	014d	00000000		nop
404				; Automatically 1 NOPs removed by reduceNOPs.sh
405	014e	0c000305		jal	loadByteUnsigned	
406	014f	00000000		nop
407	0150	00000000		nop
408	0151	00000000		nop
409				; Automatically 1 NOPs removed by reduceNOPs.sh
410	0152	23bd0008		addi	%GPR29,%GPR29,$8	
411	0153	00000000		nop
412	0154	00000000		nop
413	0155	00000000		nop
414				; Automatically 1 NOPs removed by reduceNOPs.sh
415	0156	8fc1ffd8		lw	%GPR1,-40(%GPR30)	
416	0157	8fc3ffd4		lw	%GPR3,-44(%GPR30)	
417	0158	03801020		add	%GPR2,%GPR28,%GPR0	
418	0159	00000000		nop	;;16,19
419	015a	00000000		nop	;;16,19
420	015b	00000000		nop	;;16,19
421	015c	00230820		add	%GPR1,%GPR1,%GPR3	
422	015d	00000000		nop
423	015e	00000000		nop
424	015f	00000000		nop
425				; Automatically 1 NOPs removed by reduceNOPs.sh
426	0160	2bbd0008		subi	%GPR29,%GPR29,$8	
427	0161	00000000		nop
428	0162	00000000		nop
429	0163	00000000		nop
430				; Automatically 1 NOPs removed by reduceNOPs.sh
431	0164	0c000385		jal	storeByte	
432	0165	00000000		nop
433	0166	00000000		nop
434	0167	00000000		nop
435				; Automatically 1 NOPs removed by reduceNOPs.sh
436	0168	23bd0008		addi	%GPR29,%GPR29,$8	
437	0169	00000000		nop
438	016a	00000000		nop
439	016b	00000000		nop
440				; Automatically 1 NOPs removed by reduceNOPs.sh
441	016c	8fc1ffd4		lw	%GPR1,-44(%GPR30)	
442	016d	00000000		nop	;;21,25
443	016e	00000000		nop	;;21,25
444	016f	00000000		nop	;;21,25
445				; Automatically 1 NOPs removed by reduceNOPs.sh
446	0170	20210001		addi	%GPR1,%GPR1,$1	
447	0171	00000000		nop	;;25,29
448	0172	00000000		nop	;;25,29
449	0173	00000000		nop	;;25,29
450				; Automatically 1 NOPs removed by reduceNOPs.sh
451	0174	afc1ffd4		sw	-44(%GPR30),%GPR1	
452	0175	0bffffad		j	L_intToStr_7	
453	0176	00000000		nop
454	0177	00000000		nop
455	0178	00000000		nop
456			L_intToStr_9:
457	0179	00000000		nop	; Automatically Added by addNopAfterLabels.pl
458	017a	8fc1ffd8		lw	%GPR1,-40(%GPR30)	
459	017b	8fc2ffd4		lw	%GPR2,-44(%GPR30)	
460	017c	00000000		nop	;;1,5
461	017d	00000000		nop	;;1,5
462	017e	00000000		nop	;;1,5
463				; Automatically 1 NOPs removed by reduceNOPs.sh
464	017f	00220820		add	%GPR1,%GPR1,%GPR2	
465	0180	3c020000		lhi	%GPR2,$0	
466	0181	00000000		nop
467	0182	00000000		nop
468	0183	00000000		nop
469				; Automatically 1 NOPs removed by reduceNOPs.sh
470	0184	34420000		ori	%GPR2,%GPR2,$0	
471	0185	00000000		nop
472	0186	00000000		nop
473	0187	00000000		nop
474				; Automatically 1 NOPs removed by reduceNOPs.sh
475	0188	2bbd0008		subi	%GPR29,%GPR29,$8	
476	0189	00000000		nop
477	018a	00000000		nop
478	018b	00000000		nop
479				; Automatically 1 NOPs removed by reduceNOPs.sh
480	018c	0c00035d		jal	storeByte	
481	018d	00000000		nop
482	018e	00000000		nop
483	018f	00000000		nop
484				; Automatically 1 NOPs removed by reduceNOPs.sh
485	0190	23bd0008		addi	%GPR29,%GPR29,$8	
486	0191	00000000		nop
487	0192	00000000		nop
488	0193	00000000		nop
489				; Automatically 6 NOPs removed by reduceNOPs.sh
490	0194	3c1c0000		lhi	%GPR28,$0	
491	0195	00000000		nop
492	0196	00000000		nop
493	0197	00000000		nop
494				; Automatically 1 NOPs removed by reduceNOPs.sh
495	0198	379c0000		ori	%GPR28,%GPR28,$0	
496	0199	00000000		nop	;;12,16
497	019a	00000000		nop	;;12,16
498	019b	00000000		nop	;;12,16
499				; Automatically 1 NOPs removed by reduceNOPs.sh
500	019c	08000004		j	L_intToStr_10	
501	019d	00000000		nop
502	019e	00000000		nop
503	019f	00000000		nop
504				; Automatically 1 NOPs removed by reduceNOPs.sh
505			L_intToStr_10:
506	01a0	00000000		nop
507	01a1	00000000		nop
508	01a2	00000000		nop
509				; Automatically 1 NOPs removed by reduceNOPs.sh
510	01a3	8fdf0004		lw	%GPR31,4(%GPR30)	
511	01a4	27dd0004		addui	%GPR29,%GPR30,$4	
512	01a5	00000000		nop	; Automatically added by fix-stall-insns.pl
513	01a6	00000000		nop	; Automatically added by fix-stall-insns.pl
514	01a7	00000000		nop	; Automatically added by fix-stall-insns.pl
515	01a8	8fde0000		lw	%GPR30,0(%GPR30)	
516	01a9	00000000		nop
517	01aa	00000000		nop
518	01ab	00000000		nop
519	01ac	00000000		nop	; Automatically added by fix-stall-insns.pl
520	01ad	00000000		nop
521	01ae	03e00008		jr	%GPR31	
522	01af	00000000		nop
523	01b0	00000000		nop
524	01b1	00000000		nop
525				.section	.data
526				.section	.text
527				.addressing	Word
528				;.addressing	Word
529			checkbuffer:
530			L_lib_lcd_dlxsim_1:
531	01b2	00000000		nop
532	01b3	00000000		nop
533	01b4	00000000		nop
534				; Automatically 1 NOPs removed by reduceNOPs.sh
535	01b5	afbefffc		sw	-4(%GPR29),%GPR30	
536	01b6	afbf0000		sw	0(%GPR29),%GPR31	
537	01b7	2fbe0004		subui	%GPR30,%GPR29,$4	
538	01b8	00000000		nop
539	01b9	2bbd0008		subi	%GPR29,%GPR29,$8	
540	01ba	00000000		nop
541	01bb	00000000		nop
542	01bc	00000000		nop
543				; Automatically 9 NOPs removed by reduceNOPs.sh
544	01bd	3c1c0000		lhi	%GPR28,$0	
545	01be	00000000		nop
546	01bf	00000000		nop
547	01c0	00000000		nop
548				; Automatically 1 NOPs removed by reduceNOPs.sh
549	01c1	379c0000		ori	%GPR28,%GPR28,$0	
550	01c2	00000000		nop	;;6,10
551	01c3	00000000		nop	;;6,10
552	01c4	00000000		nop	;;6,10
553				; Automatically 1 NOPs removed by reduceNOPs.sh
554	01c5	08000004		j	L_lib_lcd_dlxsim_2	
555	01c6	00000000		nop
556	01c7	00000000		nop
557	01c8	00000000		nop
558				; Automatically 1 NOPs removed by reduceNOPs.sh
559			L_lib_lcd_dlxsim_2:
560	01c9	00000000		nop
561	01ca	00000000		nop
562	01cb	00000000		nop
563				; Automatically 1 NOPs removed by reduceNOPs.sh
564	01cc	8fdf0004		lw	%GPR31,4(%GPR30)	
565	01cd	27dd0004		addui	%GPR29,%GPR30,$4	
566	01ce	00000000		nop	; Automatically added by fix-stall-insns.pl
567	01cf	00000000		nop	; Automatically added by fix-stall-insns.pl
568	01d0	00000000		nop	; Automatically added by fix-stall-insns.pl
569	01d1	8fde0000		lw	%GPR30,0(%GPR30)	
570	01d2	00000000		nop
571	01d3	00000000		nop
572	01d4	00000000		nop
573	01d5	00000000		nop	; Automatically added by fix-stall-insns.pl
574	01d6	00000000		nop
575	01d7	03e00008		jr	%GPR31	
576	01d8	00000000		nop
577	01d9	00000000		nop
578	01da	00000000		nop
579				; Automatically 1 NOPs removed by reduceNOPs.sh
580			getbytes:
581			L_lib_lcd_dlxsim_3:
582	01db	00000000		nop
583	01dc	00000000		nop
584	01dd	00000000		nop
585				; Automatically 1 NOPs removed by reduceNOPs.sh
586	01de	afbefffc		sw	-4(%GPR29),%GPR30	
587	01df	afbf0000		sw	0(%GPR29),%GPR31	
588	01e0	2fbe0004		subui	%GPR30,%GPR29,$4	
589	01e1	00000000		nop
590	01e2	2bbd0008		subi	%GPR29,%GPR29,$8	
591	01e3	00000000		nop
592	01e4	00000000		nop
593	01e5	00000000		nop
594				; Automatically 11 NOPs removed by reduceNOPs.sh
595	01e6	3c1c0000		lhi	%GPR28,$0	
596	01e7	00000000		nop
597	01e8	00000000		nop
598	01e9	00000000		nop
599				; Automatically 1 NOPs removed by reduceNOPs.sh
600	01ea	379c0000		ori	%GPR28,%GPR28,$0	
601	01eb	00000000		nop	;;7,11
602	01ec	00000000		nop	;;7,11
603	01ed	00000000		nop	;;7,11
604				; Automatically 1 NOPs removed by reduceNOPs.sh
605	01ee	08000004		j	L_lib_lcd_dlxsim_4	
606	01ef	00000000		nop
607	01f0	00000000		nop
608	01f1	00000000		nop
609				; Automatically 1 NOPs removed by reduceNOPs.sh
610			L_lib_lcd_dlxsim_4:
611	01f2	00000000		nop
612	01f3	00000000		nop
613	01f4	00000000		nop
614				; Automatically 1 NOPs removed by reduceNOPs.sh
615	01f5	8fdf0004		lw	%GPR31,4(%GPR30)	
616	01f6	27dd0004		addui	%GPR29,%GPR30,$4	
617	01f7	00000000		nop	; Automatically added by fix-stall-insns.pl
618	01f8	00000000		nop	; Automatically added by fix-stall-insns.pl
619	01f9	00000000		nop	; Automatically added by fix-stall-insns.pl
620	01fa	8fde0000		lw	%GPR30,0(%GPR30)	
621	01fb	00000000		nop
622	01fc	00000000		nop
623	01fd	00000000		nop
624	01fe	00000000		nop	; Automatically added by fix-stall-insns.pl
625	01ff	00000000		nop
626	0200	03e00008		jr	%GPR31	
627	0201	00000000		nop
628	0202	00000000		nop
629	0203	00000000		nop
630				; Automatically 1 NOPs removed by reduceNOPs.sh
631			sendcommand:
632			L_lib_lcd_dlxsim_5:
633	0204	00000000		nop
634	0205	00000000		nop
635	0206	00000000		nop
636				; Automatically 1 NOPs removed by reduceNOPs.sh
637	0207	afbefffc		sw	-4(%GPR29),%GPR30	
638	0208	afbf0000		sw	0(%GPR29),%GPR31	
639	0209	2fbe0004		subui	%GPR30,%GPR29,$4	
640	020a	00000000		nop
641	020b	2bbd0008		subi	%GPR29,%GPR29,$8	
642	020c	00000000		nop
643	020d	00000000		nop
644	020e	00000000		nop
645				; Automatically 11 NOPs removed by reduceNOPs.sh
646	020f	3c1c0000		lhi	%GPR28,$0	
647	0210	00000000		nop
648	0211	00000000		nop
649	0212	00000000		nop
650				; Automatically 1 NOPs removed by reduceNOPs.sh
651	0213	379c0000		ori	%GPR28,%GPR28,$0	
652	0214	00000000		nop	;;7,11
653	0215	00000000		nop	;;7,11
654	0216	00000000		nop	;;7,11
655				; Automatically 1 NOPs removed by reduceNOPs.sh
656	0217	08000004		j	L_lib_lcd_dlxsim_6	
657	0218	00000000		nop
658	0219	00000000		nop
659	021a	00000000		nop
660				; Automatically 1 NOPs removed by reduceNOPs.sh
661			L_lib_lcd_dlxsim_6:
662	021b	00000000		nop
663	021c	00000000		nop
664	021d	00000000		nop
665				; Automatically 1 NOPs removed by reduceNOPs.sh
666	021e	8fdf0004		lw	%GPR31,4(%GPR30)	
667	021f	27dd0004		addui	%GPR29,%GPR30,$4	
668	0220	00000000		nop	; Automatically added by fix-stall-insns.pl
669	0221	00000000		nop	; Automatically added by fix-stall-insns.pl
670	0222	00000000		nop	; Automatically added by fix-stall-insns.pl
671	0223	8fde0000		lw	%GPR30,0(%GPR30)	
672	0224	00000000		nop
673	0225	00000000		nop
674	0226	00000000		nop
675	0227	00000000		nop	; Automatically added by fix-stall-insns.pl
676	0228	00000000		nop
677	0229	03e00008		jr	%GPR31	
678	022a	00000000		nop
679	022b	00000000		nop
680	022c	00000000		nop
681				; Automatically 1 NOPs removed by reduceNOPs.sh
682			t_print:
683			L_lib_lcd_dlxsim_7:
684	022d	00000000		nop
685	022e	00000000		nop
686	022f	00000000		nop
687				; Automatically 1 NOPs removed by reduceNOPs.sh
688	0230	afbefffc		sw	-4(%GPR29),%GPR30	
689	0231	afbf0000		sw	0(%GPR29),%GPR31	
690	0232	2fbe0004		subui	%GPR30,%GPR29,$4	
691	0233	00000000		nop
692	0234	2bbd0008		subi	%GPR29,%GPR29,$8	
693	0235	00000000		nop
694	0236	00000000		nop
695	0237	00000000		nop
696				; Automatically 6 NOPs removed by reduceNOPs.sh
697			
698			
699	0238	3c020200		lhi	%GPR2, $0x200
700	0239	00000000		nop
701	023a	00000000		nop
702	023b	00000000		nop
703			
704	023c	00000000		nop
705	023d	00000000		nop
706	023e	00000000		nop
707			L_lib_lcd_dlxsim_8:
708	023f	00000000		nop	; Automatically Added by addNopAfterLabels.pl
709	0240	80230000		lb	%GPR3,0(%GPR1)	
710	0241	00000000		nop	;;1,4
711	0242	00000000		nop	;;1,4
712	0243	00000000		nop	;;1,4
713	0244	3c040000		lhi	%GPR4,$0	
714	0245	00000000		nop
715	0246	00000000		nop
716	0247	00000000		nop
717				; Automatically 1 NOPs removed by reduceNOPs.sh
718	0248	34840000		ori	%GPR4,%GPR4,$0	
719	0249	00000000		nop	;;4,8
720	024a	00000000		nop	;;4,8
721	024b	00000000		nop	;;4,8
722				; Automatically 1 NOPs removed by reduceNOPs.sh
723	024c	0064d82f		sne	%GPR27,%GPR3,%GPR4	
724	024d	00000000		nop	; Automatically added by findDataDependency.sh
725	024e	00000000		nop	; Automatically added by findDataDependency.sh
726	024f	00000000		nop	; Automatically added by findDataDependency.sh
727	0250	17600008		bnez	%GPR27,L_lib_lcd_dlxsim_9	
728	0251	00000000		nop
729	0252	00000000		nop
730	0253	00000000		nop
731				; Automatically 1 NOPs removed by reduceNOPs.sh
732	0254	0800001b		j	L_lib_lcd_dlxsim_10	
733	0255	00000000		nop
734	0256	00000000		nop
735	0257	00000000		nop
736				; Automatically 1 NOPs removed by reduceNOPs.sh
737			L_lib_lcd_dlxsim_9:
738	0258	00000000		nop	; Automatically Added by addNopAfterLabels.pl
739	0259	00201820		add	%GPR3,%GPR1,%GPR0	
740	025a	00000000		nop	;;0,4
741	025b	00000000		nop	;;0,4
742	025c	00000000		nop	;;0,4
743				; Automatically 1 NOPs removed by reduceNOPs.sh
744	025d	80630000		lb	%GPR3,0(%GPR3)	
745	025e	3c040000		lhi	%GPR4,$0	
746	025f	00000000		nop
747	0260	00000000		nop
748	0261	00000000		nop
749				; Automatically 1 NOPs removed by reduceNOPs.sh
750	0262	34840001		ori	%GPR4,%GPR4,$1	
751	0263	00000000		nop	;;5,9
752	0264	00000000		nop	;;5,9
753	0265	00000000		nop	;;5,9
754				; Automatically 1 NOPs removed by reduceNOPs.sh
755	0266	00240820		add	%GPR1,%GPR1,%GPR4	
756			
757			
758	0267	00000000		nop
759	0268	00000000		nop
760	0269	00000000		nop
761	026a	ac430000		sw	0(%GPR2), %GPR3
762			
763	026b	0bffffd4		j	L_lib_lcd_dlxsim_8	
764	026c	00000000		nop
765	026d	00000000		nop
766	026e	00000000		nop
767			L_lib_lcd_dlxsim_10:
768	026f	00000000		nop	;;0,4
769	0270	00000000		nop	;;0,4
770	0271	00000000		nop	;;0,4
771				; Automatically 1 NOPs removed by reduceNOPs.sh
772	0272	3c1c0000		lhi	%GPR28,$0	
773	0273	00000000		nop
774	0274	00000000		nop
775	0275	00000000		nop
776				; Automatically 1 NOPs removed by reduceNOPs.sh
777	0276	379c0000		ori	%GPR28,%GPR28,$0	
778	0277	00000000		nop	;;4,8
779	0278	00000000		nop	;;4,8
780	0279	00000000		nop	;;4,8
781				; Automatically 1 NOPs removed by reduceNOPs.sh
782	027a	08000004		j	L_lib_lcd_dlxsim_11	
783	027b	00000000		nop
784	027c	00000000		nop
785	027d	00000000		nop
786				; Automatically 1 NOPs removed by reduceNOPs.sh
787			L_lib_lcd_dlxsim_11:
788	027e	00000000		nop
789	027f	00000000		nop
790	0280	00000000		nop
791				; Automatically 1 NOPs removed by reduceNOPs.sh
792	0281	8fdf0004		lw	%GPR31,4(%GPR30)	
793	0282	27dd0004		addui	%GPR29,%GPR30,$4	
794	0283	00000000		nop	; Automatically added by fix-stall-insns.pl
795	0284	00000000		nop	; Automatically added by fix-stall-insns.pl
796	0285	00000000		nop	; Automatically added by fix-stall-insns.pl
797	0286	8fde0000		lw	%GPR30,0(%GPR30)	
798	0287	00000000		nop
799	0288	00000000		nop
800	0289	00000000		nop
801	028a	00000000		nop	; Automatically added by fix-stall-insns.pl
802	028b	00000000		nop
803	028c	03e00008		jr	%GPR31	
804	028d	00000000		nop
805	028e	00000000		nop
806	028f	00000000		nop
807				; Automatically 1 NOPs removed by reduceNOPs.sh
808			t_cursor:
809			L_lib_lcd_dlxsim_12:
810	0290	00000000		nop
811	0291	00000000		nop
812	0292	00000000		nop
813				; Automatically 1 NOPs removed by reduceNOPs.sh
814	0293	afbefffc		sw	-4(%GPR29),%GPR30	
815	0294	afbf0000		sw	0(%GPR29),%GPR31	
816	0295	2fbe0004		subui	%GPR30,%GPR29,$4	
817	0296	00000000		nop
818	0297	2bbd0008		subi	%GPR29,%GPR29,$8	
819	0298	00000000		nop
820	0299	00000000		nop
821	029a	00000000		nop
822				; Automatically 11 NOPs removed by reduceNOPs.sh
823	029b	3c1c0000		lhi	%GPR28,$0	
824	029c	00000000		nop
825	029d	00000000		nop
826	029e	00000000		nop
827				; Automatically 1 NOPs removed by reduceNOPs.sh
828	029f	379c0000		ori	%GPR28,%GPR28,$0	
829	02a0	00000000		nop	;;7,11
830	02a1	00000000		nop	;;7,11
831	02a2	00000000		nop	;;7,11
832				; Automatically 1 NOPs removed by reduceNOPs.sh
833	02a3	08000004		j	L_lib_lcd_dlxsim_13	
834	02a4	00000000		nop
835	02a5	00000000		nop
836	02a6	00000000		nop
837				; Automatically 1 NOPs removed by reduceNOPs.sh
838			L_lib_lcd_dlxsim_13:
839	02a7	00000000		nop
840	02a8	00000000		nop
841	02a9	00000000		nop
842				; Automatically 1 NOPs removed by reduceNOPs.sh
843	02aa	8fdf0004		lw	%GPR31,4(%GPR30)	
844	02ab	27dd0004		addui	%GPR29,%GPR30,$4	
845	02ac	00000000		nop	; Automatically added by fix-stall-insns.pl
846	02ad	00000000		nop	; Automatically added by fix-stall-insns.pl
847	02ae	00000000		nop	; Automatically added by fix-stall-insns.pl
848	02af	8fde0000		lw	%GPR30,0(%GPR30)	
849	02b0	00000000		nop
850	02b1	00000000		nop
851	02b2	00000000		nop
852	02b3	00000000		nop	; Automatically added by fix-stall-insns.pl
853	02b4	00000000		nop
854	02b5	03e00008		jr	%GPR31	
855	02b6	00000000		nop
856	02b7	00000000		nop
857	02b8	00000000		nop
858				; Automatically 1 NOPs removed by reduceNOPs.sh
859			t_enable:
860			L_lib_lcd_dlxsim_14:
861	02b9	00000000		nop
862	02ba	00000000		nop
863	02bb	00000000		nop
864				; Automatically 1 NOPs removed by reduceNOPs.sh
865	02bc	afbefffc		sw	-4(%GPR29),%GPR30	
866	02bd	afbf0000		sw	0(%GPR29),%GPR31	
867	02be	2fbe0004		subui	%GPR30,%GPR29,$4	
868	02bf	00000000		nop
869	02c0	2bbd0008		subi	%GPR29,%GPR29,$8	
870	02c1	00000000		nop
871	02c2	00000000		nop
872	02c3	00000000		nop
873				; Automatically 11 NOPs removed by reduceNOPs.sh
874	02c4	3c1c0000		lhi	%GPR28,$0	
875	02c5	00000000		nop
876	02c6	00000000		nop
877	02c7	00000000		nop
878				; Automatically 1 NOPs removed by reduceNOPs.sh
879	02c8	379c0000		ori	%GPR28,%GPR28,$0	
880	02c9	00000000		nop	;;7,11
881	02ca	00000000		nop	;;7,11
882	02cb	00000000		nop	;;7,11
883				; Automatically 1 NOPs removed by reduceNOPs.sh
884	02cc	08000004		j	L_lib_lcd_dlxsim_15	
885	02cd	00000000		nop
886	02ce	00000000		nop
887	02cf	00000000		nop
888				; Automatically 1 NOPs removed by reduceNOPs.sh
889			L_lib_lcd_dlxsim_15:
890	02d0	00000000		nop
891	02d1	00000000		nop
892	02d2	00000000		nop
893				; Automatically 1 NOPs removed by reduceNOPs.sh
894	02d3	8fdf0004		lw	%GPR31,4(%GPR30)	
895	02d4	27dd0004		addui	%GPR29,%GPR30,$4	
896	02d5	00000000		nop	; Automatically added by fix-stall-insns.pl
897	02d6	00000000		nop	; Automatically added by fix-stall-insns.pl
898	02d7	00000000		nop	; Automatically added by fix-stall-insns.pl
899	02d8	8fde0000		lw	%GPR30,0(%GPR30)	
900	02d9	00000000		nop
901	02da	00000000		nop
902	02db	00000000		nop
903	02dc	00000000		nop	; Automatically added by fix-stall-insns.pl
904	02dd	00000000		nop
905	02de	03e00008		jr	%GPR31	
906	02df	00000000		nop
907	02e0	00000000		nop
908	02e1	00000000		nop
909				; Automatically 1 NOPs removed by reduceNOPs.sh
910			g_print:
911			L_lib_lcd_dlxsim_16:
912	02e2	00000000		nop
913	02e3	00000000		nop
914	02e4	00000000		nop
915				; Automatically 1 NOPs removed by reduceNOPs.sh
916	02e5	afbefffc		sw	-4(%GPR29),%GPR30	
917	02e6	afbf0000		sw	0(%GPR29),%GPR31	
918	02e7	2fbe0004		subui	%GPR30,%GPR29,$4	
919	02e8	00000000		nop
920	02e9	2bbd0008		subi	%GPR29,%GPR29,$8	
921	02ea	00000000		nop
922	02eb	00000000		nop
923	02ec	00000000		nop
924				; Automatically 11 NOPs removed by reduceNOPs.sh
925	02ed	3c1c0000		lhi	%GPR28,$0	
926	02ee	00000000		nop
927	02ef	00000000		nop
928	02f0	00000000		nop
929				; Automatically 1 NOPs removed by reduceNOPs.sh
930	02f1	379c0000		ori	%GPR28,%GPR28,$0	
931	02f2	00000000		nop	;;7,11
932	02f3	00000000		nop	;;7,11
933	02f4	00000000		nop	;;7,11
934				; Automatically 1 NOPs removed by reduceNOPs.sh
935	02f5	08000004		j	L_lib_lcd_dlxsim_17	
936	02f6	00000000		nop
937	02f7	00000000		nop
938	02f8	00000000		nop
939				; Automatically 1 NOPs removed by reduceNOPs.sh
940			L_lib_lcd_dlxsim_17:
941	02f9	00000000		nop
942	02fa	00000000		nop
943	02fb	00000000		nop
944				; Automatically 1 NOPs removed by reduceNOPs.sh
945	02fc	8fdf0004		lw	%GPR31,4(%GPR30)	
946	02fd	27dd0004		addui	%GPR29,%GPR30,$4	
947	02fe	00000000		nop	; Automatically added by fix-stall-insns.pl
948	02ff	00000000		nop	; Automatically added by fix-stall-insns.pl
949	0300	00000000		nop	; Automatically added by fix-stall-insns.pl
950	0301	8fde0000		lw	%GPR30,0(%GPR30)	
951	0302	00000000		nop
952	0303	00000000		nop
953	0304	00000000		nop
954	0305	00000000		nop	; Automatically added by fix-stall-insns.pl
955	0306	00000000		nop
956	0307	03e00008		jr	%GPR31	
957	0308	00000000		nop
958	0309	00000000		nop
959	030a	00000000		nop
960				; Automatically 1 NOPs removed by reduceNOPs.sh
961			g_drawrect:
962			L_lib_lcd_dlxsim_18:
963	030b	00000000		nop
964	030c	00000000		nop
965	030d	00000000		nop
966				; Automatically 1 NOPs removed by reduceNOPs.sh
967	030e	afbefffc		sw	-4(%GPR29),%GPR30	
968	030f	afbf0000		sw	0(%GPR29),%GPR31	
969	0310	2fbe0004		subui	%GPR30,%GPR29,$4	
970	0311	00000000		nop
971	0312	2bbd0008		subi	%GPR29,%GPR29,$8	
972	0313	00000000		nop
973	0314	00000000		nop
974	0315	00000000		nop
975				; Automatically 11 NOPs removed by reduceNOPs.sh
976	0316	3c1c0000		lhi	%GPR28,$0	
977	0317	00000000		nop
978	0318	00000000		nop
979	0319	00000000		nop
980				; Automatically 1 NOPs removed by reduceNOPs.sh
981	031a	379c0000		ori	%GPR28,%GPR28,$0	
982	031b	00000000		nop	;;7,11
983	031c	00000000		nop	;;7,11
984	031d	00000000		nop	;;7,11
985				; Automatically 1 NOPs removed by reduceNOPs.sh
986	031e	08000004		j	L_lib_lcd_dlxsim_19	
987	031f	00000000		nop
988	0320	00000000		nop
989	0321	00000000		nop
990				; Automatically 1 NOPs removed by reduceNOPs.sh
991			L_lib_lcd_dlxsim_19:
992	0322	00000000		nop
993	0323	00000000		nop
994	0324	00000000		nop
995				; Automatically 1 NOPs removed by reduceNOPs.sh
996	0325	8fdf0004		lw	%GPR31,4(%GPR30)	
997	0326	27dd0004		addui	%GPR29,%GPR30,$4	
998	0327	00000000		nop	; Automatically added by fix-stall-insns.pl
999	0328	00000000		nop	; Automatically added by fix-stall-insns.pl
1000	0329	00000000		nop	; Automatically added by fix-stall-insns.pl
1001	032a	8fde0000		lw	%GPR30,0(%GPR30)	
1002	032b	00000000		nop
1003	032c	00000000		nop
1004	032d	00000000		nop
1005	032e	00000000		nop	; Automatically added by fix-stall-insns.pl
1006	032f	00000000		nop
1007	0330	03e00008		jr	%GPR31	
1008	0331	00000000		nop
1009	0332	00000000		nop
1010	0333	00000000		nop
1011				; Automatically 1 NOPs removed by reduceNOPs.sh
1012			g_drawline:
1013			L_lib_lcd_dlxsim_20:
1014	0334	00000000		nop
1015	0335	00000000		nop
1016	0336	00000000		nop
1017				; Automatically 1 NOPs removed by reduceNOPs.sh
1018	0337	afbefffc		sw	-4(%GPR29),%GPR30	
1019	0338	afbf0000		sw	0(%GPR29),%GPR31	
1020	0339	2fbe0004		subui	%GPR30,%GPR29,$4	
1021	033a	00000000		nop
1022	033b	2bbd0008		subi	%GPR29,%GPR29,$8	
1023	033c	00000000		nop
1024	033d	00000000		nop
1025	033e	00000000		nop
1026				; Automatically 11 NOPs removed by reduceNOPs.sh
1027	033f	3c1c0000		lhi	%GPR28,$0	
1028	0340	00000000		nop
1029	0341	00000000		nop
1030	0342	00000000		nop
1031				; Automatically 1 NOPs removed by reduceNOPs.sh
1032	0343	379c0000		ori	%GPR28,%GPR28,$0	
1033	0344	00000000		nop	;;7,11
1034	0345	00000000		nop	;;7,11
1035	0346	00000000		nop	;;7,11
1036				; Automatically 1 NOPs removed by reduceNOPs.sh
1037	0347	08000004		j	L_lib_lcd_dlxsim_21	
1038	0348	00000000		nop
1039	0349	00000000		nop
1040	034a	00000000		nop
1041				; Automatically 1 NOPs removed by reduceNOPs.sh
1042			L_lib_lcd_dlxsim_21:
1043	034b	00000000		nop
1044	034c	00000000		nop
1045	034d	00000000		nop
1046				; Automatically 1 NOPs removed by reduceNOPs.sh
1047	034e	8fdf0004		lw	%GPR31,4(%GPR30)	
1048	034f	27dd0004		addui	%GPR29,%GPR30,$4	
1049	0350	00000000		nop	; Automatically added by fix-stall-insns.pl
1050	0351	00000000		nop	; Automatically added by fix-stall-insns.pl
1051	0352	00000000		nop	; Automatically added by fix-stall-insns.pl
1052	0353	8fde0000		lw	%GPR30,0(%GPR30)	
1053	0354	00000000		nop
1054	0355	00000000		nop
1055	0356	00000000		nop
1056	0357	00000000		nop	; Automatically added by fix-stall-insns.pl
1057	0358	00000000		nop
1058	0359	03e00008		jr	%GPR31	
1059	035a	00000000		nop
1060	035b	00000000		nop
1061	035c	00000000		nop
1062				; Automatically 1 NOPs removed by reduceNOPs.sh
1063			g_makebar:
1064			L_lib_lcd_dlxsim_22:
1065	035d	00000000		nop
1066	035e	00000000		nop
1067	035f	00000000		nop
1068				; Automatically 1 NOPs removed by reduceNOPs.sh
1069	0360	afbefffc		sw	-4(%GPR29),%GPR30	
1070	0361	afbf0000		sw	0(%GPR29),%GPR31	
1071	0362	2fbe0004		subui	%GPR30,%GPR29,$4	
1072	0363	00000000		nop
1073	0364	2bbd0008		subi	%GPR29,%GPR29,$8	
1074	0365	00000000		nop
1075	0366	00000000		nop
1076	0367	00000000		nop
1077				; Automatically 11 NOPs removed by reduceNOPs.sh
1078	0368	3c1c0000		lhi	%GPR28,$0	
1079	0369	00000000		nop
1080	036a	00000000		nop
1081	036b	00000000		nop
1082				; Automatically 1 NOPs removed by reduceNOPs.sh
1083	036c	379c0000		ori	%GPR28,%GPR28,$0	
1084	036d	00000000		nop	;;7,11
1085	036e	00000000		nop	;;7,11
1086	036f	00000000		nop	;;7,11
1087				; Automatically 1 NOPs removed by reduceNOPs.sh
1088	0370	08000004		j	L_lib_lcd_dlxsim_23	
1089	0371	00000000		nop
1090	0372	00000000		nop
1091	0373	00000000		nop
1092				; Automatically 1 NOPs removed by reduceNOPs.sh
1093			L_lib_lcd_dlxsim_23:
1094	0374	00000000		nop
1095	0375	00000000		nop
1096	0376	00000000		nop
1097				; Automatically 1 NOPs removed by reduceNOPs.sh
1098	0377	8fdf0004		lw	%GPR31,4(%GPR30)	
1099	0378	27dd0004		addui	%GPR29,%GPR30,$4	
1100	0379	00000000		nop	; Automatically added by fix-stall-insns.pl
1101	037a	00000000		nop	; Automatically added by fix-stall-insns.pl
1102	037b	00000000		nop	; Automatically added by fix-stall-insns.pl
1103	037c	8fde0000		lw	%GPR30,0(%GPR30)	
1104	037d	00000000		nop
1105	037e	00000000		nop
1106	037f	00000000		nop
1107	0380	00000000		nop	; Automatically added by fix-stall-insns.pl
1108	0381	00000000		nop
1109	0382	03e00008		jr	%GPR31	
1110	0383	00000000		nop
1111	0384	00000000		nop
1112	0385	00000000		nop
1113				; Automatically 1 NOPs removed by reduceNOPs.sh
1114			g_setbar:
1115			L_lib_lcd_dlxsim_24:
1116	0386	00000000		nop
1117	0387	00000000		nop
1118	0388	00000000		nop
1119				; Automatically 1 NOPs removed by reduceNOPs.sh
1120	0389	afbefffc		sw	-4(%GPR29),%GPR30	
1121	038a	afbf0000		sw	0(%GPR29),%GPR31	
1122	038b	2fbe0004		subui	%GPR30,%GPR29,$4	
1123	038c	00000000		nop
1124	038d	2bbd0008		subi	%GPR29,%GPR29,$8	
1125	038e	00000000		nop
1126	038f	00000000		nop
1127	0390	00000000		nop
1128				; Automatically 11 NOPs removed by reduceNOPs.sh
1129	0391	3c1c0000		lhi	%GPR28,$0	
1130	0392	00000000		nop
1131	0393	00000000		nop
1132	0394	00000000		nop
1133				; Automatically 1 NOPs removed by reduceNOPs.sh
1134	0395	379c0000		ori	%GPR28,%GPR28,$0	
1135	0396	00000000		nop	;;7,11
1136	0397	00000000		nop	;;7,11
1137	0398	00000000		nop	;;7,11
1138				; Automatically 1 NOPs removed by reduceNOPs.sh
1139	0399	08000004		j	L_lib_lcd_dlxsim_25	
1140	039a	00000000		nop
1141	039b	00000000		nop
1142	039c	00000000		nop
1143				; Automatically 1 NOPs removed by reduceNOPs.sh
1144			L_lib_lcd_dlxsim_25:
1145	039d	00000000		nop
1146	039e	00000000		nop
1147	039f	00000000		nop
1148				; Automatically 1 NOPs removed by reduceNOPs.sh
1149	03a0	8fdf0004		lw	%GPR31,4(%GPR30)	
1150	03a1	27dd0004		addui	%GPR29,%GPR30,$4	
1151	03a2	00000000		nop	; Automatically added by fix-stall-insns.pl
1152	03a3	00000000		nop	; Automatically added by fix-stall-insns.pl
1153	03a4	00000000		nop	; Automatically added by fix-stall-insns.pl
1154	03a5	8fde0000		lw	%GPR30,0(%GPR30)	
1155	03a6	00000000		nop
1156	03a7	00000000		nop
1157	03a8	00000000		nop
1158	03a9	00000000		nop	; Automatically added by fix-stall-insns.pl
1159	03aa	00000000		nop
1160	03ab	03e00008		jr	%GPR31	
1161	03ac	00000000		nop
1162	03ad	00000000		nop
1163	03ae	00000000		nop
1164				; Automatically 1 NOPs removed by reduceNOPs.sh
1165			g_makeswitch:
1166			L_lib_lcd_dlxsim_26:
1167	03af	00000000		nop
1168	03b0	00000000		nop
1169	03b1	00000000		nop
1170				; Automatically 1 NOPs removed by reduceNOPs.sh
1171	03b2	afbefffc		sw	-4(%GPR29),%GPR30	
1172	03b3	afbf0000		sw	0(%GPR29),%GPR31	
1173	03b4	2fbe0004		subui	%GPR30,%GPR29,$4	
1174	03b5	00000000		nop
1175	03b6	2bbd0008		subi	%GPR29,%GPR29,$8	
1176	03b7	00000000		nop
1177	03b8	00000000		nop
1178	03b9	00000000		nop
1179				; Automatically 11 NOPs removed by reduceNOPs.sh
1180	03ba	3c1c0000		lhi	%GPR28,$0	
1181	03bb	00000000		nop
1182	03bc	00000000		nop
1183	03bd	00000000		nop
1184				; Automatically 1 NOPs removed by reduceNOPs.sh
1185	03be	379c0000		ori	%GPR28,%GPR28,$0	
1186	03bf	00000000		nop	;;7,11
1187	03c0	00000000		nop	;;7,11
1188	03c1	00000000		nop	;;7,11
1189				; Automatically 1 NOPs removed by reduceNOPs.sh
1190	03c2	08000004		j	L_lib_lcd_dlxsim_27	
1191	03c3	00000000		nop
1192	03c4	00000000		nop
1193	03c5	00000000		nop
1194				; Automatically 1 NOPs removed by reduceNOPs.sh
1195			L_lib_lcd_dlxsim_27:
1196	03c6	00000000		nop
1197	03c7	00000000		nop
1198	03c8	00000000		nop
1199				; Automatically 1 NOPs removed by reduceNOPs.sh
1200	03c9	8fdf0004		lw	%GPR31,4(%GPR30)	
1201	03ca	27dd0004		addui	%GPR29,%GPR30,$4	
1202	03cb	00000000		nop	; Automatically added by fix-stall-insns.pl
1203	03cc	00000000		nop	; Automatically added by fix-stall-insns.pl
1204	03cd	00000000		nop	; Automatically added by fix-stall-insns.pl
1205	03ce	8fde0000		lw	%GPR30,0(%GPR30)	
1206	03cf	00000000		nop
1207	03d0	00000000		nop
1208	03d1	00000000		nop
1209	03d2	00000000		nop	; Automatically added by fix-stall-insns.pl
1210	03d3	00000000		nop
1211	03d4	03e00008		jr	%GPR31	
1212	03d5	00000000		nop
1213	03d6	00000000		nop
1214	03d7	00000000		nop
1215				; Automatically 1 NOPs removed by reduceNOPs.sh
1216			g_makemenubutton:
1217			L_lib_lcd_dlxsim_28:
1218	03d8	00000000		nop
1219	03d9	00000000		nop
1220	03da	00000000		nop
1221				; Automatically 1 NOPs removed by reduceNOPs.sh
1222	03db	afbefffc		sw	-4(%GPR29),%GPR30	
1223	03dc	afbf0000		sw	0(%GPR29),%GPR31	
1224	03dd	2fbe0004		subui	%GPR30,%GPR29,$4	
1225	03de	00000000		nop
1226	03df	2bbd0008		subi	%GPR29,%GPR29,$8	
1227	03e0	00000000		nop
1228	03e1	00000000		nop
1229	03e2	00000000		nop
1230				; Automatically 11 NOPs removed by reduceNOPs.sh
1231	03e3	3c1c0000		lhi	%GPR28,$0	
1232	03e4	00000000		nop
1233	03e5	00000000		nop
1234	03e6	00000000		nop
1235				; Automatically 1 NOPs removed by reduceNOPs.sh
1236	03e7	379c0000		ori	%GPR28,%GPR28,$0	
1237	03e8	00000000		nop	;;7,11
1238	03e9	00000000		nop	;;7,11
1239	03ea	00000000		nop	;;7,11
1240				; Automatically 1 NOPs removed by reduceNOPs.sh
1241	03eb	08000004		j	L_lib_lcd_dlxsim_29	
1242	03ec	00000000		nop
1243	03ed	00000000		nop
1244	03ee	00000000		nop
1245				; Automatically 1 NOPs removed by reduceNOPs.sh
1246			L_lib_lcd_dlxsim_29:
1247	03ef	00000000		nop
1248	03f0	00000000		nop
1249	03f1	00000000		nop
1250				; Automatically 1 NOPs removed by reduceNOPs.sh
1251	03f2	8fdf0004		lw	%GPR31,4(%GPR30)	
1252	03f3	27dd0004		addui	%GPR29,%GPR30,$4	
1253	03f4	00000000		nop	; Automatically added by fix-stall-insns.pl
1254	03f5	00000000		nop	; Automatically added by fix-stall-insns.pl
1255	03f6	00000000		nop	; Automatically added by fix-stall-insns.pl
1256	03f7	8fde0000		lw	%GPR30,0(%GPR30)	
1257	03f8	00000000		nop
1258	03f9	00000000		nop
1259	03fa	00000000		nop
1260	03fb	00000000		nop	; Automatically added by fix-stall-insns.pl
1261	03fc	00000000		nop
1262	03fd	03e00008		jr	%GPR31	
1263	03fe	00000000		nop
1264	03ff	00000000		nop
1265	0400	00000000		nop
1266				; Automatically 1 NOPs removed by reduceNOPs.sh
1267			g_makeradiogroup:
1268			L_lib_lcd_dlxsim_30:
1269	0401	00000000		nop
1270	0402	00000000		nop
1271	0403	00000000		nop
1272				; Automatically 1 NOPs removed by reduceNOPs.sh
1273	0404	afbefffc		sw	-4(%GPR29),%GPR30	
1274	0405	afbf0000		sw	0(%GPR29),%GPR31	
1275	0406	2fbe0004		subui	%GPR30,%GPR29,$4	
1276	0407	00000000		nop
1277	0408	2bbd0008		subi	%GPR29,%GPR29,$8	
1278	0409	00000000		nop
1279	040a	00000000		nop
1280	040b	00000000		nop
1281				; Automatically 11 NOPs removed by reduceNOPs.sh
1282	040c	3c1c0000		lhi	%GPR28,$0	
1283	040d	00000000		nop
1284	040e	00000000		nop
1285	040f	00000000		nop
1286				; Automatically 1 NOPs removed by reduceNOPs.sh
1287	0410	379c0000		ori	%GPR28,%GPR28,$0	
1288	0411	00000000		nop	;;7,11
1289	0412	00000000		nop	;;7,11
1290	0413	00000000		nop	;;7,11
1291				; Automatically 1 NOPs removed by reduceNOPs.sh
1292	0414	08000004		j	L_lib_lcd_dlxsim_31	
1293	0415	00000000		nop
1294	0416	00000000		nop
1295	0417	00000000		nop
1296				; Automatically 1 NOPs removed by reduceNOPs.sh
1297			L_lib_lcd_dlxsim_31:
1298	0418	00000000		nop
1299	0419	00000000		nop
1300	041a	00000000		nop
1301				; Automatically 1 NOPs removed by reduceNOPs.sh
1302	041b	8fdf0004		lw	%GPR31,4(%GPR30)	
1303	041c	27dd0004		addui	%GPR29,%GPR30,$4	
1304	041d	00000000		nop	; Automatically added by fix-stall-insns.pl
1305	041e	00000000		nop	; Automatically added by fix-stall-insns.pl
1306	041f	00000000		nop	; Automatically added by fix-stall-insns.pl
1307	0420	8fde0000		lw	%GPR30,0(%GPR30)	
1308	0421	00000000		nop
1309	0422	00000000		nop
1310	0423	00000000		nop
1311	0424	00000000		nop	; Automatically added by fix-stall-insns.pl
1312	0425	00000000		nop
1313	0426	03e00008		jr	%GPR31	
1314	0427	00000000		nop
1315	0428	00000000		nop
1316	0429	00000000		nop
1317				; Automatically 1 NOPs removed by reduceNOPs.sh
1318			d_clear:
1319			L_lib_lcd_dlxsim_32:
1320	042a	00000000		nop
1321	042b	00000000		nop
1322	042c	00000000		nop
1323				; Automatically 1 NOPs removed by reduceNOPs.sh
1324	042d	afbefffc		sw	-4(%GPR29),%GPR30	
1325	042e	afbf0000		sw	0(%GPR29),%GPR31	
1326	042f	2fbe0004		subui	%GPR30,%GPR29,$4	
1327	0430	00000000		nop
1328	0431	2bbd0008		subi	%GPR29,%GPR29,$8	
1329	0432	00000000		nop
1330	0433	00000000		nop
1331	0434	00000000		nop
1332				; Automatically 9 NOPs removed by reduceNOPs.sh
1333	0435	3c1c0000		lhi	%GPR28,$0	
1334	0436	00000000		nop
1335	0437	00000000		nop
1336	0438	00000000		nop
1337				; Automatically 1 NOPs removed by reduceNOPs.sh
1338	0439	379c0000		ori	%GPR28,%GPR28,$0	
1339	043a	00000000		nop	;;6,10
1340	043b	00000000		nop	;;6,10
1341	043c	00000000		nop	;;6,10
1342				; Automatically 1 NOPs removed by reduceNOPs.sh
1343	043d	08000004		j	L_lib_lcd_dlxsim_33	
1344	043e	00000000		nop
1345	043f	00000000		nop
1346	0440	00000000		nop
1347				; Automatically 1 NOPs removed by reduceNOPs.sh
1348			L_lib_lcd_dlxsim_33:
1349	0441	00000000		nop
1350	0442	00000000		nop
1351	0443	00000000		nop
1352				; Automatically 1 NOPs removed by reduceNOPs.sh
1353	0444	8fdf0004		lw	%GPR31,4(%GPR30)	
1354	0445	27dd0004		addui	%GPR29,%GPR30,$4	
1355	0446	00000000		nop	; Automatically added by fix-stall-insns.pl
1356	0447	00000000		nop	; Automatically added by fix-stall-insns.pl
1357	0448	00000000		nop	; Automatically added by fix-stall-insns.pl
1358	0449	8fde0000		lw	%GPR30,0(%GPR30)	
1359	044a	00000000		nop
1360	044b	00000000		nop
1361	044c	00000000		nop
1362	044d	00000000		nop	; Automatically added by fix-stall-insns.pl
1363	044e	00000000		nop
1364	044f	03e00008		jr	%GPR31	
1365	0450	00000000		nop
1366	0451	00000000		nop
1367	0452	00000000		nop
1368				.section	.data
1369				.section	.text
1370				.addressing	Word
1371				;.addressing	Word
1372			loadByteUnsigned:
1373			L_loadStoreByte_1:
1374	0453	00000000		nop
1375	0454	00000000		nop
1376	0455	00000000		nop
1377				; Automatically 1 NOPs removed by reduceNOPs.sh
1378	0456	afbefffc		sw	-4(%GPR29),%GPR30	
1379	0457	afbf0000		sw	0(%GPR29),%GPR31	
1380	0458	2fbe0004		subui	%GPR30,%GPR29,$4	
1381	0459	00000000		nop
1382	045a	2bbd0008		subi	%GPR29,%GPR29,$8	
1383	045b	00000000		nop
1384	045c	00000000		nop
1385	045d	00000000		nop
1386				; Automatically 1 NOPs removed by reduceNOPs.sh
1387	045e	00201020		add	%GPR2,%GPR1,%GPR0	
1388	045f	00000000		nop
1389	0460	00000000		nop
1390	0461	00000000		nop
1391	0462	30410003		andi	%GPR1,%GPR2,$3	
1392	0463	00000000		nop	;;3,7
1393	0464	00000000		nop	;;3,7
1394	0465	00000000		nop	;;3,7
1395				; Automatically 1 NOPs removed by reduceNOPs.sh
1396	0466	20230001		addi	%GPR3,%GPR1,$1	
1397	0467	00000000		nop
1398	0468	00000000		nop
1399	0469	00000000		nop
1400				; Automatically 1 NOPs removed by reduceNOPs.sh
1401	046a	00031823		subu	%GPR3,%GPR0,%GPR3	
1402	046b	3c01ffff		lhi	%GPR1,$65535	
1403	046c	00000000		nop
1404	046d	00000000		nop
1405	046e	00000000		nop
1406				; Automatically 1 NOPs removed by reduceNOPs.sh
1407	046f	3421fffc		ori	%GPR1,%GPR1,$-4	
1408	0470	00000000		nop	;;8,12
1409	0471	00000000		nop	;;8,12
1410	0472	00000000		nop	;;8,12
1411				; Automatically 1 NOPs removed by reduceNOPs.sh
1412	0473	00410824		and	%GPR1,%GPR2,%GPR1	
1413	0474	40620003		slli	%GPR2,%GPR3,$3	
1414	0475	00000000		nop	;;13,16
1415	0476	00000000		nop	;;13,16
1416	0477	00000000		nop	;;13,16
1417	0478	8c210000		lw	%GPR1,0(%GPR1)	
1418	0479	00000000		nop	;;16,20
1419	047a	00000000		nop	;;16,20
1420	047b	00000000		nop	;;16,20
1421				; Automatically 1 NOPs removed by reduceNOPs.sh
1422	047c	00220803		sra	%GPR1,%GPR1,%GPR2	
1423	047d	00000000		nop	;;20,24
1424	047e	00000000		nop	;;20,24
1425	047f	00000000		nop	;;20,24
1426				; Automatically 1 NOPs removed by reduceNOPs.sh
1427	0480	303c00ff		andi	%GPR28,%GPR1,$255	
1428	0481	00000000		nop	;;24,28
1429	0482	00000000		nop	;;24,28
1430	0483	00000000		nop	;;24,28
1431				; Automatically 1 NOPs removed by reduceNOPs.sh
1432	0484	08000004		j	L_loadStoreByte_2	
1433	0485	00000000		nop
1434	0486	00000000		nop
1435	0487	00000000		nop
1436				; Automatically 1 NOPs removed by reduceNOPs.sh
1437			L_loadStoreByte_2:
1438	0488	00000000		nop
1439	0489	00000000		nop
1440	048a	00000000		nop
1441				; Automatically 1 NOPs removed by reduceNOPs.sh
1442	048b	8fdf0004		lw	%GPR31,4(%GPR30)	
1443	048c	27dd0004		addui	%GPR29,%GPR30,$4	
1444	048d	00000000		nop	; Automatically added by fix-stall-insns.pl
1445	048e	00000000		nop	; Automatically added by fix-stall-insns.pl
1446	048f	00000000		nop	; Automatically added by fix-stall-insns.pl
1447	0490	8fde0000		lw	%GPR30,0(%GPR30)	
1448	0491	00000000		nop
1449	0492	00000000		nop
1450	0493	00000000		nop
1451	0494	00000000		nop	; Automatically added by fix-stall-insns.pl
1452	0495	00000000		nop
1453	0496	03e00008		jr	%GPR31	
1454	0497	00000000		nop
1455	0498	00000000		nop
1456	0499	00000000		nop
1457				; Automatically 1 NOPs removed by reduceNOPs.sh
1458			loadByteSigned:
1459			L_loadStoreByte_3:
1460	049a	00000000		nop
1461	049b	00000000		nop
1462	049c	00000000		nop
1463				; Automatically 1 NOPs removed by reduceNOPs.sh
1464	049d	afbefffc		sw	-4(%GPR29),%GPR30	
1465	049e	afbf0000		sw	0(%GPR29),%GPR31	
1466	049f	2fbe0004		subui	%GPR30,%GPR29,$4	
1467	04a0	00000000		nop
1468	04a1	2bbd0008		subi	%GPR29,%GPR29,$8	
1469	04a2	00000000		nop
1470	04a3	00000000		nop
1471	04a4	00000000		nop
1472				; Automatically 1 NOPs removed by reduceNOPs.sh
1473	04a5	00201020		add	%GPR2,%GPR1,%GPR0	
1474	04a6	00000000		nop
1475	04a7	00000000		nop
1476	04a8	00000000		nop
1477	04a9	30410003		andi	%GPR1,%GPR2,$3	
1478	04aa	00000000		nop	;;3,7
1479	04ab	00000000		nop	;;3,7
1480	04ac	00000000		nop	;;3,7
1481				; Automatically 1 NOPs removed by reduceNOPs.sh
1482	04ad	20230001		addi	%GPR3,%GPR1,$1	
1483	04ae	00000000		nop
1484	04af	00000000		nop
1485	04b0	00000000		nop
1486				; Automatically 1 NOPs removed by reduceNOPs.sh
1487	04b1	00031823		subu	%GPR3,%GPR0,%GPR3	
1488	04b2	3c01ffff		lhi	%GPR1,$65535	
1489	04b3	00000000		nop
1490	04b4	00000000		nop
1491	04b5	00000000		nop
1492				; Automatically 1 NOPs removed by reduceNOPs.sh
1493	04b6	3421fffc		ori	%GPR1,%GPR1,$-4	
1494	04b7	00000000		nop	;;8,12
1495	04b8	00000000		nop	;;8,12
1496	04b9	00000000		nop	;;8,12
1497				; Automatically 1 NOPs removed by reduceNOPs.sh
1498	04ba	00410824		and	%GPR1,%GPR2,%GPR1	
1499	04bb	40620003		slli	%GPR2,%GPR3,$3	
1500	04bc	00000000		nop	;;13,16
1501	04bd	00000000		nop	;;13,16
1502	04be	00000000		nop	;;13,16
1503	04bf	8c210000		lw	%GPR1,0(%GPR1)	
1504	04c0	00000000		nop	;;16,20
1505	04c1	00000000		nop	;;16,20
1506	04c2	00000000		nop	;;16,20
1507				; Automatically 1 NOPs removed by reduceNOPs.sh
1508	04c3	00220803		sra	%GPR1,%GPR1,%GPR2	
1509	04c4	00000000		nop	;;20,24
1510	04c5	00000000		nop	;;20,24
1511	04c6	00000000		nop	;;20,24
1512				; Automatically 1 NOPs removed by reduceNOPs.sh
1513	04c7	302100ff		andi	%GPR1,%GPR1,$255	
1514	04c8	00000000		nop	;;24,28
1515	04c9	00000000		nop	;;24,28
1516	04ca	00000000		nop	;;24,28
1517				; Automatically 1 NOPs removed by reduceNOPs.sh
1518	04cb	40210018		slli	%GPR1,%GPR1,$24	
1519	04cc	00000000		nop	;;28,32
1520	04cd	00000000		nop	;;28,32
1521	04ce	00000000		nop	;;28,32
1522				; Automatically 1 NOPs removed by reduceNOPs.sh
1523	04cf	483c0018		srai	%GPR28,%GPR1,$24	
1524	04d0	00000000		nop	;;32,36
1525	04d1	00000000		nop	;;32,36
1526	04d2	00000000		nop	;;32,36
1527				; Automatically 1 NOPs removed by reduceNOPs.sh
1528	04d3	08000004		j	L_loadStoreByte_4	
1529	04d4	00000000		nop
1530	04d5	00000000		nop
1531	04d6	00000000		nop
1532				; Automatically 1 NOPs removed by reduceNOPs.sh
1533			L_loadStoreByte_4:
1534	04d7	00000000		nop
1535	04d8	00000000		nop
1536	04d9	00000000		nop
1537				; Automatically 1 NOPs removed by reduceNOPs.sh
1538	04da	8fdf0004		lw	%GPR31,4(%GPR30)	
1539	04db	27dd0004		addui	%GPR29,%GPR30,$4	
1540	04dc	00000000		nop	; Automatically added by fix-stall-insns.pl
1541	04dd	00000000		nop	; Automatically added by fix-stall-insns.pl
1542	04de	00000000		nop	; Automatically added by fix-stall-insns.pl
1543	04df	8fde0000		lw	%GPR30,0(%GPR30)	
1544	04e0	00000000		nop
1545	04e1	00000000		nop
1546	04e2	00000000		nop
1547	04e3	00000000		nop	; Automatically added by fix-stall-insns.pl
1548	04e4	00000000		nop
1549	04e5	03e00008		jr	%GPR31	
1550	04e6	00000000		nop
1551	04e7	00000000		nop
1552	04e8	00000000		nop
1553				; Automatically 1 NOPs removed by reduceNOPs.sh
1554			storeByte:
1555			L_loadStoreByte_5:
1556	04e9	00000000		nop
1557	04ea	00000000		nop
1558	04eb	00000000		nop
1559				; Automatically 1 NOPs removed by reduceNOPs.sh
1560	04ec	afbefffc		sw	-4(%GPR29),%GPR30	
1561	04ed	afbf0000		sw	0(%GPR29),%GPR31	
1562	04ee	2fbe0004		subui	%GPR30,%GPR29,$4	
1563	04ef	00000000		nop
1564	04f0	2bbd0008		subi	%GPR29,%GPR29,$8	
1565	04f1	00000000		nop
1566	04f2	00000000		nop
1567	04f3	00000000		nop
1568				; Automatically 1 NOPs removed by reduceNOPs.sh
1569	04f4	00201820		add	%GPR3,%GPR1,%GPR0	
1570	04f5	00000000		nop
1571	04f6	00000000		nop
1572	04f7	00000000		nop
1573				; Automatically 2 NOPs removed by reduceNOPs.sh
1574	04f8	30610003		andi	%GPR1,%GPR3,$3	
1575	04f9	00000000		nop	;;4,6
1576	04fa	00000000		nop	;;4,6
1577	04fb	30640003		andi	%GPR4,%GPR3,$3	
1578	04fc	3c050000		lhi	%GPR5,$0	
1579	04fd	00000000		nop
1580	04fe	00000000		nop
1581	04ff	00000000		nop
1582				; Automatically 1 NOPs removed by reduceNOPs.sh
1583	0500	34a50003		ori	%GPR5,%GPR5,$3	
1584	0501	00000000		nop	;;7,10
1585	0502	00000000		nop	;;7,10
1586	0503	00000000		nop	;;7,10
1587	0504	20840001		addi	%GPR4,%GPR4,$1	
1588	0505	00000000		nop
1589	0506	00000000		nop
1590	0507	00000000		nop
1591				; Automatically 1 NOPs removed by reduceNOPs.sh
1592	0508	00042023		subu	%GPR4,%GPR0,%GPR4	
1593	0509	00a12822		sub	%GPR5,%GPR5,%GPR1	
1594	050a	3c01ffff		lhi	%GPR1,$65535	
1595	050b	00000000		nop
1596	050c	00000000		nop
1597	050d	00000000		nop
1598				; Automatically 1 NOPs removed by reduceNOPs.sh
1599	050e	3421fffc		ori	%GPR1,%GPR1,$-4	
1600	050f	3c060000		lhi	%GPR6,$0	
1601	0510	00000000		nop
1602	0511	00000000		nop
1603	0512	00000000		nop
1604				; Automatically 1 NOPs removed by reduceNOPs.sh
1605	0513	34c600ff		ori	%GPR6,%GPR6,$255	
1606	0514	00000000		nop	;;13,16
1607	0515	00000000		nop	;;13,16
1608	0516	00000000		nop	;;13,16
1609	0517	00610824		and	%GPR1,%GPR3,%GPR1	
1610	0518	40830003		slli	%GPR3,%GPR4,$3	
1611	0519	40a40003		slli	%GPR4,%GPR5,$3	
1612	051a	00000000		nop	;;18,20
1613	051b	00000000		nop	;;18,20
1614	051c	8c3c0000		lw	%GPR28,0(%GPR1)	
1615	051d	00431000		sll	%GPR2,%GPR2,%GPR3	
1616	051e	00c41800		sll	%GPR3,%GPR6,%GPR4	
1617	051f	00000000		nop	;;22,26
1618	0520	00000000		nop	;;22,26
1619	0521	00000000		nop	;;22,26
1620				; Automatically 1 NOPs removed by reduceNOPs.sh
1621	0522	20630001		addi	%GPR3,%GPR3,$1	
1622	0523	00000000		nop
1623	0524	00000000		nop
1624	0525	00000000		nop
1625				; Automatically 1 NOPs removed by reduceNOPs.sh
1626	0526	00031823		subu	%GPR3,%GPR0,%GPR3	
1627	0527	00000000		nop	;;26,30
1628	0528	00000000		nop	;;26,30
1629	0529	00000000		nop	;;26,30
1630				; Automatically 1 NOPs removed by reduceNOPs.sh
1631	052a	0383e024		and	%GPR28,%GPR28,%GPR3	
1632	052b	00000000		nop	;;30,34
1633	052c	00000000		nop	;;30,34
1634	052d	00000000		nop	;;30,34
1635				; Automatically 1 NOPs removed by reduceNOPs.sh
1636	052e	0382e025		or	%GPR28,%GPR28,%GPR2	
1637	052f	00000000		nop	;;34,38
1638	0530	00000000		nop	;;34,38
1639	0531	00000000		nop	;;34,38
1640				; Automatically 1 NOPs removed by reduceNOPs.sh
1641	0532	ac3c0000		sw	0(%GPR1),%GPR28	
1642	0533	08000004		j	L_loadStoreByte_6	
1643	0534	00000000		nop
1644	0535	00000000		nop
1645	0536	00000000		nop
1646				; Automatically 1 NOPs removed by reduceNOPs.sh
1647			L_loadStoreByte_6:
1648	0537	00000000		nop
1649	0538	00000000		nop
1650	0539	00000000		nop
1651				; Automatically 1 NOPs removed by reduceNOPs.sh
1652	053a	8fdf0004		lw	%GPR31,4(%GPR30)	
1653	053b	27dd0004		addui	%GPR29,%GPR30,$4	
1654	053c	00000000		nop	; Automatically added by fix-stall-insns.pl
1655	053d	00000000		nop	; Automatically added by fix-stall-insns.pl
1656	053e	00000000		nop	; Automatically added by fix-stall-insns.pl
1657	053f	8fde0000		lw	%GPR30,0(%GPR30)	
1658	0540	00000000		nop
1659	0541	00000000		nop
1660	0542	00000000		nop
1661	0543	00000000		nop	; Automatically added by fix-stall-insns.pl
1662	0544	00000000		nop
1663	0545	03e00008		jr	%GPR31	
1664	0546	00000000		nop
1665	0547	00000000		nop
1666	0548	00000000		nop
1667				.section	.data
1668			L_main_1:
1669	0000	0d		.data.8	13
1670	0001	0a		.data.8	10
1671	0002	00		.space	1
1672			L_main_2:
1673	0003	0d		.data.8	13
1674	0004	0a		.data.8	10
1675	0005	00		.space	1
1676			L_main_3:
1677	0006	0d		.data.8	13
1678	0007	0a		.data.8	10
1679	0008	00		.space	1
1680				.section	.text
1681				.addressing	Word
1682				;.addressing	Word
1683			Hadamard_2x2_Chroma:
1684			L_main_4:
1685				; Automatically 4 NOPs removed by reduceNOPs.sh
1686	0549	00000000		nop	; Automatically Added by addNopAfterLabels.pl
1687	054a	afbefffc		sw	-4(%GPR29),%GPR30	
1688	054b	afbf0000		sw	0(%GPR29),%GPR31	
1689	054c	2fbe0004		subui	%GPR30,%GPR29,$4	
1690				; Automatically 1 NOPs removed by reduceNOPs.sh
1691	054d	2bbd0008		subi	%GPR29,%GPR29,$8	
1692				; Automatically 12 NOPs removed by reduceNOPs.sh
1693	054e	3045ffff		andi	%GPR5,%GPR2,$65535	
1694	054f	3026ffff		andi	%GPR6,%GPR1,$65535	
1695	0550	3c08ffff		lhi	%GPR8,$65535	
1696				; Automatically 4 NOPs removed by reduceNOPs.sh
1697	0551	35080000		ori	%GPR8,%GPR8,$-65536	
1698	0552	3c07ffff		lhi	%GPR7,$65535	
1699				; Automatically 4 NOPs removed by reduceNOPs.sh
1700	0553	34e70000		ori	%GPR7,%GPR7,$-65536	
1701	0554	40a50010		slli	%GPR5,%GPR5,$16	
1702	0555	40c90010		slli	%GPR9,%GPR6,$16	
1703	0556	00280824		and	%GPR1,%GPR1,%GPR8	
1704	0557	00471024		and	%GPR2,%GPR2,%GPR7	
1705	0558	48a60010		srai	%GPR6,%GPR5,$16	
1706	0559	49250010		srai	%GPR5,%GPR9,$16	
1707	055a	44210010		srli	%GPR1,%GPR1,$16	
1708	055b	44420010		srli	%GPR2,%GPR2,$16	
1709				; Automatically 3 NOPs removed by reduceNOPs.sh
1710	055c	00254020		add	%GPR8,%GPR1,%GPR5	
1711	055d	00463820		add	%GPR7,%GPR2,%GPR6	
1712	055e	00255822		sub	%GPR11,%GPR1,%GPR5	
1713	055f	00464822		sub	%GPR9,%GPR2,%GPR6	
1714	0560	00256022		sub	%GPR12,%GPR1,%GPR5	
1715	0561	01073820		add	%GPR7,%GPR8,%GPR7	
1716	0562	00252820		add	%GPR5,%GPR1,%GPR5	
1717	0563	01690820		add	%GPR1,%GPR11,%GPR9	
1718	0564	00465022		sub	%GPR10,%GPR2,%GPR6	
1719	0565	30e7ffff		andi	%GPR7,%GPR7,$65535	
1720	0566	00461020		add	%GPR2,%GPR2,%GPR6	
1721				; Automatically 3 NOPs removed by reduceNOPs.sh
1722	0567	40e60010		slli	%GPR6,%GPR7,$16	
1723	0568	3027ffff		andi	%GPR7,%GPR1,$65535	
1724	0569	014c0822		sub	%GPR1,%GPR10,%GPR12	
1725				; Automatically 4 NOPs removed by reduceNOPs.sh
1726	056a	3028ffff		andi	%GPR8,%GPR1,$65535	
1727	056b	00450822		sub	%GPR1,%GPR2,%GPR5	
1728	056c	40e20010		slli	%GPR2,%GPR7,$16	
1729				; Automatically 2 NOPs removed by reduceNOPs.sh
1730	056d	00c82825		or	%GPR5,%GPR6,%GPR8	
1731	056e	3021ffff		andi	%GPR1,%GPR1,$65535	
1732				; Automatically 3 NOPs removed by reduceNOPs.sh
1733	056f	ac650000		sw	0(%GPR3),%GPR5	
1734	0570	00410825		or	%GPR1,%GPR2,%GPR1	
1735				; Automatically 4 NOPs removed by reduceNOPs.sh
1736	0571	00000000		nop	; Automatically added by fix-stall-insns.pl
1737	0572	00000000		nop	; Automatically added by fix-stall-insns.pl
1738	0573	00000000		nop	; Automatically added by fix-stall-insns.pl
1739	0574	ac810000		sw	0(%GPR4),%GPR1	
1740	0575	08000001		j	L_main_5	
1741				; Automatically 3 NOPs removed by reduceNOPs.sh
1742			L_main_5:
1743				; Automatically 4 NOPs removed by reduceNOPs.sh
1744	0576	00000000		nop	; Automatically added by fix-stall-insns.pl
1745	0577	00000000		nop	; Automatically added by fix-stall-insns.pl
1746	0578	8fdf0004		lw	%GPR31,4(%GPR30)	
1747	0579	27dd0004		addui	%GPR29,%GPR30,$4	
1748	057a	00000000		nop	; Automatically added by fix-stall-insns.pl
1749	057b	00000000		nop	; Automatically added by fix-stall-insns.pl
1750	057c	00000000		nop	; Automatically added by fix-stall-insns.pl
1751	057d	8fde0000		lw	%GPR30,0(%GPR30)	
1752				; Automatically 2 NOPs removed by reduceNOPs.sh
1753	057e	00000000		nop
1754	057f	00000000		nop	; Automatically added by fix-stall-insns.pl
1755	0580	00000000		nop	; Automatically added by fix-stall-insns.pl
1756	0581	00000000		nop	; Automatically added by fix-stall-insns.pl
1757	0582	00000000		nop
1758	0583	03e00008		jr	%GPR31	
1759				; Automatically 4 NOPs removed by reduceNOPs.sh
1760			Hadamard_4x4_IntraLuma:
1761			L_main_6:
1762				; Automatically 4 NOPs removed by reduceNOPs.sh
1763	0584	00000000		nop	; Automatically added by fix-stall-insns.pl
1764	0585	afbefffc		sw	-4(%GPR29),%GPR30	
1765	0586	afbf0000		sw	0(%GPR29),%GPR31	
1766	0587	2fbe0004		subui	%GPR30,%GPR29,$4	
1767				; Automatically 1 NOPs removed by reduceNOPs.sh
1768	0588	2bbd0020		subi	%GPR29,%GPR29,$32	
1769				; Automatically 4 NOPs removed by reduceNOPs.sh
1770	0589	00209020		add	%GPR18,%GPR1,%GPR0	
1771				; Automatically 6 NOPs removed by reduceNOPs.sh
1772	058a	00000000		nop	; Automatically added by fix-stall-insns.pl
1773	058b	8e450000		lw	%GPR5,0(%GPR18)	
1774				; Automatically 2 NOPs removed by reduceNOPs.sh
1775	058c	3c010000		lhi	%GPR1,$0	
1776				; Automatically 4 NOPs removed by reduceNOPs.sh
1777	058d	34210020		ori	%GPR1,%GPR1,$32	
1778	058e	3c030000		lhi	%GPR3,$0	
1779				; Automatically 4 NOPs removed by reduceNOPs.sh
1780	058f	34630020		ori	%GPR3,%GPR3,$32	
1781				; Automatically 2 NOPs removed by reduceNOPs.sh
1782	0590	3c040000		lhi	%GPR4,$0	
1783				; Automatically 4 NOPs removed by reduceNOPs.sh
1784	0591	34840020		ori	%GPR4,%GPR4,$32	
1785	0592	02419020		add	%GPR18,%GPR18,%GPR1	
1786	0593	afc5fffc		sw	-4(%GPR30),%GPR5	
1787	0594	3c050000		lhi	%GPR5,$0	
1788				; Automatically 4 NOPs removed by reduceNOPs.sh
1789	0595	34a50020		ori	%GPR5,%GPR5,$32	
1790				; Automatically 2 NOPs removed by reduceNOPs.sh
1791	0596	00000000		nop	; Automatically added by fix-stall-insns.pl
1792	0597	00000000		nop	; Automatically added by fix-stall-insns.pl
1793	0598	8e410000		lw	%GPR1,0(%GPR18)	
1794	0599	02439020		add	%GPR18,%GPR18,%GPR3	
1795				; Automatically 2 NOPs removed by reduceNOPs.sh
1796	059a	3c060000		lhi	%GPR6,$0	
1797				; Automatically 4 NOPs removed by reduceNOPs.sh
1798	059b	34c60020		ori	%GPR6,%GPR6,$32	
1799	059c	00000000		nop	; Automatically added by fix-stall-insns.pl
1800	059d	afc1fff8		sw	-8(%GPR30),%GPR1	
1801	059e	00000000		nop	; Automatically added by findLoadStoreProblem.sh
1802	059f	00000000		nop	; Automatically added by fix-stall-insns.pl
1803	05a0	00000000		nop	; Automatically added by fix-stall-insns.pl
1804	05a1	00000000		nop	; Automatically added by fix-stall-insns.pl
1805	05a2	8e430000		lw	%GPR3,0(%GPR18)	
1806	05a3	02449020		add	%GPR18,%GPR18,%GPR4	
1807	05a4	3c010000		lhi	%GPR1,$0	
1808				; Automatically 4 NOPs removed by reduceNOPs.sh
1809	05a5	34210020		ori	%GPR1,%GPR1,$32	
1810				; Automatically 2 NOPs removed by reduceNOPs.sh
1811	05a6	00000000		nop	; Automatically added by fix-stall-insns.pl
1812	05a7	afc3fff4		sw	-12(%GPR30),%GPR3	
1813	05a8	00000000		nop	; Automatically added by findLoadStoreProblem.sh
1814	05a9	00000000		nop	; Automatically added by fix-stall-insns.pl
1815	05aa	00000000		nop	; Automatically added by fix-stall-insns.pl
1816	05ab	00000000		nop	; Automatically added by fix-stall-insns.pl
1817	05ac	8e440000		lw	%GPR4,0(%GPR18)	
1818	05ad	02459020		add	%GPR18,%GPR18,%GPR5	
1819	05ae	3c030000		lhi	%GPR3,$0	
1820				; Automatically 4 NOPs removed by reduceNOPs.sh
1821	05af	34630020		ori	%GPR3,%GPR3,$32	
1822				; Automatically 2 NOPs removed by reduceNOPs.sh
1823	05b0	00000000		nop	; Automatically added by fix-stall-insns.pl
1824	05b1	afc4fff0		sw	-16(%GPR30),%GPR4	
1825	05b2	00000000		nop	; Automatically added by findLoadStoreProblem.sh
1826	05b3	00000000		nop	; Automatically added by fix-stall-insns.pl
1827	05b4	00000000		nop	; Automatically added by fix-stall-insns.pl
1828	05b5	00000000		nop	; Automatically added by fix-stall-insns.pl
1829	05b6	8e450000		lw	%GPR5,0(%GPR18)	
1830	05b7	02469020		add	%GPR18,%GPR18,%GPR6	
1831	05b8	3c040000		lhi	%GPR4,$0	
1832				; Automatically 4 NOPs removed by reduceNOPs.sh
1833	05b9	34840020		ori	%GPR4,%GPR4,$32	
1834				; Automatically 2 NOPs removed by reduceNOPs.sh
1835	05ba	00000000		nop	; Automatically added by fix-stall-insns.pl
1836	05bb	afc5ffec		sw	-20(%GPR30),%GPR5	
1837	05bc	00000000		nop	; Automatically added by findLoadStoreProblem.sh
1838	05bd	00000000		nop	; Automatically added by fix-stall-insns.pl
1839	05be	00000000		nop	; Automatically added by fix-stall-insns.pl
1840	05bf	00000000		nop	; Automatically added by fix-stall-insns.pl
1841	05c0	8e460000		lw	%GPR6,0(%GPR18)	
1842	05c1	02419020		add	%GPR18,%GPR18,%GPR1	
1843	05c2	3c050000		lhi	%GPR5,$0	
1844				; Automatically 4 NOPs removed by reduceNOPs.sh
1845	05c3	34a50020		ori	%GPR5,%GPR5,$32	
1846				; Automatically 3 NOPs removed by reduceNOPs.sh
1847	05c4	00000000		nop	; Automatically added by fix-stall-insns.pl
1848	05c5	8e4c0000		lw	%GPR12,0(%GPR18)	
1849	05c6	02439020		add	%GPR18,%GPR18,%GPR3	
1850	05c7	3c090000		lhi	%GPR9,$0	
1851				; Automatically 4 NOPs removed by reduceNOPs.sh
1852	05c8	35290020		ori	%GPR9,%GPR9,$32	
1853	05c9	3c010000		lhi	%GPR1,$0	
1854				; Automatically 4 NOPs removed by reduceNOPs.sh
1855	05ca	34210020		ori	%GPR1,%GPR1,$32	
1856				; Automatically 2 NOPs removed by reduceNOPs.sh
1857	05cb	8e430000		lw	%GPR3,0(%GPR18)	
1858	05cc	02449020		add	%GPR18,%GPR18,%GPR4	
1859	05cd	00000000		nop	; Automatically added by fix-stall-insns.pl
1860	05ce	00000000		nop	; Automatically added by fix-stall-insns.pl
1861	05cf	00000000		nop	; Automatically added by fix-stall-insns.pl
1862	05d0	afc6ffe8		sw	-24(%GPR30),%GPR6	
1863	05d1	3c060000		lhi	%GPR6,$0	
1864				; Automatically 4 NOPs removed by reduceNOPs.sh
1865	05d2	34c60020		ori	%GPR6,%GPR6,$32	
1866				; Automatically 2 NOPs removed by reduceNOPs.sh
1867	05d3	00000000		nop	; Automatically added by fix-stall-insns.pl
1868	05d4	00000000		nop	; Automatically added by fix-stall-insns.pl
1869	05d5	8e570000		lw	%GPR23,0(%GPR18)	
1870	05d6	02459020		add	%GPR18,%GPR18,%GPR5	
1871				; Automatically 3 NOPs removed by reduceNOPs.sh
1872	05d7	3c18ffff		lhi	%GPR24,$65535	
1873				; Automatically 4 NOPs removed by reduceNOPs.sh
1874	05d8	37180000		ori	%GPR24,%GPR24,$-65536	
1875	05d9	00000000		nop	; Automatically added by fix-stall-insns.pl
1876	05da	8e530000		lw	%GPR19,0(%GPR18)	
1877	05db	02499020		add	%GPR18,%GPR18,%GPR9	
1878	05dc	3c070000		lhi	%GPR7,$0	
1879				; Automatically 4 NOPs removed by reduceNOPs.sh
1880	05dd	34e70020		ori	%GPR7,%GPR7,$32	
1881				; Automatically 3 NOPs removed by reduceNOPs.sh
1882	05de	00000000		nop	; Automatically added by fix-stall-insns.pl
1883	05df	8e4b0000		lw	%GPR11,0(%GPR18)	
1884	05e0	02419020		add	%GPR18,%GPR18,%GPR1	
1885	05e1	3c05ffff		lhi	%GPR5,$65535	
1886				; Automatically 4 NOPs removed by reduceNOPs.sh
1887	05e2	34a50000		ori	%GPR5,%GPR5,$-65536	
1888				; Automatically 2 NOPs removed by reduceNOPs.sh
1889	05e3	02f8b824		and	%GPR23,%GPR23,%GPR24	
1890	05e4	8e440000		lw	%GPR4,0(%GPR18)	
1891	05e5	02469020		add	%GPR18,%GPR18,%GPR6	
1892				; Automatically 2 NOPs removed by reduceNOPs.sh
1893	05e6	3c1bffff		lhi	%GPR27,$65535	
1894				; Automatically 4 NOPs removed by reduceNOPs.sh
1895	05e7	377b0000		ori	%GPR27,%GPR27,$-65536	
1896	05e8	3c080000		lhi	%GPR8,$0	
1897				; Automatically 4 NOPs removed by reduceNOPs.sh
1898	05e9	35080020		ori	%GPR8,%GPR8,$32	
1899	05ea	8e540000		lw	%GPR20,0(%GPR18)	
1900	05eb	02479020		add	%GPR18,%GPR18,%GPR7	
1901	05ec	00000000		nop	; Automatically added by fix-stall-insns.pl
1902	05ed	00000000		nop	; Automatically added by fix-stall-insns.pl
1903	05ee	00000000		nop	; Automatically added by fix-stall-insns.pl
1904	05ef	8fd8ffec		lw	%GPR24,-20(%GPR30)	
1905				; Automatically 2 NOPs removed by reduceNOPs.sh
1906	05f0	02852824		and	%GPR5,%GPR20,%GPR5	
1907	05f1	3c0effff		lhi	%GPR14,$65535	
1908				; Automatically 4 NOPs removed by reduceNOPs.sh
1909	05f2	35ce0000		ori	%GPR14,%GPR14,$-65536	
1910	05f3	00000000		nop	; Automatically added by fix-stall-insns.pl
1911	05f4	8fd4ffe8		lw	%GPR20,-24(%GPR30)	
1912				; Automatically 2 NOPs removed by reduceNOPs.sh
1913	05f5	8e560000		lw	%GPR22,0(%GPR18)	
1914	05f6	3c10ffff		lhi	%GPR16,$65535	
1915				; Automatically 4 NOPs removed by reduceNOPs.sh
1916	05f7	36100000		ori	%GPR16,%GPR16,$-65536	
1917				; Automatically 3 NOPs removed by reduceNOPs.sh
1918	05f8	02489020		add	%GPR18,%GPR18,%GPR8	
1919	05f9	031bc024		and	%GPR24,%GPR24,%GPR27	
1920				; Automatically 5 NOPs removed by reduceNOPs.sh
1921	05fa	3c01ffff		lhi	%GPR1,$65535	
1922				; Automatically 4 NOPs removed by reduceNOPs.sh
1923	05fb	34210000		ori	%GPR1,%GPR1,$-65536	
1924	05fc	8fdbfffc		lw	%GPR27,-4(%GPR30)	
1925	05fd	028ea024		and	%GPR20,%GPR20,%GPR14	
1926	05fe	3c15ffff		lhi	%GPR21,$65535	
1927				; Automatically 4 NOPs removed by reduceNOPs.sh
1928	05ff	36b50000		ori	%GPR21,%GPR21,$-65536	
1929	0600	00708024		and	%GPR16,%GPR3,%GPR16	
1930	0601	3c0fffff		lhi	%GPR15,$65535	
1931				; Automatically 4 NOPs removed by reduceNOPs.sh
1932	0602	35ef0000		ori	%GPR15,%GPR15,$-65536	
1933	0603	3c0dffff		lhi	%GPR13,$65535	
1934				; Automatically 4 NOPs removed by reduceNOPs.sh
1935	0604	35ad0000		ori	%GPR13,%GPR13,$-65536	
1936	0605	8fcefff8		lw	%GPR14,-8(%GPR30)	
1937	0606	8e480000		lw	%GPR8,0(%GPR18)	
1938	0607	3c11ffff		lhi	%GPR17,$65535	
1939				; Automatically 4 NOPs removed by reduceNOPs.sh
1940	0608	36310000		ori	%GPR17,%GPR17,$-65536	
1941	0609	3c0affff		lhi	%GPR10,$65535	
1942				; Automatically 4 NOPs removed by reduceNOPs.sh
1943	060a	354a0000		ori	%GPR10,%GPR10,$-65536	
1944	060b	3c06ffff		lhi	%GPR6,$65535	
1945				; Automatically 4 NOPs removed by reduceNOPs.sh
1946	060c	34c60000		ori	%GPR6,%GPR6,$-65536	
1947	060d	3c1c0000		lhi	%GPR28,$0	
1948				; Automatically 4 NOPs removed by reduceNOPs.sh
1949	060e	379c0020		ori	%GPR28,%GPR28,$32	
1950	060f	8fc3fff0		lw	%GPR3,-16(%GPR30)	
1951				; Automatically 2 NOPs removed by reduceNOPs.sh
1952	0610	03610824		and	%GPR1,%GPR27,%GPR1	
1953	0611	02759824		and	%GPR19,%GPR19,%GPR21	
1954				; Automatically 2 NOPs removed by reduceNOPs.sh
1955	0612	01cfa824		and	%GPR21,%GPR14,%GPR15	
1956	0613	02cdb024		and	%GPR22,%GPR22,%GPR13	
1957				; Automatically 2 NOPs removed by reduceNOPs.sh
1958	0614	008a7824		and	%GPR15,%GPR4,%GPR10	
1959	0615	01067024		and	%GPR14,%GPR8,%GPR6	
1960	0616	025c9020		add	%GPR18,%GPR18,%GPR28	
1961	0617	00718824		and	%GPR17,%GPR3,%GPR17	
1962	0618	3c07ffff		lhi	%GPR7,$65535	
1963				; Automatically 4 NOPs removed by reduceNOPs.sh
1964	0619	34e70000		ori	%GPR7,%GPR7,$-65536	
1965	061a	8fcdfff4		lw	%GPR13,-12(%GPR30)	
1966				; Automatically 2 NOPs removed by reduceNOPs.sh
1967	061b	46e40010		srli	%GPR4,%GPR23,$16	
1968	061c	44a60010		srli	%GPR6,%GPR5,$16	
1969	061d	47030010		srli	%GPR3,%GPR24,$16	
1970	061e	44210010		srli	%GPR1,%GPR1,$16	
1971	061f	3c19ffff		lhi	%GPR25,$65535	
1972				; Automatically 4 NOPs removed by reduceNOPs.sh
1973	0620	37390000		ori	%GPR25,%GPR25,$-65536	
1974	0621	3c1affff		lhi	%GPR26,$65535	
1975				; Automatically 4 NOPs removed by reduceNOPs.sh
1976	0622	375a0000		ori	%GPR26,%GPR26,$-65536	
1977	0623	8e520000		lw	%GPR18,0(%GPR18)	
1978	0624	01a76824		and	%GPR13,%GPR13,%GPR7	
1979	0625	3c09ffff		lhi	%GPR9,$65535	
1980				; Automatically 4 NOPs removed by reduceNOPs.sh
1981	0626	35290000		ori	%GPR9,%GPR9,$-65536	
1982	0627	00644020		add	%GPR8,%GPR3,%GPR4	
1983	0628	00263820		add	%GPR7,%GPR1,%GPR6	
1984	0629	46650010		srli	%GPR5,%GPR19,$16	
1985	062a	46b30010		srli	%GPR19,%GPR21,$16	
1986	062b	46940010		srli	%GPR20,%GPR20,$16	
1987	062c	01795824		and	%GPR11,%GPR11,%GPR25	
1988	062d	46d60010		srli	%GPR22,%GPR22,$16	
1989	062e	019a6024		and	%GPR12,%GPR12,%GPR26	
1990	062f	02499024		and	%GPR18,%GPR18,%GPR9	
1991	0630	00e85022		sub	%GPR10,%GPR7,%GPR8	
1992	0631	00e84820		add	%GPR9,%GPR7,%GPR8	
1993	0632	02854020		add	%GPR8,%GPR20,%GPR5	
1994	0633	02763820		add	%GPR7,%GPR19,%GPR22	
1995	0634	45750010		srli	%GPR21,%GPR11,$16	
1996	0635	45ab0010		srli	%GPR11,%GPR13,$16	
1997	0636	458c0010		srli	%GPR12,%GPR12,$16	
1998	0637	45d90010		srli	%GPR25,%GPR14,$16	
1999	0638	00e8b820		add	%GPR23,%GPR7,%GPR8	
2000	0639	00e8c022		sub	%GPR24,%GPR7,%GPR8	
2001	063a	460e0010		srli	%GPR14,%GPR16,$16	
2002	063b	01954020		add	%GPR8,%GPR12,%GPR21	
2003	063c	01793820		add	%GPR7,%GPR11,%GPR25	
2004	063d	00641822		sub	%GPR3,%GPR3,%GPR4	
2005	063e	00260822		sub	%GPR1,%GPR1,%GPR6	
2006	063f	462d0010		srli	%GPR13,%GPR17,$16	
2007	0640	46500010		srli	%GPR16,%GPR18,$16	
2008	0641	45ef0010		srli	%GPR15,%GPR15,$16	
2009	0642	00e8d020		add	%GPR26,%GPR7,%GPR8	
2010	0643	00e8d822		sub	%GPR27,%GPR7,%GPR8	
2011	0644	00232020		add	%GPR4,%GPR1,%GPR3	
2012	0645	00233022		sub	%GPR6,%GPR1,%GPR3	
2013	0646	01cf4020		add	%GPR8,%GPR14,%GPR15	
2014	0647	01b03820		add	%GPR7,%GPR13,%GPR16	
2015	0648	02851822		sub	%GPR3,%GPR20,%GPR5	
2016	0649	02760822		sub	%GPR1,%GPR19,%GPR22	
2017				; Automatically 2 NOPs removed by reduceNOPs.sh
2018	064a	00e88820		add	%GPR17,%GPR7,%GPR8	
2019	064b	00e89022		sub	%GPR18,%GPR7,%GPR8	
2020	064c	00232820		add	%GPR5,%GPR1,%GPR3	
2021	064d	00239822		sub	%GPR19,%GPR1,%GPR3	
2022	064e	01951822		sub	%GPR3,%GPR12,%GPR21	
2023	064f	01790822		sub	%GPR1,%GPR11,%GPR25	
2024	0650	01313820		add	%GPR7,%GPR9,%GPR17	
2025	0651	02fa4020		add	%GPR8,%GPR23,%GPR26	
2026				; Automatically 2 NOPs removed by reduceNOPs.sh
2027	0652	00236020		add	%GPR12,%GPR1,%GPR3	
2028	0653	00235822		sub	%GPR11,%GPR1,%GPR3	
2029	0654	01b00822		sub	%GPR1,%GPR13,%GPR16	
2030	0655	01cf1822		sub	%GPR3,%GPR14,%GPR15	
2031	0656	00e8e020		add	%GPR28,%GPR7,%GPR8	
2032	0657	00e88022		sub	%GPR16,%GPR7,%GPR8	
2033				; Automatically 2 NOPs removed by reduceNOPs.sh
2034	0658	00236820		add	%GPR13,%GPR1,%GPR3	
2035	0659	00237022		sub	%GPR14,%GPR1,%GPR3	
2036	065a	4b810001		srai	%GPR1,%GPR28,$1	
2037	065b	02fa1822		sub	%GPR3,%GPR23,%GPR26	
2038	065c	00ac4020		add	%GPR8,%GPR5,%GPR12	
2039				; Automatically 2 NOPs removed by reduceNOPs.sh
2040	065d	302fffff		andi	%GPR15,%GPR1,$65535	
2041	065e	01310822		sub	%GPR1,%GPR9,%GPR17	
2042				; Automatically 4 NOPs removed by reduceNOPs.sh
2043	065f	00238822		sub	%GPR17,%GPR1,%GPR3	
2044	0660	00234820		add	%GPR9,%GPR1,%GPR3	
2045	0661	41e10010		slli	%GPR1,%GPR15,$16	
2046				; Automatically 2 NOPs removed by reduceNOPs.sh
2047	0662	4a270001		srai	%GPR7,%GPR17,$1	
2048	0663	49230001		srai	%GPR3,%GPR9,$1	
2049	0664	3c090000		lhi	%GPR9,$0	
2050				; Automatically 4 NOPs removed by reduceNOPs.sh
2051	0665	35290004		ori	%GPR9,%GPR9,$4	
2052				; Automatically 2 NOPs removed by reduceNOPs.sh
2053	0666	30f1ffff		andi	%GPR17,%GPR7,$65535	
2054	0667	3063ffff		andi	%GPR3,%GPR3,$65535	
2055	0668	008d3820		add	%GPR7,%GPR4,%GPR13	
2056				; Automatically 2 NOPs removed by reduceNOPs.sh
2057	0669	00318825		or	%GPR17,%GPR1,%GPR17	
2058	066a	406f0010		slli	%GPR15,%GPR3,$16	
2059	066b	008d0822		sub	%GPR1,%GPR4,%GPR13	
2060	066c	00ac1822		sub	%GPR3,%GPR5,%GPR12	
2061	066d	00e8a020		add	%GPR20,%GPR7,%GPR8	
2062	066e	ac510000		sw	0(%GPR2),%GPR17	
2063	066f	00494820		add	%GPR9,%GPR2,%GPR9	
2064	0670	00232820		add	%GPR5,%GPR1,%GPR3	
2065	0671	00230822		sub	%GPR1,%GPR1,%GPR3	
2066	0672	4a030001		srai	%GPR3,%GPR16,$1	
2067	0673	00e82022		sub	%GPR4,%GPR7,%GPR8	
2068	0674	01523820		add	%GPR7,%GPR10,%GPR18	
2069	0675	48210001		srai	%GPR1,%GPR1,$1	
2070	0676	306cffff		andi	%GPR12,%GPR3,$65535	
2071	0677	4a830001		srai	%GPR3,%GPR20,$1	
2072	0678	031b4020		add	%GPR8,%GPR24,%GPR27	
2073	0679	3021ffff		andi	%GPR1,%GPR1,$65535	
2074	067a	01ec6025		or	%GPR12,%GPR15,%GPR12	
2075	067b	306dffff		andi	%GPR13,%GPR3,$65535	
2076	067c	3c030000		lhi	%GPR3,$0	
2077				; Automatically 4 NOPs removed by reduceNOPs.sh
2078	067d	34630008		ori	%GPR3,%GPR3,$8	
2079	067e	48a50001		srai	%GPR5,%GPR5,$1	
2080	067f	ad2c0000		sw	0(%GPR9),%GPR12	
2081	0680	41ad0010		slli	%GPR13,%GPR13,$16	
2082	0681	00436020		add	%GPR12,%GPR2,%GPR3	
2083	0682	031b1822		sub	%GPR3,%GPR24,%GPR27	
2084	0683	00e87820		add	%GPR15,%GPR7,%GPR8	
2085	0684	01a16825		or	%GPR13,%GPR13,%GPR1	
2086	0685	01520822		sub	%GPR1,%GPR10,%GPR18	
2087	0686	30a5ffff		andi	%GPR5,%GPR5,$65535	
2088				; Automatically 3 NOPs removed by reduceNOPs.sh
2089	0687	00235020		add	%GPR10,%GPR1,%GPR3	
2090	0688	00230822		sub	%GPR1,%GPR1,%GPR3	
2091	0689	48830001		srai	%GPR3,%GPR4,$1	
2092	068a	40a50010		slli	%GPR5,%GPR5,$16	
2093	068b	3c090000		lhi	%GPR9,$0	
2094				; Automatically 4 NOPs removed by reduceNOPs.sh
2095	068c	3529000c		ori	%GPR9,%GPR9,$12	
2096	068d	48210001		srai	%GPR1,%GPR1,$1	
2097	068e	3070ffff		andi	%GPR16,%GPR3,$65535	
2098	068f	49e30001		srai	%GPR3,%GPR15,$1	
2099	0690	ad8d0000		sw	0(%GPR12),%GPR13	
2100	0691	00494820		add	%GPR9,%GPR2,%GPR9	
2101	0692	00b06025		or	%GPR12,%GPR5,%GPR16	
2102	0693	306fffff		andi	%GPR15,%GPR3,$65535	
2103	0694	3021ffff		andi	%GPR1,%GPR1,$65535	
2104	0695	3c030000		lhi	%GPR3,$0	
2105				; Automatically 4 NOPs removed by reduceNOPs.sh
2106	0696	34630010		ori	%GPR3,%GPR3,$16	
2107	0697	00e82022		sub	%GPR4,%GPR7,%GPR8	
2108	0698	41e50010		slli	%GPR5,%GPR15,$16	
2109	0699	ad2c0000		sw	0(%GPR9),%GPR12	
2110	069a	49470001		srai	%GPR7,%GPR10,$1	
2111	069b	00436020		add	%GPR12,%GPR2,%GPR3	
2112	069c	00a12825		or	%GPR5,%GPR5,%GPR1	
2113	069d	00ce0822		sub	%GPR1,%GPR6,%GPR14	
2114	069e	026b1822		sub	%GPR3,%GPR19,%GPR11	
2115	069f	30edffff		andi	%GPR13,%GPR7,$65535	
2116	06a0	00ce3820		add	%GPR7,%GPR6,%GPR14	
2117	06a1	026b4020		add	%GPR8,%GPR19,%GPR11	
2118	06a2	00233020		add	%GPR6,%GPR1,%GPR3	
2119	06a3	00231822		sub	%GPR3,%GPR1,%GPR3	
2120	06a4	48810001		srai	%GPR1,%GPR4,$1	
2121	06a5	00e85020		add	%GPR10,%GPR7,%GPR8	
2122				; Automatically 2 NOPs removed by reduceNOPs.sh
2123	06a6	ad850000		sw	0(%GPR12),%GPR5	
2124	06a7	3024ffff		andi	%GPR4,%GPR1,$65535	
2125	06a8	49410001		srai	%GPR1,%GPR10,$1	
2126	06a9	3c090000		lhi	%GPR9,$0	
2127				; Automatically 4 NOPs removed by reduceNOPs.sh
2128	06aa	35290014		ori	%GPR9,%GPR9,$20	
2129	06ab	00e82822		sub	%GPR5,%GPR7,%GPR8	
2130	06ac	41ad0010		slli	%GPR13,%GPR13,$16	
2131	06ad	3021ffff		andi	%GPR1,%GPR1,$65535	
2132	06ae	00494020		add	%GPR8,%GPR2,%GPR9	
2133				; Automatically 2 NOPs removed by reduceNOPs.sh
2134	06af	01a42025		or	%GPR4,%GPR13,%GPR4	
2135	06b0	40290010		slli	%GPR9,%GPR1,$16	
2136	06b1	48c10001		srai	%GPR1,%GPR6,$1	
2137	06b2	3c070000		lhi	%GPR7,$0	
2138				; Automatically 4 NOPs removed by reduceNOPs.sh
2139	06b3	34e70018		ori	%GPR7,%GPR7,$24	
2140	06b4	ad040000		sw	0(%GPR8),%GPR4	
2141				; Automatically 2 NOPs removed by reduceNOPs.sh
2142	06b5	3026ffff		andi	%GPR6,%GPR1,$65535	
2143	06b6	48610001		srai	%GPR1,%GPR3,$1	
2144	06b7	00472020		add	%GPR4,%GPR2,%GPR7	
2145	06b8	3c030000		lhi	%GPR3,$0	
2146				; Automatically 4 NOPs removed by reduceNOPs.sh
2147	06b9	3463001c		ori	%GPR3,%GPR3,$28	
2148	06ba	40c60010		slli	%GPR6,%GPR6,$16	
2149	06bb	3021ffff		andi	%GPR1,%GPR1,$65535	
2150				; Automatically 2 NOPs removed by reduceNOPs.sh
2151	06bc	00431020		add	%GPR2,%GPR2,%GPR3	
2152				; Automatically 2 NOPs removed by reduceNOPs.sh
2153	06bd	01213825		or	%GPR7,%GPR9,%GPR1	
2154	06be	48a10001		srai	%GPR1,%GPR5,$1	
2155				; Automatically 3 NOPs removed by reduceNOPs.sh
2156	06bf	ac870000		sw	0(%GPR4),%GPR7	
2157	06c0	3021ffff		andi	%GPR1,%GPR1,$65535	
2158				; Automatically 4 NOPs removed by reduceNOPs.sh
2159	06c1	00c10825		or	%GPR1,%GPR6,%GPR1	
2160				; Automatically 4 NOPs removed by reduceNOPs.sh
2161	06c2	00000000		nop	; Automatically added by fix-stall-insns.pl
2162	06c3	00000000		nop	; Automatically added by fix-stall-insns.pl
2163	06c4	ac410000		sw	0(%GPR2),%GPR1	
2164	06c5	08000001		j	L_main_7	
2165				; Automatically 3 NOPs removed by reduceNOPs.sh
2166			L_main_7:
2167				; Automatically 4 NOPs removed by reduceNOPs.sh
2168	06c6	00000000		nop	; Automatically added by fix-stall-insns.pl
2169	06c7	00000000		nop	; Automatically added by fix-stall-insns.pl
2170	06c8	8fdf0004		lw	%GPR31,4(%GPR30)	
2171	06c9	27dd0004		addui	%GPR29,%GPR30,$4	
2172	06ca	00000000		nop	; Automatically added by fix-stall-insns.pl
2173	06cb	00000000		nop	; Automatically added by fix-stall-insns.pl
2174	06cc	00000000		nop	; Automatically added by fix-stall-insns.pl
2175	06cd	8fde0000		lw	%GPR30,0(%GPR30)	
2176				; Automatically 2 NOPs removed by reduceNOPs.sh
2177	06ce	00000000		nop
2178	06cf	00000000		nop	; Automatically added by fix-stall-insns.pl
2179	06d0	00000000		nop	; Automatically added by fix-stall-insns.pl
2180	06d1	00000000		nop	; Automatically added by fix-stall-insns.pl
2181	06d2	00000000		nop
2182	06d3	03e00008		jr	%GPR31	
2183				; Automatically 4 NOPs removed by reduceNOPs.sh
2184			SATD_4x4:
2185			L_main_8:
2186				; Automatically 4 NOPs removed by reduceNOPs.sh
2187	06d4	00000000		nop	; Automatically added by fix-stall-insns.pl
2188	06d5	afbefffc		sw	-4(%GPR29),%GPR30	
2189	06d6	afbf0000		sw	0(%GPR29),%GPR31	
2190	06d7	2fbe0004		subui	%GPR30,%GPR29,$4	
2191				; Automatically 1 NOPs removed by reduceNOPs.sh
2192	06d8	2bbd0078		subi	%GPR29,%GPR29,$120	
2193				; Automatically 4 NOPs removed by reduceNOPs.sh
2194	06d9	00209820		add	%GPR19,%GPR1,%GPR0	
2195	06da	00403020		add	%GPR6,%GPR2,%GPR0	
2196	06db	00602820		add	%GPR5,%GPR3,%GPR0	
2197				; Automatically 8 NOPs removed by reduceNOPs.sh
2198	06dc	3c070000		lhi	%GPR7,$0	
2199				; Automatically 4 NOPs removed by reduceNOPs.sh
2200	06dd	34e70004		ori	%GPR7,%GPR7,$4	
2201	06de	3c030000		lhi	%GPR3,$0	
2202				; Automatically 4 NOPs removed by reduceNOPs.sh
2203	06df	34630004		ori	%GPR3,%GPR3,$4	
2204	06e0	3c020000		lhi	%GPR2,$0	
2205				; Automatically 4 NOPs removed by reduceNOPs.sh
2206	06e1	34420004		ori	%GPR2,%GPR2,$4	
2207				; Automatically 2 NOPs removed by reduceNOPs.sh
2208	06e2	00c77818		mult	%GPR15,%GPR6,%GPR7	
2209	06e3	00c35018		mult	%GPR10,%GPR6,%GPR3	
2210	06e4	00000000		nop	; Automatically added by fix-stall-insns.pl
2211	06e5	00000000		nop	; Automatically added by fix-stall-insns.pl
2212	06e6	00000000		nop	; Automatically added by fix-stall-insns.pl
2213	06e7	00c21018		mult	%GPR2,%GPR6,%GPR2	
2214				; Automatically 4 NOPs removed by reduceNOPs.sh
2215	06e8	8ca60000		lw	%GPR6,0(%GPR5)	
2216	06e9	3c010000		lhi	%GPR1,$0	
2217				; Automatically 4 NOPs removed by reduceNOPs.sh
2218	06ea	34210010		ori	%GPR1,%GPR1,$16	
2219				; Automatically 3 NOPs removed by reduceNOPs.sh
2220	06eb	00000000		nop	; Automatically added by fix-stall-insns.pl
2221	06ec	00000000		nop	; Automatically added by fix-stall-insns.pl
2222	06ed	afc6fffc		sw	-4(%GPR30),%GPR6	
2223	06ee	00000000		nop	; Automatically added by findLoadStoreProblem.sh
2224	06ef	00000000		nop	; Automatically added by fix-stall-insns.pl
2225	06f0	00000000		nop	; Automatically added by fix-stall-insns.pl
2226	06f1	00000000		nop	; Automatically added by fix-stall-insns.pl
2227	06f2	8e660000		lw	%GPR6,0(%GPR19)	
2228				; Automatically 4 NOPs removed by reduceNOPs.sh
2229	06f3	afc6fff8		sw	-8(%GPR30),%GPR6	
2230	06f4	00000000		nop	; Automatically added by findLoadStoreProblem.sh
2231	06f5	00000000		nop	; Automatically added by fix-stall-insns.pl
2232	06f6	00000000		nop	; Automatically added by fix-stall-insns.pl
2233	06f7	00000000		nop	; Automatically added by fix-stall-insns.pl
2234	06f8	8ca60000		lw	%GPR6,0(%GPR5)	
2235	06f9	3c040000		lhi	%GPR4,$0	
2236				; Automatically 4 NOPs removed by reduceNOPs.sh
2237	06fa	34840010		ori	%GPR4,%GPR4,$16	
2238				; Automatically 3 NOPs removed by reduceNOPs.sh
2239	06fb	00000000		nop	; Automatically added by fix-stall-insns.pl
2240	06fc	00000000		nop	; Automatically added by fix-stall-insns.pl
2241	06fd	afc6fff4		sw	-12(%GPR30),%GPR6	
2242	06fe	00000000		nop	; Automatically added by findLoadStoreProblem.sh
2243	06ff	00000000		nop	; Automatically added by fix-stall-insns.pl
2244	0700	00000000		nop	; Automatically added by fix-stall-insns.pl
2245	0701	00000000		nop	; Automatically added by fix-stall-insns.pl
2246	0702	8e660000		lw	%GPR6,0(%GPR19)	
2247				; Automatically 4 NOPs removed by reduceNOPs.sh
2248	0703	afc6fff0		sw	-16(%GPR30),%GPR6	
2249	0704	00000000		nop	; Automatically added by findLoadStoreProblem.sh
2250	0705	00000000		nop	; Automatically added by fix-stall-insns.pl
2251	0706	00000000		nop	; Automatically added by fix-stall-insns.pl
2252	0707	00000000		nop	; Automatically added by fix-stall-insns.pl
2253	0708	8ca60000		lw	%GPR6,0(%GPR5)	
2254				; Automatically 4 NOPs removed by reduceNOPs.sh
2255	0709	afc6ffec		sw	-20(%GPR30),%GPR6	
2256	070a	00000000		nop	; Automatically added by findLoadStoreProblem.sh
2257	070b	00000000		nop	; Automatically added by fix-stall-insns.pl
2258	070c	00000000		nop	; Automatically added by fix-stall-insns.pl
2259	070d	00000000		nop	; Automatically added by fix-stall-insns.pl
2260	070e	8e660000		lw	%GPR6,0(%GPR19)	
2261				; Automatically 4 NOPs removed by reduceNOPs.sh
2262	070f	afc6ffe8		sw	-24(%GPR30),%GPR6	
2263	0710	00000000		nop	; Automatically added by findLoadStoreProblem.sh
2264	0711	00000000		nop	; Automatically added by fix-stall-insns.pl
2265	0712	00000000		nop	; Automatically added by fix-stall-insns.pl
2266	0713	00000000		nop	; Automatically added by fix-stall-insns.pl
2267	0714	8ca60000		lw	%GPR6,0(%GPR5)	
2268	0715	00a12820		add	%GPR5,%GPR5,%GPR1	
2269				; Automatically 3 NOPs removed by reduceNOPs.sh
2270	0716	00000000		nop	; Automatically added by fix-stall-insns.pl
2271	0717	00000000		nop	; Automatically added by fix-stall-insns.pl
2272	0718	00000000		nop	; Automatically added by fix-stall-insns.pl
2273	0719	afc6ffe4		sw	-28(%GPR30),%GPR6	
2274	071a	00000000		nop	; Automatically added by findLoadStoreProblem.sh
2275	071b	00000000		nop	; Automatically added by fix-stall-insns.pl
2276	071c	00000000		nop	; Automatically added by fix-stall-insns.pl
2277	071d	00000000		nop	; Automatically added by fix-stall-insns.pl
2278	071e	8ca10000		lw	%GPR1,0(%GPR5)	
2279	071f	8e660000		lw	%GPR6,0(%GPR19)	
2280	0720	02629820		add	%GPR19,%GPR19,%GPR2	
2281	0721	00000000		nop	; Automatically added by fix-stall-insns.pl
2282	0722	00000000		nop	; Automatically added by fix-stall-insns.pl
2283	0723	00000000		nop	; Automatically added by fix-stall-insns.pl
2284	0724	8ca70000		lw	%GPR7,0(%GPR5)	
2285	0725	00000000		nop	; Automatically added by findLoadStoreProblem.sh
2286	0726	00000000		nop	; Automatically added by fix-stall-insns.pl
2287	0727	00000000		nop	; Automatically added by fix-stall-insns.pl
2288	0728	00000000		nop	; Automatically added by fix-stall-insns.pl
2289	0729	afc1ffe0		sw	-32(%GPR30),%GPR1	
2290	072a	00000000		nop	; Automatically added by findLoadStoreProblem.sh
2291	072b	00000000		nop	; Automatically added by fix-stall-insns.pl
2292	072c	00000000		nop	; Automatically added by fix-stall-insns.pl
2293	072d	00000000		nop	; Automatically added by fix-stall-insns.pl
2294	072e	8ca10000		lw	%GPR1,0(%GPR5)	
2295	072f	00000000		nop	; Automatically added by findLoadStoreProblem.sh
2296	0730	00000000		nop	; Automatically added by fix-stall-insns.pl
2297	0731	00000000		nop	; Automatically added by fix-stall-insns.pl
2298	0732	00000000		nop	; Automatically added by fix-stall-insns.pl
2299	0733	afc6ffdc		sw	-36(%GPR30),%GPR6	
2300	0734	00000000		nop	; Automatically added by findLoadStoreProblem.sh
2301	0735	00000000		nop	; Automatically added by fix-stall-insns.pl
2302	0736	00000000		nop	; Automatically added by fix-stall-insns.pl
2303	0737	00000000		nop	; Automatically added by fix-stall-insns.pl
2304	0738	8ca60000		lw	%GPR6,0(%GPR5)	
2305	0739	00a42820		add	%GPR5,%GPR5,%GPR4	
2306	073a	00000000		nop	; Automatically added by fix-stall-insns.pl
2307	073b	00000000		nop	; Automatically added by fix-stall-insns.pl
2308	073c	00000000		nop	; Automatically added by fix-stall-insns.pl
2309	073d	afc1ffd8		sw	-40(%GPR30),%GPR1	
2310	073e	00000000		nop	; Automatically added by findLoadStoreProblem.sh
2311	073f	00000000		nop	; Automatically added by fix-stall-insns.pl
2312	0740	00000000		nop	; Automatically added by fix-stall-insns.pl
2313	0741	00000000		nop	; Automatically added by fix-stall-insns.pl
2314	0742	8e610000		lw	%GPR1,0(%GPR19)	
2315	0743	8e690000		lw	%GPR9,0(%GPR19)	
2316	0744	00000000		nop	; Automatically added by fix-stall-insns.pl
2317	0745	00000000		nop	; Automatically added by fix-stall-insns.pl
2318	0746	00000000		nop	; Automatically added by fix-stall-insns.pl
2319	0747	00000000		nop	; Automatically added by fix-stall-insns.pl
2320	0748	8e6b0000		lw	%GPR11,0(%GPR19)	
2321				; Automatically 2 NOPs removed by reduceNOPs.sh
2322	0749	afc1ffd4		sw	-44(%GPR30),%GPR1	
2323	074a	00000000		nop	; Automatically added by findLoadStoreProblem.sh
2324	074b	00000000		nop	; Automatically added by fix-stall-insns.pl
2325	074c	00000000		nop	; Automatically added by fix-stall-insns.pl
2326	074d	00000000		nop	; Automatically added by fix-stall-insns.pl
2327	074e	8e610000		lw	%GPR1,0(%GPR19)	
2328	074f	026a9820		add	%GPR19,%GPR19,%GPR10	
2329				; Automatically 3 NOPs removed by reduceNOPs.sh
2330	0750	00000000		nop	; Automatically added by fix-stall-insns.pl
2331	0751	00000000		nop	; Automatically added by fix-stall-insns.pl
2332	0752	00000000		nop	; Automatically added by fix-stall-insns.pl
2333	0753	afc1ffd0		sw	-48(%GPR30),%GPR1	
2334	0754	00000000		nop	; Automatically added by findLoadStoreProblem.sh
2335	0755	00000000		nop	; Automatically added by fix-stall-insns.pl
2336	0756	00000000		nop	; Automatically added by fix-stall-insns.pl
2337	0757	00000000		nop	; Automatically added by fix-stall-insns.pl
2338	0758	8ca10000		lw	%GPR1,0(%GPR5)	
2339	0759	3c0a00ff		lhi	%GPR10,$255	
2340				; Automatically 4 NOPs removed by reduceNOPs.sh
2341	075a	354a0000		ori	%GPR10,%GPR10,$16711680	
2342				; Automatically 2 NOPs removed by reduceNOPs.sh
2343	075b	3c0dff00		lhi	%GPR13,$65280	
2344				; Automatically 4 NOPs removed by reduceNOPs.sh
2345	075c	35ad0000		ori	%GPR13,%GPR13,$-16777216	
2346	075d	afc1ffcc		sw	-52(%GPR30),%GPR1	
2347	075e	00000000		nop	; Automatically added by findLoadStoreProblem.sh
2348	075f	00000000		nop	; Automatically added by fix-stall-insns.pl
2349	0760	00000000		nop	; Automatically added by fix-stall-insns.pl
2350	0761	00000000		nop	; Automatically added by fix-stall-insns.pl
2351	0762	8ca10000		lw	%GPR1,0(%GPR5)	
2352				; Automatically 4 NOPs removed by reduceNOPs.sh
2353	0763	afc1ffc8		sw	-56(%GPR30),%GPR1	
2354	0764	00000000		nop	; Automatically added by findLoadStoreProblem.sh
2355	0765	00000000		nop	; Automatically added by fix-stall-insns.pl
2356	0766	00000000		nop	; Automatically added by fix-stall-insns.pl
2357	0767	00000000		nop	; Automatically added by fix-stall-insns.pl
2358	0768	8e610000		lw	%GPR1,0(%GPR19)	
2359	0769	00ea5024		and	%GPR10,%GPR7,%GPR10	
2360	076a	3c030000		lhi	%GPR3,$0	
2361				; Automatically 4 NOPs removed by reduceNOPs.sh
2362	076b	34630010		ori	%GPR3,%GPR3,$16	
2363	076c	00cd3824		and	%GPR7,%GPR6,%GPR13	
2364	076d	afc1ffc4		sw	-60(%GPR30),%GPR1	
2365	076e	00000000		nop	; Automatically added by findLoadStoreProblem.sh
2366	076f	00000000		nop	; Automatically added by fix-stall-insns.pl
2367	0770	00000000		nop	; Automatically added by fix-stall-insns.pl
2368	0771	00000000		nop	; Automatically added by fix-stall-insns.pl
2369	0772	8e610000		lw	%GPR1,0(%GPR19)	
2370	0773	3c0c00ff		lhi	%GPR12,$255	
2371				; Automatically 4 NOPs removed by reduceNOPs.sh
2372	0774	358c0000		ori	%GPR12,%GPR12,$16711680	
2373	0775	3c1000ff		lhi	%GPR16,$255	
2374				; Automatically 4 NOPs removed by reduceNOPs.sh
2375	0776	36100000		ori	%GPR16,%GPR16,$16711680	
2376	0777	8fc6ffec		lw	%GPR6,-20(%GPR30)	
2377	0778	00000000		nop	; Automatically added by findLoadStoreProblem.sh
2378	0779	00000000		nop	; Automatically added by fix-stall-insns.pl
2379	077a	00000000		nop	; Automatically added by fix-stall-insns.pl
2380	077b	00000000		nop	; Automatically added by fix-stall-insns.pl
2381	077c	afc1ffc0		sw	-64(%GPR30),%GPR1	
2382	077d	3c0100ff		lhi	%GPR1,$255	
2383				; Automatically 4 NOPs removed by reduceNOPs.sh
2384	077e	34210000		ori	%GPR1,%GPR1,$16711680	
2385	077f	00000000		nop	; Automatically added by fix-stall-insns.pl
2386	0780	00000000		nop	; Automatically added by fix-stall-insns.pl
2387	0781	8ca20000		lw	%GPR2,0(%GPR5)	
2388	0782	8ca80000		lw	%GPR8,0(%GPR5)	
2389	0783	00a32820		add	%GPR5,%GPR5,%GPR3	
2390	0784	00000000		nop	; Automatically added by fix-stall-insns.pl
2391	0785	00000000		nop	; Automatically added by fix-stall-insns.pl
2392	0786	00000000		nop	; Automatically added by fix-stall-insns.pl
2393	0787	afc1ffbc		sw	-68(%GPR30),%GPR1	
2394	0788	3c0100ff		lhi	%GPR1,$255	
2395				; Automatically 4 NOPs removed by reduceNOPs.sh
2396	0789	34210000		ori	%GPR1,%GPR1,$16711680	
2397				; Automatically 5 NOPs removed by reduceNOPs.sh
2398	078a	016c5824		and	%GPR11,%GPR11,%GPR12	
2399	078b	00d06024		and	%GPR12,%GPR6,%GPR16	
2400	078c	3c1100ff		lhi	%GPR17,$255	
2401				; Automatically 4 NOPs removed by reduceNOPs.sh
2402	078d	36310000		ori	%GPR17,%GPR17,$16711680	
2403	078e	3c0eff00		lhi	%GPR14,$65280	
2404				; Automatically 4 NOPs removed by reduceNOPs.sh
2405	078f	35ce0000		ori	%GPR14,%GPR14,$-16777216	
2406	0790	8fc6ffe8		lw	%GPR6,-24(%GPR30)	
2407	0791	00000000		nop	; Automatically added by findLoadStoreProblem.sh
2408	0792	00000000		nop	; Automatically added by fix-stall-insns.pl
2409	0793	00000000		nop	; Automatically added by fix-stall-insns.pl
2410	0794	00000000		nop	; Automatically added by fix-stall-insns.pl
2411	0795	afc1ffb8		sw	-72(%GPR30),%GPR1	
2412	0796	00000000		nop	; Automatically added by findLoadStoreProblem.sh
2413	0797	00000000		nop	; Automatically added by fix-stall-insns.pl
2414	0798	00000000		nop	; Automatically added by fix-stall-insns.pl
2415	0799	00000000		nop	; Automatically added by fix-stall-insns.pl
2416	079a	8ca30000		lw	%GPR3,0(%GPR5)	
2417	079b	3c04ff00		lhi	%GPR4,$65280	
2418				; Automatically 4 NOPs removed by reduceNOPs.sh
2419	079c	34840000		ori	%GPR4,%GPR4,$-16777216	
2420	079d	3c01ff00		lhi	%GPR1,$65280	
2421				; Automatically 4 NOPs removed by reduceNOPs.sh
2422	079e	34210000		ori	%GPR1,%GPR1,$-16777216	
2423				; Automatically 2 NOPs removed by reduceNOPs.sh
2424	079f	00d16824		and	%GPR13,%GPR6,%GPR17	
2425	07a0	012e4824		and	%GPR9,%GPR9,%GPR14	
2426	07a1	00618824		and	%GPR17,%GPR3,%GPR1	
2427	07a2	3c15ff00		lhi	%GPR21,$65280	
2428				; Automatically 4 NOPs removed by reduceNOPs.sh
2429	07a3	36b50000		ori	%GPR21,%GPR21,$-16777216	
2430	07a4	8fceffdc		lw	%GPR14,-36(%GPR30)	
2431	07a5	00000000		nop	; Automatically added by findLoadStoreProblem.sh
2432	07a6	00000000		nop	; Automatically added by fix-stall-insns.pl
2433	07a7	00000000		nop	; Automatically added by fix-stall-insns.pl
2434	07a8	00000000		nop	; Automatically added by fix-stall-insns.pl
2435	07a9	afc4ffb4		sw	-76(%GPR30),%GPR4	
2436	07aa	00000000		nop	; Automatically added by findLoadStoreProblem.sh
2437	07ab	00000000		nop	; Automatically added by fix-stall-insns.pl
2438	07ac	00000000		nop	; Automatically added by fix-stall-insns.pl
2439	07ad	00000000		nop	; Automatically added by fix-stall-insns.pl
2440	07ae	8e760000		lw	%GPR22,0(%GPR19)	
2441	07af	8e770000		lw	%GPR23,0(%GPR19)	
2442	07b0	00000000		nop	; Automatically added by fix-stall-insns.pl
2443	07b1	00000000		nop	; Automatically added by fix-stall-insns.pl
2444	07b2	00000000		nop	; Automatically added by fix-stall-insns.pl
2445	07b3	00000000		nop	; Automatically added by fix-stall-insns.pl
2446	07b4	8ca40000		lw	%GPR4,0(%GPR5)	
2447	07b5	8fc1ffbc		lw	%GPR1,-68(%GPR30)	
2448	07b6	026f9820		add	%GPR19,%GPR19,%GPR15	
2449				; Automatically 2 NOPs removed by reduceNOPs.sh
2450	07b7	01d58024		and	%GPR16,%GPR14,%GPR21	
2451	07b8	00817024		and	%GPR14,%GPR4,%GPR1	
2452	07b9	00000000		nop	; Automatically added by fix-stall-insns.pl
2453	07ba	8fc6ffe4		lw	%GPR6,-28(%GPR30)	
2454	07bb	3c12ff00		lhi	%GPR18,$65280	
2455				; Automatically 4 NOPs removed by reduceNOPs.sh
2456	07bc	36520000		ori	%GPR18,%GPR18,$-16777216	
2457	07bd	00000000		nop	; Automatically added by fix-stall-insns.pl
2458	07be	00000000		nop	; Automatically added by fix-stall-insns.pl
2459	07bf	8e6f0000		lw	%GPR15,0(%GPR19)	
2460	07c0	8fc1ffb4		lw	%GPR1,-76(%GPR30)	
2461	07c1	00000000		nop	; Automatically added by fix-stall-insns.pl
2462	07c2	00000000		nop	; Automatically added by fix-stall-insns.pl
2463	07c3	00000000		nop	; Automatically added by fix-stall-insns.pl
2464	07c4	00000000		nop	; Automatically added by fix-stall-insns.pl
2465	07c5	8e740000		lw	%GPR20,0(%GPR19)	
2466	07c6	00d23024		and	%GPR6,%GPR6,%GPR18	
2467				; Automatically 2 NOPs removed by reduceNOPs.sh
2468	07c7	01e19024		and	%GPR18,%GPR15,%GPR1	
2469	07c8	00000000		nop	; Automatically added by fix-stall-insns.pl
2470	07c9	00000000		nop	; Automatically added by fix-stall-insns.pl
2471	07ca	8fc1ffb8		lw	%GPR1,-72(%GPR30)	
2472				; Automatically 2 NOPs removed by reduceNOPs.sh
2473	07cb	3c1800ff		lhi	%GPR24,$255	
2474				; Automatically 4 NOPs removed by reduceNOPs.sh
2475	07cc	37180000		ori	%GPR24,%GPR24,$16711680	
2476				; Automatically 2 NOPs removed by reduceNOPs.sh
2477	07cd	02817824		and	%GPR15,%GPR20,%GPR1	
2478	07ce	00000000		nop	; Automatically added by fix-stall-insns.pl
2479	07cf	8fc1fff4		lw	%GPR1,-12(%GPR30)	
2480	07d0	01184024		and	%GPR8,%GPR8,%GPR24	
2481	07d1	3c1900ff		lhi	%GPR25,$255	
2482				; Automatically 4 NOPs removed by reduceNOPs.sh
2483	07d2	37390000		ori	%GPR25,%GPR25,$16711680	
2484	07d3	3c1aff00		lhi	%GPR26,$65280	
2485				; Automatically 4 NOPs removed by reduceNOPs.sh
2486	07d4	375a0000		ori	%GPR26,%GPR26,$-16777216	
2487	07d5	3038ff00		andi	%GPR24,%GPR1,$65280	
2488	07d6	8fc1fff0		lw	%GPR1,-16(%GPR30)	
2489	07d7	00000000		nop	; Automatically added by findLoadStoreProblem.sh
2490	07d8	00000000		nop	; Automatically added by fix-stall-insns.pl
2491	07d9	00000000		nop	; Automatically added by fix-stall-insns.pl
2492	07da	00000000		nop	; Automatically added by fix-stall-insns.pl
2493	07db	afc8ffb0		sw	-80(%GPR30),%GPR8	
2494	07dc	02f94024		and	%GPR8,%GPR23,%GPR25	
2495	07dd	005a1024		and	%GPR2,%GPR2,%GPR26	
2496	07de	3037ff00		andi	%GPR23,%GPR1,$65280	
2497	07df	00000000		nop	; Automatically added by fix-stall-insns.pl
2498	07e0	8fc1ffe0		lw	%GPR1,-32(%GPR30)	
2499	07e1	8cbc0000		lw	%GPR28,0(%GPR5)	
2500				; Automatically 3 NOPs removed by reduceNOPs.sh
2501	07e2	3039ff00		andi	%GPR25,%GPR1,$65280	
2502	07e3	00000000		nop	; Automatically added by fix-stall-insns.pl
2503	07e4	00000000		nop	; Automatically added by fix-stall-insns.pl
2504	07e5	00000000		nop	; Automatically added by fix-stall-insns.pl
2505	07e6	8fc1ffd4		lw	%GPR1,-44(%GPR30)	
2506	07e7	00000000		nop	; Automatically added by findLoadStoreProblem.sh
2507	07e8	00000000		nop	; Automatically added by fix-stall-insns.pl
2508	07e9	00000000		nop	; Automatically added by fix-stall-insns.pl
2509	07ea	00000000		nop	; Automatically added by fix-stall-insns.pl
2510	07eb	afdcffac		sw	-84(%GPR30),%GPR28	
2511	07ec	3c1bff00		lhi	%GPR27,$65280	
2512				; Automatically 4 NOPs removed by reduceNOPs.sh
2513	07ed	377b0000		ori	%GPR27,%GPR27,$-16777216	
2514				; Automatically 2 NOPs removed by reduceNOPs.sh
2515	07ee	303aff00		andi	%GPR26,%GPR1,$65280	
2516	07ef	00000000		nop	; Automatically added by fix-stall-insns.pl
2517	07f0	8fc1ffcc		lw	%GPR1,-52(%GPR30)	
2518	07f1	00000000		nop	; Automatically added by findLoadStoreProblem.sh
2519	07f2	00000000		nop	; Automatically added by fix-stall-insns.pl
2520	07f3	00000000		nop	; Automatically added by fix-stall-insns.pl
2521	07f4	00000000		nop	; Automatically added by fix-stall-insns.pl
2522	07f5	afc8ffa8		sw	-88(%GPR30),%GPR8	
2523	07f6	02db4024		and	%GPR8,%GPR22,%GPR27	
2524	07f7	00000000		nop	; Automatically added by fix-stall-insns.pl
2525	07f8	00000000		nop	; Automatically added by fix-stall-insns.pl
2526	07f9	00000000		nop	; Automatically added by fix-stall-insns.pl
2527	07fa	8e7c0000		lw	%GPR28,0(%GPR19)	
2528	07fb	3023ff00		andi	%GPR3,%GPR1,$65280	
2529	07fc	00000000		nop	; Automatically added by fix-stall-insns.pl
2530	07fd	00000000		nop	; Automatically added by fix-stall-insns.pl
2531	07fe	00000000		nop	; Automatically added by fix-stall-insns.pl
2532	07ff	8fc1ffc4		lw	%GPR1,-60(%GPR30)	
2533	0800	8e760000		lw	%GPR22,0(%GPR19)	
2534	0801	3c130000		lhi	%GPR19,$0	
2535				; Automatically 4 NOPs removed by reduceNOPs.sh
2536	0802	36730018		ori	%GPR19,%GPR19,$24	
2537				; Automatically 2 NOPs removed by reduceNOPs.sh
2538	0803	3024ff00		andi	%GPR4,%GPR1,$65280	
2539	0804	00000000		nop	; Automatically added by fix-stall-insns.pl
2540	0805	8ca10000		lw	%GPR1,0(%GPR5)	
2541	0806	8fc5ffac		lw	%GPR5,-84(%GPR30)	
2542	0807	02138002		srl	%GPR16,%GPR16,%GPR19	
2543	0808	01334802		srl	%GPR9,%GPR9,%GPR19	
2544	0809	303500ff		andi	%GPR21,%GPR1,$255	
2545	080a	30a5ff00		andi	%GPR5,%GPR5,$65280	
2546	080b	3c010000		lhi	%GPR1,$0	
2547				; Automatically 4 NOPs removed by reduceNOPs.sh
2548	080c	34210008		ori	%GPR1,%GPR1,$8	
2549	080d	afd0ffa4		sw	-92(%GPR30),%GPR16	
2550	080e	01134002		srl	%GPR8,%GPR8,%GPR19	
2551	080f	00a0d820		add	%GPR27,%GPR5,%GPR0	
2552	0810	03802820		add	%GPR5,%GPR28,%GPR0	
2553	0811	02e1b803		sra	%GPR23,%GPR23,%GPR1	
2554	0812	0301c003		sra	%GPR24,%GPR24,%GPR1	
2555	0813	0341d003		sra	%GPR26,%GPR26,%GPR1	
2556	0814	30a5ff00		andi	%GPR5,%GPR5,$65280	
2557	0815	0321c803		sra	%GPR25,%GPR25,%GPR1	
2558	0816	00812003		sra	%GPR4,%GPR4,%GPR1	
2559	0817	00611803		sra	%GPR3,%GPR3,%GPR1	
2560	0818	00a12803		sra	%GPR5,%GPR5,%GPR1	
2561	0819	03610803		sra	%GPR1,%GPR27,%GPR1	
2562	081a	00d33002		srl	%GPR6,%GPR6,%GPR19	
2563	081b	8fdbffa4		lw	%GPR27,-92(%GPR30)	
2564	081c	00000000		nop	; Automatically added by findLoadStoreProblem.sh
2565	081d	00000000		nop	; Automatically added by fix-stall-insns.pl
2566	081e	00000000		nop	; Automatically added by fix-stall-insns.pl
2567	081f	00000000		nop	; Automatically added by fix-stall-insns.pl
2568	0820	afc9ffa0		sw	-96(%GPR30),%GPR9	
2569	0821	afc8ff9c		sw	-100(%GPR30),%GPR8	
2570	0822	00534002		srl	%GPR8,%GPR2,%GPR19	
2571	0823	02531002		srl	%GPR2,%GPR18,%GPR19	
2572	0824	03663023		subu	%GPR6,%GPR27,%GPR6	
2573				; Automatically 2 NOPs removed by reduceNOPs.sh
2574	0825	00f33802		srl	%GPR7,%GPR7,%GPR19	
2575	0826	8fdbffa0		lw	%GPR27,-96(%GPR30)	
2576	0827	00000000		nop	; Automatically added by findLoadStoreProblem.sh
2577	0828	00000000		nop	; Automatically added by fix-stall-insns.pl
2578	0829	00000000		nop	; Automatically added by fix-stall-insns.pl
2579	082a	00000000		nop	; Automatically added by fix-stall-insns.pl
2580	082b	afc2ff98		sw	-104(%GPR30),%GPR2	
2581	082c	3c020000		lhi	%GPR2,$0	
2582				; Automatically 4 NOPs removed by reduceNOPs.sh
2583	082d	34420010		ori	%GPR2,%GPR2,$16	
2584	082e	02334802		srl	%GPR9,%GPR17,%GPR19	
2585	082f	03673823		subu	%GPR7,%GPR27,%GPR7	
2586	0830	8fdbff9c		lw	%GPR27,-100(%GPR30)	
2587	0831	01a26803		sra	%GPR13,%GPR13,%GPR2	
2588	0832	01826003		sra	%GPR12,%GPR12,%GPR2	
2589	0833	01625803		sra	%GPR11,%GPR11,%GPR2	
2590	0834	03684023		subu	%GPR8,%GPR27,%GPR8	
2591	0835	8fdbff98		lw	%GPR27,-104(%GPR30)	
2592	0836	00000000		nop	; Automatically added by findLoadStoreProblem.sh
2593	0837	00000000		nop	; Automatically added by fix-stall-insns.pl
2594	0838	00000000		nop	; Automatically added by fix-stall-insns.pl
2595	0839	00000000		nop	; Automatically added by fix-stall-insns.pl
2596	083a	afcdff94		sw	-108(%GPR30),%GPR13	
2597	083b	0180e020		add	%GPR28,%GPR12,%GPR0	
2598	083c	00000000		nop	; Automatically added by fix-stall-insns.pl
2599	083d	00000000		nop	; Automatically added by fix-stall-insns.pl
2600	083e	00000000		nop	; Automatically added by fix-stall-insns.pl
2601	083f	afcbff90		sw	-112(%GPR30),%GPR11	
2602	0840	03694823		subu	%GPR9,%GPR27,%GPR9	
2603	0841	00000000		nop	; Automatically added by fix-stall-insns.pl
2604	0842	00000000		nop	; Automatically added by fix-stall-insns.pl
2605	0843	00000000		nop	; Automatically added by fix-stall-insns.pl
2606	0844	8fccffb0		lw	%GPR12,-80(%GPR30)	
2607	0845	8fcbffa8		lw	%GPR11,-88(%GPR30)	
2608	0846	00000000		nop	; Automatically added by fix-stall-insns.pl
2609	0847	00000000		nop	; Automatically added by fix-stall-insns.pl
2610	0848	00000000		nop	; Automatically added by fix-stall-insns.pl
2611	0849	00000000		nop	; Automatically added by fix-stall-insns.pl
2612	084a	8fdbff94		lw	%GPR27,-108(%GPR30)	
2613	084b	01e26803		sra	%GPR13,%GPR15,%GPR2	
2614	084c	00000000		nop	; Automatically added by fix-stall-insns.pl
2615	084d	00000000		nop	; Automatically added by fix-stall-insns.pl
2616	084e	00000000		nop	; Automatically added by fix-stall-insns.pl
2617	084f	8fd0fff8		lw	%GPR16,-8(%GPR30)	
2618	0850	8fd2ffd0		lw	%GPR18,-48(%GPR30)	
2619	0851	00000000		nop	; Automatically added by fix-stall-insns.pl
2620	0852	00000000		nop	; Automatically added by fix-stall-insns.pl
2621	0853	00000000		nop	; Automatically added by fix-stall-insns.pl
2622	0854	00000000		nop	; Automatically added by fix-stall-insns.pl
2623	0855	8fd1ffd8		lw	%GPR17,-40(%GPR30)	
2624	0856	8fcffffc		lw	%GPR15,-4(%GPR30)	
2625	0857	00000000		nop	; Automatically added by fix-stall-insns.pl
2626	0858	00000000		nop	; Automatically added by fix-stall-insns.pl
2627	0859	00000000		nop	; Automatically added by fix-stall-insns.pl
2628	085a	00000000		nop	; Automatically added by fix-stall-insns.pl
2629	085b	8fd4ffc0		lw	%GPR20,-64(%GPR30)	
2630	085c	8fd3ffc8		lw	%GPR19,-56(%GPR30)	
2631	085d	01826003		sra	%GPR12,%GPR12,%GPR2	
2632	085e	01625803		sra	%GPR11,%GPR11,%GPR2	
2633	085f	037cd822		sub	%GPR27,%GPR27,%GPR28	
2634	0860	01425003		sra	%GPR10,%GPR10,%GPR2	
2635	0861	01c27003		sra	%GPR14,%GPR14,%GPR2	
2636	0862	8fdcff90		lw	%GPR28,-112(%GPR30)	
2637	0863	321000ff		andi	%GPR16,%GPR16,$255	
2638	0864	325200ff		andi	%GPR18,%GPR18,$255	
2639	0865	323100ff		andi	%GPR17,%GPR17,$255	
2640	0866	31ef00ff		andi	%GPR15,%GPR15,$255	
2641	0867	32d600ff		andi	%GPR22,%GPR22,$255	
2642	0868	329400ff		andi	%GPR20,%GPR20,$255	
2643	0869	327300ff		andi	%GPR19,%GPR19,$255	
2644	086a	016c5822		sub	%GPR11,%GPR11,%GPR12	
2645	086b	01ae6022		sub	%GPR12,%GPR13,%GPR14	
2646	086c	038a5022		sub	%GPR10,%GPR28,%GPR10	
2647	086d	02517022		sub	%GPR14,%GPR18,%GPR17	
2648	086e	020f6822		sub	%GPR13,%GPR16,%GPR15	
2649	086f	03599022		sub	%GPR18,%GPR26,%GPR25	
2650	0870	02937822		sub	%GPR15,%GPR20,%GPR19	
2651	0871	02d58022		sub	%GPR16,%GPR22,%GPR21	
2652	0872	00831822		sub	%GPR3,%GPR4,%GPR3	
2653	0873	00a10822		sub	%GPR1,%GPR5,%GPR1	
2654	0874	02f88822		sub	%GPR17,%GPR23,%GPR24	
2655	0875	00c22000		sll	%GPR4,%GPR6,%GPR2	
2656	0876	00e22800		sll	%GPR5,%GPR7,%GPR2	
2657	0877	01023000		sll	%GPR6,%GPR8,%GPR2	
2658	0878	01223800		sll	%GPR7,%GPR9,%GPR2	
2659	0879	3153ffff		andi	%GPR19,%GPR10,$65535	
2660	087a	3174ffff		andi	%GPR20,%GPR11,$65535	
2661	087b	3375ffff		andi	%GPR21,%GPR27,$65535	
2662	087c	3188ffff		andi	%GPR8,%GPR12,$65535	
2663	087d	31a9ffff		andi	%GPR9,%GPR13,$65535	
2664	087e	31caffff		andi	%GPR10,%GPR14,$65535	
2665	087f	02426800		sll	%GPR13,%GPR18,%GPR2	
2666	0880	00627000		sll	%GPR14,%GPR3,%GPR2	
2667	0881	31ebffff		andi	%GPR11,%GPR15,$65535	
2668	0882	320cffff		andi	%GPR12,%GPR16,$65535	
2669	0883	00227800		sll	%GPR15,%GPR1,%GPR2	
2670	0884	02228000		sll	%GPR16,%GPR17,%GPR2	
2671				; Automatically 3 NOPs removed by reduceNOPs.sh
2672	0885	00b31825		or	%GPR3,%GPR5,%GPR19	
2673				; Automatically 3 NOPs removed by reduceNOPs.sh
2674	0886	00950825		or	%GPR1,%GPR4,%GPR21	
2675	0887	00d42825		or	%GPR5,%GPR6,%GPR20	
2676	0888	01aa2025		or	%GPR4,%GPR13,%GPR10	
2677	0889	01cb3025		or	%GPR6,%GPR14,%GPR11	
2678	088a	00e83825		or	%GPR7,%GPR7,%GPR8	
2679	088b	02091025		or	%GPR2,%GPR16,%GPR9	
2680	088c	01ec4025		or	%GPR8,%GPR15,%GPR12	
2681	088d	3c0dffff		lhi	%GPR13,$65535	
2682				; Automatically 4 NOPs removed by reduceNOPs.sh
2683	088e	35ad0000		ori	%GPR13,%GPR13,$-65536	
2684	088f	3c0effff		lhi	%GPR14,$65535	
2685				; Automatically 4 NOPs removed by reduceNOPs.sh
2686	0890	35ce0000		ori	%GPR14,%GPR14,$-65536	
2687	0891	3c10ffff		lhi	%GPR16,$65535	
2688				; Automatically 4 NOPs removed by reduceNOPs.sh
2689	0892	36100000		ori	%GPR16,%GPR16,$-65536	
2690	0893	3c0fffff		lhi	%GPR15,$65535	
2691				; Automatically 4 NOPs removed by reduceNOPs.sh
2692	0894	35ef0000		ori	%GPR15,%GPR15,$-65536	
2693	0895	30b3ffff		andi	%GPR19,%GPR5,$65535	
2694	0896	30f4ffff		andi	%GPR20,%GPR7,$65535	
2695	0897	ccae2c00		fex	%GPR5,%GPR5,%GPR14,$16	
2696	0898	cced3c00		fex	%GPR7,%GPR7,%GPR13,$16	
2697	0899	cc307400		fex	%GPR14,%GPR1,%GPR16,$16	
2698	089a	cc6f6c00		fex	%GPR13,%GPR3,%GPR15,$16	
2699	089b	3072ffff		andi	%GPR18,%GPR3,$65535	
2700	089c	3031ffff		andi	%GPR17,%GPR1,$65535	
2701	089d	01c70820		add	%GPR1,%GPR14,%GPR7	
2702	089e	01a51820		add	%GPR3,%GPR13,%GPR5	
2703	089f	01c73822		sub	%GPR7,%GPR14,%GPR7	
2704	08a0	01a52822		sub	%GPR5,%GPR13,%GPR5	
2705	08a1	42730010		slli	%GPR19,%GPR19,$16	
2706	08a2	42520010		slli	%GPR18,%GPR18,$16	
2707	08a3	42940010		slli	%GPR20,%GPR20,$16	
2708	08a4	42310010		slli	%GPR17,%GPR17,$16	
2709	08a5	00236820		add	%GPR13,%GPR1,%GPR3	
2710	08a6	00e57820		add	%GPR15,%GPR7,%GPR5	
2711	08a7	00e5d022		sub	%GPR26,%GPR7,%GPR5	
2712	08a8	0023c822		sub	%GPR25,%GPR1,%GPR3	
2713	08a9	4a650010		srai	%GPR5,%GPR19,$16	
2714	08aa	4a410010		srai	%GPR1,%GPR18,$16	
2715	08ab	4a900010		srai	%GPR16,%GPR20,$16	
2716	08ac	4a270010		srai	%GPR7,%GPR17,$16	
2717				; Automatically 2 NOPs removed by reduceNOPs.sh
2718	08ad	00251820		add	%GPR3,%GPR1,%GPR5	
2719				; Automatically 2 NOPs removed by reduceNOPs.sh
2720	08ae	00252822		sub	%GPR5,%GPR1,%GPR5	
2721	08af	00f00820		add	%GPR1,%GPR7,%GPR16	
2722				; Automatically 3 NOPs removed by reduceNOPs.sh
2723	08b0	00f03822		sub	%GPR7,%GPR7,%GPR16	
2724	08b1	3c17ffff		lhi	%GPR23,$65535	
2725				; Automatically 4 NOPs removed by reduceNOPs.sh
2726	08b2	36f70000		ori	%GPR23,%GPR23,$-65536	
2727	08b3	3c16ffff		lhi	%GPR22,$65535	
2728				; Automatically 4 NOPs removed by reduceNOPs.sh
2729	08b4	36d60000		ori	%GPR22,%GPR22,$-65536	
2730	08b5	3c18ffff		lhi	%GPR24,$65535	
2731				; Automatically 4 NOPs removed by reduceNOPs.sh
2732	08b6	37180000		ori	%GPR24,%GPR24,$-65536	
2733	08b7	3c15ffff		lhi	%GPR21,$65535	
2734				; Automatically 4 NOPs removed by reduceNOPs.sh
2735	08b8	36b50000		ori	%GPR21,%GPR21,$-65536	
2736	08b9	00237020		add	%GPR14,%GPR1,%GPR3	
2737	08ba	00e59022		sub	%GPR18,%GPR7,%GPR5	
2738	08bb	00e58020		add	%GPR16,%GPR7,%GPR5	
2739	08bc	00238822		sub	%GPR17,%GPR1,%GPR3	
2740	08bd	ccd62c00		fex	%GPR5,%GPR6,%GPR22,$16	
2741	08be	cc970c00		fex	%GPR1,%GPR4,%GPR23,$16	
2742	08bf	308affff		andi	%GPR10,%GPR4,$65535	
2743	08c0	cd153c00		fex	%GPR7,%GPR8,%GPR21,$16	
2744	08c1	cc582400		fex	%GPR4,%GPR2,%GPR24,$16	
2745	08c2	00251820		add	%GPR3,%GPR1,%GPR5	
2746	08c3	30cbffff		andi	%GPR11,%GPR6,$65535	
2747	08c4	00252822		sub	%GPR5,%GPR1,%GPR5	
2748	08c5	3049ffff		andi	%GPR9,%GPR2,$65535	
2749	08c6	00870820		add	%GPR1,%GPR4,%GPR7	
2750	08c7	310cffff		andi	%GPR12,%GPR8,$65535	
2751	08c8	00873822		sub	%GPR7,%GPR4,%GPR7	
2752	08c9	414a0010		slli	%GPR10,%GPR10,$16	
2753	08ca	416b0010		slli	%GPR11,%GPR11,$16	
2754	08cb	41290010		slli	%GPR9,%GPR9,$16	
2755	08cc	418c0010		slli	%GPR12,%GPR12,$16	
2756	08cd	00231020		add	%GPR2,%GPR1,%GPR3	
2757	08ce	00e59822		sub	%GPR19,%GPR7,%GPR5	
2758	08cf	00e52020		add	%GPR4,%GPR7,%GPR5	
2759	08d0	00233022		sub	%GPR6,%GPR1,%GPR3	
2760	08d1	49650010		srai	%GPR5,%GPR11,$16	
2761	08d2	49410010		srai	%GPR1,%GPR10,$16	
2762	08d3	49270010		srai	%GPR7,%GPR9,$16	
2763	08d4	49890010		srai	%GPR9,%GPR12,$16	
2764				; Automatically 2 NOPs removed by reduceNOPs.sh
2765	08d5	00251820		add	%GPR3,%GPR1,%GPR5	
2766	08d6	00252822		sub	%GPR5,%GPR1,%GPR5	
2767	08d7	00e90820		add	%GPR1,%GPR7,%GPR9	
2768	08d8	00e93822		sub	%GPR7,%GPR7,%GPR9	
2769				; Automatically 3 NOPs removed by reduceNOPs.sh
2770	08d9	00235020		add	%GPR10,%GPR1,%GPR3	
2771	08da	00234022		sub	%GPR8,%GPR1,%GPR3	
2772	08db	01c21820		add	%GPR3,%GPR14,%GPR2	
2773	08dc	00e55820		add	%GPR11,%GPR7,%GPR5	
2774	08dd	01aa0820		add	%GPR1,%GPR13,%GPR10	
2775	08de	00e54822		sub	%GPR9,%GPR7,%GPR5	
2776	08df	01c22822		sub	%GPR5,%GPR14,%GPR2	
2777	08e0	01aa3822		sub	%GPR7,%GPR13,%GPR10	
2778	08e1	0023a020		add	%GPR20,%GPR1,%GPR3	
2779	08e2	00230822		sub	%GPR1,%GPR1,%GPR3	
2780	08e3	3c020000		lhi	%GPR2,$0	
2781				; Automatically 4 NOPs removed by reduceNOPs.sh
2782	08e4	34420000		ori	%GPR2,%GPR2,$0	
2783	08e5	00e51820		add	%GPR3,%GPR7,%GPR5	
2784	08e6	00e53822		sub	%GPR7,%GPR7,%GPR5	
2785	08e7	3c0c0000		lhi	%GPR12,$0	
2786				; Automatically 4 NOPs removed by reduceNOPs.sh
2787	08e8	358c0000		ori	%GPR12,%GPR12,$0	
2788	08e9	4a850001		srai	%GPR5,%GPR20,$1	
2789	08ea	486a0001		srai	%GPR10,%GPR3,$1	
2790	08eb	48210001		srai	%GPR1,%GPR1,$1	
2791	08ec	48e30001		srai	%GPR3,%GPR7,$1	
2792	08ed	00451020		add	%GPR2,%GPR2,%GPR5	
2793	08ee	014cd82a		slt	%GPR27,%GPR10,%GPR12	
2794	08ef	00000000		nop	; Automatically added by findDataDependency.sh
2795	08f0	00000000		nop	; Automatically added by findDataDependency.sh
2796	08f1	00000000		nop	; Automatically added by findDataDependency.sh
2797	08f2	17600002		bnez	%GPR27,L_main_9	
2798				; Automatically 4 NOPs removed by reduceNOPs.sh
2799	08f3	08000004		j	L_main_10	
2800				; Automatically 4 NOPs removed by reduceNOPs.sh
2801			L_main_9:
2802	08f4	00000000		nop	; Automatically Added by addNopAfterLabels.pl
2803	08f5	000a5022		sub	%GPR10,%GPR0,%GPR10	
2804	08f6	08000001		j	L_main_11	
2805				; Automatically 3 NOPs removed by reduceNOPs.sh
2806			L_main_10:
2807				; Automatically 3 NOPs removed by reduceNOPs.sh
2808			L_main_11:
2809	08f7	00000000		nop	; Automatically Added by addNopAfterLabels.pl
2810	08f8	004a1020		add	%GPR2,%GPR2,%GPR10	
2811				; Automatically 3 NOPs removed by reduceNOPs.sh
2812	08f9	3c050000		lhi	%GPR5,$0	
2813				; Automatically 4 NOPs removed by reduceNOPs.sh
2814	08fa	34a50000		ori	%GPR5,%GPR5,$0	
2815				; Automatically 4 NOPs removed by reduceNOPs.sh
2816	08fb	0025d82a		slt	%GPR27,%GPR1,%GPR5	
2817	08fc	00000000		nop	; Automatically added by findDataDependency.sh
2818	08fd	00000000		nop	; Automatically added by findDataDependency.sh
2819	08fe	00000000		nop	; Automatically added by findDataDependency.sh
2820	08ff	17600002		bnez	%GPR27,L_main_12	
2821				; Automatically 4 NOPs removed by reduceNOPs.sh
2822	0900	08000004		j	L_main_13	
2823				; Automatically 4 NOPs removed by reduceNOPs.sh
2824			L_main_12:
2825	0901	00000000		nop	; Automatically Added by addNopAfterLabels.pl
2826	0902	00015022		sub	%GPR10,%GPR0,%GPR1	
2827	0903	08000003		j	L_main_14	
2828				; Automatically 3 NOPs removed by reduceNOPs.sh
2829			L_main_13:
2830	0904	00000000		nop	; Automatically Added by addNopAfterLabels.pl
2831	0905	00205020		add	%GPR10,%GPR1,%GPR0	
2832				; Automatically 3 NOPs removed by reduceNOPs.sh
2833			L_main_14:
2834	0906	00000000		nop	; Automatically Added by addNopAfterLabels.pl
2835	0907	004a1020		add	%GPR2,%GPR2,%GPR10	
2836				; Automatically 3 NOPs removed by reduceNOPs.sh
2837	0908	3c010000		lhi	%GPR1,$0	
2838				; Automatically 4 NOPs removed by reduceNOPs.sh
2839	0909	34210000		ori	%GPR1,%GPR1,$0	
2840				; Automatically 4 NOPs removed by reduceNOPs.sh
2841	090a	0061d82a		slt	%GPR27,%GPR3,%GPR1	
2842	090b	00000000		nop	; Automatically added by findDataDependency.sh
2843	090c	00000000		nop	; Automatically added by findDataDependency.sh
2844	090d	00000000		nop	; Automatically added by findDataDependency.sh
2845	090e	17600002		bnez	%GPR27,L_main_15	
2846				; Automatically 4 NOPs removed by reduceNOPs.sh
2847	090f	08000004		j	L_main_16	
2848				; Automatically 4 NOPs removed by reduceNOPs.sh
2849			L_main_15:
2850	0910	00000000		nop	; Automatically Added by addNopAfterLabels.pl
2851	0911	00035022		sub	%GPR10,%GPR0,%GPR3	
2852	0912	08000003		j	L_main_17	
2853				; Automatically 3 NOPs removed by reduceNOPs.sh
2854			L_main_16:
2855	0913	00000000		nop	; Automatically Added by addNopAfterLabels.pl
2856	0914	00605020		add	%GPR10,%GPR3,%GPR0	
2857				; Automatically 3 NOPs removed by reduceNOPs.sh
2858			L_main_17:
2859	0915	00000000		nop	; Automatically Added by addNopAfterLabels.pl
2860	0916	01eb0820		add	%GPR1,%GPR15,%GPR11	
2861	0917	02041820		add	%GPR3,%GPR16,%GPR4	
2862	0918	02042822		sub	%GPR5,%GPR16,%GPR4	
2863	0919	01eb3822		sub	%GPR7,%GPR15,%GPR11	
2864				; Automatically 2 NOPs removed by reduceNOPs.sh
2865	091a	00236020		add	%GPR12,%GPR1,%GPR3	
2866	091b	00230822		sub	%GPR1,%GPR1,%GPR3	
2867	091c	00e51820		add	%GPR3,%GPR7,%GPR5	
2868	091d	004a1020		add	%GPR2,%GPR2,%GPR10	
2869	091e	3c0b0000		lhi	%GPR11,$0	
2870				; Automatically 4 NOPs removed by reduceNOPs.sh
2871	091f	356b0000		ori	%GPR11,%GPR11,$0	
2872	0920	00e52822		sub	%GPR5,%GPR7,%GPR5	
2873	0921	498a0001		srai	%GPR10,%GPR12,$1	
2874	0922	48240001		srai	%GPR4,%GPR1,$1	
2875	0923	48630001		srai	%GPR3,%GPR3,$1	
2876	0924	48a10001		srai	%GPR1,%GPR5,$1	
2877	0925	014bd82a		slt	%GPR27,%GPR10,%GPR11	
2878	0926	00000000		nop	; Automatically added by findDataDependency.sh
2879	0927	00000000		nop	; Automatically added by findDataDependency.sh
2880	0928	00000000		nop	; Automatically added by findDataDependency.sh
2881	0929	17600002		bnez	%GPR27,L_main_18	
2882				; Automatically 4 NOPs removed by reduceNOPs.sh
2883	092a	08000004		j	L_main_19	
2884				; Automatically 4 NOPs removed by reduceNOPs.sh
2885			L_main_18:
2886	092b	00000000		nop	; Automatically Added by addNopAfterLabels.pl
2887	092c	000a5022		sub	%GPR10,%GPR0,%GPR10	
2888	092d	08000001		j	L_main_20	
2889				; Automatically 3 NOPs removed by reduceNOPs.sh
2890			L_main_19:
2891				; Automatically 3 NOPs removed by reduceNOPs.sh
2892			L_main_20:
2893	092e	00000000		nop	; Automatically Added by addNopAfterLabels.pl
2894	092f	004a1020		add	%GPR2,%GPR2,%GPR10	
2895				; Automatically 3 NOPs removed by reduceNOPs.sh
2896	0930	3c050000		lhi	%GPR5,$0	
2897				; Automatically 4 NOPs removed by reduceNOPs.sh
2898	0931	34a50000		ori	%GPR5,%GPR5,$0	
2899				; Automatically 4 NOPs removed by reduceNOPs.sh
2900	0932	0065d82a		slt	%GPR27,%GPR3,%GPR5	
2901	0933	00000000		nop	; Automatically added by findDataDependency.sh
2902	0934	00000000		nop	; Automatically added by findDataDependency.sh
2903	0935	00000000		nop	; Automatically added by findDataDependency.sh
2904	0936	17600002		bnez	%GPR27,L_main_21	
2905				; Automatically 4 NOPs removed by reduceNOPs.sh
2906	0937	08000004		j	L_main_22	
2907				; Automatically 4 NOPs removed by reduceNOPs.sh
2908			L_main_21:
2909	0938	00000000		nop	; Automatically Added by addNopAfterLabels.pl
2910	0939	00035022		sub	%GPR10,%GPR0,%GPR3	
2911	093a	08000003		j	L_main_23	
2912				; Automatically 3 NOPs removed by reduceNOPs.sh
2913			L_main_22:
2914	093b	00000000		nop	; Automatically Added by addNopAfterLabels.pl
2915	093c	00605020		add	%GPR10,%GPR3,%GPR0	
2916				; Automatically 3 NOPs removed by reduceNOPs.sh
2917			L_main_23:
2918	093d	00000000		nop	; Automatically Added by addNopAfterLabels.pl
2919	093e	004a1020		add	%GPR2,%GPR2,%GPR10	
2920				; Automatically 3 NOPs removed by reduceNOPs.sh
2921	093f	3c030000		lhi	%GPR3,$0	
2922				; Automatically 4 NOPs removed by reduceNOPs.sh
2923	0940	34630000		ori	%GPR3,%GPR3,$0	
2924				; Automatically 4 NOPs removed by reduceNOPs.sh
2925	0941	0083d82a		slt	%GPR27,%GPR4,%GPR3	
2926	0942	00000000		nop	; Automatically added by findDataDependency.sh
2927	0943	00000000		nop	; Automatically added by findDataDependency.sh
2928	0944	00000000		nop	; Automatically added by findDataDependency.sh
2929	0945	17600002		bnez	%GPR27,L_main_24	
2930				; Automatically 4 NOPs removed by reduceNOPs.sh
2931	0946	08000004		j	L_main_25	
2932				; Automatically 4 NOPs removed by reduceNOPs.sh
2933			L_main_24:
2934	0947	00000000		nop	; Automatically Added by addNopAfterLabels.pl
2935	0948	00045022		sub	%GPR10,%GPR0,%GPR4	
2936	0949	08000003		j	L_main_26	
2937				; Automatically 3 NOPs removed by reduceNOPs.sh
2938			L_main_25:
2939	094a	00000000		nop	; Automatically Added by addNopAfterLabels.pl
2940	094b	00805020		add	%GPR10,%GPR4,%GPR0	
2941				; Automatically 3 NOPs removed by reduceNOPs.sh
2942			L_main_26:
2943	094c	00000000		nop	; Automatically Added by addNopAfterLabels.pl
2944	094d	004a1020		add	%GPR2,%GPR2,%GPR10	
2945				; Automatically 3 NOPs removed by reduceNOPs.sh
2946	094e	3c030000		lhi	%GPR3,$0	
2947				; Automatically 4 NOPs removed by reduceNOPs.sh
2948	094f	34630000		ori	%GPR3,%GPR3,$0	
2949				; Automatically 4 NOPs removed by reduceNOPs.sh
2950	0950	0023d82a		slt	%GPR27,%GPR1,%GPR3	
2951	0951	00000000		nop	; Automatically added by findDataDependency.sh
2952	0952	00000000		nop	; Automatically added by findDataDependency.sh
2953	0953	00000000		nop	; Automatically added by findDataDependency.sh
2954	0954	17600002		bnez	%GPR27,L_main_27	
2955				; Automatically 4 NOPs removed by reduceNOPs.sh
2956	0955	08000004		j	L_main_28	
2957				; Automatically 4 NOPs removed by reduceNOPs.sh
2958			L_main_27:
2959	0956	00000000		nop	; Automatically Added by addNopAfterLabels.pl
2960	0957	00015022		sub	%GPR10,%GPR0,%GPR1	
2961	0958	08000003		j	L_main_29	
2962				; Automatically 3 NOPs removed by reduceNOPs.sh
2963			L_main_28:
2964	0959	00000000		nop	; Automatically Added by addNopAfterLabels.pl
2965	095a	00205020		add	%GPR10,%GPR1,%GPR0	
2966				; Automatically 3 NOPs removed by reduceNOPs.sh
2967			L_main_29:
2968	095b	00000000		nop	; Automatically Added by addNopAfterLabels.pl
2969	095c	03280820		add	%GPR1,%GPR25,%GPR8	
2970	095d	02261820		add	%GPR3,%GPR17,%GPR6	
2971	095e	02262822		sub	%GPR5,%GPR17,%GPR6	
2972	095f	03283822		sub	%GPR7,%GPR25,%GPR8	
2973				; Automatically 2 NOPs removed by reduceNOPs.sh
2974	0960	00234020		add	%GPR8,%GPR1,%GPR3	
2975	0961	00230822		sub	%GPR1,%GPR1,%GPR3	
2976	0962	00e53020		add	%GPR6,%GPR7,%GPR5	
2977	0963	004a1020		add	%GPR2,%GPR2,%GPR10	
2978	0964	00e52822		sub	%GPR5,%GPR7,%GPR5	
2979	0965	3c040000		lhi	%GPR4,$0	
2980				; Automatically 4 NOPs removed by reduceNOPs.sh
2981	0966	34840000		ori	%GPR4,%GPR4,$0	
2982	0967	490a0001		srai	%GPR10,%GPR8,$1	
2983	0968	48230001		srai	%GPR3,%GPR1,$1	
2984	0969	48a50001		srai	%GPR5,%GPR5,$1	
2985	096a	48c10001		srai	%GPR1,%GPR6,$1	
2986	096b	0144d82a		slt	%GPR27,%GPR10,%GPR4	
2987	096c	00000000		nop	; Automatically added by findDataDependency.sh
2988	096d	00000000		nop	; Automatically added by findDataDependency.sh
2989	096e	00000000		nop	; Automatically added by findDataDependency.sh
2990	096f	17600002		bnez	%GPR27,L_main_30	
2991				; Automatically 4 NOPs removed by reduceNOPs.sh
2992	0970	08000004		j	L_main_31	
2993				; Automatically 4 NOPs removed by reduceNOPs.sh
2994			L_main_30:
2995	0971	00000000		nop	; Automatically Added by addNopAfterLabels.pl
2996	0972	000a5022		sub	%GPR10,%GPR0,%GPR10	
2997	0973	08000001		j	L_main_32	
2998				; Automatically 3 NOPs removed by reduceNOPs.sh
2999			L_main_31:
3000				; Automatically 3 NOPs removed by reduceNOPs.sh
3001			L_main_32:
3002	0974	00000000		nop	; Automatically Added by addNopAfterLabels.pl
3003	0975	004a1020		add	%GPR2,%GPR2,%GPR10	
3004				; Automatically 3 NOPs removed by reduceNOPs.sh
3005	0976	3c040000		lhi	%GPR4,$0	
3006				; Automatically 4 NOPs removed by reduceNOPs.sh
3007	0977	34840000		ori	%GPR4,%GPR4,$0	
3008				; Automatically 4 NOPs removed by reduceNOPs.sh
3009	0978	0024d82a		slt	%GPR27,%GPR1,%GPR4	
3010	0979	00000000		nop	; Automatically added by findDataDependency.sh
3011	097a	00000000		nop	; Automatically added by findDataDependency.sh
3012	097b	00000000		nop	; Automatically added by findDataDependency.sh
3013	097c	17600002		bnez	%GPR27,L_main_33	
3014				; Automatically 4 NOPs removed by reduceNOPs.sh
3015	097d	08000004		j	L_main_34	
3016				; Automatically 4 NOPs removed by reduceNOPs.sh
3017			L_main_33:
3018	097e	00000000		nop	; Automatically Added by addNopAfterLabels.pl
3019	097f	00015022		sub	%GPR10,%GPR0,%GPR1	
3020	0980	08000003		j	L_main_35	
3021				; Automatically 3 NOPs removed by reduceNOPs.sh
3022			L_main_34:
3023	0981	00000000		nop	; Automatically Added by addNopAfterLabels.pl
3024	0982	00205020		add	%GPR10,%GPR1,%GPR0	
3025				; Automatically 3 NOPs removed by reduceNOPs.sh
3026			L_main_35:
3027	0983	00000000		nop	; Automatically Added by addNopAfterLabels.pl
3028	0984	004a1020		add	%GPR2,%GPR2,%GPR10	
3029				; Automatically 3 NOPs removed by reduceNOPs.sh
3030	0985	3c010000		lhi	%GPR1,$0	
3031				; Automatically 4 NOPs removed by reduceNOPs.sh
3032	0986	34210000		ori	%GPR1,%GPR1,$0	
3033				; Automatically 4 NOPs removed by reduceNOPs.sh
3034	0987	0061d82a		slt	%GPR27,%GPR3,%GPR1	
3035	0988	00000000		nop	; Automatically added by findDataDependency.sh
3036	0989	00000000		nop	; Automatically added by findDataDependency.sh
3037	098a	00000000		nop	; Automatically added by findDataDependency.sh
3038	098b	17600002		bnez	%GPR27,L_main_36	
3039				; Automatically 4 NOPs removed by reduceNOPs.sh
3040	098c	08000004		j	L_main_37	
3041				; Automatically 4 NOPs removed by reduceNOPs.sh
3042			L_main_36:
3043	098d	00000000		nop	; Automatically Added by addNopAfterLabels.pl
3044	098e	00035022		sub	%GPR10,%GPR0,%GPR3	
3045	098f	08000003		j	L_main_38	
3046				; Automatically 3 NOPs removed by reduceNOPs.sh
3047			L_main_37:
3048	0990	00000000		nop	; Automatically Added by addNopAfterLabels.pl
3049	0991	00605020		add	%GPR10,%GPR3,%GPR0	
3050				; Automatically 3 NOPs removed by reduceNOPs.sh
3051			L_main_38:
3052	0992	00000000		nop	; Automatically Added by addNopAfterLabels.pl
3053	0993	004a1020		add	%GPR2,%GPR2,%GPR10	
3054				; Automatically 3 NOPs removed by reduceNOPs.sh
3055	0994	3c010000		lhi	%GPR1,$0	
3056				; Automatically 4 NOPs removed by reduceNOPs.sh
3057	0995	34210000		ori	%GPR1,%GPR1,$0	
3058				; Automatically 4 NOPs removed by reduceNOPs.sh
3059	0996	00a1d82a		slt	%GPR27,%GPR5,%GPR1	
3060	0997	00000000		nop	; Automatically added by findDataDependency.sh
3061	0998	00000000		nop	; Automatically added by findDataDependency.sh
3062	0999	00000000		nop	; Automatically added by findDataDependency.sh
3063	099a	17600002		bnez	%GPR27,L_main_39	
3064				; Automatically 4 NOPs removed by reduceNOPs.sh
3065	099b	08000004		j	L_main_40	
3066				; Automatically 4 NOPs removed by reduceNOPs.sh
3067			L_main_39:
3068	099c	00000000		nop	; Automatically Added by addNopAfterLabels.pl
3069	099d	00055022		sub	%GPR10,%GPR0,%GPR5	
3070	099e	08000003		j	L_main_41	
3071				; Automatically 3 NOPs removed by reduceNOPs.sh
3072			L_main_40:
3073	099f	00000000		nop	; Automatically Added by addNopAfterLabels.pl
3074	09a0	00a05020		add	%GPR10,%GPR5,%GPR0	
3075				; Automatically 3 NOPs removed by reduceNOPs.sh
3076			L_main_41:
3077	09a1	00000000		nop	; Automatically Added by addNopAfterLabels.pl
3078	09a2	03490820		add	%GPR1,%GPR26,%GPR9	
3079	09a3	02531820		add	%GPR3,%GPR18,%GPR19	
3080	09a4	02532822		sub	%GPR5,%GPR18,%GPR19	
3081	09a5	03493822		sub	%GPR7,%GPR26,%GPR9	
3082				; Automatically 2 NOPs removed by reduceNOPs.sh
3083	09a6	00233020		add	%GPR6,%GPR1,%GPR3	
3084	09a7	00230822		sub	%GPR1,%GPR1,%GPR3	
3085	09a8	00e54020		add	%GPR8,%GPR7,%GPR5	
3086	09a9	004a1020		add	%GPR2,%GPR2,%GPR10	
3087	09aa	00e52822		sub	%GPR5,%GPR7,%GPR5	
3088	09ab	3c040000		lhi	%GPR4,$0	
3089				; Automatically 4 NOPs removed by reduceNOPs.sh
3090	09ac	34840000		ori	%GPR4,%GPR4,$0	
3091	09ad	48ca0001		srai	%GPR10,%GPR6,$1	
3092	09ae	48230001		srai	%GPR3,%GPR1,$1	
3093	09af	48a50001		srai	%GPR5,%GPR5,$1	
3094	09b0	49010001		srai	%GPR1,%GPR8,$1	
3095	09b1	0144d82a		slt	%GPR27,%GPR10,%GPR4	
3096	09b2	00000000		nop	; Automatically added by findDataDependency.sh
3097	09b3	00000000		nop	; Automatically added by findDataDependency.sh
3098	09b4	00000000		nop	; Automatically added by findDataDependency.sh
3099	09b5	17600002		bnez	%GPR27,L_main_42	
3100				; Automatically 4 NOPs removed by reduceNOPs.sh
3101	09b6	08000004		j	L_main_43	
3102				; Automatically 4 NOPs removed by reduceNOPs.sh
3103			L_main_42:
3104	09b7	00000000		nop	; Automatically Added by addNopAfterLabels.pl
3105	09b8	000a5022		sub	%GPR10,%GPR0,%GPR10	
3106	09b9	08000001		j	L_main_44	
3107				; Automatically 3 NOPs removed by reduceNOPs.sh
3108			L_main_43:
3109				; Automatically 3 NOPs removed by reduceNOPs.sh
3110			L_main_44:
3111	09ba	00000000		nop	; Automatically Added by addNopAfterLabels.pl
3112	09bb	004a1020		add	%GPR2,%GPR2,%GPR10	
3113				; Automatically 3 NOPs removed by reduceNOPs.sh
3114	09bc	3c040000		lhi	%GPR4,$0	
3115				; Automatically 4 NOPs removed by reduceNOPs.sh
3116	09bd	34840000		ori	%GPR4,%GPR4,$0	
3117				; Automatically 4 NOPs removed by reduceNOPs.sh
3118	09be	0024d82a		slt	%GPR27,%GPR1,%GPR4	
3119	09bf	00000000		nop	; Automatically added by findDataDependency.sh
3120	09c0	00000000		nop	; Automatically added by findDataDependency.sh
3121	09c1	00000000		nop	; Automatically added by findDataDependency.sh
3122	09c2	17600002		bnez	%GPR27,L_main_45	
3123				; Automatically 4 NOPs removed by reduceNOPs.sh
3124	09c3	08000004		j	L_main_46	
3125				; Automatically 4 NOPs removed by reduceNOPs.sh
3126			L_main_45:
3127	09c4	00000000		nop	; Automatically Added by addNopAfterLabels.pl
3128	09c5	00015022		sub	%GPR10,%GPR0,%GPR1	
3129	09c6	08000003		j	L_main_47	
3130				; Automatically 3 NOPs removed by reduceNOPs.sh
3131			L_main_46:
3132	09c7	00000000		nop	; Automatically Added by addNopAfterLabels.pl
3133	09c8	00205020		add	%GPR10,%GPR1,%GPR0	
3134				; Automatically 3 NOPs removed by reduceNOPs.sh
3135			L_main_47:
3136	09c9	00000000		nop	; Automatically Added by addNopAfterLabels.pl
3137	09ca	004a1020		add	%GPR2,%GPR2,%GPR10	
3138				; Automatically 3 NOPs removed by reduceNOPs.sh
3139	09cb	3c010000		lhi	%GPR1,$0	
3140				; Automatically 4 NOPs removed by reduceNOPs.sh
3141	09cc	34210000		ori	%GPR1,%GPR1,$0	
3142				; Automatically 4 NOPs removed by reduceNOPs.sh
3143	09cd	0061d82a		slt	%GPR27,%GPR3,%GPR1	
3144	09ce	00000000		nop	; Automatically added by findDataDependency.sh
3145	09cf	00000000		nop	; Automatically added by findDataDependency.sh
3146	09d0	00000000		nop	; Automatically added by findDataDependency.sh
3147	09d1	17600002		bnez	%GPR27,L_main_48	
3148				; Automatically 4 NOPs removed by reduceNOPs.sh
3149	09d2	08000004		j	L_main_49	
3150				; Automatically 4 NOPs removed by reduceNOPs.sh
3151			L_main_48:
3152	09d3	00000000		nop	; Automatically Added by addNopAfterLabels.pl
3153	09d4	00035022		sub	%GPR10,%GPR0,%GPR3	
3154	09d5	08000003		j	L_main_50	
3155				; Automatically 3 NOPs removed by reduceNOPs.sh
3156			L_main_49:
3157	09d6	00000000		nop	; Automatically Added by addNopAfterLabels.pl
3158	09d7	00605020		add	%GPR10,%GPR3,%GPR0	
3159				; Automatically 3 NOPs removed by reduceNOPs.sh
3160			L_main_50:
3161	09d8	00000000		nop	; Automatically Added by addNopAfterLabels.pl
3162	09d9	004a1020		add	%GPR2,%GPR2,%GPR10	
3163				; Automatically 3 NOPs removed by reduceNOPs.sh
3164	09da	3c010000		lhi	%GPR1,$0	
3165				; Automatically 4 NOPs removed by reduceNOPs.sh
3166	09db	34210000		ori	%GPR1,%GPR1,$0	
3167				; Automatically 4 NOPs removed by reduceNOPs.sh
3168	09dc	00a1d82a		slt	%GPR27,%GPR5,%GPR1	
3169	09dd	00000000		nop	; Automatically added by findDataDependency.sh
3170	09de	00000000		nop	; Automatically added by findDataDependency.sh
3171	09df	00000000		nop	; Automatically added by findDataDependency.sh
3172	09e0	17600002		bnez	%GPR27,L_main_51	
3173				; Automatically 4 NOPs removed by reduceNOPs.sh
3174	09e1	08000004		j	L_main_52	
3175				; Automatically 4 NOPs removed by reduceNOPs.sh
3176			L_main_51:
3177	09e2	00000000		nop	; Automatically Added by addNopAfterLabels.pl
3178	09e3	00055022		sub	%GPR10,%GPR0,%GPR5	
3179	09e4	08000003		j	L_main_53	
3180				; Automatically 3 NOPs removed by reduceNOPs.sh
3181			L_main_52:
3182	09e5	00000000		nop	; Automatically Added by addNopAfterLabels.pl
3183	09e6	00a05020		add	%GPR10,%GPR5,%GPR0	
3184				; Automatically 3 NOPs removed by reduceNOPs.sh
3185			L_main_53:
3186	09e7	00000000		nop	; Automatically Added by addNopAfterLabels.pl
3187	09e8	004ae020		add	%GPR28,%GPR2,%GPR10	
3188				; Automatically 4 NOPs removed by reduceNOPs.sh
3189	09e9	08000001		j	L_main_54	
3190				; Automatically 4 NOPs removed by reduceNOPs.sh
3191			L_main_54:
3192				; Automatically 4 NOPs removed by reduceNOPs.sh
3193	09ea	00000000		nop	; Automatically Added by addNopAfterLabels.pl
3194	09eb	8fdf0004		lw	%GPR31,4(%GPR30)	
3195	09ec	27dd0004		addui	%GPR29,%GPR30,$4	
3196	09ed	00000000		nop	; Automatically added by fix-stall-insns.pl
3197	09ee	00000000		nop	; Automatically added by fix-stall-insns.pl
3198	09ef	00000000		nop	; Automatically added by fix-stall-insns.pl
3199	09f0	8fde0000		lw	%GPR30,0(%GPR30)	
3200				; Automatically 2 NOPs removed by reduceNOPs.sh
3201	09f1	00000000		nop
3202	09f2	00000000		nop	; Automatically added by fix-stall-insns.pl
3203	09f3	00000000		nop	; Automatically added by fix-stall-insns.pl
3204	09f4	00000000		nop	; Automatically added by fix-stall-insns.pl
3205	09f5	00000000		nop
3206	09f6	03e00008		jr	%GPR31	
3207				; Automatically 4 NOPs removed by reduceNOPs.sh
3208			DCT_4x4:
3209			L_main_55:
3210				; Automatically 4 NOPs removed by reduceNOPs.sh
3211	09f7	00000000		nop	; Automatically added by fix-stall-insns.pl
3212	09f8	afbefffc		sw	-4(%GPR29),%GPR30	
3213	09f9	afbf0000		sw	0(%GPR29),%GPR31	
3214	09fa	2fbe0004		subui	%GPR30,%GPR29,$4	
3215				; Automatically 1 NOPs removed by reduceNOPs.sh
3216	09fb	2bbd0074		subi	%GPR29,%GPR29,$116	
3217				; Automatically 4 NOPs removed by reduceNOPs.sh
3218	09fc	00206820		add	%GPR13,%GPR1,%GPR0	
3219	09fd	00403020		add	%GPR6,%GPR2,%GPR0	
3220	09fe	00608820		add	%GPR17,%GPR3,%GPR0	
3221				; Automatically 8 NOPs removed by reduceNOPs.sh
3222	09ff	3c010000		lhi	%GPR1,$0	
3223				; Automatically 4 NOPs removed by reduceNOPs.sh
3224	0a00	34210004		ori	%GPR1,%GPR1,$4	
3225	0a01	3c050000		lhi	%GPR5,$0	
3226				; Automatically 4 NOPs removed by reduceNOPs.sh
3227	0a02	34a50004		ori	%GPR5,%GPR5,$4	
3228	0a03	8e2a0000		lw	%GPR10,0(%GPR17)	
3229				; Automatically 2 NOPs removed by reduceNOPs.sh
3230	0a04	00c11018		mult	%GPR2,%GPR6,%GPR1	
3231	0a05	3c030000		lhi	%GPR3,$0	
3232				; Automatically 4 NOPs removed by reduceNOPs.sh
3233	0a06	34630004		ori	%GPR3,%GPR3,$4	
3234	0a07	00000000		nop	; Automatically added by fix-stall-insns.pl
3235	0a08	afcafffc		sw	-4(%GPR30),%GPR10	
3236				; Automatically 2 NOPs removed by reduceNOPs.sh
3237	0a09	8e210000		lw	%GPR1,0(%GPR17)	
3238	0a0a	00000000		nop	; Automatically added by fix-stall-insns.pl
3239	0a0b	00000000		nop	; Automatically added by fix-stall-insns.pl
3240	0a0c	00000000		nop	; Automatically added by fix-stall-insns.pl
3241	0a0d	00000000		nop	; Automatically added by fix-stall-insns.pl
3242	0a0e	00c33818		mult	%GPR7,%GPR6,%GPR3	
3243	0a0f	8daa0000		lw	%GPR10,0(%GPR13)	
3244				; Automatically 2 NOPs removed by reduceNOPs.sh
3245	0a10	00000000		nop	; Automatically added by fix-stall-insns.pl
3246	0a11	00000000		nop	; Automatically added by fix-stall-insns.pl
3247	0a12	00000000		nop	; Automatically added by fix-stall-insns.pl
3248	0a13	00000000		nop	; Automatically added by fix-stall-insns.pl
3249	0a14	afc1fff8		sw	-8(%GPR30),%GPR1	
3250	0a15	00000000		nop	; Automatically added by findLoadStoreProblem.sh
3251	0a16	00000000		nop	; Automatically added by fix-stall-insns.pl
3252	0a17	00000000		nop	; Automatically added by fix-stall-insns.pl
3253	0a18	00000000		nop	; Automatically added by fix-stall-insns.pl
3254	0a19	8da10000		lw	%GPR1,0(%GPR13)	
3255	0a1a	8da30000		lw	%GPR3,0(%GPR13)	
3256				; Automatically 3 NOPs removed by reduceNOPs.sh
3257	0a1b	00000000		nop	; Automatically added by fix-stall-insns.pl
3258	0a1c	00000000		nop	; Automatically added by fix-stall-insns.pl
3259	0a1d	00000000		nop	; Automatically added by fix-stall-insns.pl
3260	0a1e	00000000		nop	; Automatically added by fix-stall-insns.pl
3261	0a1f	afc1fff4		sw	-12(%GPR30),%GPR1	
3262	0a20	00000000		nop	; Automatically added by findLoadStoreProblem.sh
3263	0a21	00000000		nop	; Automatically added by fix-stall-insns.pl
3264	0a22	00000000		nop	; Automatically added by fix-stall-insns.pl
3265	0a23	00000000		nop	; Automatically added by fix-stall-insns.pl
3266	0a24	8e210000		lw	%GPR1,0(%GPR17)	
3267	0a25	3c080000		lhi	%GPR8,$0	
3268				; Automatically 4 NOPs removed by reduceNOPs.sh
3269	0a26	35080004		ori	%GPR8,%GPR8,$4	
3270				; Automatically 3 NOPs removed by reduceNOPs.sh
3271	0a27	00000000		nop	; Automatically added by fix-stall-insns.pl
3272	0a28	00000000		nop	; Automatically added by fix-stall-insns.pl
3273	0a29	afc1fff0		sw	-16(%GPR30),%GPR1	
3274	0a2a	00000000		nop	; Automatically added by findLoadStoreProblem.sh
3275	0a2b	00000000		nop	; Automatically added by fix-stall-insns.pl
3276	0a2c	00000000		nop	; Automatically added by fix-stall-insns.pl
3277	0a2d	00000000		nop	; Automatically added by fix-stall-insns.pl
3278	0a2e	8da10000		lw	%GPR1,0(%GPR13)	
3279	0a2f	01a26820		add	%GPR13,%GPR13,%GPR2	
3280				; Automatically 3 NOPs removed by reduceNOPs.sh
3281	0a30	00000000		nop	; Automatically added by fix-stall-insns.pl
3282	0a31	00000000		nop	; Automatically added by fix-stall-insns.pl
3283	0a32	00000000		nop	; Automatically added by fix-stall-insns.pl
3284	0a33	afc1ffec		sw	-20(%GPR30),%GPR1	
3285	0a34	00000000		nop	; Automatically added by findLoadStoreProblem.sh
3286	0a35	00000000		nop	; Automatically added by fix-stall-insns.pl
3287	0a36	00000000		nop	; Automatically added by fix-stall-insns.pl
3288	0a37	00000000		nop	; Automatically added by fix-stall-insns.pl
3289	0a38	8e210000		lw	%GPR1,0(%GPR17)	
3290	0a39	02258820		add	%GPR17,%GPR17,%GPR5	
3291	0a3a	00000000		nop	; Automatically added by fix-stall-insns.pl
3292	0a3b	00000000		nop	; Automatically added by fix-stall-insns.pl
3293	0a3c	00000000		nop	; Automatically added by fix-stall-insns.pl
3294	0a3d	8db50000		lw	%GPR21,0(%GPR13)	
3295	0a3e	8da20000		lw	%GPR2,0(%GPR13)	
3296				; Automatically 2 NOPs removed by reduceNOPs.sh
3297	0a3f	00000000		nop	; Automatically added by fix-stall-insns.pl
3298	0a40	00000000		nop	; Automatically added by fix-stall-insns.pl
3299	0a41	00000000		nop	; Automatically added by fix-stall-insns.pl
3300	0a42	00000000		nop	; Automatically added by fix-stall-insns.pl
3301	0a43	8e250000		lw	%GPR5,0(%GPR17)	
3302	0a44	8e320000		lw	%GPR18,0(%GPR17)	
3303	0a45	00000000		nop	; Automatically added by fix-stall-insns.pl
3304	0a46	00000000		nop	; Automatically added by fix-stall-insns.pl
3305	0a47	00000000		nop	; Automatically added by fix-stall-insns.pl
3306	0a48	00000000		nop	; Automatically added by fix-stall-insns.pl
3307	0a49	8e330000		lw	%GPR19,0(%GPR17)	
3308				; Automatically 2 NOPs removed by reduceNOPs.sh
3309	0a4a	afc5ffe8		sw	-24(%GPR30),%GPR5	
3310	0a4b	00000000		nop	; Automatically added by findLoadStoreProblem.sh
3311	0a4c	00000000		nop	; Automatically added by fix-stall-insns.pl
3312	0a4d	00000000		nop	; Automatically added by fix-stall-insns.pl
3313	0a4e	00000000		nop	; Automatically added by fix-stall-insns.pl
3314	0a4f	8e250000		lw	%GPR5,0(%GPR17)	
3315	0a50	02288820		add	%GPR17,%GPR17,%GPR8	
3316				; Automatically 3 NOPs removed by reduceNOPs.sh
3317	0a51	00000000		nop	; Automatically added by fix-stall-insns.pl
3318	0a52	00000000		nop	; Automatically added by fix-stall-insns.pl
3319	0a53	00000000		nop	; Automatically added by fix-stall-insns.pl
3320	0a54	afc5ffe4		sw	-28(%GPR30),%GPR5	
3321	0a55	00000000		nop	; Automatically added by findLoadStoreProblem.sh
3322	0a56	00000000		nop	; Automatically added by fix-stall-insns.pl
3323	0a57	00000000		nop	; Automatically added by fix-stall-insns.pl
3324	0a58	00000000		nop	; Automatically added by fix-stall-insns.pl
3325	0a59	8da50000		lw	%GPR5,0(%GPR13)	
3326				; Automatically 4 NOPs removed by reduceNOPs.sh
3327	0a5a	afc5ffe0		sw	-32(%GPR30),%GPR5	
3328	0a5b	00000000		nop	; Automatically added by findLoadStoreProblem.sh
3329	0a5c	00000000		nop	; Automatically added by fix-stall-insns.pl
3330	0a5d	00000000		nop	; Automatically added by fix-stall-insns.pl
3331	0a5e	00000000		nop	; Automatically added by fix-stall-insns.pl
3332	0a5f	8da50000		lw	%GPR5,0(%GPR13)	
3333	0a60	01a76820		add	%GPR13,%GPR13,%GPR7	
3334				; Automatically 3 NOPs removed by reduceNOPs.sh
3335	0a61	00000000		nop	; Automatically added by fix-stall-insns.pl
3336	0a62	00000000		nop	; Automatically added by fix-stall-insns.pl
3337	0a63	00000000		nop	; Automatically added by fix-stall-insns.pl
3338	0a64	afc5ffdc		sw	-36(%GPR30),%GPR5	
3339	0a65	00000000		nop	; Automatically added by findLoadStoreProblem.sh
3340	0a66	00000000		nop	; Automatically added by fix-stall-insns.pl
3341	0a67	00000000		nop	; Automatically added by fix-stall-insns.pl
3342	0a68	00000000		nop	; Automatically added by fix-stall-insns.pl
3343	0a69	8e250000		lw	%GPR5,0(%GPR17)	
3344				; Automatically 4 NOPs removed by reduceNOPs.sh
3345	0a6a	afc5ffd8		sw	-40(%GPR30),%GPR5	
3346	0a6b	00000000		nop	; Automatically added by findLoadStoreProblem.sh
3347	0a6c	00000000		nop	; Automatically added by fix-stall-insns.pl
3348	0a6d	00000000		nop	; Automatically added by fix-stall-insns.pl
3349	0a6e	00000000		nop	; Automatically added by fix-stall-insns.pl
3350	0a6f	8e250000		lw	%GPR5,0(%GPR17)	
3351	0a70	3c1a00ff		lhi	%GPR26,$255	
3352				; Automatically 4 NOPs removed by reduceNOPs.sh
3353	0a71	375a0000		ori	%GPR26,%GPR26,$16711680	
3354				; Automatically 3 NOPs removed by reduceNOPs.sh
3355	0a72	00000000		nop	; Automatically added by fix-stall-insns.pl
3356	0a73	00000000		nop	; Automatically added by fix-stall-insns.pl
3357	0a74	afc5ffd4		sw	-44(%GPR30),%GPR5	
3358	0a75	00000000		nop	; Automatically added by findLoadStoreProblem.sh
3359	0a76	00000000		nop	; Automatically added by fix-stall-insns.pl
3360	0a77	00000000		nop	; Automatically added by fix-stall-insns.pl
3361	0a78	00000000		nop	; Automatically added by fix-stall-insns.pl
3362	0a79	8da50000		lw	%GPR5,0(%GPR13)	
3363	0a7a	3c090000		lhi	%GPR9,$0	
3364				; Automatically 4 NOPs removed by reduceNOPs.sh
3365	0a7b	35290004		ori	%GPR9,%GPR9,$4	
3366	0a7c	027a9824		and	%GPR19,%GPR19,%GPR26	
3367				; Automatically 2 NOPs removed by reduceNOPs.sh
3368	0a7d	00000000		nop	; Automatically added by fix-stall-insns.pl
3369	0a7e	afc5ffd0		sw	-48(%GPR30),%GPR5	
3370	0a7f	00000000		nop	; Automatically added by findLoadStoreProblem.sh
3371	0a80	00000000		nop	; Automatically added by fix-stall-insns.pl
3372	0a81	00000000		nop	; Automatically added by fix-stall-insns.pl
3373	0a82	00000000		nop	; Automatically added by fix-stall-insns.pl
3374	0a83	8da50000		lw	%GPR5,0(%GPR13)	
3375				; Automatically 2 NOPs removed by reduceNOPs.sh
3376	0a84	3c1b00ff		lhi	%GPR27,$255	
3377				; Automatically 4 NOPs removed by reduceNOPs.sh
3378	0a85	377b0000		ori	%GPR27,%GPR27,$16711680	
3379				; Automatically 2 NOPs removed by reduceNOPs.sh
3380	0a86	00000000		nop	; Automatically added by fix-stall-insns.pl
3381	0a87	00000000		nop	; Automatically added by fix-stall-insns.pl
3382	0a88	afc5ffcc		sw	-52(%GPR30),%GPR5	
3383	0a89	3c0500ff		lhi	%GPR5,$255	
3384				; Automatically 4 NOPs removed by reduceNOPs.sh
3385	0a8a	34a50000		ori	%GPR5,%GPR5,$16711680	
3386				; Automatically 2 NOPs removed by reduceNOPs.sh
3387	0a8b	00000000		nop	; Automatically added by fix-stall-insns.pl
3388	0a8c	00000000		nop	; Automatically added by fix-stall-insns.pl
3389	0a8d	00c95818		mult	%GPR11,%GPR6,%GPR9	
3390				; Automatically 2 NOPs removed by reduceNOPs.sh
3391	0a8e	afc5ffc8		sw	-56(%GPR30),%GPR5	
3392	0a8f	3c0500ff		lhi	%GPR5,$255	
3393				; Automatically 4 NOPs removed by reduceNOPs.sh
3394	0a90	34a50000		ori	%GPR5,%GPR5,$16711680	
3395				; Automatically 3 NOPs removed by reduceNOPs.sh
3396	0a91	00000000		nop	; Automatically added by fix-stall-insns.pl
3397	0a92	00000000		nop	; Automatically added by fix-stall-insns.pl
3398	0a93	afd3ffc4		sw	-60(%GPR30),%GPR19	
3399	0a94	afc5ffc0		sw	-64(%GPR30),%GPR5	
3400	0a95	3c05ff00		lhi	%GPR5,$65280	
3401				; Automatically 4 NOPs removed by reduceNOPs.sh
3402	0a96	34a50000		ori	%GPR5,%GPR5,$-16777216	
3403	0a97	02bb9824		and	%GPR19,%GPR21,%GPR27	
3404				; Automatically 2 NOPs removed by reduceNOPs.sh
3405	0a98	3c0fff00		lhi	%GPR15,$65280	
3406				; Automatically 4 NOPs removed by reduceNOPs.sh
3407	0a99	35ef0000		ori	%GPR15,%GPR15,$-16777216	
3408	0a9a	afc5ffbc		sw	-68(%GPR30),%GPR5	
3409	0a9b	3c05ff00		lhi	%GPR5,$65280	
3410				; Automatically 4 NOPs removed by reduceNOPs.sh
3411	0a9c	34a50000		ori	%GPR5,%GPR5,$-16777216	
3412	0a9d	00000000		nop	; Automatically added by fix-stall-insns.pl
3413	0a9e	00000000		nop	; Automatically added by fix-stall-insns.pl
3414	0a9f	8e360000		lw	%GPR22,0(%GPR17)	
3415	0aa0	3c0600ff		lhi	%GPR6,$255	
3416				; Automatically 4 NOPs removed by reduceNOPs.sh
3417	0aa1	34c60000		ori	%GPR6,%GPR6,$16711680	
3418	0aa2	00000000		nop	; Automatically added by fix-stall-insns.pl
3419	0aa3	00000000		nop	; Automatically added by fix-stall-insns.pl
3420	0aa4	afcaffb8		sw	-72(%GPR30),%GPR10	
3421	0aa5	afc5ffb4		sw	-76(%GPR30),%GPR5	
3422	0aa6	3c0500ff		lhi	%GPR5,$255	
3423				; Automatically 4 NOPs removed by reduceNOPs.sh
3424	0aa7	34a50000		ori	%GPR5,%GPR5,$16711680	
3425	0aa8	00000000		nop	; Automatically added by fix-stall-insns.pl
3426	0aa9	00000000		nop	; Automatically added by fix-stall-insns.pl
3427	0aaa	8db80000		lw	%GPR24,0(%GPR13)	
3428	0aab	3c090000		lhi	%GPR9,$0	
3429				; Automatically 4 NOPs removed by reduceNOPs.sh
3430	0aac	35290004		ori	%GPR9,%GPR9,$4	
3431	0aad	3c0a00ff		lhi	%GPR10,$255	
3432				; Automatically 4 NOPs removed by reduceNOPs.sh
3433	0aae	354a0000		ori	%GPR10,%GPR10,$16711680	
3434	0aaf	00652824		and	%GPR5,%GPR3,%GPR5	
3435	0ab0	3c07ff00		lhi	%GPR7,$65280	
3436				; Automatically 4 NOPs removed by reduceNOPs.sh
3437	0ab1	34e70000		ori	%GPR7,%GPR7,$-16777216	
3438	0ab2	8fc3fffc		lw	%GPR3,-4(%GPR30)	
3439				; Automatically 2 NOPs removed by reduceNOPs.sh
3440	0ab3	afd3ffb0		sw	-80(%GPR30),%GPR19	
3441	0ab4	004f9824		and	%GPR19,%GPR2,%GPR15	
3442				; Automatically 2 NOPs removed by reduceNOPs.sh
3443	0ab5	00000000		nop	; Automatically added by fix-stall-insns.pl
3444	0ab6	00000000		nop	; Automatically added by fix-stall-insns.pl
3445	0ab7	00000000		nop	; Automatically added by fix-stall-insns.pl
3446	0ab8	8e340000		lw	%GPR20,0(%GPR17)	
3447	0ab9	02c61024		and	%GPR2,%GPR22,%GPR6	
3448	0aba	02298820		add	%GPR17,%GPR17,%GPR9	
3449	0abb	030a3024		and	%GPR6,%GPR24,%GPR10	
3450	0abc	00675024		and	%GPR10,%GPR3,%GPR7	
3451	0abd	3c0cff00		lhi	%GPR12,$65280	
3452				; Automatically 4 NOPs removed by reduceNOPs.sh
3453	0abe	358c0000		ori	%GPR12,%GPR12,$-16777216	
3454	0abf	3c08ff00		lhi	%GPR8,$65280	
3455				; Automatically 4 NOPs removed by reduceNOPs.sh
3456	0ac0	35080000		ori	%GPR8,%GPR8,$-16777216	
3457	0ac1	8fc3ffb8		lw	%GPR3,-72(%GPR30)	
3458				; Automatically 2 NOPs removed by reduceNOPs.sh
3459	0ac2	8e300000		lw	%GPR16,0(%GPR17)	
3460	0ac3	028ca824		and	%GPR21,%GPR20,%GPR12	
3461	0ac4	00000000		nop	; Automatically added by fix-stall-insns.pl
3462	0ac5	00000000		nop	; Automatically added by fix-stall-insns.pl
3463	0ac6	00000000		nop	; Automatically added by fix-stall-insns.pl
3464	0ac7	8db70000		lw	%GPR23,0(%GPR13)	
3465	0ac8	00686024		and	%GPR12,%GPR3,%GPR8	
3466	0ac9	3c0eff00		lhi	%GPR14,$65280	
3467				; Automatically 4 NOPs removed by reduceNOPs.sh
3468	0aca	35ce0000		ori	%GPR14,%GPR14,$-16777216	
3469	0acb	00000000		nop	; Automatically added by fix-stall-insns.pl
3470	0acc	8e290000		lw	%GPR9,0(%GPR17)	
3471	0acd	8fc3ffbc		lw	%GPR3,-68(%GPR30)	
3472	0ace	00000000		nop	; Automatically added by findLoadStoreProblem.sh
3473	0acf	00000000		nop	; Automatically added by fix-stall-insns.pl
3474	0ad0	00000000		nop	; Automatically added by fix-stall-insns.pl
3475	0ad1	00000000		nop	; Automatically added by fix-stall-insns.pl
3476	0ad2	afd0ffac		sw	-84(%GPR30),%GPR16	
3477	0ad3	02eea024		and	%GPR20,%GPR23,%GPR14	
3478	0ad4	00000000		nop	; Automatically added by fix-stall-insns.pl
3479	0ad5	00000000		nop	; Automatically added by fix-stall-insns.pl
3480	0ad6	00000000		nop	; Automatically added by fix-stall-insns.pl
3481	0ad7	8fc7ffc8		lw	%GPR7,-56(%GPR30)	
3482	0ad8	01237024		and	%GPR14,%GPR9,%GPR3	
3483	0ad9	00000000		nop	; Automatically added by fix-stall-insns.pl
3484	0ada	00000000		nop	; Automatically added by fix-stall-insns.pl
3485	0adb	00000000		nop	; Automatically added by fix-stall-insns.pl
3486	0adc	8fc3ffac		lw	%GPR3,-84(%GPR30)	
3487	0add	01ab6820		add	%GPR13,%GPR13,%GPR11	
3488				; Automatically 3 NOPs removed by reduceNOPs.sh
3489	0ade	00674024		and	%GPR8,%GPR3,%GPR7	
3490	0adf	00000000		nop	; Automatically added by fix-stall-insns.pl
3491	0ae0	00000000		nop	; Automatically added by fix-stall-insns.pl
3492	0ae1	8dab0000		lw	%GPR11,0(%GPR13)	
3493	0ae2	8fc3ffb4		lw	%GPR3,-76(%GPR30)	
3494	0ae3	00000000		nop	; Automatically added by fix-stall-insns.pl
3495	0ae4	00000000		nop	; Automatically added by fix-stall-insns.pl
3496	0ae5	00000000		nop	; Automatically added by fix-stall-insns.pl
3497	0ae6	00000000		nop	; Automatically added by fix-stall-insns.pl
3498	0ae7	8db00000		lw	%GPR16,0(%GPR13)	
3499	0ae8	3c1cff00		lhi	%GPR28,$65280	
3500				; Automatically 4 NOPs removed by reduceNOPs.sh
3501	0ae9	379c0000		ori	%GPR28,%GPR28,$-16777216	
3502				; Automatically 2 NOPs removed by reduceNOPs.sh
3503	0aea	01637824		and	%GPR15,%GPR11,%GPR3	
3504	0aeb	00000000		nop	; Automatically added by fix-stall-insns.pl
3505	0aec	8fc3ffc0		lw	%GPR3,-64(%GPR30)	
3506	0aed	025c9024		and	%GPR18,%GPR18,%GPR28	
3507				; Automatically 3 NOPs removed by reduceNOPs.sh
3508	0aee	02034824		and	%GPR9,%GPR16,%GPR3	
3509	0aef	3c030000		lhi	%GPR3,$0	
3510				; Automatically 4 NOPs removed by reduceNOPs.sh
3511	0af0	34630018		ori	%GPR3,%GPR3,$24	
3512	0af1	8fd0ffb0		lw	%GPR16,-80(%GPR30)	
3513	0af2	3c1900ff		lhi	%GPR25,$255	
3514				; Automatically 4 NOPs removed by reduceNOPs.sh
3515	0af3	37390000		ori	%GPR25,%GPR25,$16711680	
3516				; Automatically 2 NOPs removed by reduceNOPs.sh
3517	0af4	02435802		srl	%GPR11,%GPR18,%GPR3	
3518	0af5	3c120000		lhi	%GPR18,$0	
3519				; Automatically 4 NOPs removed by reduceNOPs.sh
3520	0af6	36520010		ori	%GPR18,%GPR18,$16	
3521	0af7	00390824		and	%GPR1,%GPR1,%GPR25	
3522	0af8	02633802		srl	%GPR7,%GPR19,%GPR3	
3523	0af9	0183c002		srl	%GPR24,%GPR12,%GPR3	
3524	0afa	0212d003		sra	%GPR26,%GPR16,%GPR18	
3525	0afb	8fd0ffc4		lw	%GPR16,-60(%GPR30)	
3526	0afc	00529803		sra	%GPR19,%GPR2,%GPR18	
3527	0afd	0143c802		srl	%GPR25,%GPR10,%GPR3	
3528	0afe	01e31002		srl	%GPR2,%GPR15,%GPR3	
3529	0aff	0212d803		sra	%GPR27,%GPR16,%GPR18	
3530	0b00	00d28003		sra	%GPR16,%GPR6,%GPR18	
3531	0b01	00323003		sra	%GPR6,%GPR1,%GPR18	
3532	0b02	8fc1ffe8		lw	%GPR1,-24(%GPR30)	
3533	0b03	0283a002		srl	%GPR20,%GPR20,%GPR3	
3534	0b04	02a3a802		srl	%GPR21,%GPR21,%GPR3	
3535	0b05	01c31802		srl	%GPR3,%GPR14,%GPR3	
3536	0b06	00000000		nop	; Automatically added by fix-stall-insns.pl
3537	0b07	8fccffd0		lw	%GPR12,-48(%GPR30)	
3538	0b08	302eff00		andi	%GPR14,%GPR1,$65280	
3539	0b09	00000000		nop	; Automatically added by fix-stall-insns.pl
3540	0b0a	00000000		nop	; Automatically added by fix-stall-insns.pl
3541	0b0b	00000000		nop	; Automatically added by fix-stall-insns.pl
3542	0b0c	8fc1ffe0		lw	%GPR1,-32(%GPR30)	
3543	0b0d	01125003		sra	%GPR10,%GPR8,%GPR18	
3544	0b0e	318fff00		andi	%GPR15,%GPR12,$65280	
3545	0b0f	00eb6023		subu	%GPR12,%GPR7,%GPR11	
3546	0b10	02953823		subu	%GPR7,%GPR20,%GPR21	
3547	0b11	3028ff00		andi	%GPR8,%GPR1,$65280	
3548	0b12	8db70000		lw	%GPR23,0(%GPR13)	
3549	0b13	8db40000		lw	%GPR20,0(%GPR13)	
3550	0b14	00000000		nop	; Automatically added by fix-stall-insns.pl
3551	0b15	00000000		nop	; Automatically added by fix-stall-insns.pl
3552	0b16	00000000		nop	; Automatically added by fix-stall-insns.pl
3553	0b17	00000000		nop	; Automatically added by fix-stall-insns.pl
3554	0b18	8fc1ffd8		lw	%GPR1,-40(%GPR30)	
3555				; Automatically 2 NOPs removed by reduceNOPs.sh
3556	0b19	8fcdfff0		lw	%GPR13,-16(%GPR30)	
3557	0b1a	02138022		sub	%GPR16,%GPR16,%GPR19	
3558	0b1b	3021ff00		andi	%GPR1,%GPR1,$65280	
3559	0b1c	3c130000		lhi	%GPR19,$0	
3560				; Automatically 4 NOPs removed by reduceNOPs.sh
3561	0b1d	36730008		ori	%GPR19,%GPR19,$8	
3562	0b1e	31adff00		andi	%GPR13,%GPR13,$65280	
3563	0b1f	035b5822		sub	%GPR11,%GPR26,%GPR27	
3564	0b20	00b22803		sra	%GPR5,%GPR5,%GPR18	
3565	0b21	0033d003		sra	%GPR26,%GPR1,%GPR19	
3566	0b22	8fc1fff8		lw	%GPR1,-8(%GPR30)	
3567	0b23	00000000		nop	; Automatically added by findLoadStoreProblem.sh
3568	0b24	00000000		nop	; Automatically added by fix-stall-insns.pl
3569	0b25	00000000		nop	; Automatically added by fix-stall-insns.pl
3570	0b26	00000000		nop	; Automatically added by fix-stall-insns.pl
3571	0b27	afcdffa8		sw	-88(%GPR30),%GPR13	
3572	0b28	01324803		sra	%GPR9,%GPR9,%GPR18	
3573	0b29	00431023		subu	%GPR2,%GPR2,%GPR3	
3574	0b2a	00000000		nop	; Automatically added by fix-stall-insns.pl
3575	0b2b	00000000		nop	; Automatically added by fix-stall-insns.pl
3576	0b2c	8fcdffec		lw	%GPR13,-20(%GPR30)	
3577	0b2d	8e360000		lw	%GPR22,0(%GPR17)	
3578	0b2e	00a61822		sub	%GPR3,%GPR5,%GPR6	
3579	0b2f	0319c023		subu	%GPR24,%GPR24,%GPR25	
3580	0b30	01f3c803		sra	%GPR25,%GPR15,%GPR19	
3581	0b31	00000000		nop	; Automatically added by fix-stall-insns.pl
3582	0b32	8fc5ffe4		lw	%GPR5,-28(%GPR30)	
3583	0b33	302f00ff		andi	%GPR15,%GPR1,$255	
3584	0b34	012a4822		sub	%GPR9,%GPR9,%GPR10	
3585	0b35	31b5ff00		andi	%GPR21,%GPR13,$65280	
3586	0b36	00000000		nop	; Automatically added by fix-stall-insns.pl
3587	0b37	8fc1fff4		lw	%GPR1,-12(%GPR30)	
3588	0b38	01925000		sll	%GPR10,%GPR12,%GPR18	
3589	0b39	32cdff00		andi	%GPR13,%GPR22,$65280	
3590	0b3a	316cffff		andi	%GPR12,%GPR11,$65535	
3591	0b3b	30b600ff		andi	%GPR22,%GPR5,$255	
3592	0b3c	320bffff		andi	%GPR11,%GPR16,$65535	
3593	0b3d	8fc5ffdc		lw	%GPR5,-36(%GPR30)	
3594	0b3e	303000ff		andi	%GPR16,%GPR1,$255	
3595	0b3f	03120800		sll	%GPR1,%GPR24,%GPR18	
3596	0b40	01a0d820		add	%GPR27,%GPR13,%GPR0	
3597	0b41	32edff00		andi	%GPR13,%GPR23,$65280	
3598	0b42	8fd8ffa8		lw	%GPR24,-88(%GPR30)	
3599	0b43	30b700ff		andi	%GPR23,%GPR5,$255	
3600	0b44	00000000		nop	; Automatically added by fix-stall-insns.pl
3601	0b45	00000000		nop	; Automatically added by fix-stall-insns.pl
3602	0b46	00000000		nop	; Automatically added by fix-stall-insns.pl
3603	0b47	8fc6ffcc		lw	%GPR6,-52(%GPR30)	
3604	0b48	8fc5ffd4		lw	%GPR5,-44(%GPR30)	
3605				; Automatically 2 NOPs removed by reduceNOPs.sh
3606	0b49	01134003		sra	%GPR8,%GPR8,%GPR19	
3607	0b4a	01d37003		sra	%GPR14,%GPR14,%GPR19	
3608	0b4b	02b3a803		sra	%GPR21,%GPR21,%GPR19	
3609	0b4c	01b36803		sra	%GPR13,%GPR13,%GPR19	
3610	0b4d	0313c003		sra	%GPR24,%GPR24,%GPR19	
3611	0b4e	03739803		sra	%GPR19,%GPR27,%GPR19	
3612	0b4f	30c600ff		andi	%GPR6,%GPR6,$255	
3613	0b50	30a500ff		andi	%GPR5,%GPR5,$255	
3614	0b51	3c1b0000		lhi	%GPR27,$0	
3615				; Automatically 4 NOPs removed by reduceNOPs.sh
3616	0b52	377b0002		ori	%GPR27,%GPR27,$2	
3617				; Automatically 2 NOPs removed by reduceNOPs.sh
3618	0b53	02f6b022		sub	%GPR22,%GPR23,%GPR22	
3619	0b54	00c5b822		sub	%GPR23,%GPR6,%GPR5	
3620	0b55	afdbffa4		sw	-92(%GPR30),%GPR27	
3621	0b56	014c2825		or	%GPR5,%GPR10,%GPR12	
3622	0b57	3c1bffff		lhi	%GPR27,$65535	
3623				; Automatically 4 NOPs removed by reduceNOPs.sh
3624	0b58	377b0000		ori	%GPR27,%GPR27,$-65536	
3625	0b59	00521000		sll	%GPR2,%GPR2,%GPR18	
3626	0b5a	3129ffff		andi	%GPR9,%GPR9,$65535	
3627				; Automatically 2 NOPs removed by reduceNOPs.sh
3628	0b5b	010e3022		sub	%GPR6,%GPR8,%GPR14	
3629	0b5c	30aaffff		andi	%GPR10,%GPR5,$65535	
3630	0b5d	afdbffa0		sw	-96(%GPR30),%GPR27	
3631	0b5e	00494825		or	%GPR9,%GPR2,%GPR9	
3632	0b5f	3c1bffff		lhi	%GPR27,$65535	
3633				; Automatically 4 NOPs removed by reduceNOPs.sh
3634	0b60	377b0000		ori	%GPR27,%GPR27,$-65536	
3635	0b61	32e2ffff		andi	%GPR2,%GPR23,$65535	
3636	0b62	00d2b800		sll	%GPR23,%GPR6,%GPR18	
3637	0b63	00f23800		sll	%GPR7,%GPR7,%GPR18	
3638	0b64	41460010		slli	%GPR6,%GPR10,$16	
3639	0b65	03605020		add	%GPR10,%GPR27,%GPR0	
3640				; Automatically 2 NOPs removed by reduceNOPs.sh
3641	0b66	8e310000		lw	%GPR17,0(%GPR17)	
3642	0b67	00eb3825		or	%GPR7,%GPR7,%GPR11	
3643	0b68	ccaa2c00		fex	%GPR5,%GPR5,%GPR10,$16	
3644	0b69	3063ffff		andi	%GPR3,%GPR3,$65535	
3645	0b6a	3c0b0000		lhi	%GPR11,$0	
3646				; Automatically 4 NOPs removed by reduceNOPs.sh
3647	0b6b	356b0002		ori	%GPR11,%GPR11,$2	
3648	0b6c	329400ff		andi	%GPR20,%GPR20,$255	
3649	0b6d	323100ff		andi	%GPR17,%GPR17,$255	
3650	0b6e	8fcaffa0		lw	%GPR10,-96(%GPR30)	
3651				; Automatically 3 NOPs removed by reduceNOPs.sh
3652	0b6f	033a4022		sub	%GPR8,%GPR25,%GPR26	
3653	0b70	00231825		or	%GPR3,%GPR1,%GPR3	
3654	0b71	020f7822		sub	%GPR15,%GPR16,%GPR15	
3655	0b72	30eeffff		andi	%GPR14,%GPR7,$65535	
3656	0b73	afcbff9c		sw	-100(%GPR30),%GPR11	
3657	0b74	ccea3c00		fex	%GPR7,%GPR7,%GPR10,$16	
3658	0b75	02918022		sub	%GPR16,%GPR20,%GPR17	
3659	0b76	3c0cffff		lhi	%GPR12,$65535	
3660				; Automatically 4 NOPs removed by reduceNOPs.sh
3661	0b77	358c0000		ori	%GPR12,%GPR12,$-65536	
3662	0b78	3c0bffff		lhi	%GPR11,$65535	
3663				; Automatically 4 NOPs removed by reduceNOPs.sh
3664	0b79	356b0000		ori	%GPR11,%GPR11,$-65536	
3665	0b7a	02b88822		sub	%GPR17,%GPR21,%GPR24	
3666	0b7b	0112c000		sll	%GPR24,%GPR8,%GPR18	
3667	0b7c	3134ffff		andi	%GPR20,%GPR9,$65535	
3668	0b7d	3075ffff		andi	%GPR21,%GPR3,$65535	
3669	0b7e	41c80010		slli	%GPR8,%GPR14,$16	
3670	0b7f	00a75022		sub	%GPR10,%GPR5,%GPR7	
3671	0b80	cd2b4c00		fex	%GPR9,%GPR9,%GPR11,$16	
3672	0b81	cc6c1c00		fex	%GPR3,%GPR3,%GPR12,$16	
3673	0b82	8fceffa4		lw	%GPR14,-92(%GPR30)	
3674	0b83	8fccff9c		lw	%GPR12,-100(%GPR30)	
3675				; Automatically 2 NOPs removed by reduceNOPs.sh
3676	0b84	00695822		sub	%GPR11,%GPR3,%GPR9	
3677	0b85	00000000		nop	; Automatically added by fix-stall-insns.pl
3678	0b86	00000000		nop	; Automatically added by fix-stall-insns.pl
3679	0b87	00000000		nop	; Automatically added by fix-stall-insns.pl
3680	0b88	014ed018		mult	%GPR26,%GPR10,%GPR14	
3681	0b89	48c60010		srai	%GPR6,%GPR6,$16	
3682	0b8a	49080010		srai	%GPR8,%GPR8,$16	
3683				; Automatically 2 NOPs removed by reduceNOPs.sh
3684	0b8b	00000000		nop	; Automatically added by fix-stall-insns.pl
3685	0b8c	056c5038		mac	%GPR10,%GPR11,%GPR12	
3686	0b8d	01b39822		sub	%GPR19,%GPR13,%GPR19	
3687	0b8e	02328800		sll	%GPR17,%GPR17,%GPR18	
3688	0b8f	3c0d0000		lhi	%GPR13,$0	
3689				; Automatically 4 NOPs removed by reduceNOPs.sh
3690	0b90	35ad0002		ori	%GPR13,%GPR13,$2	
3691	0b91	01406020		add	%GPR12,%GPR10,%GPR0	
3692	0b92	3c0a0000		lhi	%GPR10,$0	
3693				; Automatically 4 NOPs removed by reduceNOPs.sh
3694	0b93	354a0002		ori	%GPR10,%GPR10,$2	
3695	0b94	02729000		sll	%GPR18,%GPR19,%GPR18	
3696				; Automatically 2 NOPs removed by reduceNOPs.sh
3697	0b95	42b30010		slli	%GPR19,%GPR21,$16	
3698	0b96	afcaff98		sw	-104(%GPR30),%GPR10	
3699	0b97	00c85022		sub	%GPR10,%GPR6,%GPR8	
3700	0b98	42940010		slli	%GPR20,%GPR20,$16	
3701	0b99	4a730010		srai	%GPR19,%GPR19,$16	
3702	0b9a	32c1ffff		andi	%GPR1,%GPR22,$65535	
3703	0b9b	014dc818		mult	%GPR25,%GPR10,%GPR13	
3704	0b9c	4a940010		srai	%GPR20,%GPR20,$16	
3705				; Automatically 3 NOPs removed by reduceNOPs.sh
3706	0b9d	017a6822		sub	%GPR13,%GPR11,%GPR26	
3707	0b9e	3c0b0000		lhi	%GPR11,$0	
3708				; Automatically 4 NOPs removed by reduceNOPs.sh
3709	0b9f	356b0002		ori	%GPR11,%GPR11,$2	
3710				; Automatically 2 NOPs removed by reduceNOPs.sh
3711	0ba0	03021025		or	%GPR2,%GPR24,%GPR2	
3712	0ba1	02e10825		or	%GPR1,%GPR23,%GPR1	
3713	0ba2	afcbff94		sw	-108(%GPR30),%GPR11	
3714	0ba3	02745822		sub	%GPR11,%GPR19,%GPR20	
3715	0ba4	31efffff		andi	%GPR15,%GPR15,$65535	
3716	0ba5	3210ffff		andi	%GPR16,%GPR16,$65535	
3717	0ba6	3c0e0000		lhi	%GPR14,$0	
3718				; Automatically 4 NOPs removed by reduceNOPs.sh
3719	0ba7	35ce0002		ori	%GPR14,%GPR14,$2	
3720	0ba8	3c16ffff		lhi	%GPR22,$65535	
3721				; Automatically 4 NOPs removed by reduceNOPs.sh
3722	0ba9	36d60000		ori	%GPR22,%GPR22,$-65536	
3723	0baa	3c15ffff		lhi	%GPR21,$65535	
3724				; Automatically 4 NOPs removed by reduceNOPs.sh
3725	0bab	36b50000		ori	%GPR21,%GPR21,$-65536	
3726				; Automatically 3 NOPs removed by reduceNOPs.sh
3727	0bac	022f7825		or	%GPR15,%GPR17,%GPR15	
3728	0bad	02508025		or	%GPR16,%GPR18,%GPR16	
3729	0bae	056e5038		mac	%GPR10,%GPR11,%GPR14	
3730	0baf	3058ffff		andi	%GPR24,%GPR2,$65535	
3731	0bb0	3037ffff		andi	%GPR23,%GPR1,$65535	
3732	0bb1	cc551400		fex	%GPR2,%GPR2,%GPR21,$16	
3733	0bb2	cc360c00		fex	%GPR1,%GPR1,%GPR22,$16	
3734	0bb3	3c1bffff		lhi	%GPR27,$65535	
3735				; Automatically 4 NOPs removed by reduceNOPs.sh
3736	0bb4	377b0000		ori	%GPR27,%GPR27,$-65536	
3737	0bb5	3c1affff		lhi	%GPR26,$65535	
3738				; Automatically 4 NOPs removed by reduceNOPs.sh
3739	0bb6	375a0000		ori	%GPR26,%GPR26,$-65536	
3740	0bb7	00a72820		add	%GPR5,%GPR5,%GPR7	
3741	0bb8	00691820		add	%GPR3,%GPR3,%GPR9	
3742	0bb9	01407020		add	%GPR14,%GPR10,%GPR0	
3743	0bba	31f1ffff		andi	%GPR17,%GPR15,$65535	
3744	0bbb	3212ffff		andi	%GPR18,%GPR16,$65535	
3745	0bbc	00225022		sub	%GPR10,%GPR1,%GPR2	
3746	0bbd	cdfb7c00		fex	%GPR15,%GPR15,%GPR27,$16	
3747	0bbe	ce1a8400		fex	%GPR16,%GPR16,%GPR26,$16	
3748	0bbf	8fd5ff98		lw	%GPR21,-104(%GPR30)	
3749	0bc0	00653820		add	%GPR7,%GPR3,%GPR5	
3750	0bc1	00654822		sub	%GPR9,%GPR3,%GPR5	
3751	0bc2	0179b022		sub	%GPR22,%GPR11,%GPR25	
3752	0bc3	00000000		nop	; Automatically added by fix-stall-insns.pl
3753	0bc4	0155a818		mult	%GPR21,%GPR10,%GPR21	
3754	0bc5	01f05822		sub	%GPR11,%GPR15,%GPR16	
3755	0bc6	00c82820		add	%GPR5,%GPR6,%GPR8	
3756	0bc7	02741820		add	%GPR3,%GPR19,%GPR20	
3757	0bc8	8fdaff94		lw	%GPR26,-108(%GPR30)	
3758	0bc9	43180010		slli	%GPR24,%GPR24,$16	
3759	0bca	42f70010		slli	%GPR23,%GPR23,$16	
3760	0bcb	42310010		slli	%GPR17,%GPR17,$16	
3761	0bcc	42520010		slli	%GPR18,%GPR18,$16	
3762	0bcd	00653020		add	%GPR6,%GPR3,%GPR5	
3763	0bce	00654022		sub	%GPR8,%GPR3,%GPR5	
3764	0bcf	057a5038		mac	%GPR10,%GPR11,%GPR26	
3765	0bd0	01759822		sub	%GPR19,%GPR11,%GPR21	
3766	0bd1	00222820		add	%GPR5,%GPR1,%GPR2	
3767	0bd2	01f01820		add	%GPR3,%GPR15,%GPR16	
3768	0bd3	4a2b0010		srai	%GPR11,%GPR17,$16	
3769	0bd4	4af70010		srai	%GPR23,%GPR23,$16	
3770	0bd5	4b180010		srai	%GPR24,%GPR24,$16	
3771				; Automatically 2 NOPs removed by reduceNOPs.sh
3772	0bd6	4a510010		srai	%GPR17,%GPR18,$16	
3773	0bd7	0140d020		add	%GPR26,%GPR10,%GPR0	
3774	0bd8	02f85022		sub	%GPR10,%GPR23,%GPR24	
3775	0bd9	00650822		sub	%GPR1,%GPR3,%GPR5	
3776	0bda	00657820		add	%GPR15,%GPR3,%GPR5	
3777	0bdb	3c1c0000		lhi	%GPR28,$0	
3778				; Automatically 4 NOPs removed by reduceNOPs.sh
3779	0bdc	379c0002		ori	%GPR28,%GPR28,$2	
3780				; Automatically 2 NOPs removed by reduceNOPs.sh
3781	0bdd	01711820		add	%GPR3,%GPR11,%GPR17	
3782	0bde	02f82820		add	%GPR5,%GPR23,%GPR24	
3783	0bdf	015ce018		mult	%GPR28,%GPR10,%GPR28	
3784	0be0	01715822		sub	%GPR11,%GPR11,%GPR17	
3785	0be1	3c190000		lhi	%GPR25,$0	
3786				; Automatically 4 NOPs removed by reduceNOPs.sh
3787	0be2	37390002		ori	%GPR25,%GPR25,$2	
3788	0be3	00658020		add	%GPR16,%GPR3,%GPR5	
3789	0be4	00651022		sub	%GPR2,%GPR3,%GPR5	
3790	0be5	00cf2820		add	%GPR5,%GPR6,%GPR15	
3791	0be6	05795038		mac	%GPR10,%GPR11,%GPR25	
3792	0be7	00f01820		add	%GPR3,%GPR7,%GPR16	
3793				; Automatically 3 NOPs removed by reduceNOPs.sh
3794	0be8	01408820		add	%GPR17,%GPR10,%GPR0	
3795	0be9	00655020		add	%GPR10,%GPR3,%GPR5	
3796	0bea	3c1b0000		lhi	%GPR27,$0	
3797				; Automatically 4 NOPs removed by reduceNOPs.sh
3798	0beb	377b0002		ori	%GPR27,%GPR27,$2	
3799	0bec	3c120000		lhi	%GPR18,$0	
3800				; Automatically 4 NOPs removed by reduceNOPs.sh
3801	0bed	36520002		ori	%GPR18,%GPR18,$2	
3802				; Automatically 2 NOPs removed by reduceNOPs.sh
3803	0bee	3154ffff		andi	%GPR20,%GPR10,$65535	
3804	0bef	00cf5022		sub	%GPR10,%GPR6,%GPR15	
3805	0bf0	017c3022		sub	%GPR6,%GPR11,%GPR28	
3806	0bf1	00f05822		sub	%GPR11,%GPR7,%GPR16	
3807	0bf2	42940010		slli	%GPR20,%GPR20,$16	
3808	0bf3	015ba818		mult	%GPR21,%GPR10,%GPR27	
3809	0bf4	00651822		sub	%GPR3,%GPR3,%GPR5	
3810				; Automatically 3 NOPs removed by reduceNOPs.sh
3811	0bf5	00000000		nop	; Automatically added by fix-stall-insns.pl
3812	0bf6	00000000		nop	; Automatically added by fix-stall-insns.pl
3813	0bf7	05725038		mac	%GPR10,%GPR11,%GPR18	
3814	0bf8	01753822		sub	%GPR7,%GPR11,%GPR21	
3815	0bf9	3c0b0000		lhi	%GPR11,$0	
3816				; Automatically 4 NOPs removed by reduceNOPs.sh
3817	0bfa	356b0004		ori	%GPR11,%GPR11,$4	
3818	0bfb	3c0f0000		lhi	%GPR15,$0	
3819				; Automatically 4 NOPs removed by reduceNOPs.sh
3820	0bfc	35ef0002		ori	%GPR15,%GPR15,$2	
3821	0bfd	314affff		andi	%GPR10,%GPR10,$65535	
3822	0bfe	30f2ffff		andi	%GPR18,%GPR7,$65535	
3823	0bff	01da2820		add	%GPR5,%GPR14,%GPR26	
3824	0c00	008ba820		add	%GPR21,%GPR4,%GPR11	
3825	0c01	41500010		slli	%GPR16,%GPR10,$16	
3826	0c02	02929025		or	%GPR18,%GPR20,%GPR18	
3827	0c03	01da5022		sub	%GPR10,%GPR14,%GPR26	
3828	0c04	3074ffff		andi	%GPR20,%GPR3,$65535	
3829	0c05	01911820		add	%GPR3,%GPR12,%GPR17	
3830	0c06	01915822		sub	%GPR11,%GPR12,%GPR17	
3831	0c07	014f7818		mult	%GPR15,%GPR10,%GPR15	
3832	0c08	3c070000		lhi	%GPR7,$0	
3833				; Automatically 4 NOPs removed by reduceNOPs.sh
3834	0c09	34e70002		ori	%GPR7,%GPR7,$2	
3835	0c0a	00657020		add	%GPR14,%GPR3,%GPR5	
3836				; Automatically 2 NOPs removed by reduceNOPs.sh
3837	0c0b	ac920000		sw	0(%GPR4),%GPR18	
3838	0c0c	05675038		mac	%GPR10,%GPR11,%GPR7	
3839	0c0d	016f3822		sub	%GPR7,%GPR11,%GPR15	
3840	0c0e	31d7ffff		andi	%GPR23,%GPR14,$65535	
3841	0c0f	02148025		or	%GPR16,%GPR16,%GPR20	
3842	0c10	3c120000		lhi	%GPR18,$0	
3843				; Automatically 4 NOPs removed by reduceNOPs.sh
3844	0c11	36520008		ori	%GPR18,%GPR18,$8	
3845	0c12	30f1ffff		andi	%GPR17,%GPR7,$65535	
3846	0c13	42f40010		slli	%GPR20,%GPR23,$16	
3847	0c14	314affff		andi	%GPR10,%GPR10,$65535	
3848				; Automatically 2 NOPs removed by reduceNOPs.sh
3849	0c15	00651822		sub	%GPR3,%GPR3,%GPR5	
3850	0c16	aeb00000		sw	0(%GPR21),%GPR16	
3851				; Automatically 2 NOPs removed by reduceNOPs.sh
3852	0c17	00926020		add	%GPR12,%GPR4,%GPR18	
3853	0c18	02918025		or	%GPR16,%GPR20,%GPR17	
3854	0c19	414f0010		slli	%GPR15,%GPR10,$16	
3855	0c1a	3c0b0000		lhi	%GPR11,$0	
3856				; Automatically 4 NOPs removed by reduceNOPs.sh
3857	0c1b	356b000c		ori	%GPR11,%GPR11,$12	
3858	0c1c	01015022		sub	%GPR10,%GPR8,%GPR1	
3859	0c1d	3c0e0000		lhi	%GPR14,$0	
3860				; Automatically 4 NOPs removed by reduceNOPs.sh
3861	0c1e	35ce0002		ori	%GPR14,%GPR14,$2	
3862				; Automatically 2 NOPs removed by reduceNOPs.sh
3863	0c1f	3071ffff		andi	%GPR17,%GPR3,$65535	
3864	0c20	01221820		add	%GPR3,%GPR9,%GPR2	
3865	0c21	01012820		add	%GPR5,%GPR8,%GPR1	
3866	0c22	ad900000		sw	0(%GPR12),%GPR16	
3867	0c23	008b6020		add	%GPR12,%GPR4,%GPR11	
3868	0c24	00000000		nop	; Automatically added by fix-stall-insns.pl
3869	0c25	00000000		nop	; Automatically added by fix-stall-insns.pl
3870	0c26	00000000		nop	; Automatically added by fix-stall-insns.pl
3871	0c27	014e7018		mult	%GPR14,%GPR10,%GPR14	
3872	0c28	01225822		sub	%GPR11,%GPR9,%GPR2	
3873	0c29	3c070000		lhi	%GPR7,$0	
3874				; Automatically 4 NOPs removed by reduceNOPs.sh
3875	0c2a	34e70002		ori	%GPR7,%GPR7,$2	
3876	0c2b	00650820		add	%GPR1,%GPR3,%GPR5	
3877				; Automatically 2 NOPs removed by reduceNOPs.sh
3878	0c2c	016e1022		sub	%GPR2,%GPR11,%GPR14	
3879	0c2d	05675038		mac	%GPR10,%GPR11,%GPR7	
3880	0c2e	3032ffff		andi	%GPR18,%GPR1,$65535	
3881	0c2f	01f17825		or	%GPR15,%GPR15,%GPR17	
3882	0c30	00651822		sub	%GPR3,%GPR3,%GPR5	
3883	0c31	3149ffff		andi	%GPR9,%GPR10,$65535	
3884	0c32	304affff		andi	%GPR10,%GPR2,$65535	
3885	0c33	3c010000		lhi	%GPR1,$0	
3886				; Automatically 4 NOPs removed by reduceNOPs.sh
3887	0c34	34210010		ori	%GPR1,%GPR1,$16	
3888	0c35	42500010		slli	%GPR16,%GPR18,$16	
3889				; Automatically 2 NOPs removed by reduceNOPs.sh
3890	0c36	ad8f0000		sw	0(%GPR12),%GPR15	
3891	0c37	306cffff		andi	%GPR12,%GPR3,$65535	
3892	0c38	020a5825		or	%GPR11,%GPR16,%GPR10	
3893	0c39	00810820		add	%GPR1,%GPR4,%GPR1	
3894				; Automatically 2 NOPs removed by reduceNOPs.sh
3895	0c3a	01a61820		add	%GPR3,%GPR13,%GPR6	
3896	0c3b	02d35022		sub	%GPR10,%GPR22,%GPR19	
3897	0c3c	02d32820		add	%GPR5,%GPR22,%GPR19	
3898	0c3d	3c080000		lhi	%GPR8,$0	
3899				; Automatically 4 NOPs removed by reduceNOPs.sh
3900	0c3e	35080002		ori	%GPR8,%GPR8,$2	
3901				; Automatically 2 NOPs removed by reduceNOPs.sh
3902	0c3f	ac2b0000		sw	0(%GPR1),%GPR11	
3903	0c40	3c020000		lhi	%GPR2,$0	
3904				; Automatically 4 NOPs removed by reduceNOPs.sh
3905	0c41	34420014		ori	%GPR2,%GPR2,$20	
3906				; Automatically 2 NOPs removed by reduceNOPs.sh
3907	0c42	00000000		nop	; Automatically added by fix-stall-insns.pl
3908	0c43	00000000		nop	; Automatically added by fix-stall-insns.pl
3909	0c44	01484018		mult	%GPR8,%GPR10,%GPR8	
3910	0c45	00657020		add	%GPR14,%GPR3,%GPR5	
3911	0c46	01a65822		sub	%GPR11,%GPR13,%GPR6	
3912	0c47	3c070000		lhi	%GPR7,$0	
3913				; Automatically 4 NOPs removed by reduceNOPs.sh
3914	0c48	34e70002		ori	%GPR7,%GPR7,$2	
3915	0c49	41290010		slli	%GPR9,%GPR9,$16	
3916	0c4a	3c010000		lhi	%GPR1,$0	
3917				; Automatically 4 NOPs removed by reduceNOPs.sh
3918	0c4b	34210018		ori	%GPR1,%GPR1,$24	
3919	0c4c	00827820		add	%GPR15,%GPR4,%GPR2	
3920	0c4d	01681022		sub	%GPR2,%GPR11,%GPR8	
3921	0c4e	05675038		mac	%GPR10,%GPR11,%GPR7	
3922	0c4f	31ceffff		andi	%GPR14,%GPR14,$65535	
3923	0c50	012c4825		or	%GPR9,%GPR9,%GPR12	
3924	0c51	00814020		add	%GPR8,%GPR4,%GPR1	
3925	0c52	00650822		sub	%GPR1,%GPR3,%GPR5	
3926	0c53	3042ffff		andi	%GPR2,%GPR2,$65535	
3927	0c54	3146ffff		andi	%GPR6,%GPR10,$65535	
3928				; Automatically 2 NOPs removed by reduceNOPs.sh
3929	0c55	41cc0010		slli	%GPR12,%GPR14,$16	
3930	0c56	ade90000		sw	0(%GPR15),%GPR9	
3931	0c57	3021ffff		andi	%GPR1,%GPR1,$65535	
3932	0c58	40c60010		slli	%GPR6,%GPR6,$16	
3933	0c59	3c070000		lhi	%GPR7,$0	
3934				; Automatically 4 NOPs removed by reduceNOPs.sh
3935	0c5a	34e7001c		ori	%GPR7,%GPR7,$28	
3936	0c5b	01821025		or	%GPR2,%GPR12,%GPR2	
3937				; Automatically 2 NOPs removed by reduceNOPs.sh
3938	0c5c	00c10825		or	%GPR1,%GPR6,%GPR1	
3939	0c5d	00871820		add	%GPR3,%GPR4,%GPR7	
3940	0c5e	ad020000		sw	0(%GPR8),%GPR2	
3941				; Automatically 4 NOPs removed by reduceNOPs.sh
3942	0c5f	ac610000		sw	0(%GPR3),%GPR1	
3943				; Automatically 3 NOPs removed by reduceNOPs.sh
3944			L_main_56:
3945				; Automatically 4 NOPs removed by reduceNOPs.sh
3946	0c60	00000000		nop	; Automatically added by fix-stall-insns.pl
3947	0c61	00000000		nop	; Automatically added by fix-stall-insns.pl
3948	0c62	00000000		nop	; Automatically added by fix-stall-insns.pl
3949	0c63	8fdf0004		lw	%GPR31,4(%GPR30)	
3950	0c64	27dd0004		addui	%GPR29,%GPR30,$4	
3951	0c65	00000000		nop	; Automatically added by fix-stall-insns.pl
3952	0c66	00000000		nop	; Automatically added by fix-stall-insns.pl
3953	0c67	00000000		nop	; Automatically added by fix-stall-insns.pl
3954	0c68	8fde0000		lw	%GPR30,0(%GPR30)	
3955				; Automatically 2 NOPs removed by reduceNOPs.sh
3956	0c69	00000000		nop
3957	0c6a	00000000		nop	; Automatically added by fix-stall-insns.pl
3958	0c6b	00000000		nop	; Automatically added by fix-stall-insns.pl
3959	0c6c	00000000		nop	; Automatically added by fix-stall-insns.pl
3960	0c6d	00000000		nop
3961	0c6e	03e00008		jr	%GPR31	
3962				; Automatically 4 NOPs removed by reduceNOPs.sh
3963			main:
3964			L_main_57:
3965				; Automatically 4 NOPs removed by reduceNOPs.sh
3966	0c6f	00000000		nop	; Automatically added by fix-stall-insns.pl
3967	0c70	afbefffc		sw	-4(%GPR29),%GPR30	
3968	0c71	afbf0000		sw	0(%GPR29),%GPR31	
3969	0c72	2fbe0004		subui	%GPR30,%GPR29,$4	
3970				; Automatically 1 NOPs removed by reduceNOPs.sh
3971	0c73	2bbd05e8		subi	%GPR29,%GPR29,$1512	
3972				; Automatically 12 NOPs removed by reduceNOPs.sh
3973	0c74	3c010000		lhi	%GPR1,$0	
3974				; Automatically 4 NOPs removed by reduceNOPs.sh
3975	0c75	34210010		ori	%GPR1,%GPR1,$16	
3976	0c76	3c020000		lhi	%GPR2,$0	
3977				; Automatically 4 NOPs removed by reduceNOPs.sh
3978	0c77	34420004		ori	%GPR2,%GPR2,$4	
3979				; Automatically 4 NOPs removed by reduceNOPs.sh
3980	0c78	0022101a		div	%GPR2,%GPR1,%GPR2	
3981				; Automatically 4 NOPs removed by reduceNOPs.sh
3982	0c79	afc2fa48		sw	-1464(%GPR30),%GPR2	
3983	0c7a	2bc205b4		subi	%GPR2,%GPR30,$1460	
3984				; Automatically 4 NOPs removed by reduceNOPs.sh
3985	0c7b	00000000		nop	; Automatically added by fix-stall-insns.pl
3986	0c7c	00000000		nop	; Automatically added by fix-stall-insns.pl
3987	0c7d	00000000		nop	; Automatically added by fix-stall-insns.pl
3988	0c7e	afc2fa44		sw	-1468(%GPR30),%GPR2	
3989	0c7f	2bc20594		subi	%GPR2,%GPR30,$1428	
3990				; Automatically 4 NOPs removed by reduceNOPs.sh
3991	0c80	00000000		nop	; Automatically added by fix-stall-insns.pl
3992	0c81	00000000		nop	; Automatically added by fix-stall-insns.pl
3993	0c82	00000000		nop	; Automatically added by fix-stall-insns.pl
3994	0c83	afc2fa40		sw	-1472(%GPR30),%GPR2	
3995	0c84	2bc20594		subi	%GPR2,%GPR30,$1428	
3996				; Automatically 4 NOPs removed by reduceNOPs.sh
3997	0c85	00000000		nop	; Automatically added by fix-stall-insns.pl
3998	0c86	00000000		nop	; Automatically added by fix-stall-insns.pl
3999	0c87	00000000		nop	; Automatically added by fix-stall-insns.pl
4000	0c88	afc2fa3c		sw	-1476(%GPR30),%GPR2	
4001	0c89	3c020000		lhi	%GPR2,$0	
4002				; Automatically 4 NOPs removed by reduceNOPs.sh
4003	0c8a	34420000		ori	%GPR2,%GPR2,$0	
4004				; Automatically 4 NOPs removed by reduceNOPs.sh
4005	0c8b	00000000		nop	; Automatically added by fix-stall-insns.pl
4006	0c8c	00000000		nop	; Automatically added by fix-stall-insns.pl
4007	0c8d	afc2fa38		sw	-1480(%GPR30),%GPR2	
4008	0c8e	3c02ffff		lhi	%GPR2,$65535	
4009				; Automatically 4 NOPs removed by reduceNOPs.sh
4010	0c8f	3442ffff		ori	%GPR2,%GPR2,$-1	
4011				; Automatically 4 NOPs removed by reduceNOPs.sh
4012	0c90	00000000		nop	; Automatically added by fix-stall-insns.pl
4013	0c91	00000000		nop	; Automatically added by fix-stall-insns.pl
4014	0c92	afc2fa34		sw	-1484(%GPR30),%GPR2	
4015	0c93	3c020000		lhi	%GPR2,$0	
4016				; Automatically 4 NOPs removed by reduceNOPs.sh
4017	0c94	34420000		ori	%GPR2,%GPR2,$0	
4018				; Automatically 4 NOPs removed by reduceNOPs.sh
4019	0c95	00000000		nop	; Automatically added by fix-stall-insns.pl
4020	0c96	00000000		nop	; Automatically added by fix-stall-insns.pl
4021	0c97	afc2fa30		sw	-1488(%GPR30),%GPR2	
4022	0c98	3c020000		lhi	%GPR2,$0	
4023				; Automatically 4 NOPs removed by reduceNOPs.sh
4024	0c99	34420000		ori	%GPR2,%GPR2,$0	
4025				; Automatically 4 NOPs removed by reduceNOPs.sh
4026	0c9a	00000000		nop	; Automatically added by fix-stall-insns.pl
4027	0c9b	00000000		nop	; Automatically added by fix-stall-insns.pl
4028	0c9c	afc2fa2c		sw	-1492(%GPR30),%GPR2	
4029	0c9d	3c020000		lhi	%GPR2,$0	
4030				; Automatically 4 NOPs removed by reduceNOPs.sh
4031	0c9e	34420000		ori	%GPR2,%GPR2,$0	
4032				; Automatically 4 NOPs removed by reduceNOPs.sh
4033	0c9f	00000000		nop	; Automatically added by fix-stall-insns.pl
4034	0ca0	00000000		nop	; Automatically added by fix-stall-insns.pl
4035	0ca1	afc2fa28		sw	-1496(%GPR30),%GPR2	
4036	0ca2	3c020000		lhi	%GPR2,$0	
4037				; Automatically 4 NOPs removed by reduceNOPs.sh
4038	0ca3	34420000		ori	%GPR2,%GPR2,$0	
4039				; Automatically 4 NOPs removed by reduceNOPs.sh
4040	0ca4	00000000		nop	; Automatically added by fix-stall-insns.pl
4041	0ca5	00000000		nop	; Automatically added by fix-stall-insns.pl
4042	0ca6	afc2fa24		sw	-1500(%GPR30),%GPR2	
4043				; Automatically 3 NOPs removed by reduceNOPs.sh
4044			L_main_58:
4045	0ca7	00000000		nop	; Automatically added by fix-stall-insns.pl
4046	0ca8	00000000		nop	; Automatically added by fix-stall-insns.pl
4047	0ca9	00000000		nop	; Automatically added by fix-stall-insns.pl
4048	0caa	8fc6fa38		lw	%GPR6,-1480(%GPR30)	
4049	0cab	2bc20594		subi	%GPR2,%GPR30,$1428	
4050				; Automatically 2 NOPs removed by reduceNOPs.sh
4051	0cac	3c030000		lhi	%GPR3,$0	
4052				; Automatically 4 NOPs removed by reduceNOPs.sh
4053	0cad	34630004		ori	%GPR3,%GPR3,$4	
4054				; Automatically 3 NOPs removed by reduceNOPs.sh
4055	0cae	3c040000		lhi	%GPR4,$0	
4056				; Automatically 4 NOPs removed by reduceNOPs.sh
4057	0caf	34840000		ori	%GPR4,%GPR4,$0	
4058	0cb0	00c31818		mult	%GPR3,%GPR6,%GPR3	
4059	0cb1	3c050000		lhi	%GPR5,$0	
4060				; Automatically 4 NOPs removed by reduceNOPs.sh
4061	0cb2	34a50080		ori	%GPR5,%GPR5,$128	
4062				; Automatically 3 NOPs removed by reduceNOPs.sh
4063	0cb3	00431020		add	%GPR2,%GPR2,%GPR3	
4064	0cb4	00c01820		add	%GPR3,%GPR6,%GPR0	
4065				; Automatically 3 NOPs removed by reduceNOPs.sh
4066	0cb5	ac440000		sw	0(%GPR2),%GPR4	
4067	0cb6	20630001		addi	%GPR3,%GPR3,$1	
4068				; Automatically 4 NOPs removed by reduceNOPs.sh
4069	0cb7	00601020		add	%GPR2,%GPR3,%GPR0	
4070	0cb8	00000000		nop	; Automatically added by fix-stall-insns.pl
4071	0cb9	00000000		nop	; Automatically added by fix-stall-insns.pl
4072	0cba	afc3fa38		sw	-1480(%GPR30),%GPR3	
4073				; Automatically 3 NOPs removed by reduceNOPs.sh
4074	0cbb	0045d82a		slt	%GPR27,%GPR2,%GPR5	
4075	0cbc	00000000		nop	; Automatically added by findDataDependency.sh
4076	0cbd	00000000		nop	; Automatically added by findDataDependency.sh
4077	0cbe	00000000		nop	; Automatically added by findDataDependency.sh
4078	0cbf	1760ffe8		bnez	%GPR27,L_main_58	
4079				; Automatically 4 NOPs removed by reduceNOPs.sh
4080	0cc0	08000001		j	L_main_59	
4081				; Automatically 4 NOPs removed by reduceNOPs.sh
4082			L_main_59:
4083				; Automatically 4 NOPs removed by reduceNOPs.sh
4084	0cc1	00000000		nop	; Automatically Added by addNopAfterLabels.pl
4085	0cc2	3c020000		lhi	%GPR2,$0	
4086				; Automatically 4 NOPs removed by reduceNOPs.sh
4087	0cc3	34420000		ori	%GPR2,%GPR2,$0	
4088				; Automatically 4 NOPs removed by reduceNOPs.sh
4089	0cc4	afc2fa38		sw	-1480(%GPR30),%GPR2	
4090				; Automatically 3 NOPs removed by reduceNOPs.sh
4091			L_main_60:
4092	0cc5	00000000		nop	; Automatically added by fix-stall-insns.pl
4093	0cc6	00000000		nop	; Automatically added by fix-stall-insns.pl
4094	0cc7	00000000		nop	; Automatically added by fix-stall-insns.pl
4095	0cc8	8fc6fa38		lw	%GPR6,-1480(%GPR30)	
4096	0cc9	2bc205b4		subi	%GPR2,%GPR30,$1460	
4097				; Automatically 2 NOPs removed by reduceNOPs.sh
4098	0cca	3c030000		lhi	%GPR3,$0	
4099				; Automatically 4 NOPs removed by reduceNOPs.sh
4100	0ccb	34630004		ori	%GPR3,%GPR3,$4	
4101				; Automatically 3 NOPs removed by reduceNOPs.sh
4102	0ccc	3c040000		lhi	%GPR4,$0	
4103				; Automatically 4 NOPs removed by reduceNOPs.sh
4104	0ccd	34840000		ori	%GPR4,%GPR4,$0	
4105	0cce	00c31818		mult	%GPR3,%GPR6,%GPR3	
4106	0ccf	3c050000		lhi	%GPR5,$0	
4107				; Automatically 4 NOPs removed by reduceNOPs.sh
4108	0cd0	34a50008		ori	%GPR5,%GPR5,$8	
4109				; Automatically 3 NOPs removed by reduceNOPs.sh
4110	0cd1	00431020		add	%GPR2,%GPR2,%GPR3	
4111	0cd2	00c01820		add	%GPR3,%GPR6,%GPR0	
4112				; Automatically 3 NOPs removed by reduceNOPs.sh
4113	0cd3	ac440000		sw	0(%GPR2),%GPR4	
4114	0cd4	20630001		addi	%GPR3,%GPR3,$1	
4115				; Automatically 4 NOPs removed by reduceNOPs.sh
4116	0cd5	00601020		add	%GPR2,%GPR3,%GPR0	
4117	0cd6	00000000		nop	; Automatically added by fix-stall-insns.pl
4118	0cd7	00000000		nop	; Automatically added by fix-stall-insns.pl
4119	0cd8	afc3fa38		sw	-1480(%GPR30),%GPR3	
4120				; Automatically 3 NOPs removed by reduceNOPs.sh
4121	0cd9	0045d82a		slt	%GPR27,%GPR2,%GPR5	
4122	0cda	00000000		nop	; Automatically added by findDataDependency.sh
4123	0cdb	00000000		nop	; Automatically added by findDataDependency.sh
4124	0cdc	00000000		nop	; Automatically added by findDataDependency.sh
4125	0cdd	1760ffe8		bnez	%GPR27,L_main_60	
4126				; Automatically 4 NOPs removed by reduceNOPs.sh
4127	0cde	08000001		j	L_main_61	
4128				; Automatically 4 NOPs removed by reduceNOPs.sh
4129			L_main_61:
4130				; Automatically 4 NOPs removed by reduceNOPs.sh
4131	0cdf	00000000		nop	; Automatically Added by addNopAfterLabels.pl
4132	0ce0	3c020000		lhi	%GPR2,$0	
4133				; Automatically 4 NOPs removed by reduceNOPs.sh
4134	0ce1	34420000		ori	%GPR2,%GPR2,$0	
4135				; Automatically 4 NOPs removed by reduceNOPs.sh
4136	0ce2	afc2fa38		sw	-1480(%GPR30),%GPR2	
4137				; Automatically 3 NOPs removed by reduceNOPs.sh
4138			L_main_62:
4139	0ce3	00000000		nop	; Automatically added by fix-stall-insns.pl
4140	0ce4	00000000		nop	; Automatically added by fix-stall-insns.pl
4141	0ce5	00000000		nop	; Automatically added by fix-stall-insns.pl
4142	0ce6	8fc3fa38		lw	%GPR3,-1480(%GPR30)	
4143				; Automatically 3 NOPs removed by reduceNOPs.sh
4144	0ce7	3c020000		lhi	%GPR2,$0	
4145				; Automatically 4 NOPs removed by reduceNOPs.sh
4146	0ce8	34420004		ori	%GPR2,%GPR2,$4	
4147				; Automatically 2 NOPs removed by reduceNOPs.sh
4148	0ce9	00603820		add	%GPR7,%GPR3,%GPR0	
4149	0cea	3c040000		lhi	%GPR4,$0	
4150				; Automatically 4 NOPs removed by reduceNOPs.sh
4151	0ceb	34840001		ori	%GPR4,%GPR4,$1	
4152	0cec	00621018		mult	%GPR2,%GPR3,%GPR2	
4153	0ced	3c050000		lhi	%GPR5,$0	
4154				; Automatically 4 NOPs removed by reduceNOPs.sh
4155	0cee	34a50004		ori	%GPR5,%GPR5,$4	
4156				; Automatically 3 NOPs removed by reduceNOPs.sh
4157	0cef	3c030000		lhi	%GPR3,$0	
4158				; Automatically 4 NOPs removed by reduceNOPs.sh
4159	0cf0	34630004		ori	%GPR3,%GPR3,$4	
4160				; Automatically 2 NOPs removed by reduceNOPs.sh
4161	0cf1	04e52038		mac	%GPR4,%GPR7,%GPR5	
4162	0cf2	00e04820		add	%GPR9,%GPR7,%GPR0	
4163	0cf3	3c080000		lhi	%GPR8,$0	
4164				; Automatically 4 NOPs removed by reduceNOPs.sh
4165	0cf4	35080004		ori	%GPR8,%GPR8,$4	
4166	0cf5	3c070000		lhi	%GPR7,$0	
4167				; Automatically 4 NOPs removed by reduceNOPs.sh
4168	0cf6	34e70002		ori	%GPR7,%GPR7,$2	
4169	0cf7	00431018		mult	%GPR2,%GPR2,%GPR3	
4170	0cf8	2bc60194		subi	%GPR6,%GPR30,$404	
4171				; Automatically 2 NOPs removed by reduceNOPs.sh
4172	0cf9	3c050000		lhi	%GPR5,$0	
4173				; Automatically 4 NOPs removed by reduceNOPs.sh
4174	0cfa	34a50004		ori	%GPR5,%GPR5,$4	
4175				; Automatically 2 NOPs removed by reduceNOPs.sh
4176	0cfb	05283838		mac	%GPR7,%GPR9,%GPR8	
4177	0cfc	00c21020		add	%GPR2,%GPR6,%GPR2	
4178	0cfd	3c080202		lhi	%GPR8,$514	
4179				; Automatically 4 NOPs removed by reduceNOPs.sh
4180	0cfe	35080304		ori	%GPR8,%GPR8,$33686276	
4181	0cff	00852018		mult	%GPR4,%GPR4,%GPR5	
4182	0d00	2bc30194		subi	%GPR3,%GPR30,$404	
4183				; Automatically 4 NOPs removed by reduceNOPs.sh
4184	0d01	3c090000		lhi	%GPR9,$0	
4185				; Automatically 4 NOPs removed by reduceNOPs.sh
4186	0d02	35290004		ori	%GPR9,%GPR9,$4	
4187	0d03	ac480000		sw	0(%GPR2),%GPR8	
4188	0d04	00641820		add	%GPR3,%GPR3,%GPR4	
4189	0d05	3c020506		lhi	%GPR2,$1286	
4190				; Automatically 4 NOPs removed by reduceNOPs.sh
4191	0d06	34420708		ori	%GPR2,%GPR2,$84281096	
4192	0d07	00000000		nop	; Automatically added by fix-stall-insns.pl
4193	0d08	8fc6fa38		lw	%GPR6,-1480(%GPR30)	
4194	0d09	2bc50194		subi	%GPR5,%GPR30,$404	
4195	0d0a	3c0a0000		lhi	%GPR10,$0	
4196				; Automatically 4 NOPs removed by reduceNOPs.sh
4197	0d0b	354a0003		ori	%GPR10,%GPR10,$3	
4198	0d0c	00000000		nop	; Automatically added by fix-stall-insns.pl
4199	0d0d	00e93818		mult	%GPR7,%GPR7,%GPR9	
4200				; Automatically 2 NOPs removed by reduceNOPs.sh
4201	0d0e	3c0b0000		lhi	%GPR11,$0	
4202				; Automatically 4 NOPs removed by reduceNOPs.sh
4203	0d0f	356b0004		ori	%GPR11,%GPR11,$4	
4204				; Automatically 2 NOPs removed by reduceNOPs.sh
4205	0d10	00000000		nop	; Automatically added by fix-stall-insns.pl
4206	0d11	ac620000		sw	0(%GPR3),%GPR2	
4207	0d12	3c02090a		lhi	%GPR2,$2314	
4208				; Automatically 4 NOPs removed by reduceNOPs.sh
4209	0d13	34420b0c		ori	%GPR2,%GPR2,$151653132	
4210	0d14	00a72820		add	%GPR5,%GPR5,%GPR7	
4211	0d15	00000000		nop	; Automatically added by fix-stall-insns.pl
4212	0d16	04cb5038		mac	%GPR10,%GPR6,%GPR11	
4213	0d17	3c060000		lhi	%GPR6,$0	
4214				; Automatically 4 NOPs removed by reduceNOPs.sh
4215	0d18	34c60004		ori	%GPR6,%GPR6,$4	
4216				; Automatically 2 NOPs removed by reduceNOPs.sh
4217	0d19	00000000		nop	; Automatically added by fix-stall-insns.pl
4218	0d1a	aca20000		sw	0(%GPR5),%GPR2	
4219	0d1b	00000000		nop	; Automatically added by findLoadStoreProblem.sh
4220	0d1c	00000000		nop	; Automatically added by fix-stall-insns.pl
4221	0d1d	00000000		nop	; Automatically added by fix-stall-insns.pl
4222	0d1e	00000000		nop	; Automatically added by fix-stall-insns.pl
4223	0d1f	8fc2fa38		lw	%GPR2,-1480(%GPR30)	
4224	0d20	01461818		mult	%GPR3,%GPR10,%GPR6	
4225				; Automatically 2 NOPs removed by reduceNOPs.sh
4226	0d21	2bc40194		subi	%GPR4,%GPR30,$404	
4227	0d22	20420001		addi	%GPR2,%GPR2,$1	
4228	0d23	3c060d0e		lhi	%GPR6,$3342	
4229				; Automatically 4 NOPs removed by reduceNOPs.sh
4230	0d24	34c60f00		ori	%GPR6,%GPR6,$219025152	
4231	0d25	3c070000		lhi	%GPR7,$0	
4232				; Automatically 4 NOPs removed by reduceNOPs.sh
4233	0d26	34e70010		ori	%GPR7,%GPR7,$16	
4234	0d27	00831820		add	%GPR3,%GPR4,%GPR3	
4235	0d28	afc2fa38		sw	-1480(%GPR30),%GPR2	
4236				; Automatically 3 NOPs removed by reduceNOPs.sh
4237	0d29	ac660000		sw	0(%GPR3),%GPR6	
4238	0d2a	0047d82a		slt	%GPR27,%GPR2,%GPR7	
4239	0d2b	00000000		nop	; Automatically added by findDataDependency.sh
4240	0d2c	00000000		nop	; Automatically added by findDataDependency.sh
4241	0d2d	00000000		nop	; Automatically added by findDataDependency.sh
4242	0d2e	1760ffb5		bnez	%GPR27,L_main_62	
4243				; Automatically 4 NOPs removed by reduceNOPs.sh
4244	0d2f	08000001		j	L_main_63	
4245				; Automatically 4 NOPs removed by reduceNOPs.sh
4246			L_main_63:
4247				; Automatically 4 NOPs removed by reduceNOPs.sh
4248	0d30	00000000		nop	; Automatically Added by addNopAfterLabels.pl
4249	0d31	3c020000		lhi	%GPR2,$0	
4250				; Automatically 4 NOPs removed by reduceNOPs.sh
4251	0d32	34420000		ori	%GPR2,%GPR2,$0	
4252				; Automatically 4 NOPs removed by reduceNOPs.sh
4253	0d33	afc2fa38		sw	-1480(%GPR30),%GPR2	
4254				; Automatically 3 NOPs removed by reduceNOPs.sh
4255			L_main_64:
4256	0d34	00000000		nop	; Automatically added by fix-stall-insns.pl
4257	0d35	00000000		nop	; Automatically added by fix-stall-insns.pl
4258	0d36	00000000		nop	; Automatically added by fix-stall-insns.pl
4259	0d37	8fc3fa38		lw	%GPR3,-1480(%GPR30)	
4260				; Automatically 3 NOPs removed by reduceNOPs.sh
4261	0d38	3c020000		lhi	%GPR2,$0	
4262				; Automatically 4 NOPs removed by reduceNOPs.sh
4263	0d39	34420004		ori	%GPR2,%GPR2,$4	
4264				; Automatically 2 NOPs removed by reduceNOPs.sh
4265	0d3a	00603820		add	%GPR7,%GPR3,%GPR0	
4266	0d3b	3c040000		lhi	%GPR4,$0	
4267				; Automatically 4 NOPs removed by reduceNOPs.sh
4268	0d3c	34840001		ori	%GPR4,%GPR4,$1	
4269	0d3d	00621018		mult	%GPR2,%GPR3,%GPR2	
4270	0d3e	3c050000		lhi	%GPR5,$0	
4271				; Automatically 4 NOPs removed by reduceNOPs.sh
4272	0d3f	34a50004		ori	%GPR5,%GPR5,$4	
4273				; Automatically 3 NOPs removed by reduceNOPs.sh
4274	0d40	3c030000		lhi	%GPR3,$0	
4275				; Automatically 4 NOPs removed by reduceNOPs.sh
4276	0d41	34630004		ori	%GPR3,%GPR3,$4	
4277				; Automatically 2 NOPs removed by reduceNOPs.sh
4278	0d42	04e52038		mac	%GPR4,%GPR7,%GPR5	
4279	0d43	00e04820		add	%GPR9,%GPR7,%GPR0	
4280	0d44	3c080000		lhi	%GPR8,$0	
4281				; Automatically 4 NOPs removed by reduceNOPs.sh
4282	0d45	35080004		ori	%GPR8,%GPR8,$4	
4283	0d46	3c070000		lhi	%GPR7,$0	
4284				; Automatically 4 NOPs removed by reduceNOPs.sh
4285	0d47	34e70002		ori	%GPR7,%GPR7,$2	
4286	0d48	00431018		mult	%GPR2,%GPR2,%GPR3	
4287	0d49	2bc60294		subi	%GPR6,%GPR30,$660	
4288				; Automatically 2 NOPs removed by reduceNOPs.sh
4289	0d4a	3c050000		lhi	%GPR5,$0	
4290				; Automatically 4 NOPs removed by reduceNOPs.sh
4291	0d4b	34a50004		ori	%GPR5,%GPR5,$4	
4292				; Automatically 2 NOPs removed by reduceNOPs.sh
4293	0d4c	05283838		mac	%GPR7,%GPR9,%GPR8	
4294	0d4d	00c21020		add	%GPR2,%GPR6,%GPR2	
4295	0d4e	3c08090f		lhi	%GPR8,$2319	
4296				; Automatically 4 NOPs removed by reduceNOPs.sh
4297	0d4f	35080a09		ori	%GPR8,%GPR8,$151980553	
4298	0d50	00852018		mult	%GPR4,%GPR4,%GPR5	
4299	0d51	2bc30294		subi	%GPR3,%GPR30,$660	
4300				; Automatically 4 NOPs removed by reduceNOPs.sh
4301	0d52	3c090000		lhi	%GPR9,$0	
4302				; Automatically 4 NOPs removed by reduceNOPs.sh
4303	0d53	35290004		ori	%GPR9,%GPR9,$4	
4304	0d54	ac480000		sw	0(%GPR2),%GPR8	
4305	0d55	00641820		add	%GPR3,%GPR3,%GPR4	
4306	0d56	3c02070c		lhi	%GPR2,$1804	
4307				; Automatically 4 NOPs removed by reduceNOPs.sh
4308	0d57	34420300		ori	%GPR2,%GPR2,$118227712	
4309	0d58	00000000		nop	; Automatically added by fix-stall-insns.pl
4310	0d59	8fc6fa38		lw	%GPR6,-1480(%GPR30)	
4311	0d5a	2bc50294		subi	%GPR5,%GPR30,$660	
4312	0d5b	3c0a0000		lhi	%GPR10,$0	
4313				; Automatically 4 NOPs removed by reduceNOPs.sh
4314	0d5c	354a0003		ori	%GPR10,%GPR10,$3	
4315	0d5d	00000000		nop	; Automatically added by fix-stall-insns.pl
4316	0d5e	00e93818		mult	%GPR7,%GPR7,%GPR9	
4317				; Automatically 2 NOPs removed by reduceNOPs.sh
4318	0d5f	3c0b0000		lhi	%GPR11,$0	
4319				; Automatically 4 NOPs removed by reduceNOPs.sh
4320	0d60	356b0004		ori	%GPR11,%GPR11,$4	
4321				; Automatically 2 NOPs removed by reduceNOPs.sh
4322	0d61	00000000		nop	; Automatically added by fix-stall-insns.pl
4323	0d62	ac620000		sw	0(%GPR3),%GPR2	
4324	0d63	3c020408		lhi	%GPR2,$1032	
4325				; Automatically 4 NOPs removed by reduceNOPs.sh
4326	0d64	34420d01		ori	%GPR2,%GPR2,$67636481	
4327	0d65	00a72820		add	%GPR5,%GPR5,%GPR7	
4328	0d66	00000000		nop	; Automatically added by fix-stall-insns.pl
4329	0d67	04cb5038		mac	%GPR10,%GPR6,%GPR11	
4330	0d68	3c060000		lhi	%GPR6,$0	
4331				; Automatically 4 NOPs removed by reduceNOPs.sh
4332	0d69	34c60004		ori	%GPR6,%GPR6,$4	
4333				; Automatically 2 NOPs removed by reduceNOPs.sh
4334	0d6a	00000000		nop	; Automatically added by fix-stall-insns.pl
4335	0d6b	aca20000		sw	0(%GPR5),%GPR2	
4336	0d6c	00000000		nop	; Automatically added by findLoadStoreProblem.sh
4337	0d6d	00000000		nop	; Automatically added by fix-stall-insns.pl
4338	0d6e	00000000		nop	; Automatically added by fix-stall-insns.pl
4339	0d6f	00000000		nop	; Automatically added by fix-stall-insns.pl
4340	0d70	8fc2fa38		lw	%GPR2,-1480(%GPR30)	
4341	0d71	01461818		mult	%GPR3,%GPR10,%GPR6	
4342				; Automatically 2 NOPs removed by reduceNOPs.sh
4343	0d72	2bc40294		subi	%GPR4,%GPR30,$660	
4344	0d73	20420001		addi	%GPR2,%GPR2,$1	
4345	0d74	3c06060e		lhi	%GPR6,$1550	
4346				; Automatically 4 NOPs removed by reduceNOPs.sh
4347	0d75	34c60b05		ori	%GPR6,%GPR6,$101583621	
4348	0d76	3c070000		lhi	%GPR7,$0	
4349				; Automatically 4 NOPs removed by reduceNOPs.sh
4350	0d77	34e70010		ori	%GPR7,%GPR7,$16	
4351	0d78	00831820		add	%GPR3,%GPR4,%GPR3	
4352	0d79	afc2fa38		sw	-1480(%GPR30),%GPR2	
4353				; Automatically 3 NOPs removed by reduceNOPs.sh
4354	0d7a	ac660000		sw	0(%GPR3),%GPR6	
4355	0d7b	0047d82a		slt	%GPR27,%GPR2,%GPR7	
4356	0d7c	00000000		nop	; Automatically added by findDataDependency.sh
4357	0d7d	00000000		nop	; Automatically added by findDataDependency.sh
4358	0d7e	00000000		nop	; Automatically added by findDataDependency.sh
4359	0d7f	1760ffb5		bnez	%GPR27,L_main_64	
4360				; Automatically 4 NOPs removed by reduceNOPs.sh
4361	0d80	08000001		j	L_main_65	
4362				; Automatically 4 NOPs removed by reduceNOPs.sh
4363			L_main_65:
4364				; Automatically 4 NOPs removed by reduceNOPs.sh
4365	0d81	00000000		nop	; Automatically Added by addNopAfterLabels.pl
4366	0d82	3c020000		lhi	%GPR2,$0	
4367				; Automatically 4 NOPs removed by reduceNOPs.sh
4368	0d83	34420000		ori	%GPR2,%GPR2,$0	
4369				; Automatically 4 NOPs removed by reduceNOPs.sh
4370	0d84	afc2fa38		sw	-1480(%GPR30),%GPR2	
4371				; Automatically 3 NOPs removed by reduceNOPs.sh
4372			L_main_66:
4373	0d85	00000000		nop	; Automatically added by fix-stall-insns.pl
4374	0d86	00000000		nop	; Automatically added by fix-stall-insns.pl
4375	0d87	00000000		nop	; Automatically added by fix-stall-insns.pl
4376	0d88	8fc3fa38		lw	%GPR3,-1480(%GPR30)	
4377				; Automatically 3 NOPs removed by reduceNOPs.sh
4378	0d89	3c020000		lhi	%GPR2,$0	
4379				; Automatically 4 NOPs removed by reduceNOPs.sh
4380	0d8a	34420004		ori	%GPR2,%GPR2,$4	
4381				; Automatically 2 NOPs removed by reduceNOPs.sh
4382	0d8b	00603820		add	%GPR7,%GPR3,%GPR0	
4383	0d8c	3c040000		lhi	%GPR4,$0	
4384				; Automatically 4 NOPs removed by reduceNOPs.sh
4385	0d8d	34840001		ori	%GPR4,%GPR4,$1	
4386	0d8e	00621018		mult	%GPR2,%GPR3,%GPR2	
4387	0d8f	3c050000		lhi	%GPR5,$0	
4388				; Automatically 4 NOPs removed by reduceNOPs.sh
4389	0d90	34a50004		ori	%GPR5,%GPR5,$4	
4390				; Automatically 3 NOPs removed by reduceNOPs.sh
4391	0d91	3c030000		lhi	%GPR3,$0	
4392				; Automatically 4 NOPs removed by reduceNOPs.sh
4393	0d92	34630004		ori	%GPR3,%GPR3,$4	
4394				; Automatically 2 NOPs removed by reduceNOPs.sh
4395	0d93	04e52038		mac	%GPR4,%GPR7,%GPR5	
4396	0d94	00e04820		add	%GPR9,%GPR7,%GPR0	
4397	0d95	3c080000		lhi	%GPR8,$0	
4398				; Automatically 4 NOPs removed by reduceNOPs.sh
4399	0d96	35080004		ori	%GPR8,%GPR8,$4	
4400	0d97	3c070000		lhi	%GPR7,$0	
4401				; Automatically 4 NOPs removed by reduceNOPs.sh
4402	0d98	34e70002		ori	%GPR7,%GPR7,$2	
4403	0d99	00431018		mult	%GPR2,%GPR2,%GPR3	
4404	0d9a	2bc60394		subi	%GPR6,%GPR30,$916	
4405				; Automatically 2 NOPs removed by reduceNOPs.sh
4406	0d9b	3c050000		lhi	%GPR5,$0	
4407				; Automatically 4 NOPs removed by reduceNOPs.sh
4408	0d9c	34a50004		ori	%GPR5,%GPR5,$4	
4409				; Automatically 2 NOPs removed by reduceNOPs.sh
4410	0d9d	05283838		mac	%GPR7,%GPR9,%GPR8	
4411	0d9e	00c21020		add	%GPR2,%GPR6,%GPR2	
4412	0d9f	3c08090f		lhi	%GPR8,$2319	
4413				; Automatically 4 NOPs removed by reduceNOPs.sh
4414	0da0	35080a09		ori	%GPR8,%GPR8,$151980553	
4415	0da1	00852018		mult	%GPR4,%GPR4,%GPR5	
4416	0da2	2bc30394		subi	%GPR3,%GPR30,$916	
4417				; Automatically 4 NOPs removed by reduceNOPs.sh
4418	0da3	3c090000		lhi	%GPR9,$0	
4419				; Automatically 4 NOPs removed by reduceNOPs.sh
4420	0da4	35290004		ori	%GPR9,%GPR9,$4	
4421	0da5	ac480000		sw	0(%GPR2),%GPR8	
4422	0da6	00641820		add	%GPR3,%GPR3,%GPR4	
4423	0da7	3c02070c		lhi	%GPR2,$1804	
4424				; Automatically 4 NOPs removed by reduceNOPs.sh
4425	0da8	34420300		ori	%GPR2,%GPR2,$118227712	
4426	0da9	00000000		nop	; Automatically added by fix-stall-insns.pl
4427	0daa	8fc6fa38		lw	%GPR6,-1480(%GPR30)	
4428	0dab	2bc50394		subi	%GPR5,%GPR30,$916	
4429	0dac	3c0a0000		lhi	%GPR10,$0	
4430				; Automatically 4 NOPs removed by reduceNOPs.sh
4431	0dad	354a0003		ori	%GPR10,%GPR10,$3	
4432	0dae	00000000		nop	; Automatically added by fix-stall-insns.pl
4433	0daf	00e93818		mult	%GPR7,%GPR7,%GPR9	
4434				; Automatically 2 NOPs removed by reduceNOPs.sh
4435	0db0	3c0b0000		lhi	%GPR11,$0	
4436				; Automatically 4 NOPs removed by reduceNOPs.sh
4437	0db1	356b0004		ori	%GPR11,%GPR11,$4	
4438				; Automatically 2 NOPs removed by reduceNOPs.sh
4439	0db2	00000000		nop	; Automatically added by fix-stall-insns.pl
4440	0db3	ac620000		sw	0(%GPR3),%GPR2	
4441	0db4	3c020408		lhi	%GPR2,$1032	
4442				; Automatically 4 NOPs removed by reduceNOPs.sh
4443	0db5	34420d01		ori	%GPR2,%GPR2,$67636481	
4444	0db6	00a72820		add	%GPR5,%GPR5,%GPR7	
4445	0db7	00000000		nop	; Automatically added by fix-stall-insns.pl
4446	0db8	04cb5038		mac	%GPR10,%GPR6,%GPR11	
4447	0db9	3c060000		lhi	%GPR6,$0	
4448				; Automatically 4 NOPs removed by reduceNOPs.sh
4449	0dba	34c60004		ori	%GPR6,%GPR6,$4	
4450				; Automatically 2 NOPs removed by reduceNOPs.sh
4451	0dbb	00000000		nop	; Automatically added by fix-stall-insns.pl
4452	0dbc	aca20000		sw	0(%GPR5),%GPR2	
4453	0dbd	00000000		nop	; Automatically added by findLoadStoreProblem.sh
4454	0dbe	00000000		nop	; Automatically added by fix-stall-insns.pl
4455	0dbf	00000000		nop	; Automatically added by fix-stall-insns.pl
4456	0dc0	00000000		nop	; Automatically added by fix-stall-insns.pl
4457	0dc1	8fc2fa38		lw	%GPR2,-1480(%GPR30)	
4458	0dc2	01461818		mult	%GPR3,%GPR10,%GPR6	
4459				; Automatically 2 NOPs removed by reduceNOPs.sh
4460	0dc3	2bc40394		subi	%GPR4,%GPR30,$916	
4461	0dc4	20420001		addi	%GPR2,%GPR2,$1	
4462	0dc5	3c06060e		lhi	%GPR6,$1550	
4463				; Automatically 4 NOPs removed by reduceNOPs.sh
4464	0dc6	34c60b05		ori	%GPR6,%GPR6,$101583621	
4465	0dc7	3c070000		lhi	%GPR7,$0	
4466				; Automatically 4 NOPs removed by reduceNOPs.sh
4467	0dc8	34e70010		ori	%GPR7,%GPR7,$16	
4468	0dc9	00831820		add	%GPR3,%GPR4,%GPR3	
4469	0dca	afc2fa38		sw	-1480(%GPR30),%GPR2	
4470				; Automatically 3 NOPs removed by reduceNOPs.sh
4471	0dcb	ac660000		sw	0(%GPR3),%GPR6	
4472	0dcc	0047d82a		slt	%GPR27,%GPR2,%GPR7	
4473	0dcd	00000000		nop	; Automatically added by findDataDependency.sh
4474	0dce	00000000		nop	; Automatically added by findDataDependency.sh
4475	0dcf	00000000		nop	; Automatically added by findDataDependency.sh
4476	0dd0	1760ffb5		bnez	%GPR27,L_main_66	
4477				; Automatically 4 NOPs removed by reduceNOPs.sh
4478	0dd1	08000001		j	L_main_67	
4479				; Automatically 4 NOPs removed by reduceNOPs.sh
4480			L_main_67:
4481				; Automatically 4 NOPs removed by reduceNOPs.sh
4482	0dd2	00000000		nop	; Automatically Added by addNopAfterLabels.pl
4483	0dd3	3c020000		lhi	%GPR2,$0	
4484				; Automatically 4 NOPs removed by reduceNOPs.sh
4485	0dd4	34420000		ori	%GPR2,%GPR2,$0	
4486				; Automatically 4 NOPs removed by reduceNOPs.sh
4487	0dd5	afc2fa38		sw	-1480(%GPR30),%GPR2	
4488				; Automatically 3 NOPs removed by reduceNOPs.sh
4489			L_main_68:
4490	0dd6	00000000		nop	; Automatically added by fix-stall-insns.pl
4491	0dd7	00000000		nop	; Automatically added by fix-stall-insns.pl
4492	0dd8	00000000		nop	; Automatically added by fix-stall-insns.pl
4493	0dd9	8fc3fa38		lw	%GPR3,-1480(%GPR30)	
4494				; Automatically 4 NOPs removed by reduceNOPs.sh
4495	0dda	00602020		add	%GPR4,%GPR3,%GPR0	
4496	0ddb	3c020000		lhi	%GPR2,$0	
4497				; Automatically 4 NOPs removed by reduceNOPs.sh
4498	0ddc	34420004		ori	%GPR2,%GPR2,$4	
4499				; Automatically 2 NOPs removed by reduceNOPs.sh
4500	0ddd	3c080000		lhi	%GPR8,$0	
4501				; Automatically 4 NOPs removed by reduceNOPs.sh
4502	0dde	35080004		ori	%GPR8,%GPR8,$4	
4503	0ddf	00804820		add	%GPR9,%GPR4,%GPR0	
4504	0de0	00821018		mult	%GPR2,%GPR4,%GPR2	
4505				; Automatically 2 NOPs removed by reduceNOPs.sh
4506	0de1	3c0a0000		lhi	%GPR10,$0	
4507				; Automatically 4 NOPs removed by reduceNOPs.sh
4508	0de2	354a0004		ori	%GPR10,%GPR10,$4	
4509				; Automatically 2 NOPs removed by reduceNOPs.sh
4510	0de3	3c040000		lhi	%GPR4,$0	
4511				; Automatically 4 NOPs removed by reduceNOPs.sh
4512	0de4	34840001		ori	%GPR4,%GPR4,$1	
4513				; Automatically 2 NOPs removed by reduceNOPs.sh
4514	0de5	3c050000		lhi	%GPR5,$0	
4515				; Automatically 4 NOPs removed by reduceNOPs.sh
4516	0de6	34a50001		ori	%GPR5,%GPR5,$1	
4517	0de7	004a8018		mult	%GPR16,%GPR2,%GPR10	
4518	0de8	05282038		mac	%GPR4,%GPR9,%GPR8	
4519	0de9	01204020		add	%GPR8,%GPR9,%GPR0	
4520	0dea	3c0e0000		lhi	%GPR14,$0	
4521				; Automatically 4 NOPs removed by reduceNOPs.sh
4522	0deb	35ce0004		ori	%GPR14,%GPR14,$4	
4523				; Automatically 4 NOPs removed by reduceNOPs.sh
4524	0dec	00611818		mult	%GPR3,%GPR3,%GPR1	
4525	0ded	3c0b0000		lhi	%GPR11,$0	
4526				; Automatically 4 NOPs removed by reduceNOPs.sh
4527	0dee	356b0004		ori	%GPR11,%GPR11,$4	
4528				; Automatically 2 NOPs removed by reduceNOPs.sh
4529	0def	00000000		nop	; Automatically added by fix-stall-insns.pl
4530	0df0	05012838		mac	%GPR5,%GPR8,%GPR1	
4531	0df1	8fc2fa38		lw	%GPR2,-1480(%GPR30)	
4532	0df2	00000000		nop	; Automatically added by fix-stall-insns.pl
4533	0df3	00000000		nop	; Automatically added by fix-stall-insns.pl
4534	0df4	00000000		nop	; Automatically added by fix-stall-insns.pl
4535	0df5	00000000		nop	; Automatically added by fix-stall-insns.pl
4536	0df6	008e2018		mult	%GPR4,%GPR4,%GPR14	
4537	0df7	2bc60094		subi	%GPR6,%GPR30,$148	
4538	0df8	3c0c0000		lhi	%GPR12,$0	
4539				; Automatically 4 NOPs removed by reduceNOPs.sh
4540	0df9	358c0004		ori	%GPR12,%GPR12,$4	
4541	0dfa	3c090000		lhi	%GPR9,$0	
4542				; Automatically 4 NOPs removed by reduceNOPs.sh
4543	0dfb	35290002		ori	%GPR9,%GPR9,$2	
4544	0dfc	3c080000		lhi	%GPR8,$0	
4545				; Automatically 4 NOPs removed by reduceNOPs.sh
4546	0dfd	35080002		ori	%GPR8,%GPR8,$2	
4547	0dfe	006b8818		mult	%GPR17,%GPR3,%GPR11	
4548	0dff	2bc70294		subi	%GPR7,%GPR30,$660	
4549	0e00	2bca0094		subi	%GPR10,%GPR30,$148	
4550	0e01	3c0f0000		lhi	%GPR15,$0	
4551				; Automatically 4 NOPs removed by reduceNOPs.sh
4552	0e02	35ef0004		ori	%GPR15,%GPR15,$4	
4553				; Automatically 6 NOPs removed by reduceNOPs.sh
4554	0e03	00d07020		add	%GPR14,%GPR6,%GPR16	
4555	0e04	044c4038		mac	%GPR8,%GPR2,%GPR12	
4556	0e05	04414838		mac	%GPR9,%GPR2,%GPR1	
4557	0e06	00000000		nop	; Automatically added by fix-stall-insns.pl
4558	0e07	00000000		nop	; Automatically added by fix-stall-insns.pl
4559	0e08	00000000		nop	; Automatically added by fix-stall-insns.pl
4560	0e09	8fc6fa38		lw	%GPR6,-1480(%GPR30)	
4561	0e0a	00af2818		mult	%GPR5,%GPR5,%GPR15	
4562	0e0b	00f13820		add	%GPR7,%GPR7,%GPR17	
4563	0e0c	01442020		add	%GPR4,%GPR10,%GPR4	
4564	0e0d	2bcb0294		subi	%GPR11,%GPR30,$660	
4565	0e0e	3c120000		lhi	%GPR18,$0	
4566				; Automatically 4 NOPs removed by reduceNOPs.sh
4567	0e0f	36520004		ori	%GPR18,%GPR18,$4	
4568	0e10	3c030000		lhi	%GPR3,$0	
4569				; Automatically 4 NOPs removed by reduceNOPs.sh
4570	0e11	34630003		ori	%GPR3,%GPR3,$3	
4571	0e12	3c020000		lhi	%GPR2,$0	
4572				; Automatically 4 NOPs removed by reduceNOPs.sh
4573	0e13	34420003		ori	%GPR2,%GPR2,$3	
4574	0e14	8fcafa38		lw	%GPR10,-1480(%GPR30)	
4575	0e15	3c0d0000		lhi	%GPR13,$0	
4576				; Automatically 4 NOPs removed by reduceNOPs.sh
4577	0e16	35ad0004		ori	%GPR13,%GPR13,$4	
4578	0e17	3c0c0000		lhi	%GPR12,$0	
4579				; Automatically 4 NOPs removed by reduceNOPs.sh
4580	0e18	358c0004		ori	%GPR12,%GPR12,$4	
4581				; Automatically 2 NOPs removed by reduceNOPs.sh
4582	0e19	adc70000		sw	0(%GPR14),%GPR7	
4583				; Automatically 2 NOPs removed by reduceNOPs.sh
4584	0e1a	04d21038		mac	%GPR2,%GPR6,%GPR18	
4585	0e1b	01652820		add	%GPR5,%GPR11,%GPR5	
4586	0e1c	00000000		nop	; Automatically added by fix-stall-insns.pl
4587	0e1d	00000000		nop	; Automatically added by fix-stall-insns.pl
4588	0e1e	04c11838		mac	%GPR3,%GPR6,%GPR1	
4589				; Automatically 2 NOPs removed by reduceNOPs.sh
4590	0e1f	012d4818		mult	%GPR9,%GPR9,%GPR13	
4591	0e20	00000000		nop	; Automatically added by fix-stall-insns.pl
4592	0e21	00000000		nop	; Automatically added by fix-stall-insns.pl
4593	0e22	00000000		nop	; Automatically added by fix-stall-insns.pl
4594	0e23	010c4018		mult	%GPR8,%GPR8,%GPR12	
4595	0e24	01405820		add	%GPR11,%GPR10,%GPR0	
4596	0e25	3c100000		lhi	%GPR16,$0	
4597				; Automatically 4 NOPs removed by reduceNOPs.sh
4598	0e26	36100004		ori	%GPR16,%GPR16,$4	
4599	0e27	2bc70294		subi	%GPR7,%GPR30,$660	
4600	0e28	2bc60094		subi	%GPR6,%GPR30,$148	
4601				; Automatically 3 NOPs removed by reduceNOPs.sh
4602	0e29	3c0e0000		lhi	%GPR14,$0	
4603				; Automatically 4 NOPs removed by reduceNOPs.sh
4604	0e2a	35ce0004		ori	%GPR14,%GPR14,$4	
4605	0e2b	ac850000		sw	0(%GPR4),%GPR5	
4606	0e2c	3c0f0000		lhi	%GPR15,$0	
4607				; Automatically 4 NOPs removed by reduceNOPs.sh
4608	0e2d	35ef0004		ori	%GPR15,%GPR15,$4	
4609				; Automatically 2 NOPs removed by reduceNOPs.sh
4610	0e2e	00000000		nop	; Automatically added by fix-stall-insns.pl
4611	0e2f	00000000		nop	; Automatically added by fix-stall-insns.pl
4612	0e30	01705818		mult	%GPR11,%GPR11,%GPR16	
4613	0e31	00e93820		add	%GPR7,%GPR7,%GPR9	
4614	0e32	00c84020		add	%GPR8,%GPR6,%GPR8	
4615				; Automatically 3 NOPs removed by reduceNOPs.sh
4616	0e33	00000000		nop	; Automatically added by fix-stall-insns.pl
4617	0e34	8fc6fa38		lw	%GPR6,-1480(%GPR30)	
4618	0e35	3c120000		lhi	%GPR18,$0	
4619				; Automatically 4 NOPs removed by reduceNOPs.sh
4620	0e36	36520004		ori	%GPR18,%GPR18,$4	
4621	0e37	3c040000		lhi	%GPR4,$0	
4622				; Automatically 4 NOPs removed by reduceNOPs.sh
4623	0e38	34840001		ori	%GPR4,%GPR4,$1	
4624				; Automatically 2 NOPs removed by reduceNOPs.sh
4625	0e39	004e1018		mult	%GPR2,%GPR2,%GPR14	
4626	0e3a	2bcc0094		subi	%GPR12,%GPR30,$148	
4627	0e3b	00000000		nop	; Automatically added by fix-stall-insns.pl
4628	0e3c	00000000		nop	; Automatically added by fix-stall-insns.pl
4629	0e3d	006f1818		mult	%GPR3,%GPR3,%GPR15	
4630	0e3e	2bcd0294		subi	%GPR13,%GPR30,$660	
4631	0e3f	3c050000		lhi	%GPR5,$0	
4632				; Automatically 4 NOPs removed by reduceNOPs.sh
4633	0e40	34a50001		ori	%GPR5,%GPR5,$1	
4634	0e41	ad070000		sw	0(%GPR8),%GPR7	
4635				; Automatically 4 NOPs removed by reduceNOPs.sh
4636	0e42	01415018		mult	%GPR10,%GPR10,%GPR1	
4637	0e43	3c100000		lhi	%GPR16,$0	
4638				; Automatically 4 NOPs removed by reduceNOPs.sh
4639	0e44	36100004		ori	%GPR16,%GPR16,$4	
4640	0e45	3c110000		lhi	%GPR17,$0	
4641				; Automatically 4 NOPs removed by reduceNOPs.sh
4642	0e46	36310004		ori	%GPR17,%GPR17,$4	
4643				; Automatically 2 NOPs removed by reduceNOPs.sh
4644	0e47	04d22038		mac	%GPR4,%GPR6,%GPR18	
4645	0e48	3c080000		lhi	%GPR8,$0	
4646				; Automatically 4 NOPs removed by reduceNOPs.sh
4647	0e49	35080004		ori	%GPR8,%GPR8,$4	
4648	0e4a	01826020		add	%GPR12,%GPR12,%GPR2	
4649	0e4b	8fc2fa38		lw	%GPR2,-1480(%GPR30)	
4650	0e4c	01a31820		add	%GPR3,%GPR13,%GPR3	
4651	0e4d	00000000		nop	; Automatically added by fix-stall-insns.pl
4652	0e4e	00000000		nop	; Automatically added by fix-stall-insns.pl
4653	0e4f	00000000		nop	; Automatically added by fix-stall-insns.pl
4654	0e50	04c12838		mac	%GPR5,%GPR6,%GPR1	
4655	0e51	3c0e0000		lhi	%GPR14,$0	
4656				; Automatically 4 NOPs removed by reduceNOPs.sh
4657	0e52	35ce0002		ori	%GPR14,%GPR14,$2	
4658	0e53	3c0f0000		lhi	%GPR15,$0	
4659				; Automatically 4 NOPs removed by reduceNOPs.sh
4660	0e54	35ef0002		ori	%GPR15,%GPR15,$2	
4661	0e55	3c120000		lhi	%GPR18,$0	
4662				; Automatically 4 NOPs removed by reduceNOPs.sh
4663	0e56	36520004		ori	%GPR18,%GPR18,$4	
4664	0e57	01705818		mult	%GPR11,%GPR11,%GPR16	
4665	0e58	01515018		mult	%GPR10,%GPR10,%GPR17	
4666	0e59	2bc70194		subi	%GPR7,%GPR30,$404	
4667	0e5a	3c090000		lhi	%GPR9,$0	
4668				; Automatically 4 NOPs removed by reduceNOPs.sh
4669	0e5b	35290004		ori	%GPR9,%GPR9,$4	
4670	0e5c	2bc60054		subi	%GPR6,%GPR30,$84	
4671	0e5d	00882018		mult	%GPR4,%GPR4,%GPR8	
4672				; Automatically 3 NOPs removed by reduceNOPs.sh
4673	0e5e	ad830000		sw	0(%GPR12),%GPR3	
4674	0e5f	00000000		nop	; Automatically added by fix-stall-insns.pl
4675	0e60	00000000		nop	; Automatically added by fix-stall-insns.pl
4676	0e61	00000000		nop	; Automatically added by fix-stall-insns.pl
4677	0e62	00000000		nop	; Automatically added by fix-stall-insns.pl
4678	0e63	04527038		mac	%GPR14,%GPR2,%GPR18	
4679	0e64	04417838		mac	%GPR15,%GPR2,%GPR1	
4680	0e65	00000000		nop	; Automatically added by fix-stall-insns.pl
4681	0e66	00000000		nop	; Automatically added by fix-stall-insns.pl
4682	0e67	00000000		nop	; Automatically added by fix-stall-insns.pl
4683	0e68	00a92818		mult	%GPR5,%GPR5,%GPR9	
4684	0e69	00ea3820		add	%GPR7,%GPR7,%GPR10	
4685	0e6a	00cb3020		add	%GPR6,%GPR6,%GPR11	
4686	0e6b	2bc30194		subi	%GPR3,%GPR30,$404	
4687	0e6c	2bc20054		subi	%GPR2,%GPR30,$84	
4688				; Automatically 2 NOPs removed by reduceNOPs.sh
4689	0e6d	8fc8fa38		lw	%GPR8,-1480(%GPR30)	
4690	0e6e	3c100000		lhi	%GPR16,$0	
4691				; Automatically 4 NOPs removed by reduceNOPs.sh
4692	0e6f	36100003		ori	%GPR16,%GPR16,$3	
4693				; Automatically 4 NOPs removed by reduceNOPs.sh
4694	0e70	3c120000		lhi	%GPR18,$0	
4695				; Automatically 4 NOPs removed by reduceNOPs.sh
4696	0e71	36520004		ori	%GPR18,%GPR18,$4	
4697	0e72	acc70000		sw	0(%GPR6),%GPR7	
4698	0e73	00651820		add	%GPR3,%GPR3,%GPR5	
4699	0e74	00441020		add	%GPR2,%GPR2,%GPR4	
4700	0e75	3c110000		lhi	%GPR17,$0	
4701				; Automatically 4 NOPs removed by reduceNOPs.sh
4702	0e76	36310003		ori	%GPR17,%GPR17,$3	
4703	0e77	3c070000		lhi	%GPR7,$0	
4704				; Automatically 4 NOPs removed by reduceNOPs.sh
4705	0e78	34e70004		ori	%GPR7,%GPR7,$4	
4706	0e79	05128038		mac	%GPR16,%GPR8,%GPR18	
4707				; Automatically 2 NOPs removed by reduceNOPs.sh
4708	0e7a	3c0c0000		lhi	%GPR12,$0	
4709				; Automatically 4 NOPs removed by reduceNOPs.sh
4710	0e7b	358c0004		ori	%GPR12,%GPR12,$4	
4711	0e7c	3c0d0000		lhi	%GPR13,$0	
4712				; Automatically 4 NOPs removed by reduceNOPs.sh
4713	0e7d	35ad0004		ori	%GPR13,%GPR13,$4	
4714	0e7e	ac430000		sw	0(%GPR2),%GPR3	
4715	0e7f	05018838		mac	%GPR17,%GPR8,%GPR1	
4716	0e80	00000000		nop	; Automatically added by fix-stall-insns.pl
4717	0e81	00000000		nop	; Automatically added by fix-stall-insns.pl
4718	0e82	00000000		nop	; Automatically added by fix-stall-insns.pl
4719	0e83	02071018		mult	%GPR2,%GPR16,%GPR7	
4720	0e84	2bc60194		subi	%GPR6,%GPR30,$404	
4721	0e85	2bc40054		subi	%GPR4,%GPR30,$84	
4722	0e86	2bc80054		subi	%GPR8,%GPR30,$84	
4723	0e87	3c090000		lhi	%GPR9,$0	
4724				; Automatically 4 NOPs removed by reduceNOPs.sh
4725	0e88	35290004		ori	%GPR9,%GPR9,$4	
4726	0e89	01cc5018		mult	%GPR10,%GPR14,%GPR12	
4727	0e8a	01ed5818		mult	%GPR11,%GPR15,%GPR13	
4728	0e8b	00821020		add	%GPR2,%GPR4,%GPR2	
4729	0e8c	00000000		nop	; Automatically added by fix-stall-insns.pl
4730	0e8d	00000000		nop	; Automatically added by fix-stall-insns.pl
4731	0e8e	02291818		mult	%GPR3,%GPR17,%GPR9	
4732	0e8f	010a3820		add	%GPR7,%GPR8,%GPR10	
4733	0e90	2bc50194		subi	%GPR5,%GPR30,$404	
4734	0e91	00cb3020		add	%GPR6,%GPR6,%GPR11	
4735	0e92	8fc4fa38		lw	%GPR4,-1480(%GPR30)	
4736				; Automatically 2 NOPs removed by reduceNOPs.sh
4737	0e93	00a31820		add	%GPR3,%GPR5,%GPR3	
4738	0e94	00000000		nop	; Automatically added by fix-stall-insns.pl
4739	0e95	00000000		nop	; Automatically added by fix-stall-insns.pl
4740	0e96	00000000		nop	; Automatically added by fix-stall-insns.pl
4741	0e97	ace60000		sw	0(%GPR7),%GPR6	
4742	0e98	20840001		addi	%GPR4,%GPR4,$1	
4743	0e99	3c080000		lhi	%GPR8,$0	
4744				; Automatically 4 NOPs removed by reduceNOPs.sh
4745	0e9a	35080004		ori	%GPR8,%GPR8,$4	
4746				; Automatically 2 NOPs removed by reduceNOPs.sh
4747	0e9b	00000000		nop	; Automatically added by fix-stall-insns.pl
4748	0e9c	ac430000		sw	0(%GPR2),%GPR3	
4749	0e9d	00801020		add	%GPR2,%GPR4,%GPR0	
4750	0e9e	00000000		nop	; Automatically added by fix-stall-insns.pl
4751	0e9f	00000000		nop	; Automatically added by fix-stall-insns.pl
4752	0ea0	00000000		nop	; Automatically added by fix-stall-insns.pl
4753	0ea1	afc4fa38		sw	-1480(%GPR30),%GPR4	
4754				; Automatically 3 NOPs removed by reduceNOPs.sh
4755	0ea2	0048d82a		slt	%GPR27,%GPR2,%GPR8	
4756	0ea3	00000000		nop	; Automatically added by findDataDependency.sh
4757	0ea4	00000000		nop	; Automatically added by findDataDependency.sh
4758	0ea5	00000000		nop	; Automatically added by findDataDependency.sh
4759	0ea6	1760ff30		bnez	%GPR27,L_main_68	
4760				; Automatically 4 NOPs removed by reduceNOPs.sh
4761	0ea7	08000001		j	L_main_69	
4762				; Automatically 4 NOPs removed by reduceNOPs.sh
4763			L_main_69:
4764				; Automatically 4 NOPs removed by reduceNOPs.sh
4765	0ea8	00000000		nop	; Automatically Added by addNopAfterLabels.pl
4766	0ea9	3c010000		lhi	%GPR1,$0	
4767				; Automatically 4 NOPs removed by reduceNOPs.sh
4768	0eaa	34210000		ori	%GPR1,%GPR1,$0	
4769				; Automatically 4 NOPs removed by reduceNOPs.sh
4770	0eab	afc1fa38		sw	-1480(%GPR30),%GPR1	
4771				; Automatically 3 NOPs removed by reduceNOPs.sh
4772			L_main_70:
4773	0eac	00000000		nop	; Automatically added by fix-stall-insns.pl
4774	0ead	00000000		nop	; Automatically added by fix-stall-insns.pl
4775	0eae	00000000		nop	; Automatically added by fix-stall-insns.pl
4776	0eaf	8fc1fa38		lw	%GPR1,-1480(%GPR30)	
4777				; Automatically 4 NOPs removed by reduceNOPs.sh
4778	0eb0	20210001		addi	%GPR1,%GPR1,$1	
4779				; Automatically 4 NOPs removed by reduceNOPs.sh
4780	0eb1	00201020		add	%GPR2,%GPR1,%GPR0	
4781	0eb2	00000000		nop	; Automatically added by fix-stall-insns.pl
4782	0eb3	00000000		nop	; Automatically added by fix-stall-insns.pl
4783	0eb4	afc1fa38		sw	-1480(%GPR30),%GPR1	
4784	0eb5	3c010000		lhi	%GPR1,$0	
4785				; Automatically 4 NOPs removed by reduceNOPs.sh
4786	0eb6	34210010		ori	%GPR1,%GPR1,$16	
4787				; Automatically 4 NOPs removed by reduceNOPs.sh
4788	0eb7	0041d82a		slt	%GPR27,%GPR2,%GPR1	
4789	0eb8	00000000		nop	; Automatically added by findDataDependency.sh
4790	0eb9	00000000		nop	; Automatically added by findDataDependency.sh
4791	0eba	00000000		nop	; Automatically added by findDataDependency.sh
4792	0ebb	1760fff1		bnez	%GPR27,L_main_70	
4793				; Automatically 4 NOPs removed by reduceNOPs.sh
4794	0ebc	08000001		j	L_main_71	
4795				; Automatically 4 NOPs removed by reduceNOPs.sh
4796			L_main_71:
4797				; Automatically 4 NOPs removed by reduceNOPs.sh
4798	0ebd	00000000		nop	; Automatically Added by addNopAfterLabels.pl
4799	0ebe	3c010000		lhi	%GPR1,$0	
4800				; Automatically 4 NOPs removed by reduceNOPs.sh
4801	0ebf	34210000		ori	%GPR1,%GPR1,$0	
4802				; Automatically 4 NOPs removed by reduceNOPs.sh
4803	0ec0	afc1fa20		sw	-1504(%GPR30),%GPR1	
4804				; Automatically 3 NOPs removed by reduceNOPs.sh
4805			L_main_72:
4806				; Automatically 4 NOPs removed by reduceNOPs.sh
4807	0ec1	00000000		nop	; Automatically Added by addNopAfterLabels.pl
4808	0ec2	3c010000		lhi	%GPR1,$0	
4809				; Automatically 4 NOPs removed by reduceNOPs.sh
4810	0ec3	34210000		ori	%GPR1,%GPR1,$0	
4811				; Automatically 4 NOPs removed by reduceNOPs.sh
4812	0ec4	00000000		nop	; Automatically added by fix-stall-insns.pl
4813	0ec5	afc1fa38		sw	-1480(%GPR30),%GPR1	
4814				; Automatically 3 NOPs removed by reduceNOPs.sh
4815			L_main_73:
4816				; Automatically 4 NOPs removed by reduceNOPs.sh
4817	0ec6	00000000		nop	; Automatically Added by addNopAfterLabels.pl
4818	0ec7	3c010000		lhi	%GPR1,$0	
4819				; Automatically 4 NOPs removed by reduceNOPs.sh
4820	0ec8	34210000		ori	%GPR1,%GPR1,$0	
4821			
4822			
4823	0ec9	3c020100		lhi	%GPR2, $0x100
4824				; Automatically 3 NOPs removed by reduceNOPs.sh
4825	0eca	ac410000		sw	0(%GPR2), %GPR1
4826			
4827				; Automatically 2 NOPs removed by reduceNOPs.sh
4828	0ecb	8fc5fa20		lw	%GPR5,-1504(%GPR30)	
4829				; Automatically 2 NOPs removed by reduceNOPs.sh
4830	0ecc	2bc20094		subi	%GPR2,%GPR30,$148	
4831	0ecd	3c030000		lhi	%GPR3,$0	
4832				; Automatically 4 NOPs removed by reduceNOPs.sh
4833	0ece	34630004		ori	%GPR3,%GPR3,$4	
4834	0ecf	2bc10054		subi	%GPR1,%GPR30,$84	
4835	0ed0	3c040000		lhi	%GPR4,$0	
4836				; Automatically 4 NOPs removed by reduceNOPs.sh
4837	0ed1	34840004		ori	%GPR4,%GPR4,$4	
4838				; Automatically 2 NOPs removed by reduceNOPs.sh
4839	0ed2	00a31818		mult	%GPR3,%GPR5,%GPR3	
4840				; Automatically 4 NOPs removed by reduceNOPs.sh
4841	0ed3	8fc5fa38		lw	%GPR5,-1480(%GPR30)	
4842	0ed4	00230820		add	%GPR1,%GPR1,%GPR3	
4843				; Automatically 3 NOPs removed by reduceNOPs.sh
4844	0ed5	00000000		nop	; Automatically added by fix-stall-insns.pl
4845	0ed6	00000000		nop	; Automatically added by fix-stall-insns.pl
4846	0ed7	00000000		nop	; Automatically added by fix-stall-insns.pl
4847	0ed8	00a42018		mult	%GPR4,%GPR5,%GPR4	
4848	0ed9	8c210000		lw	%GPR1,0(%GPR1)	
4849				; Automatically 3 NOPs removed by reduceNOPs.sh
4850	0eda	00441020		add	%GPR2,%GPR2,%GPR4	
4851				; Automatically 4 NOPs removed by reduceNOPs.sh
4852	0edb	00000000		nop	; Automatically added by fix-stall-insns.pl
4853	0edc	00000000		nop	; Automatically added by fix-stall-insns.pl
4854	0edd	00000000		nop	; Automatically added by fix-stall-insns.pl
4855	0ede	8c430000		lw	%GPR3,0(%GPR2)	
4856	0edf	8fc2fa48		lw	%GPR2,-1464(%GPR30)	
4857				; Automatically 4 NOPs removed by reduceNOPs.sh
4858	0ee0	2bbd0008		subi	%GPR29,%GPR29,$8	
4859				; Automatically 4 NOPs removed by reduceNOPs.sh
4860	0ee1	00000000		nop	; Automatically added by fix-stall-insns.pl
4861	0ee2	00000000		nop	; Automatically added by fix-stall-insns.pl
4862	0ee3	00000000		nop	; Automatically added by fix-stall-insns.pl
4863	0ee4	0ffff7f0		jal	SATD_4x4	
4864				; Automatically 4 NOPs removed by reduceNOPs.sh
4865	0ee5	23bd0008		addi	%GPR29,%GPR29,$8	
4866				; Automatically 4 NOPs removed by reduceNOPs.sh
4867	0ee6	03800820		add	%GPR1,%GPR28,%GPR0	
4868			
4869			
4870	0ee7	3c020100		lhi	%GPR2,$0x100
4871				; Automatically 3 NOPs removed by reduceNOPs.sh
4872	0ee8	8c420000		lw	%GPR2, 0(%GPR2)
4873				; Automatically 3 NOPs removed by reduceNOPs.sh
4874			
4875	0ee9	8fc3fa28		lw	%GPR3,-1496(%GPR30)	
4876				; Automatically 4 NOPs removed by reduceNOPs.sh
4877	0eea	00621020		add	%GPR2,%GPR3,%GPR2	
4878				; Automatically 4 NOPs removed by reduceNOPs.sh
4879	0eeb	00000000		nop	; Automatically added by fix-stall-insns.pl
4880	0eec	00000000		nop	; Automatically added by fix-stall-insns.pl
4881	0eed	00000000		nop	; Automatically added by fix-stall-insns.pl
4882	0eee	afc2fa28		sw	-1496(%GPR30),%GPR2	
4883	0eef	00000000		nop	; Automatically added by findLoadStoreProblem.sh
4884	0ef0	00000000		nop	; Automatically added by fix-stall-insns.pl
4885	0ef1	00000000		nop	; Automatically added by fix-stall-insns.pl
4886	0ef2	00000000		nop	; Automatically added by fix-stall-insns.pl
4887	0ef3	8fc2fa34		lw	%GPR2,-1484(%GPR30)	
4888				; Automatically 4 NOPs removed by reduceNOPs.sh
4889	0ef4	0022d83a		sltu	%GPR27,%GPR1,%GPR2	
4890	0ef5	00000000		nop	; Automatically added by findDataDependency.sh
4891	0ef6	00000000		nop	; Automatically added by findDataDependency.sh
4892	0ef7	00000000		nop	; Automatically added by findDataDependency.sh
4893	0ef8	17600002		bnez	%GPR27,L_main_74	
4894				; Automatically 4 NOPs removed by reduceNOPs.sh
4895	0ef9	08000012		j	L_main_75	
4896				; Automatically 4 NOPs removed by reduceNOPs.sh
4897			L_main_74:
4898	0efa	00000000		nop	; Automatically Added by addNopAfterLabels.pl
4899	0efb	8fc3fa38		lw	%GPR3,-1480(%GPR30)	
4900	0efc	00000000		nop	; Automatically added by findLoadStoreProblem.sh
4901	0efd	00000000		nop	; Automatically added by fix-stall-insns.pl
4902	0efe	00000000		nop	; Automatically added by fix-stall-insns.pl
4903	0eff	00000000		nop	; Automatically added by fix-stall-insns.pl
4904	0f00	afc1fa34		sw	-1484(%GPR30),%GPR1	
4905	0f01	2bc10094		subi	%GPR1,%GPR30,$148	
4906	0f02	3c020000		lhi	%GPR2,$0	
4907				; Automatically 4 NOPs removed by reduceNOPs.sh
4908	0f03	34420004		ori	%GPR2,%GPR2,$4	
4909				; Automatically 4 NOPs removed by reduceNOPs.sh
4910	0f04	00000000		nop	; Automatically added by fix-stall-insns.pl
4911	0f05	00621018		mult	%GPR2,%GPR3,%GPR2	
4912				; Automatically 4 NOPs removed by reduceNOPs.sh
4913	0f06	00220820		add	%GPR1,%GPR1,%GPR2	
4914				; Automatically 4 NOPs removed by reduceNOPs.sh
4915	0f07	00000000		nop	; Automatically added by fix-stall-insns.pl
4916	0f08	00000000		nop	; Automatically added by fix-stall-insns.pl
4917	0f09	8c210000		lw	%GPR1,0(%GPR1)	
4918				; Automatically 4 NOPs removed by reduceNOPs.sh
4919	0f0a	afc1fa24		sw	-1500(%GPR30),%GPR1	
4920				; Automatically 3 NOPs removed by reduceNOPs.sh
4921			L_main_75:
4922	0f0b	00000000		nop	; Automatically added by fix-stall-insns.pl
4923	0f0c	00000000		nop	; Automatically added by fix-stall-insns.pl
4924	0f0d	00000000		nop	; Automatically added by fix-stall-insns.pl
4925	0f0e	8fc1fa38		lw	%GPR1,-1480(%GPR30)	
4926				; Automatically 4 NOPs removed by reduceNOPs.sh
4927	0f0f	20210001		addi	%GPR1,%GPR1,$1	
4928				; Automatically 4 NOPs removed by reduceNOPs.sh
4929	0f10	00201020		add	%GPR2,%GPR1,%GPR0	
4930	0f11	00000000		nop	; Automatically added by fix-stall-insns.pl
4931	0f12	00000000		nop	; Automatically added by fix-stall-insns.pl
4932	0f13	afc1fa38		sw	-1480(%GPR30),%GPR1	
4933	0f14	3c010000		lhi	%GPR1,$0	
4934				; Automatically 4 NOPs removed by reduceNOPs.sh
4935	0f15	34210010		ori	%GPR1,%GPR1,$16	
4936				; Automatically 4 NOPs removed by reduceNOPs.sh
4937	0f16	0041d82a		slt	%GPR27,%GPR2,%GPR1	
4938	0f17	00000000		nop	; Automatically added by findDataDependency.sh
4939	0f18	00000000		nop	; Automatically added by findDataDependency.sh
4940	0f19	00000000		nop	; Automatically added by findDataDependency.sh
4941	0f1a	1760ffac		bnez	%GPR27,L_main_73	
4942				; Automatically 4 NOPs removed by reduceNOPs.sh
4943	0f1b	08000001		j	L_main_76	
4944				; Automatically 4 NOPs removed by reduceNOPs.sh
4945			L_main_76:
4946				; Automatically 4 NOPs removed by reduceNOPs.sh
4947	0f1c	00000000		nop	; Automatically Added by addNopAfterLabels.pl
4948	0f1d	3c010000		lhi	%GPR1,$0	
4949				; Automatically 4 NOPs removed by reduceNOPs.sh
4950	0f1e	34210000		ori	%GPR1,%GPR1,$0	
4951			
4952			
4953	0f1f	3c020100		lhi	%GPR2, $0x100
4954				; Automatically 3 NOPs removed by reduceNOPs.sh
4955	0f20	ac410000		sw	0(%GPR2), %GPR1
4956			
4957				; Automatically 2 NOPs removed by reduceNOPs.sh
4958	0f21	8fc3fa20		lw	%GPR3,-1504(%GPR30)	
4959	0f22	2bc10054		subi	%GPR1,%GPR30,$84	
4960	0f23	00000000		nop	; Automatically added by fix-stall-insns.pl
4961	0f24	00000000		nop	; Automatically added by fix-stall-insns.pl
4962	0f25	00000000		nop	; Automatically added by fix-stall-insns.pl
4963	0f26	8fc4fa3c		lw	%GPR4,-1476(%GPR30)	
4964	0f27	3c020000		lhi	%GPR2,$0	
4965				; Automatically 4 NOPs removed by reduceNOPs.sh
4966	0f28	34420004		ori	%GPR2,%GPR2,$4	
4967				; Automatically 4 NOPs removed by reduceNOPs.sh
4968	0f29	00000000		nop	; Automatically added by fix-stall-insns.pl
4969	0f2a	00000000		nop	; Automatically added by fix-stall-insns.pl
4970	0f2b	00621018		mult	%GPR2,%GPR3,%GPR2	
4971				; Automatically 4 NOPs removed by reduceNOPs.sh
4972	0f2c	00220820		add	%GPR1,%GPR1,%GPR2	
4973	0f2d	00000000		nop	; Automatically added by fix-stall-insns.pl
4974	0f2e	00000000		nop	; Automatically added by fix-stall-insns.pl
4975	0f2f	8fc3fa24		lw	%GPR3,-1500(%GPR30)	
4976	0f30	8fc2fa48		lw	%GPR2,-1464(%GPR30)	
4977				; Automatically 2 NOPs removed by reduceNOPs.sh
4978	0f31	00000000		nop	; Automatically added by fix-stall-insns.pl
4979	0f32	00000000		nop	; Automatically added by fix-stall-insns.pl
4980	0f33	00000000		nop	; Automatically added by fix-stall-insns.pl
4981	0f34	00000000		nop	; Automatically added by fix-stall-insns.pl
4982	0f35	8c210000		lw	%GPR1,0(%GPR1)	
4983				; Automatically 4 NOPs removed by reduceNOPs.sh
4984	0f36	2bbd0008		subi	%GPR29,%GPR29,$8	
4985				; Automatically 4 NOPs removed by reduceNOPs.sh
4986	0f37	00000000		nop	; Automatically added by fix-stall-insns.pl
4987	0f38	00000000		nop	; Automatically added by fix-stall-insns.pl
4988	0f39	00000000		nop	; Automatically added by fix-stall-insns.pl
4989	0f3a	0ffffabd		jal	DCT_4x4	
4990				; Automatically 4 NOPs removed by reduceNOPs.sh
4991	0f3b	23bd0008		addi	%GPR29,%GPR29,$8	
4992				; Automatically 4 NOPs removed by reduceNOPs.sh
4993			
4994			
4995	0f3c	3c010100		lhi	%GPR1,$0x100
4996				; Automatically 3 NOPs removed by reduceNOPs.sh
4997	0f3d	00000000		nop	; Automatically added by fix-stall-insns.pl
4998	0f3e	8c210000		lw	%GPR1, 0(%GPR1)
4999				; Automatically 3 NOPs removed by reduceNOPs.sh
5000			
5001	0f3f	8fc2fa20		lw	%GPR2,-1504(%GPR30)	
5002				; Automatically 2 NOPs removed by reduceNOPs.sh
5003	0f40	00000000		nop	; Automatically added by fix-stall-insns.pl
5004	0f41	00000000		nop	; Automatically added by fix-stall-insns.pl
5005	0f42	00000000		nop	; Automatically added by fix-stall-insns.pl
5006	0f43	00000000		nop	; Automatically added by fix-stall-insns.pl
5007	0f44	8fc3fa3c		lw	%GPR3,-1476(%GPR30)	
5008				; Automatically 2 NOPs removed by reduceNOPs.sh
5009	0f45	20420001		addi	%GPR2,%GPR2,$1	
5010				; Automatically 4 NOPs removed by reduceNOPs.sh
5011	0f46	00000000		nop	; Automatically added by fix-stall-insns.pl
5012	0f47	00000000		nop	; Automatically added by fix-stall-insns.pl
5013	0f48	00000000		nop	; Automatically added by fix-stall-insns.pl
5014	0f49	afc2fa20		sw	-1504(%GPR30),%GPR2	
5015	0f4a	00000000		nop	; Automatically added by findLoadStoreProblem.sh
5016	0f4b	00000000		nop	; Automatically added by fix-stall-insns.pl
5017	0f4c	00000000		nop	; Automatically added by fix-stall-insns.pl
5018	0f4d	00000000		nop	; Automatically added by fix-stall-insns.pl
5019	0f4e	8fc2fa2c		lw	%GPR2,-1492(%GPR30)	
5020				; Automatically 4 NOPs removed by reduceNOPs.sh
5021	0f4f	00410820		add	%GPR1,%GPR2,%GPR1	
5022	0f50	3c020000		lhi	%GPR2,$0	
5023				; Automatically 4 NOPs removed by reduceNOPs.sh
5024	0f51	34420020		ori	%GPR2,%GPR2,$32	
5025				; Automatically 3 NOPs removed by reduceNOPs.sh
5026	0f52	00000000		nop	; Automatically added by fix-stall-insns.pl
5027	0f53	afc1fa2c		sw	-1492(%GPR30),%GPR1	
5028	0f54	00621020		add	%GPR2,%GPR3,%GPR2	
5029	0f55	3c010000		lhi	%GPR1,$0	
5030				; Automatically 4 NOPs removed by reduceNOPs.sh
5031	0f56	34210010		ori	%GPR1,%GPR1,$16	
5032				; Automatically 3 NOPs removed by reduceNOPs.sh
5033	0f57	00000000		nop	; Automatically added by fix-stall-insns.pl
5034	0f58	afc2fa3c		sw	-1476(%GPR30),%GPR2	
5035	0f59	00000000		nop	; Automatically added by findLoadStoreProblem.sh
5036	0f5a	00000000		nop	; Automatically added by fix-stall-insns.pl
5037	0f5b	00000000		nop	; Automatically added by fix-stall-insns.pl
5038	0f5c	00000000		nop	; Automatically added by fix-stall-insns.pl
5039	0f5d	8fc2fa20		lw	%GPR2,-1504(%GPR30)	
5040				; Automatically 4 NOPs removed by reduceNOPs.sh
5041	0f5e	0041d82a		slt	%GPR27,%GPR2,%GPR1	
5042	0f5f	00000000		nop	; Automatically added by findDataDependency.sh
5043	0f60	00000000		nop	; Automatically added by findDataDependency.sh
5044	0f61	00000000		nop	; Automatically added by findDataDependency.sh
5045	0f62	1760ff5f		bnez	%GPR27,L_main_72	
5046				; Automatically 4 NOPs removed by reduceNOPs.sh
5047	0f63	08000001		j	L_main_77	
5048				; Automatically 4 NOPs removed by reduceNOPs.sh
5049			L_main_77:
5050				; Automatically 4 NOPs removed by reduceNOPs.sh
5051	0f64	00000000		nop	; Automatically Added by addNopAfterLabels.pl
5052	0f65	3c010000		lhi	%GPR1,$0	
5053				; Automatically 4 NOPs removed by reduceNOPs.sh
5054	0f66	34210000		ori	%GPR1,%GPR1,$0	
5055			
5056			
5057	0f67	3c020100		lhi	%GPR2, $0x100
5058				; Automatically 3 NOPs removed by reduceNOPs.sh
5059	0f68	ac410000		sw	0(%GPR2), %GPR1
5060			
5061	0f69	8fc1fa40		lw	%GPR1,-1472(%GPR30)	
5062	0f6a	00000000		nop	; Automatically added by fix-stall-insns.pl
5063	0f6b	00000000		nop	; Automatically added by fix-stall-insns.pl
5064	0f6c	00000000		nop	; Automatically added by fix-stall-insns.pl
5065	0f6d	00000000		nop	; Automatically added by fix-stall-insns.pl
5066	0f6e	8fc2fa44		lw	%GPR2,-1468(%GPR30)	
5067				; Automatically 4 NOPs removed by reduceNOPs.sh
5068	0f6f	2bbd0008		subi	%GPR29,%GPR29,$8	
5069				; Automatically 4 NOPs removed by reduceNOPs.sh
5070	0f70	00000000		nop	; Automatically added by fix-stall-insns.pl
5071	0f71	00000000		nop	; Automatically added by fix-stall-insns.pl
5072	0f72	00000000		nop	; Automatically added by fix-stall-insns.pl
5073	0f73	0ffff611		jal	Hadamard_4x4_IntraLuma	
5074				; Automatically 4 NOPs removed by reduceNOPs.sh
5075	0f74	23bd0008		addi	%GPR29,%GPR29,$8	
5076				; Automatically 8 NOPs removed by reduceNOPs.sh
5077			
5078			
5079	0f75	3c010100		lhi	%GPR1,$0x100
5080				; Automatically 3 NOPs removed by reduceNOPs.sh
5081	0f76	00000000		nop	; Automatically added by fix-stall-insns.pl
5082	0f77	8c210000		lw	%GPR1, 0(%GPR1)
5083				; Automatically 3 NOPs removed by reduceNOPs.sh
5084			
5085	0f78	8fc3fa30		lw	%GPR3,-1488(%GPR30)	
5086				; Automatically 2 NOPs removed by reduceNOPs.sh
5087	0f79	00000000		nop	; Automatically added by fix-stall-insns.pl
5088	0f7a	00000000		nop	; Automatically added by fix-stall-insns.pl
5089	0f7b	00000000		nop	; Automatically added by fix-stall-insns.pl
5090	0f7c	00000000		nop	; Automatically added by fix-stall-insns.pl
5091	0f7d	8fc4fa2c		lw	%GPR4,-1492(%GPR30)	
5092				; Automatically 2 NOPs removed by reduceNOPs.sh
5093	0f7e	00610820		add	%GPR1,%GPR3,%GPR1	
5094	0f7f	2bc20014		subi	%GPR2,%GPR30,$20	
5095				; Automatically 2 NOPs removed by reduceNOPs.sh
5096	0f80	3c030000		lhi	%GPR3,$0	
5097				; Automatically 4 NOPs removed by reduceNOPs.sh
5098	0f81	34630100		ori	%GPR3,%GPR3,$256	
5099	0f82	afc1fa30		sw	-1488(%GPR30),%GPR1	
5100	0f83	3c010000		lhi	%GPR1,$0	
5101				; Automatically 4 NOPs removed by reduceNOPs.sh
5102	0f84	34210010		ori	%GPR1,%GPR1,$16	
5103				; Automatically 4 NOPs removed by reduceNOPs.sh
5104	0f85	00000000		nop	; Automatically added by fix-stall-insns.pl
5105	0f86	00000000		nop	; Automatically added by fix-stall-insns.pl
5106	0f87	0081081a		div	%GPR1,%GPR4,%GPR1	
5107				; Automatically 4 NOPs removed by reduceNOPs.sh
5108	0f88	afc1fa2c		sw	-1492(%GPR30),%GPR1	
5109	0f89	00000000		nop	; Automatically added by findLoadStoreProblem.sh
5110	0f8a	00000000		nop	; Automatically added by fix-stall-insns.pl
5111	0f8b	00000000		nop	; Automatically added by fix-stall-insns.pl
5112	0f8c	00000000		nop	; Automatically added by fix-stall-insns.pl
5113	0f8d	8fc1fa28		lw	%GPR1,-1496(%GPR30)	
5114				; Automatically 4 NOPs removed by reduceNOPs.sh
5115	0f8e	0023081a		div	%GPR1,%GPR1,%GPR3	
5116				; Automatically 4 NOPs removed by reduceNOPs.sh
5117	0f8f	2bbd0008		subi	%GPR29,%GPR29,$8	
5118				; Automatically 4 NOPs removed by reduceNOPs.sh
5119	0f90	00000000		nop	; Automatically added by fix-stall-insns.pl
5120	0f91	00000000		nop	; Automatically added by fix-stall-insns.pl
5121	0f92	0ffff08b		jal	intToStr	
5122				; Automatically 4 NOPs removed by reduceNOPs.sh
5123	0f93	23bd0008		addi	%GPR29,%GPR29,$8	
5124				; Automatically 4 NOPs removed by reduceNOPs.sh
5125	0f94	2bc10014		subi	%GPR1,%GPR30,$20	
5126				; Automatically 4 NOPs removed by reduceNOPs.sh
5127	0f95	2bbd0008		subi	%GPR29,%GPR29,$8	
5128				; Automatically 4 NOPs removed by reduceNOPs.sh
5129	0f96	0ffff297		jal	t_print	
5130				; Automatically 4 NOPs removed by reduceNOPs.sh
5131	0f97	23bd0008		addi	%GPR29,%GPR29,$8	
5132				; Automatically 4 NOPs removed by reduceNOPs.sh
5133	0f98	3c010000		lhi	%GPR1,$( L_main_1	/0x10000)
5134	0f99	00000000		nop
5135	0f9a	00000000		nop
5136	0f9b	00000000		nop
5137	0f9c	34210000		ori	%GPR1,%GPR1,$( L_main_1	%0x10000)
5138				; Automatically 9 NOPs removed by reduceNOPs.sh
5139	0f9d	2bbd0008		subi	%GPR29,%GPR29,$8	
5140				; Automatically 4 NOPs removed by reduceNOPs.sh
5141	0f9e	0ffff28f		jal	t_print	
5142				; Automatically 4 NOPs removed by reduceNOPs.sh
5143	0f9f	23bd0008		addi	%GPR29,%GPR29,$8	
5144				; Automatically 4 NOPs removed by reduceNOPs.sh
5145	0fa0	00000000		nop	; Automatically added by fix-stall-insns.pl
5146	0fa1	00000000		nop	; Automatically added by fix-stall-insns.pl
5147	0fa2	8fc1fa2c		lw	%GPR1,-1492(%GPR30)	
5148	0fa3	2bc20014		subi	%GPR2,%GPR30,$20	
5149				; Automatically 4 NOPs removed by reduceNOPs.sh
5150	0fa4	2bbd0008		subi	%GPR29,%GPR29,$8	
5151				; Automatically 4 NOPs removed by reduceNOPs.sh
5152	0fa5	00000000		nop	; Automatically added by fix-stall-insns.pl
5153	0fa6	00000000		nop	; Automatically added by fix-stall-insns.pl
5154	0fa7	0ffff076		jal	intToStr	
5155				; Automatically 4 NOPs removed by reduceNOPs.sh
5156	0fa8	23bd0008		addi	%GPR29,%GPR29,$8	
5157				; Automatically 4 NOPs removed by reduceNOPs.sh
5158	0fa9	2bc10014		subi	%GPR1,%GPR30,$20	
5159				; Automatically 4 NOPs removed by reduceNOPs.sh
5160	0faa	2bbd0008		subi	%GPR29,%GPR29,$8	
5161				; Automatically 4 NOPs removed by reduceNOPs.sh
5162	0fab	0ffff282		jal	t_print	
5163				; Automatically 4 NOPs removed by reduceNOPs.sh
5164	0fac	23bd0008		addi	%GPR29,%GPR29,$8	
5165				; Automatically 4 NOPs removed by reduceNOPs.sh
5166	0fad	3c010000		lhi	%GPR1,$( L_main_2	/0x10000)
5167	0fae	00000000		nop
5168	0faf	00000000		nop
5169	0fb0	00000000		nop
5170	0fb1	34210003		ori	%GPR1,%GPR1,$( L_main_2	%0x10000)
5171				; Automatically 9 NOPs removed by reduceNOPs.sh
5172	0fb2	2bbd0008		subi	%GPR29,%GPR29,$8	
5173				; Automatically 4 NOPs removed by reduceNOPs.sh
5174	0fb3	0ffff27a		jal	t_print	
5175				; Automatically 4 NOPs removed by reduceNOPs.sh
5176	0fb4	23bd0008		addi	%GPR29,%GPR29,$8	
5177				; Automatically 4 NOPs removed by reduceNOPs.sh
5178	0fb5	00000000		nop	; Automatically added by fix-stall-insns.pl
5179	0fb6	00000000		nop	; Automatically added by fix-stall-insns.pl
5180	0fb7	8fc1fa30		lw	%GPR1,-1488(%GPR30)	
5181	0fb8	2bc20014		subi	%GPR2,%GPR30,$20	
5182				; Automatically 4 NOPs removed by reduceNOPs.sh
5183	0fb9	2bbd0008		subi	%GPR29,%GPR29,$8	
5184				; Automatically 4 NOPs removed by reduceNOPs.sh
5185	0fba	00000000		nop	; Automatically added by fix-stall-insns.pl
5186	0fbb	00000000		nop	; Automatically added by fix-stall-insns.pl
5187	0fbc	0ffff061		jal	intToStr	
5188				; Automatically 4 NOPs removed by reduceNOPs.sh
5189	0fbd	23bd0008		addi	%GPR29,%GPR29,$8	
5190				; Automatically 4 NOPs removed by reduceNOPs.sh
5191	0fbe	2bc10014		subi	%GPR1,%GPR30,$20	
5192				; Automatically 4 NOPs removed by reduceNOPs.sh
5193	0fbf	2bbd0008		subi	%GPR29,%GPR29,$8	
5194				; Automatically 4 NOPs removed by reduceNOPs.sh
5195	0fc0	0ffff26d		jal	t_print	
5196				; Automatically 4 NOPs removed by reduceNOPs.sh
5197	0fc1	23bd0008		addi	%GPR29,%GPR29,$8	
5198				; Automatically 4 NOPs removed by reduceNOPs.sh
5199	0fc2	3c010000		lhi	%GPR1,$( L_main_3	/0x10000)
5200	0fc3	00000000		nop
5201	0fc4	00000000		nop
5202	0fc5	00000000		nop
5203	0fc6	34210006		ori	%GPR1,%GPR1,$( L_main_3	%0x10000)
5204				; Automatically 9 NOPs removed by reduceNOPs.sh
5205	0fc7	2bbd0008		subi	%GPR29,%GPR29,$8	
5206				; Automatically 4 NOPs removed by reduceNOPs.sh
5207	0fc8	0ffff265		jal	t_print	
5208				; Automatically 4 NOPs removed by reduceNOPs.sh
5209	0fc9	23bd0008		addi	%GPR29,%GPR29,$8	
5210				; Automatically 4 NOPs removed by reduceNOPs.sh
5211	0fca	00000000		nop	; Automatically added by fix-stall-insns.pl
5212	0fcb	00000000		nop	; Automatically added by fix-stall-insns.pl
5213	0fcc	8fdcfa44		lw	%GPR28,-1468(%GPR30)	
5214				; Automatically 8 NOPs removed by reduceNOPs.sh
5215	0fcd	08000001		j	L_main_78	
5216				; Automatically 4 NOPs removed by reduceNOPs.sh
5217			L_main_78:
5218				; Automatically 4 NOPs removed by reduceNOPs.sh
5219	0fce	00000000		nop	; Automatically added by fix-stall-insns.pl
5220	0fcf	00000000		nop	; Automatically added by fix-stall-insns.pl
5221	0fd0	8fdf0004		lw	%GPR31,4(%GPR30)	
5222	0fd1	27dd0004		addui	%GPR29,%GPR30,$4	
5223	0fd2	00000000		nop	; Automatically added by fix-stall-insns.pl
5224	0fd3	00000000		nop	; Automatically added by fix-stall-insns.pl
5225	0fd4	00000000		nop	; Automatically added by fix-stall-insns.pl
5226	0fd5	8fde0000		lw	%GPR30,0(%GPR30)	
5227				; Automatically 2 NOPs removed by reduceNOPs.sh
5228	0fd6	00000000		nop
5229	0fd7	00000000		nop	; Automatically added by fix-stall-insns.pl
5230	0fd8	00000000		nop	; Automatically added by fix-stall-insns.pl
5231	0fd9	00000000		nop	; Automatically added by fix-stall-insns.pl
5232	0fda	00000000		nop
5233	0fdb	03e00008		jr	%GPR31	
5234	0fdc	00000000		nop
5235			exit:
5236	0fdd	00000000		nop
5237	0fde	00000000		nop


******** Cross Reference List ********
Defined Symbol
name   	section	lc     	attr   	value  	lineno 
L_loadStoreByte_2	.text	0488	Label	488	1437 
L_main_60	.text	0cc5	Label	cc5	4091 
L_loadStoreByte_3	.text	049a	Label	49a	1459 
g_makeradiogroup	.text	0401	Label	401	1267 
L_main_61	.text	0cdf	Label	cdf	4129 
L_loadStoreByte_4	.text	04d7	Label	4d7	1533 
L_main_62	.text	0ce3	Label	ce3	4138 
L_loadStoreByte_5	.text	04e9	Label	4e9	1555 
L_main_63	.text	0d30	Label	d30	4246 
L_loadStoreByte_6	.text	0537	Label	537	1647 
loadByteSigned	.text	049a	Label	49a	1458 
L_main_64	.text	0d34	Label	d34	4255 
L_main_65	.text	0d81	Label	d81	4363 
L_main_66	.text	0d85	Label	d85	4372 
L_main_67	.text	0dd2	Label	dd2	4480 
sendcommand	.text	0204	Label	204	631 
L_main_68	.text	0dd6	Label	dd6	4489 
L_main_30	.text	0971	Label	971	2994 
L_main_69	.text	0ea8	Label	ea8	4763 
L_main_31	.text	0974	Label	974	2999 
L_lib_lcd_dlxsim_20	.text	0334	Label	334	1013 
L_main_32	.text	0974	Label	974	3001 
L_lib_lcd_dlxsim_21	.text	034b	Label	34b	1042 
L_main_33	.text	097e	Label	97e	3017 
L_lib_lcd_dlxsim_22	.text	035d	Label	35d	1064 
L_main_34	.text	0981	Label	981	3022 
loadByteUnsigned	.text	0453	Label	453	1372 
L_lib_lcd_dlxsim_23	.text	0374	Label	374	1093 
L_main_35	.text	0983	Label	983	3026 
d_clear	.text	042a	Label	42a	1318 
L_lib_lcd_dlxsim_24	.text	0386	Label	386	1115 
L_main_36	.text	098d	Label	98d	3042 
L_lib_lcd_dlxsim_25	.text	039d	Label	39d	1144 
exit	.text	0fdd	Label	fdd	5235 
L_main_37	.text	0990	Label	990	3047 
L_lib_lcd_dlxsim_26	.text	03af	Label	3af	1166 
L_main_38	.text	0992	Label	992	3051 
Hadamard_4x4_IntraLuma	.text	0584	Label	584	1760 
L_lib_lcd_dlxsim_27	.text	03c6	Label	3c6	1195 
L_main_39	.text	099c	Label	99c	3067 
L_lib_lcd_dlxsim_28	.text	03d8	Label	3d8	1217 
L_lib_lcd_dlxsim_29	.text	03ef	Label	3ef	1246 
getbytes	.text	01db	Label	1db	580 
checkbuffer	.text	01b2	Label	1b2	529 
L_main_70	.text	0eac	Label	eac	4772 
L_main_71	.text	0ebd	Label	ebd	4796 
g_drawline	.text	0334	Label	334	1012 
L_main_72	.text	0ec1	Label	ec1	4805 
L_main_73	.text	0ec6	Label	ec6	4815 
L_main_74	.text	0efa	Label	efa	4897 
g_makeswitch	.text	03af	Label	3af	1165 
L_main_75	.text	0f0b	Label	f0b	4921 
L_main_76	.text	0f1c	Label	f1c	4945 
t_cursor	.text	0290	Label	290	808 
L_main_77	.text	0f64	Label	f64	5049 
L_main_78	.text	0fce	Label	fce	5217 
L_main_40	.text	099f	Label	99f	3072 
L_main_41	.text	09a1	Label	9a1	3076 
L_lib_lcd_dlxsim_30	.text	0401	Label	401	1268 
L_main_42	.text	09b7	Label	9b7	3103 
L_lib_lcd_dlxsim_31	.text	0418	Label	418	1297 
L_main_43	.text	09ba	Label	9ba	3108 
L_lib_lcd_dlxsim_32	.text	042a	Label	42a	1319 
L_main_44	.text	09ba	Label	9ba	3110 
L_lib_lcd_dlxsim_33	.text	0441	Label	441	1348 
L_main_45	.text	09c4	Label	9c4	3126 
L_main_46	.text	09c7	Label	9c7	3131 
L_main_47	.text	09c9	Label	9c9	3135 
Hadamard_2x2_Chroma	.text	0549	Label	549	1683 
L_main_48	.text	09d3	Label	9d3	3151 
L_main_10	.text	08f7	Label	8f7	2806 
L_main_49	.text	09d6	Label	9d6	3156 
L_main_11	.text	08f7	Label	8f7	2808 
L_main_1	.data	0000	Label	0	1668 
g_print	.text	02e2	Label	2e2	910 
L_main_12	.text	0901	Label	901	2824 
L_main_2	.data	0003	Label	3	1672 
L_main_13	.text	0904	Label	904	2829 
L_main_3	.data	0006	Label	6	1676 
L_main_14	.text	0906	Label	906	2833 
L_main_4	.text	0549	Label	549	1684 
L_main_15	.text	0910	Label	910	2849 
L_main_5	.text	0576	Label	576	1742 
t_print	.text	022d	Label	22d	682 
intToStr	.text	001d	Label	1d	39 
L_main_16	.text	0913	Label	913	2854 
L_main_6	.text	0584	Label	584	1761 
L_main_17	.text	0915	Label	915	2858 
L_main_7	.text	06c6	Label	6c6	2166 
L_main_18	.text	092b	Label	92b	2885 
L_main_8	.text	06d4	Label	6d4	2185 
L_main_19	.text	092e	Label	92e	2890 
L_main_9	.text	08f4	Label	8f4	2801 
DCT_4x4	.text	09f7	Label	9f7	3208 
L_intToStr_10	.text	01a0	Label	1a0	505 
L_intToStr_1	.text	001d	Label	1d	40 
L_intToStr_2	.text	0059	Label	59	111 
g_makebar	.text	035d	Label	35d	1063 
L_intToStr_3	.text	0089	Label	89	168 
L_intToStr_4	.text	00a2	Label	a2	198 
L_intToStr_5	.text	00c7	Label	c7	243 
L_intToStr_6	.text	00e0	Label	e0	273 
L_main_50	.text	09d8	Label	9d8	3160 
L_intToStr_7	.text	0122	Label	122	352 
L_main_51	.text	09e2	Label	9e2	3176 
L_intToStr_8	.text	013b	Label	13b	382 
L_main_52	.text	09e5	Label	9e5	3181 
t_enable	.text	02b9	Label	2b9	859 
L_intToStr_9	.text	0179	Label	179	456 
L_main_53	.text	09e7	Label	9e7	3185 
L_main_54	.text	09ea	Label	9ea	3191 
L_main_55	.text	09f7	Label	9f7	3209 
L_main_56	.text	0c60	Label	c60	3944 
L_main_57	.text	0c6f	Label	c6f	3964 
L_main_58	.text	0ca7	Label	ca7	4044 
L_main_20	.text	092e	Label	92e	2892 
L_main_59	.text	0cc1	Label	cc1	4082 
L_main_21	.text	0938	Label	938	2908 
L_lib_lcd_dlxsim_10	.text	026f	Label	26f	767 
L_main_22	.text	093b	Label	93b	2913 
g_drawrect	.text	030b	Label	30b	961 
L_lib_lcd_dlxsim_11	.text	027e	Label	27e	787 
L_main_23	.text	093d	Label	93d	2917 
L_lib_lcd_dlxsim_12	.text	0290	Label	290	809 
L_main_24	.text	0947	Label	947	2933 
L_lib_lcd_dlxsim_13	.text	02a7	Label	2a7	838 
L_main_25	.text	094a	Label	94a	2938 
L_lib_lcd_dlxsim_14	.text	02b9	Label	2b9	860 
L_main_26	.text	094c	Label	94c	2942 
g_makemenubutton	.text	03d8	Label	3d8	1216 
L_lib_lcd_dlxsim_15	.text	02d0	Label	2d0	889 
L_main_27	.text	0956	Label	956	2958 
SATD_4x4	.text	06d4	Label	6d4	2184 
L_lib_lcd_dlxsim_16	.text	02e2	Label	2e2	911 
L_main_28	.text	0959	Label	959	2963 
L_lib_lcd_dlxsim_17	.text	02f9	Label	2f9	940 
L_lib_lcd_dlxsim_1	.text	01b2	Label	1b2	530 
L_main_29	.text	095b	Label	95b	2967 
L_lib_lcd_dlxsim_18	.text	030b	Label	30b	962 
L_lib_lcd_dlxsim_2	.text	01c9	Label	1c9	559 
L_lib_lcd_dlxsim_19	.text	0322	Label	322	991 
L_lib_lcd_dlxsim_3	.text	01db	Label	1db	581 
L_lib_lcd_dlxsim_4	.text	01f2	Label	1f2	610 
L_lib_lcd_dlxsim_5	.text	0204	Label	204	632 
L_lib_lcd_dlxsim_6	.text	021b	Label	21b	661 
L_lib_lcd_dlxsim_7	.text	022d	Label	22d	683 
L_lib_lcd_dlxsim_8	.text	023f	Label	23f	707 
main	.text	0c6f	Label	c6f	3963 
L_lib_lcd_dlxsim_9	.text	0258	Label	258	737 
storeByte	.text	04e9	Label	4e9	1554 
g_setbar	.text	0386	Label	386	1114 
L_loadStoreByte_1	.text	0453	Label	453	1373 


Undefined Symbol
name   	section	lc     	attr   	value  	lineno 


Multiple Defined Symbol
name   	section	lc     	attr   	value  	lineno 


******* Section Data List ******* 
Sec	Attr		Size
.text 	Writable 	fdf 
addr_space : 16 
addressing : Word 
bitwidth per byte : 8 
word alignment : 4 
.data 	Data		9 
addr_space : 16 
addressing : Byte 
bitwidth per byte : 8 
word alignment : 4 
