****** Source Program List ******
LineNo	LC	Code		Source Program 
1				.section	.data
2				.section	.text
3				.addressing	Word
4				.section	.text
5				.addressing	Word
6				;.addressing	Word
7			
8	0000	03def026		xor	%GPR30, %GPR30, %GPR30
9	0001	03bde826		xor	%GPR29, %GPR29, %GPR29
10	0002	039ce026		xor	%GPR28, %GPR28, %GPR28
11	0003	00000000		nop
12	0004	3c1e000f		lhi	%GPR30, $(0xFFFFC/0x10000)
13	0005	3c1d000f		lhi	%GPR29, $(0xFFFFC/0x10000)
14	0006	00000000		nop
15	0007	00000000		nop
16	0008	37defffc		ori	%GPR30, %GPR30, $(0xFFFFC%0x10000)
17	0009	37bdfffc		ori	%GPR29, %GPR29, $(0xFFFFC%0x10000)
18	000a	00000000		nop
19	000b	00000000		nop
20	000c	00000000		nop
21	000d	afbefffc		sw	-4(%GPR29), %GPR30
22	000e	afbffff8		sw	-8(%GPR29), %GPR31
23	000f	23ddfff8		addi	%GPR29, %GPR30, $-8
24	0010	00000000		nop
25	0011	00000000		nop
26	0012	00000000		nop
27	0013	0c001041		jal	main	
28	0014	00000000		nop
29	0015	00000000		nop
30	0016	00000000		nop
31	0017	00000000		nop
32	0018	00000000		nop
33	0019	afa10000		sw	0(%GPR29), %GPR1
34	001a	0c001719		jal	exit
35	001b	00000000		nop
36	001c	00000000		nop
37			
38				;.addressing	Word
39			intToStr:
40			L_intToStr_1:
41	001d	00000000		nop
42	001e	00000000		nop
43	001f	00000000		nop
44				; Automatically 1 NOPs removed by reduceNOPs.sh
45	0020	afbefffc		sw	-4(%GPR29),%GPR30	
46	0021	afbf0000		sw	0(%GPR29),%GPR31	
47	0022	2fbe0004		subui	%GPR30,%GPR29,$4	
48	0023	00000000		nop
49	0024	2bbd0038		subi	%GPR29,%GPR29,$56	
50	0025	00000000		nop
51	0026	00000000		nop
52	0027	00000000		nop
53				; Automatically 1 NOPs removed by reduceNOPs.sh
54	0028	afc1ffdc		sw	-36(%GPR30),%GPR1	
55	0029	afc2ffd8		sw	-40(%GPR30),%GPR2	
56	002a	00000000		nop
57	002b	00000000		nop
58	002c	00000000		nop
59				; Automatically 5 NOPs removed by reduceNOPs.sh
60	002d	3c020000		lhi	%GPR2,$0	
61	002e	00000000		nop
62	002f	00000000		nop
63	0030	00000000		nop
64				; Automatically 1 NOPs removed by reduceNOPs.sh
65	0031	34420000		ori	%GPR2,%GPR2,$0	
66	0032	00000000		nop	;;8,10
67	0033	00000000		nop	;;8,10
68	0034	3c010000		lhi	%GPR1,$0	
69	0035	00000000		nop
70	0036	00000000		nop
71	0037	00000000		nop
72				; Automatically 1 NOPs removed by reduceNOPs.sh
73	0038	34210000		ori	%GPR1,%GPR1,$0	
74	0039	00000000		nop	;;10,12
75	003a	00000000		nop	;;10,12
76	003b	afc2ffd4		sw	-44(%GPR30),%GPR2	
77	003c	3c020000		lhi	%GPR2,$0	
78	003d	00000000		nop
79	003e	00000000		nop
80	003f	00000000		nop
81				; Automatically 1 NOPs removed by reduceNOPs.sh
82	0040	34420000		ori	%GPR2,%GPR2,$0	
83	0041	00000000		nop	;;13,17
84	0042	00000000		nop	;;13,17
85	0043	00000000		nop	;;13,17
86				; Automatically 1 NOPs removed by reduceNOPs.sh
87	0044	afc2ffd0		sw	-48(%GPR30),%GPR2	
88	0045	00000000		nop	; Automatically added by findLoadStoreProblem.sh
89	0046	00000000		nop	; Automatically added by fix-stall-insns.pl
90	0047	00000000		nop	; Automatically added by fix-stall-insns.pl
91	0048	00000000		nop	; Automatically added by fix-stall-insns.pl
92	0049	8fc2ffdc		lw	%GPR2,-36(%GPR30)	
93	004a	00000000		nop	;;18,22
94	004b	00000000		nop	;;18,22
95	004c	00000000		nop	;;18,22
96				; Automatically 1 NOPs removed by reduceNOPs.sh
97	004d	0041d82a		slt	%GPR27,%GPR2,%GPR1	
98	004e	00000000		nop	; Automatically added by findDataDependency.sh
99	004f	00000000		nop	; Automatically added by findDataDependency.sh
100	0050	00000000		nop	; Automatically added by findDataDependency.sh
101	0051	17600008		bnez	%GPR27,L_intToStr_2	
102	0052	00000000		nop
103	0053	00000000		nop
104	0054	00000000		nop
105				; Automatically 1 NOPs removed by reduceNOPs.sh
106	0055	08000034		j	L_intToStr_3	
107	0056	00000000		nop
108	0057	00000000		nop
109	0058	00000000		nop
110				; Automatically 1 NOPs removed by reduceNOPs.sh
111			L_intToStr_2:
112	0059	00000000		nop	; Automatically Added by addNopAfterLabels.pl
113	005a	8fc1ffdc		lw	%GPR1,-36(%GPR30)	
114	005b	00000000		nop	;;0,4
115	005c	00000000		nop	;;0,4
116	005d	00000000		nop	;;0,4
117				; Automatically 1 NOPs removed by reduceNOPs.sh
118	005e	00010822		sub	%GPR1,%GPR0,%GPR1	
119	005f	3c020000		lhi	%GPR2,$0	
120	0060	00000000		nop
121	0061	00000000		nop
122	0062	00000000		nop
123				; Automatically 1 NOPs removed by reduceNOPs.sh
124	0063	3442002d		ori	%GPR2,%GPR2,$45	
125	0064	00000000		nop	;;5,8
126	0065	00000000		nop	;;5,8
127	0066	00000000		nop	;;5,8
128	0067	afc1ffdc		sw	-36(%GPR30),%GPR1	
129	0068	00000000		nop	; Automatically added by findLoadStoreProblem.sh
130	0069	00000000		nop	; Automatically added by fix-stall-insns.pl
131	006a	00000000		nop	; Automatically added by fix-stall-insns.pl
132	006b	00000000		nop	; Automatically added by fix-stall-insns.pl
133	006c	8fc1ffd8		lw	%GPR1,-40(%GPR30)	
134	006d	00000000		nop
135	006e	00000000		nop
136	006f	00000000		nop
137				; Automatically 1 NOPs removed by reduceNOPs.sh
138	0070	2bbd0008		subi	%GPR29,%GPR29,$8	
139	0071	00000000		nop
140	0072	00000000		nop
141	0073	00000000		nop
142				; Automatically 1 NOPs removed by reduceNOPs.sh
143	0074	0c000475		jal	storeByte	
144	0075	00000000		nop
145	0076	00000000		nop
146	0077	00000000		nop
147				; Automatically 1 NOPs removed by reduceNOPs.sh
148	0078	23bd0008		addi	%GPR29,%GPR29,$8	
149	0079	00000000		nop
150	007a	00000000		nop
151	007b	00000000		nop
152				; Automatically 1 NOPs removed by reduceNOPs.sh
153	007c	8fc1ffd4		lw	%GPR1,-44(%GPR30)	
154	007d	00000000		nop	;;11,15
155	007e	00000000		nop	;;11,15
156	007f	00000000		nop	;;11,15
157				; Automatically 1 NOPs removed by reduceNOPs.sh
158	0080	20210001		addi	%GPR1,%GPR1,$1	
159	0081	00000000		nop	;;15,19
160	0082	00000000		nop	;;15,19
161	0083	00000000		nop	;;15,19
162				; Automatically 1 NOPs removed by reduceNOPs.sh
163	0084	afc1ffd4		sw	-44(%GPR30),%GPR1	
164	0085	08000042		j	L_intToStr_5	
165	0086	00000000		nop
166	0087	00000000		nop
167	0088	00000000		nop
168			L_intToStr_3:
169	0089	00000000		nop	; Automatically Added by addNopAfterLabels.pl
170	008a	8fc2ffdc		lw	%GPR2,-36(%GPR30)	
171	008b	00000000		nop	;;1,4
172	008c	00000000		nop	;;1,4
173	008d	00000000		nop	;;1,4
174	008e	3c010000		lhi	%GPR1,$0	
175	008f	00000000		nop
176	0090	00000000		nop
177	0091	00000000		nop
178				; Automatically 1 NOPs removed by reduceNOPs.sh
179	0092	34210000		ori	%GPR1,%GPR1,$0	
180	0093	00000000		nop	;;4,8
181	0094	00000000		nop	;;4,8
182	0095	00000000		nop	;;4,8
183				; Automatically 1 NOPs removed by reduceNOPs.sh
184	0096	0041d82e		seq	%GPR27,%GPR2,%GPR1	
185	0097	00000000		nop	; Automatically added by findDataDependency.sh
186	0098	00000000		nop	; Automatically added by findDataDependency.sh
187	0099	00000000		nop	; Automatically added by findDataDependency.sh
188	009a	17600008		bnez	%GPR27,L_intToStr_4	
189	009b	00000000		nop
190	009c	00000000		nop
191	009d	00000000		nop
192				; Automatically 1 NOPs removed by reduceNOPs.sh
193	009e	08000042		j	L_intToStr_6	
194	009f	00000000		nop
195	00a0	00000000		nop
196	00a1	00000000		nop
197				; Automatically 1 NOPs removed by reduceNOPs.sh
198			L_intToStr_4:
199	00a2	00000000		nop	; Automatically Added by addNopAfterLabels.pl
200	00a3	8fc1ffd8		lw	%GPR1,-40(%GPR30)	
201	00a4	00000000		nop	;;1,4
202	00a5	00000000		nop	;;1,4
203	00a6	00000000		nop	;;1,4
204	00a7	3c020000		lhi	%GPR2,$0	
205	00a8	00000000		nop
206	00a9	00000000		nop
207	00aa	00000000		nop
208				; Automatically 1 NOPs removed by reduceNOPs.sh
209	00ab	34420030		ori	%GPR2,%GPR2,$48	
210	00ac	00000000		nop
211	00ad	00000000		nop
212	00ae	00000000		nop
213				; Automatically 1 NOPs removed by reduceNOPs.sh
214	00af	2bbd0008		subi	%GPR29,%GPR29,$8	
215	00b0	00000000		nop
216	00b1	00000000		nop
217	00b2	00000000		nop
218				; Automatically 1 NOPs removed by reduceNOPs.sh
219	00b3	0c000436		jal	storeByte	
220	00b4	00000000		nop
221	00b5	00000000		nop
222	00b6	00000000		nop
223				; Automatically 1 NOPs removed by reduceNOPs.sh
224	00b7	23bd0008		addi	%GPR29,%GPR29,$8	
225	00b8	00000000		nop
226	00b9	00000000		nop
227	00ba	00000000		nop
228				; Automatically 1 NOPs removed by reduceNOPs.sh
229	00bb	8fc1ffd4		lw	%GPR1,-44(%GPR30)	
230	00bc	00000000		nop	;;6,10
231	00bd	00000000		nop	;;6,10
232	00be	00000000		nop	;;6,10
233				; Automatically 1 NOPs removed by reduceNOPs.sh
234	00bf	20210001		addi	%GPR1,%GPR1,$1	
235	00c0	00000000		nop	;;10,14
236	00c1	00000000		nop	;;10,14
237	00c2	00000000		nop	;;10,14
238				; Automatically 1 NOPs removed by reduceNOPs.sh
239	00c3	afc1ffd4		sw	-44(%GPR30),%GPR1	
240	00c4	00000000		nop
241	00c5	00000000		nop
242	00c6	00000000		nop
243			L_intToStr_5:
244	00c7	00000000		nop	; Automatically Added by addNopAfterLabels.pl
245	00c8	8fc2ffdc		lw	%GPR2,-36(%GPR30)	
246	00c9	00000000		nop	;;1,4
247	00ca	00000000		nop	;;1,4
248	00cb	00000000		nop	;;1,4
249	00cc	3c010000		lhi	%GPR1,$0	
250	00cd	00000000		nop
251	00ce	00000000		nop
252	00cf	00000000		nop
253				; Automatically 1 NOPs removed by reduceNOPs.sh
254	00d0	34210000		ori	%GPR1,%GPR1,$0	
255	00d1	00000000		nop	;;4,8
256	00d2	00000000		nop	;;4,8
257	00d3	00000000		nop	;;4,8
258				; Automatically 1 NOPs removed by reduceNOPs.sh
259	00d4	0041d82f		sne	%GPR27,%GPR2,%GPR1	
260	00d5	00000000		nop	; Automatically added by findDataDependency.sh
261	00d6	00000000		nop	; Automatically added by findDataDependency.sh
262	00d7	00000000		nop	; Automatically added by findDataDependency.sh
263	00d8	17600008		bnez	%GPR27,L_intToStr_6	
264	00d9	00000000		nop
265	00da	00000000		nop
266	00db	00000000		nop
267				; Automatically 1 NOPs removed by reduceNOPs.sh
268	00dc	08000046		j	L_intToStr_7	
269	00dd	00000000		nop
270	00de	00000000		nop
271	00df	00000000		nop
272				; Automatically 1 NOPs removed by reduceNOPs.sh
273			L_intToStr_6:
274	00e0	00000000		nop	; Automatically Added by addNopAfterLabels.pl
275	00e1	2bc10020		subi	%GPR1,%GPR30,$32	
276	00e2	8fc3ffd0		lw	%GPR3,-48(%GPR30)	
277	00e3	00000000		nop	;;1,5
278	00e4	00000000		nop	;;1,5
279	00e5	00000000		nop	;;1,5
280				; Automatically 1 NOPs removed by reduceNOPs.sh
281	00e6	00230820		add	%GPR1,%GPR1,%GPR3	
282	00e7	3c020000		lhi	%GPR2,$0	
283	00e8	00000000		nop
284	00e9	00000000		nop
285	00ea	00000000		nop
286				; Automatically 1 NOPs removed by reduceNOPs.sh
287	00eb	3442000a		ori	%GPR2,%GPR2,$10	
288	00ec	8fc3ffdc		lw	%GPR3,-36(%GPR30)	
289	00ed	00000000		nop	;;7,11
290	00ee	00000000		nop	;;7,11
291	00ef	00000000		nop	;;7,11
292				; Automatically 1 NOPs removed by reduceNOPs.sh
293	00f0	0062101c		MOD	%GPR2,%GPR3,%GPR2	
294	00f1	00000000		nop	;;11,15
295	00f2	00000000		nop	;;11,15
296	00f3	00000000		nop	;;11,15
297				; Automatically 1 NOPs removed by reduceNOPs.sh
298	00f4	20420030		addi	%GPR2,%GPR2,$48	
299	00f5	00000000		nop
300	00f6	00000000		nop
301	00f7	00000000		nop
302				; Automatically 1 NOPs removed by reduceNOPs.sh
303	00f8	2bbd0008		subi	%GPR29,%GPR29,$8	
304	00f9	00000000		nop
305	00fa	00000000		nop
306	00fb	00000000		nop
307				; Automatically 1 NOPs removed by reduceNOPs.sh
308	00fc	0c0003ed		jal	storeByte	
309	00fd	00000000		nop
310	00fe	00000000		nop
311	00ff	00000000		nop
312				; Automatically 1 NOPs removed by reduceNOPs.sh
313	0100	23bd0008		addi	%GPR29,%GPR29,$8	
314	0101	00000000		nop
315	0102	00000000		nop
316	0103	00000000		nop
317				; Automatically 1 NOPs removed by reduceNOPs.sh
318	0104	8fc1ffd0		lw	%GPR1,-48(%GPR30)	
319	0105	00000000		nop	;;17,19
320	0106	00000000		nop	;;17,19
321	0107	00000000		nop	; Automatically added by fix-stall-insns.pl
322	0108	00000000		nop	; Automatically added by fix-stall-insns.pl
323	0109	8fc2ffdc		lw	%GPR2,-36(%GPR30)	
324	010a	00000000		nop	;;19,21
325	010b	00000000		nop	;;19,21
326	010c	20210001		addi	%GPR1,%GPR1,$1	
327	010d	00000000		nop	;;21,25
328	010e	00000000		nop	;;21,25
329	010f	00000000		nop	;;21,25
330				; Automatically 1 NOPs removed by reduceNOPs.sh
331	0110	afc1ffd0		sw	-48(%GPR30),%GPR1	
332	0111	3c010000		lhi	%GPR1,$0	
333	0112	00000000		nop
334	0113	00000000		nop
335	0114	00000000		nop
336				; Automatically 1 NOPs removed by reduceNOPs.sh
337	0115	3421000a		ori	%GPR1,%GPR1,$10	
338	0116	00000000		nop	;;26,30
339	0117	00000000		nop	;;26,30
340	0118	00000000		nop	;;26,30
341				; Automatically 1 NOPs removed by reduceNOPs.sh
342	0119	0041081a		div	%GPR1,%GPR2,%GPR1	
343	011a	00000000		nop	;;30,34
344	011b	00000000		nop	;;30,34
345	011c	00000000		nop	;;30,34
346				; Automatically 1 NOPs removed by reduceNOPs.sh
347	011d	afc1ffdc		sw	-36(%GPR30),%GPR1	
348	011e	0bffffa9		j	L_intToStr_5	
349	011f	00000000		nop
350	0120	00000000		nop
351	0121	00000000		nop
352			L_intToStr_7:
353	0122	00000000		nop	; Automatically Added by addNopAfterLabels.pl
354	0123	8fc2ffd0		lw	%GPR2,-48(%GPR30)	
355	0124	00000000		nop	;;1,4
356	0125	00000000		nop	;;1,4
357	0126	00000000		nop	;;1,4
358	0127	3c010000		lhi	%GPR1,$0	
359	0128	00000000		nop
360	0129	00000000		nop
361	012a	00000000		nop
362				; Automatically 1 NOPs removed by reduceNOPs.sh
363	012b	34210000		ori	%GPR1,%GPR1,$0	
364	012c	00000000		nop	;;4,8
365	012d	00000000		nop	;;4,8
366	012e	00000000		nop	;;4,8
367				; Automatically 1 NOPs removed by reduceNOPs.sh
368	012f	0041d82b		sgt	%GPR27,%GPR2,%GPR1	
369	0130	00000000		nop	; Automatically added by findDataDependency.sh
370	0131	00000000		nop	; Automatically added by findDataDependency.sh
371	0132	00000000		nop	; Automatically added by findDataDependency.sh
372	0133	17600008		bnez	%GPR27,L_intToStr_8	
373	0134	00000000		nop
374	0135	00000000		nop
375	0136	00000000		nop
376				; Automatically 1 NOPs removed by reduceNOPs.sh
377	0137	08000042		j	L_intToStr_9	
378	0138	00000000		nop
379	0139	00000000		nop
380	013a	00000000		nop
381				; Automatically 1 NOPs removed by reduceNOPs.sh
382			L_intToStr_8:
383	013b	00000000		nop	; Automatically Added by addNopAfterLabels.pl
384	013c	8fc2ffd0		lw	%GPR2,-48(%GPR30)	
385	013d	2bc10020		subi	%GPR1,%GPR30,$32	
386	013e	00000000		nop	;;1,4
387	013f	00000000		nop	;;1,4
388	0140	00000000		nop	;;1,4
389	0141	28420001		subi	%GPR2,%GPR2,$1	
390	0142	00000000		nop	;;4,8
391	0143	00000000		nop	;;4,8
392	0144	00000000		nop	;;4,8
393				; Automatically 1 NOPs removed by reduceNOPs.sh
394	0145	00220820		add	%GPR1,%GPR1,%GPR2	
395	0146	afc2ffd0		sw	-48(%GPR30),%GPR2	
396	0147	00000000		nop	;;9,13
397	0148	00000000		nop	;;9,13
398	0149	00000000		nop	;;9,13
399				; Automatically 5 NOPs removed by reduceNOPs.sh
400	014a	2bbd0008		subi	%GPR29,%GPR29,$8	
401	014b	00000000		nop
402	014c	00000000		nop
403	014d	00000000		nop
404				; Automatically 1 NOPs removed by reduceNOPs.sh
405	014e	0c000305		jal	loadByteUnsigned	
406	014f	00000000		nop
407	0150	00000000		nop
408	0151	00000000		nop
409				; Automatically 1 NOPs removed by reduceNOPs.sh
410	0152	23bd0008		addi	%GPR29,%GPR29,$8	
411	0153	00000000		nop
412	0154	00000000		nop
413	0155	00000000		nop
414				; Automatically 1 NOPs removed by reduceNOPs.sh
415	0156	8fc1ffd8		lw	%GPR1,-40(%GPR30)	
416	0157	8fc3ffd4		lw	%GPR3,-44(%GPR30)	
417	0158	03801020		add	%GPR2,%GPR28,%GPR0	
418	0159	00000000		nop	;;16,19
419	015a	00000000		nop	;;16,19
420	015b	00000000		nop	;;16,19
421	015c	00230820		add	%GPR1,%GPR1,%GPR3	
422	015d	00000000		nop
423	015e	00000000		nop
424	015f	00000000		nop
425				; Automatically 1 NOPs removed by reduceNOPs.sh
426	0160	2bbd0008		subi	%GPR29,%GPR29,$8	
427	0161	00000000		nop
428	0162	00000000		nop
429	0163	00000000		nop
430				; Automatically 1 NOPs removed by reduceNOPs.sh
431	0164	0c000385		jal	storeByte	
432	0165	00000000		nop
433	0166	00000000		nop
434	0167	00000000		nop
435				; Automatically 1 NOPs removed by reduceNOPs.sh
436	0168	23bd0008		addi	%GPR29,%GPR29,$8	
437	0169	00000000		nop
438	016a	00000000		nop
439	016b	00000000		nop
440				; Automatically 1 NOPs removed by reduceNOPs.sh
441	016c	8fc1ffd4		lw	%GPR1,-44(%GPR30)	
442	016d	00000000		nop	;;21,25
443	016e	00000000		nop	;;21,25
444	016f	00000000		nop	;;21,25
445				; Automatically 1 NOPs removed by reduceNOPs.sh
446	0170	20210001		addi	%GPR1,%GPR1,$1	
447	0171	00000000		nop	;;25,29
448	0172	00000000		nop	;;25,29
449	0173	00000000		nop	;;25,29
450				; Automatically 1 NOPs removed by reduceNOPs.sh
451	0174	afc1ffd4		sw	-44(%GPR30),%GPR1	
452	0175	0bffffad		j	L_intToStr_7	
453	0176	00000000		nop
454	0177	00000000		nop
455	0178	00000000		nop
456			L_intToStr_9:
457	0179	00000000		nop	; Automatically Added by addNopAfterLabels.pl
458	017a	8fc1ffd8		lw	%GPR1,-40(%GPR30)	
459	017b	8fc2ffd4		lw	%GPR2,-44(%GPR30)	
460	017c	00000000		nop	;;1,5
461	017d	00000000		nop	;;1,5
462	017e	00000000		nop	;;1,5
463				; Automatically 1 NOPs removed by reduceNOPs.sh
464	017f	00220820		add	%GPR1,%GPR1,%GPR2	
465	0180	3c020000		lhi	%GPR2,$0	
466	0181	00000000		nop
467	0182	00000000		nop
468	0183	00000000		nop
469				; Automatically 1 NOPs removed by reduceNOPs.sh
470	0184	34420000		ori	%GPR2,%GPR2,$0	
471	0185	00000000		nop
472	0186	00000000		nop
473	0187	00000000		nop
474				; Automatically 1 NOPs removed by reduceNOPs.sh
475	0188	2bbd0008		subi	%GPR29,%GPR29,$8	
476	0189	00000000		nop
477	018a	00000000		nop
478	018b	00000000		nop
479				; Automatically 1 NOPs removed by reduceNOPs.sh
480	018c	0c00035d		jal	storeByte	
481	018d	00000000		nop
482	018e	00000000		nop
483	018f	00000000		nop
484				; Automatically 1 NOPs removed by reduceNOPs.sh
485	0190	23bd0008		addi	%GPR29,%GPR29,$8	
486	0191	00000000		nop
487	0192	00000000		nop
488	0193	00000000		nop
489				; Automatically 6 NOPs removed by reduceNOPs.sh
490	0194	3c1c0000		lhi	%GPR28,$0	
491	0195	00000000		nop
492	0196	00000000		nop
493	0197	00000000		nop
494				; Automatically 1 NOPs removed by reduceNOPs.sh
495	0198	379c0000		ori	%GPR28,%GPR28,$0	
496	0199	00000000		nop	;;12,16
497	019a	00000000		nop	;;12,16
498	019b	00000000		nop	;;12,16
499				; Automatically 1 NOPs removed by reduceNOPs.sh
500	019c	08000004		j	L_intToStr_10	
501	019d	00000000		nop
502	019e	00000000		nop
503	019f	00000000		nop
504				; Automatically 1 NOPs removed by reduceNOPs.sh
505			L_intToStr_10:
506	01a0	00000000		nop
507	01a1	00000000		nop
508	01a2	00000000		nop
509				; Automatically 1 NOPs removed by reduceNOPs.sh
510	01a3	8fdf0004		lw	%GPR31,4(%GPR30)	
511	01a4	27dd0004		addui	%GPR29,%GPR30,$4	
512	01a5	00000000		nop	; Automatically added by fix-stall-insns.pl
513	01a6	00000000		nop	; Automatically added by fix-stall-insns.pl
514	01a7	00000000		nop	; Automatically added by fix-stall-insns.pl
515	01a8	8fde0000		lw	%GPR30,0(%GPR30)	
516	01a9	00000000		nop
517	01aa	00000000		nop
518	01ab	00000000		nop
519	01ac	00000000		nop	; Automatically added by fix-stall-insns.pl
520	01ad	00000000		nop
521	01ae	03e00008		jr	%GPR31	
522	01af	00000000		nop
523	01b0	00000000		nop
524	01b1	00000000		nop
525				.section	.data
526				.section	.text
527				.addressing	Word
528				;.addressing	Word
529			checkbuffer:
530			L_lib_lcd_dlxsim_1:
531	01b2	00000000		nop
532	01b3	00000000		nop
533	01b4	00000000		nop
534				; Automatically 1 NOPs removed by reduceNOPs.sh
535	01b5	afbefffc		sw	-4(%GPR29),%GPR30	
536	01b6	afbf0000		sw	0(%GPR29),%GPR31	
537	01b7	2fbe0004		subui	%GPR30,%GPR29,$4	
538	01b8	00000000		nop
539	01b9	2bbd0008		subi	%GPR29,%GPR29,$8	
540	01ba	00000000		nop
541	01bb	00000000		nop
542	01bc	00000000		nop
543				; Automatically 9 NOPs removed by reduceNOPs.sh
544	01bd	3c1c0000		lhi	%GPR28,$0	
545	01be	00000000		nop
546	01bf	00000000		nop
547	01c0	00000000		nop
548				; Automatically 1 NOPs removed by reduceNOPs.sh
549	01c1	379c0000		ori	%GPR28,%GPR28,$0	
550	01c2	00000000		nop	;;6,10
551	01c3	00000000		nop	;;6,10
552	01c4	00000000		nop	;;6,10
553				; Automatically 1 NOPs removed by reduceNOPs.sh
554	01c5	08000004		j	L_lib_lcd_dlxsim_2	
555	01c6	00000000		nop
556	01c7	00000000		nop
557	01c8	00000000		nop
558				; Automatically 1 NOPs removed by reduceNOPs.sh
559			L_lib_lcd_dlxsim_2:
560	01c9	00000000		nop
561	01ca	00000000		nop
562	01cb	00000000		nop
563				; Automatically 1 NOPs removed by reduceNOPs.sh
564	01cc	8fdf0004		lw	%GPR31,4(%GPR30)	
565	01cd	27dd0004		addui	%GPR29,%GPR30,$4	
566	01ce	00000000		nop	; Automatically added by fix-stall-insns.pl
567	01cf	00000000		nop	; Automatically added by fix-stall-insns.pl
568	01d0	00000000		nop	; Automatically added by fix-stall-insns.pl
569	01d1	8fde0000		lw	%GPR30,0(%GPR30)	
570	01d2	00000000		nop
571	01d3	00000000		nop
572	01d4	00000000		nop
573	01d5	00000000		nop	; Automatically added by fix-stall-insns.pl
574	01d6	00000000		nop
575	01d7	03e00008		jr	%GPR31	
576	01d8	00000000		nop
577	01d9	00000000		nop
578	01da	00000000		nop
579				; Automatically 1 NOPs removed by reduceNOPs.sh
580			getbytes:
581			L_lib_lcd_dlxsim_3:
582	01db	00000000		nop
583	01dc	00000000		nop
584	01dd	00000000		nop
585				; Automatically 1 NOPs removed by reduceNOPs.sh
586	01de	afbefffc		sw	-4(%GPR29),%GPR30	
587	01df	afbf0000		sw	0(%GPR29),%GPR31	
588	01e0	2fbe0004		subui	%GPR30,%GPR29,$4	
589	01e1	00000000		nop
590	01e2	2bbd0008		subi	%GPR29,%GPR29,$8	
591	01e3	00000000		nop
592	01e4	00000000		nop
593	01e5	00000000		nop
594				; Automatically 11 NOPs removed by reduceNOPs.sh
595	01e6	3c1c0000		lhi	%GPR28,$0	
596	01e7	00000000		nop
597	01e8	00000000		nop
598	01e9	00000000		nop
599				; Automatically 1 NOPs removed by reduceNOPs.sh
600	01ea	379c0000		ori	%GPR28,%GPR28,$0	
601	01eb	00000000		nop	;;7,11
602	01ec	00000000		nop	;;7,11
603	01ed	00000000		nop	;;7,11
604				; Automatically 1 NOPs removed by reduceNOPs.sh
605	01ee	08000004		j	L_lib_lcd_dlxsim_4	
606	01ef	00000000		nop
607	01f0	00000000		nop
608	01f1	00000000		nop
609				; Automatically 1 NOPs removed by reduceNOPs.sh
610			L_lib_lcd_dlxsim_4:
611	01f2	00000000		nop
612	01f3	00000000		nop
613	01f4	00000000		nop
614				; Automatically 1 NOPs removed by reduceNOPs.sh
615	01f5	8fdf0004		lw	%GPR31,4(%GPR30)	
616	01f6	27dd0004		addui	%GPR29,%GPR30,$4	
617	01f7	00000000		nop	; Automatically added by fix-stall-insns.pl
618	01f8	00000000		nop	; Automatically added by fix-stall-insns.pl
619	01f9	00000000		nop	; Automatically added by fix-stall-insns.pl
620	01fa	8fde0000		lw	%GPR30,0(%GPR30)	
621	01fb	00000000		nop
622	01fc	00000000		nop
623	01fd	00000000		nop
624	01fe	00000000		nop	; Automatically added by fix-stall-insns.pl
625	01ff	00000000		nop
626	0200	03e00008		jr	%GPR31	
627	0201	00000000		nop
628	0202	00000000		nop
629	0203	00000000		nop
630				; Automatically 1 NOPs removed by reduceNOPs.sh
631			sendcommand:
632			L_lib_lcd_dlxsim_5:
633	0204	00000000		nop
634	0205	00000000		nop
635	0206	00000000		nop
636				; Automatically 1 NOPs removed by reduceNOPs.sh
637	0207	afbefffc		sw	-4(%GPR29),%GPR30	
638	0208	afbf0000		sw	0(%GPR29),%GPR31	
639	0209	2fbe0004		subui	%GPR30,%GPR29,$4	
640	020a	00000000		nop
641	020b	2bbd0008		subi	%GPR29,%GPR29,$8	
642	020c	00000000		nop
643	020d	00000000		nop
644	020e	00000000		nop
645				; Automatically 11 NOPs removed by reduceNOPs.sh
646	020f	3c1c0000		lhi	%GPR28,$0	
647	0210	00000000		nop
648	0211	00000000		nop
649	0212	00000000		nop
650				; Automatically 1 NOPs removed by reduceNOPs.sh
651	0213	379c0000		ori	%GPR28,%GPR28,$0	
652	0214	00000000		nop	;;7,11
653	0215	00000000		nop	;;7,11
654	0216	00000000		nop	;;7,11
655				; Automatically 1 NOPs removed by reduceNOPs.sh
656	0217	08000004		j	L_lib_lcd_dlxsim_6	
657	0218	00000000		nop
658	0219	00000000		nop
659	021a	00000000		nop
660				; Automatically 1 NOPs removed by reduceNOPs.sh
661			L_lib_lcd_dlxsim_6:
662	021b	00000000		nop
663	021c	00000000		nop
664	021d	00000000		nop
665				; Automatically 1 NOPs removed by reduceNOPs.sh
666	021e	8fdf0004		lw	%GPR31,4(%GPR30)	
667	021f	27dd0004		addui	%GPR29,%GPR30,$4	
668	0220	00000000		nop	; Automatically added by fix-stall-insns.pl
669	0221	00000000		nop	; Automatically added by fix-stall-insns.pl
670	0222	00000000		nop	; Automatically added by fix-stall-insns.pl
671	0223	8fde0000		lw	%GPR30,0(%GPR30)	
672	0224	00000000		nop
673	0225	00000000		nop
674	0226	00000000		nop
675	0227	00000000		nop	; Automatically added by fix-stall-insns.pl
676	0228	00000000		nop
677	0229	03e00008		jr	%GPR31	
678	022a	00000000		nop
679	022b	00000000		nop
680	022c	00000000		nop
681				; Automatically 1 NOPs removed by reduceNOPs.sh
682			t_print:
683			L_lib_lcd_dlxsim_7:
684	022d	00000000		nop
685	022e	00000000		nop
686	022f	00000000		nop
687				; Automatically 1 NOPs removed by reduceNOPs.sh
688	0230	afbefffc		sw	-4(%GPR29),%GPR30	
689	0231	afbf0000		sw	0(%GPR29),%GPR31	
690	0232	2fbe0004		subui	%GPR30,%GPR29,$4	
691	0233	00000000		nop
692	0234	2bbd0008		subi	%GPR29,%GPR29,$8	
693	0235	00000000		nop
694	0236	00000000		nop
695	0237	00000000		nop
696				; Automatically 6 NOPs removed by reduceNOPs.sh
697			
698			
699	0238	3c020200		lhi	%GPR2, $0x200
700	0239	00000000		nop
701	023a	00000000		nop
702	023b	00000000		nop
703			
704	023c	00000000		nop
705	023d	00000000		nop
706	023e	00000000		nop
707			L_lib_lcd_dlxsim_8:
708	023f	00000000		nop	; Automatically Added by addNopAfterLabels.pl
709	0240	80230000		lb	%GPR3,0(%GPR1)	
710	0241	00000000		nop	;;1,4
711	0242	00000000		nop	;;1,4
712	0243	00000000		nop	;;1,4
713	0244	3c040000		lhi	%GPR4,$0	
714	0245	00000000		nop
715	0246	00000000		nop
716	0247	00000000		nop
717				; Automatically 1 NOPs removed by reduceNOPs.sh
718	0248	34840000		ori	%GPR4,%GPR4,$0	
719	0249	00000000		nop	;;4,8
720	024a	00000000		nop	;;4,8
721	024b	00000000		nop	;;4,8
722				; Automatically 1 NOPs removed by reduceNOPs.sh
723	024c	0064d82f		sne	%GPR27,%GPR3,%GPR4	
724	024d	00000000		nop	; Automatically added by findDataDependency.sh
725	024e	00000000		nop	; Automatically added by findDataDependency.sh
726	024f	00000000		nop	; Automatically added by findDataDependency.sh
727	0250	17600008		bnez	%GPR27,L_lib_lcd_dlxsim_9	
728	0251	00000000		nop
729	0252	00000000		nop
730	0253	00000000		nop
731				; Automatically 1 NOPs removed by reduceNOPs.sh
732	0254	0800001b		j	L_lib_lcd_dlxsim_10	
733	0255	00000000		nop
734	0256	00000000		nop
735	0257	00000000		nop
736				; Automatically 1 NOPs removed by reduceNOPs.sh
737			L_lib_lcd_dlxsim_9:
738	0258	00000000		nop	; Automatically Added by addNopAfterLabels.pl
739	0259	00201820		add	%GPR3,%GPR1,%GPR0	
740	025a	00000000		nop	;;0,4
741	025b	00000000		nop	;;0,4
742	025c	00000000		nop	;;0,4
743				; Automatically 1 NOPs removed by reduceNOPs.sh
744	025d	80630000		lb	%GPR3,0(%GPR3)	
745	025e	3c040000		lhi	%GPR4,$0	
746	025f	00000000		nop
747	0260	00000000		nop
748	0261	00000000		nop
749				; Automatically 1 NOPs removed by reduceNOPs.sh
750	0262	34840001		ori	%GPR4,%GPR4,$1	
751	0263	00000000		nop	;;5,9
752	0264	00000000		nop	;;5,9
753	0265	00000000		nop	;;5,9
754				; Automatically 1 NOPs removed by reduceNOPs.sh
755	0266	00240820		add	%GPR1,%GPR1,%GPR4	
756			
757			
758	0267	00000000		nop
759	0268	00000000		nop
760	0269	00000000		nop
761	026a	ac430000		sw	0(%GPR2), %GPR3
762			
763	026b	0bffffd4		j	L_lib_lcd_dlxsim_8	
764	026c	00000000		nop
765	026d	00000000		nop
766	026e	00000000		nop
767			L_lib_lcd_dlxsim_10:
768	026f	00000000		nop	;;0,4
769	0270	00000000		nop	;;0,4
770	0271	00000000		nop	;;0,4
771				; Automatically 1 NOPs removed by reduceNOPs.sh
772	0272	3c1c0000		lhi	%GPR28,$0	
773	0273	00000000		nop
774	0274	00000000		nop
775	0275	00000000		nop
776				; Automatically 1 NOPs removed by reduceNOPs.sh
777	0276	379c0000		ori	%GPR28,%GPR28,$0	
778	0277	00000000		nop	;;4,8
779	0278	00000000		nop	;;4,8
780	0279	00000000		nop	;;4,8
781				; Automatically 1 NOPs removed by reduceNOPs.sh
782	027a	08000004		j	L_lib_lcd_dlxsim_11	
783	027b	00000000		nop
784	027c	00000000		nop
785	027d	00000000		nop
786				; Automatically 1 NOPs removed by reduceNOPs.sh
787			L_lib_lcd_dlxsim_11:
788	027e	00000000		nop
789	027f	00000000		nop
790	0280	00000000		nop
791				; Automatically 1 NOPs removed by reduceNOPs.sh
792	0281	8fdf0004		lw	%GPR31,4(%GPR30)	
793	0282	27dd0004		addui	%GPR29,%GPR30,$4	
794	0283	00000000		nop	; Automatically added by fix-stall-insns.pl
795	0284	00000000		nop	; Automatically added by fix-stall-insns.pl
796	0285	00000000		nop	; Automatically added by fix-stall-insns.pl
797	0286	8fde0000		lw	%GPR30,0(%GPR30)	
798	0287	00000000		nop
799	0288	00000000		nop
800	0289	00000000		nop
801	028a	00000000		nop	; Automatically added by fix-stall-insns.pl
802	028b	00000000		nop
803	028c	03e00008		jr	%GPR31	
804	028d	00000000		nop
805	028e	00000000		nop
806	028f	00000000		nop
807				; Automatically 1 NOPs removed by reduceNOPs.sh
808			t_cursor:
809			L_lib_lcd_dlxsim_12:
810	0290	00000000		nop
811	0291	00000000		nop
812	0292	00000000		nop
813				; Automatically 1 NOPs removed by reduceNOPs.sh
814	0293	afbefffc		sw	-4(%GPR29),%GPR30	
815	0294	afbf0000		sw	0(%GPR29),%GPR31	
816	0295	2fbe0004		subui	%GPR30,%GPR29,$4	
817	0296	00000000		nop
818	0297	2bbd0008		subi	%GPR29,%GPR29,$8	
819	0298	00000000		nop
820	0299	00000000		nop
821	029a	00000000		nop
822				; Automatically 11 NOPs removed by reduceNOPs.sh
823	029b	3c1c0000		lhi	%GPR28,$0	
824	029c	00000000		nop
825	029d	00000000		nop
826	029e	00000000		nop
827				; Automatically 1 NOPs removed by reduceNOPs.sh
828	029f	379c0000		ori	%GPR28,%GPR28,$0	
829	02a0	00000000		nop	;;7,11
830	02a1	00000000		nop	;;7,11
831	02a2	00000000		nop	;;7,11
832				; Automatically 1 NOPs removed by reduceNOPs.sh
833	02a3	08000004		j	L_lib_lcd_dlxsim_13	
834	02a4	00000000		nop
835	02a5	00000000		nop
836	02a6	00000000		nop
837				; Automatically 1 NOPs removed by reduceNOPs.sh
838			L_lib_lcd_dlxsim_13:
839	02a7	00000000		nop
840	02a8	00000000		nop
841	02a9	00000000		nop
842				; Automatically 1 NOPs removed by reduceNOPs.sh
843	02aa	8fdf0004		lw	%GPR31,4(%GPR30)	
844	02ab	27dd0004		addui	%GPR29,%GPR30,$4	
845	02ac	00000000		nop	; Automatically added by fix-stall-insns.pl
846	02ad	00000000		nop	; Automatically added by fix-stall-insns.pl
847	02ae	00000000		nop	; Automatically added by fix-stall-insns.pl
848	02af	8fde0000		lw	%GPR30,0(%GPR30)	
849	02b0	00000000		nop
850	02b1	00000000		nop
851	02b2	00000000		nop
852	02b3	00000000		nop	; Automatically added by fix-stall-insns.pl
853	02b4	00000000		nop
854	02b5	03e00008		jr	%GPR31	
855	02b6	00000000		nop
856	02b7	00000000		nop
857	02b8	00000000		nop
858				; Automatically 1 NOPs removed by reduceNOPs.sh
859			t_enable:
860			L_lib_lcd_dlxsim_14:
861	02b9	00000000		nop
862	02ba	00000000		nop
863	02bb	00000000		nop
864				; Automatically 1 NOPs removed by reduceNOPs.sh
865	02bc	afbefffc		sw	-4(%GPR29),%GPR30	
866	02bd	afbf0000		sw	0(%GPR29),%GPR31	
867	02be	2fbe0004		subui	%GPR30,%GPR29,$4	
868	02bf	00000000		nop
869	02c0	2bbd0008		subi	%GPR29,%GPR29,$8	
870	02c1	00000000		nop
871	02c2	00000000		nop
872	02c3	00000000		nop
873				; Automatically 11 NOPs removed by reduceNOPs.sh
874	02c4	3c1c0000		lhi	%GPR28,$0	
875	02c5	00000000		nop
876	02c6	00000000		nop
877	02c7	00000000		nop
878				; Automatically 1 NOPs removed by reduceNOPs.sh
879	02c8	379c0000		ori	%GPR28,%GPR28,$0	
880	02c9	00000000		nop	;;7,11
881	02ca	00000000		nop	;;7,11
882	02cb	00000000		nop	;;7,11
883				; Automatically 1 NOPs removed by reduceNOPs.sh
884	02cc	08000004		j	L_lib_lcd_dlxsim_15	
885	02cd	00000000		nop
886	02ce	00000000		nop
887	02cf	00000000		nop
888				; Automatically 1 NOPs removed by reduceNOPs.sh
889			L_lib_lcd_dlxsim_15:
890	02d0	00000000		nop
891	02d1	00000000		nop
892	02d2	00000000		nop
893				; Automatically 1 NOPs removed by reduceNOPs.sh
894	02d3	8fdf0004		lw	%GPR31,4(%GPR30)	
895	02d4	27dd0004		addui	%GPR29,%GPR30,$4	
896	02d5	00000000		nop	; Automatically added by fix-stall-insns.pl
897	02d6	00000000		nop	; Automatically added by fix-stall-insns.pl
898	02d7	00000000		nop	; Automatically added by fix-stall-insns.pl
899	02d8	8fde0000		lw	%GPR30,0(%GPR30)	
900	02d9	00000000		nop
901	02da	00000000		nop
902	02db	00000000		nop
903	02dc	00000000		nop	; Automatically added by fix-stall-insns.pl
904	02dd	00000000		nop
905	02de	03e00008		jr	%GPR31	
906	02df	00000000		nop
907	02e0	00000000		nop
908	02e1	00000000		nop
909				; Automatically 1 NOPs removed by reduceNOPs.sh
910			g_print:
911			L_lib_lcd_dlxsim_16:
912	02e2	00000000		nop
913	02e3	00000000		nop
914	02e4	00000000		nop
915				; Automatically 1 NOPs removed by reduceNOPs.sh
916	02e5	afbefffc		sw	-4(%GPR29),%GPR30	
917	02e6	afbf0000		sw	0(%GPR29),%GPR31	
918	02e7	2fbe0004		subui	%GPR30,%GPR29,$4	
919	02e8	00000000		nop
920	02e9	2bbd0008		subi	%GPR29,%GPR29,$8	
921	02ea	00000000		nop
922	02eb	00000000		nop
923	02ec	00000000		nop
924				; Automatically 11 NOPs removed by reduceNOPs.sh
925	02ed	3c1c0000		lhi	%GPR28,$0	
926	02ee	00000000		nop
927	02ef	00000000		nop
928	02f0	00000000		nop
929				; Automatically 1 NOPs removed by reduceNOPs.sh
930	02f1	379c0000		ori	%GPR28,%GPR28,$0	
931	02f2	00000000		nop	;;7,11
932	02f3	00000000		nop	;;7,11
933	02f4	00000000		nop	;;7,11
934				; Automatically 1 NOPs removed by reduceNOPs.sh
935	02f5	08000004		j	L_lib_lcd_dlxsim_17	
936	02f6	00000000		nop
937	02f7	00000000		nop
938	02f8	00000000		nop
939				; Automatically 1 NOPs removed by reduceNOPs.sh
940			L_lib_lcd_dlxsim_17:
941	02f9	00000000		nop
942	02fa	00000000		nop
943	02fb	00000000		nop
944				; Automatically 1 NOPs removed by reduceNOPs.sh
945	02fc	8fdf0004		lw	%GPR31,4(%GPR30)	
946	02fd	27dd0004		addui	%GPR29,%GPR30,$4	
947	02fe	00000000		nop	; Automatically added by fix-stall-insns.pl
948	02ff	00000000		nop	; Automatically added by fix-stall-insns.pl
949	0300	00000000		nop	; Automatically added by fix-stall-insns.pl
950	0301	8fde0000		lw	%GPR30,0(%GPR30)	
951	0302	00000000		nop
952	0303	00000000		nop
953	0304	00000000		nop
954	0305	00000000		nop	; Automatically added by fix-stall-insns.pl
955	0306	00000000		nop
956	0307	03e00008		jr	%GPR31	
957	0308	00000000		nop
958	0309	00000000		nop
959	030a	00000000		nop
960				; Automatically 1 NOPs removed by reduceNOPs.sh
961			g_drawrect:
962			L_lib_lcd_dlxsim_18:
963	030b	00000000		nop
964	030c	00000000		nop
965	030d	00000000		nop
966				; Automatically 1 NOPs removed by reduceNOPs.sh
967	030e	afbefffc		sw	-4(%GPR29),%GPR30	
968	030f	afbf0000		sw	0(%GPR29),%GPR31	
969	0310	2fbe0004		subui	%GPR30,%GPR29,$4	
970	0311	00000000		nop
971	0312	2bbd0008		subi	%GPR29,%GPR29,$8	
972	0313	00000000		nop
973	0314	00000000		nop
974	0315	00000000		nop
975				; Automatically 11 NOPs removed by reduceNOPs.sh
976	0316	3c1c0000		lhi	%GPR28,$0	
977	0317	00000000		nop
978	0318	00000000		nop
979	0319	00000000		nop
980				; Automatically 1 NOPs removed by reduceNOPs.sh
981	031a	379c0000		ori	%GPR28,%GPR28,$0	
982	031b	00000000		nop	;;7,11
983	031c	00000000		nop	;;7,11
984	031d	00000000		nop	;;7,11
985				; Automatically 1 NOPs removed by reduceNOPs.sh
986	031e	08000004		j	L_lib_lcd_dlxsim_19	
987	031f	00000000		nop
988	0320	00000000		nop
989	0321	00000000		nop
990				; Automatically 1 NOPs removed by reduceNOPs.sh
991			L_lib_lcd_dlxsim_19:
992	0322	00000000		nop
993	0323	00000000		nop
994	0324	00000000		nop
995				; Automatically 1 NOPs removed by reduceNOPs.sh
996	0325	8fdf0004		lw	%GPR31,4(%GPR30)	
997	0326	27dd0004		addui	%GPR29,%GPR30,$4	
998	0327	00000000		nop	; Automatically added by fix-stall-insns.pl
999	0328	00000000		nop	; Automatically added by fix-stall-insns.pl
1000	0329	00000000		nop	; Automatically added by fix-stall-insns.pl
1001	032a	8fde0000		lw	%GPR30,0(%GPR30)	
1002	032b	00000000		nop
1003	032c	00000000		nop
1004	032d	00000000		nop
1005	032e	00000000		nop	; Automatically added by fix-stall-insns.pl
1006	032f	00000000		nop
1007	0330	03e00008		jr	%GPR31	
1008	0331	00000000		nop
1009	0332	00000000		nop
1010	0333	00000000		nop
1011				; Automatically 1 NOPs removed by reduceNOPs.sh
1012			g_drawline:
1013			L_lib_lcd_dlxsim_20:
1014	0334	00000000		nop
1015	0335	00000000		nop
1016	0336	00000000		nop
1017				; Automatically 1 NOPs removed by reduceNOPs.sh
1018	0337	afbefffc		sw	-4(%GPR29),%GPR30	
1019	0338	afbf0000		sw	0(%GPR29),%GPR31	
1020	0339	2fbe0004		subui	%GPR30,%GPR29,$4	
1021	033a	00000000		nop
1022	033b	2bbd0008		subi	%GPR29,%GPR29,$8	
1023	033c	00000000		nop
1024	033d	00000000		nop
1025	033e	00000000		nop
1026				; Automatically 11 NOPs removed by reduceNOPs.sh
1027	033f	3c1c0000		lhi	%GPR28,$0	
1028	0340	00000000		nop
1029	0341	00000000		nop
1030	0342	00000000		nop
1031				; Automatically 1 NOPs removed by reduceNOPs.sh
1032	0343	379c0000		ori	%GPR28,%GPR28,$0	
1033	0344	00000000		nop	;;7,11
1034	0345	00000000		nop	;;7,11
1035	0346	00000000		nop	;;7,11
1036				; Automatically 1 NOPs removed by reduceNOPs.sh
1037	0347	08000004		j	L_lib_lcd_dlxsim_21	
1038	0348	00000000		nop
1039	0349	00000000		nop
1040	034a	00000000		nop
1041				; Automatically 1 NOPs removed by reduceNOPs.sh
1042			L_lib_lcd_dlxsim_21:
1043	034b	00000000		nop
1044	034c	00000000		nop
1045	034d	00000000		nop
1046				; Automatically 1 NOPs removed by reduceNOPs.sh
1047	034e	8fdf0004		lw	%GPR31,4(%GPR30)	
1048	034f	27dd0004		addui	%GPR29,%GPR30,$4	
1049	0350	00000000		nop	; Automatically added by fix-stall-insns.pl
1050	0351	00000000		nop	; Automatically added by fix-stall-insns.pl
1051	0352	00000000		nop	; Automatically added by fix-stall-insns.pl
1052	0353	8fde0000		lw	%GPR30,0(%GPR30)	
1053	0354	00000000		nop
1054	0355	00000000		nop
1055	0356	00000000		nop
1056	0357	00000000		nop	; Automatically added by fix-stall-insns.pl
1057	0358	00000000		nop
1058	0359	03e00008		jr	%GPR31	
1059	035a	00000000		nop
1060	035b	00000000		nop
1061	035c	00000000		nop
1062				; Automatically 1 NOPs removed by reduceNOPs.sh
1063			g_makebar:
1064			L_lib_lcd_dlxsim_22:
1065	035d	00000000		nop
1066	035e	00000000		nop
1067	035f	00000000		nop
1068				; Automatically 1 NOPs removed by reduceNOPs.sh
1069	0360	afbefffc		sw	-4(%GPR29),%GPR30	
1070	0361	afbf0000		sw	0(%GPR29),%GPR31	
1071	0362	2fbe0004		subui	%GPR30,%GPR29,$4	
1072	0363	00000000		nop
1073	0364	2bbd0008		subi	%GPR29,%GPR29,$8	
1074	0365	00000000		nop
1075	0366	00000000		nop
1076	0367	00000000		nop
1077				; Automatically 11 NOPs removed by reduceNOPs.sh
1078	0368	3c1c0000		lhi	%GPR28,$0	
1079	0369	00000000		nop
1080	036a	00000000		nop
1081	036b	00000000		nop
1082				; Automatically 1 NOPs removed by reduceNOPs.sh
1083	036c	379c0000		ori	%GPR28,%GPR28,$0	
1084	036d	00000000		nop	;;7,11
1085	036e	00000000		nop	;;7,11
1086	036f	00000000		nop	;;7,11
1087				; Automatically 1 NOPs removed by reduceNOPs.sh
1088	0370	08000004		j	L_lib_lcd_dlxsim_23	
1089	0371	00000000		nop
1090	0372	00000000		nop
1091	0373	00000000		nop
1092				; Automatically 1 NOPs removed by reduceNOPs.sh
1093			L_lib_lcd_dlxsim_23:
1094	0374	00000000		nop
1095	0375	00000000		nop
1096	0376	00000000		nop
1097				; Automatically 1 NOPs removed by reduceNOPs.sh
1098	0377	8fdf0004		lw	%GPR31,4(%GPR30)	
1099	0378	27dd0004		addui	%GPR29,%GPR30,$4	
1100	0379	00000000		nop	; Automatically added by fix-stall-insns.pl
1101	037a	00000000		nop	; Automatically added by fix-stall-insns.pl
1102	037b	00000000		nop	; Automatically added by fix-stall-insns.pl
1103	037c	8fde0000		lw	%GPR30,0(%GPR30)	
1104	037d	00000000		nop
1105	037e	00000000		nop
1106	037f	00000000		nop
1107	0380	00000000		nop	; Automatically added by fix-stall-insns.pl
1108	0381	00000000		nop
1109	0382	03e00008		jr	%GPR31	
1110	0383	00000000		nop
1111	0384	00000000		nop
1112	0385	00000000		nop
1113				; Automatically 1 NOPs removed by reduceNOPs.sh
1114			g_setbar:
1115			L_lib_lcd_dlxsim_24:
1116	0386	00000000		nop
1117	0387	00000000		nop
1118	0388	00000000		nop
1119				; Automatically 1 NOPs removed by reduceNOPs.sh
1120	0389	afbefffc		sw	-4(%GPR29),%GPR30	
1121	038a	afbf0000		sw	0(%GPR29),%GPR31	
1122	038b	2fbe0004		subui	%GPR30,%GPR29,$4	
1123	038c	00000000		nop
1124	038d	2bbd0008		subi	%GPR29,%GPR29,$8	
1125	038e	00000000		nop
1126	038f	00000000		nop
1127	0390	00000000		nop
1128				; Automatically 11 NOPs removed by reduceNOPs.sh
1129	0391	3c1c0000		lhi	%GPR28,$0	
1130	0392	00000000		nop
1131	0393	00000000		nop
1132	0394	00000000		nop
1133				; Automatically 1 NOPs removed by reduceNOPs.sh
1134	0395	379c0000		ori	%GPR28,%GPR28,$0	
1135	0396	00000000		nop	;;7,11
1136	0397	00000000		nop	;;7,11
1137	0398	00000000		nop	;;7,11
1138				; Automatically 1 NOPs removed by reduceNOPs.sh
1139	0399	08000004		j	L_lib_lcd_dlxsim_25	
1140	039a	00000000		nop
1141	039b	00000000		nop
1142	039c	00000000		nop
1143				; Automatically 1 NOPs removed by reduceNOPs.sh
1144			L_lib_lcd_dlxsim_25:
1145	039d	00000000		nop
1146	039e	00000000		nop
1147	039f	00000000		nop
1148				; Automatically 1 NOPs removed by reduceNOPs.sh
1149	03a0	8fdf0004		lw	%GPR31,4(%GPR30)	
1150	03a1	27dd0004		addui	%GPR29,%GPR30,$4	
1151	03a2	00000000		nop	; Automatically added by fix-stall-insns.pl
1152	03a3	00000000		nop	; Automatically added by fix-stall-insns.pl
1153	03a4	00000000		nop	; Automatically added by fix-stall-insns.pl
1154	03a5	8fde0000		lw	%GPR30,0(%GPR30)	
1155	03a6	00000000		nop
1156	03a7	00000000		nop
1157	03a8	00000000		nop
1158	03a9	00000000		nop	; Automatically added by fix-stall-insns.pl
1159	03aa	00000000		nop
1160	03ab	03e00008		jr	%GPR31	
1161	03ac	00000000		nop
1162	03ad	00000000		nop
1163	03ae	00000000		nop
1164				; Automatically 1 NOPs removed by reduceNOPs.sh
1165			g_makeswitch:
1166			L_lib_lcd_dlxsim_26:
1167	03af	00000000		nop
1168	03b0	00000000		nop
1169	03b1	00000000		nop
1170				; Automatically 1 NOPs removed by reduceNOPs.sh
1171	03b2	afbefffc		sw	-4(%GPR29),%GPR30	
1172	03b3	afbf0000		sw	0(%GPR29),%GPR31	
1173	03b4	2fbe0004		subui	%GPR30,%GPR29,$4	
1174	03b5	00000000		nop
1175	03b6	2bbd0008		subi	%GPR29,%GPR29,$8	
1176	03b7	00000000		nop
1177	03b8	00000000		nop
1178	03b9	00000000		nop
1179				; Automatically 11 NOPs removed by reduceNOPs.sh
1180	03ba	3c1c0000		lhi	%GPR28,$0	
1181	03bb	00000000		nop
1182	03bc	00000000		nop
1183	03bd	00000000		nop
1184				; Automatically 1 NOPs removed by reduceNOPs.sh
1185	03be	379c0000		ori	%GPR28,%GPR28,$0	
1186	03bf	00000000		nop	;;7,11
1187	03c0	00000000		nop	;;7,11
1188	03c1	00000000		nop	;;7,11
1189				; Automatically 1 NOPs removed by reduceNOPs.sh
1190	03c2	08000004		j	L_lib_lcd_dlxsim_27	
1191	03c3	00000000		nop
1192	03c4	00000000		nop
1193	03c5	00000000		nop
1194				; Automatically 1 NOPs removed by reduceNOPs.sh
1195			L_lib_lcd_dlxsim_27:
1196	03c6	00000000		nop
1197	03c7	00000000		nop
1198	03c8	00000000		nop
1199				; Automatically 1 NOPs removed by reduceNOPs.sh
1200	03c9	8fdf0004		lw	%GPR31,4(%GPR30)	
1201	03ca	27dd0004		addui	%GPR29,%GPR30,$4	
1202	03cb	00000000		nop	; Automatically added by fix-stall-insns.pl
1203	03cc	00000000		nop	; Automatically added by fix-stall-insns.pl
1204	03cd	00000000		nop	; Automatically added by fix-stall-insns.pl
1205	03ce	8fde0000		lw	%GPR30,0(%GPR30)	
1206	03cf	00000000		nop
1207	03d0	00000000		nop
1208	03d1	00000000		nop
1209	03d2	00000000		nop	; Automatically added by fix-stall-insns.pl
1210	03d3	00000000		nop
1211	03d4	03e00008		jr	%GPR31	
1212	03d5	00000000		nop
1213	03d6	00000000		nop
1214	03d7	00000000		nop
1215				; Automatically 1 NOPs removed by reduceNOPs.sh
1216			g_makemenubutton:
1217			L_lib_lcd_dlxsim_28:
1218	03d8	00000000		nop
1219	03d9	00000000		nop
1220	03da	00000000		nop
1221				; Automatically 1 NOPs removed by reduceNOPs.sh
1222	03db	afbefffc		sw	-4(%GPR29),%GPR30	
1223	03dc	afbf0000		sw	0(%GPR29),%GPR31	
1224	03dd	2fbe0004		subui	%GPR30,%GPR29,$4	
1225	03de	00000000		nop
1226	03df	2bbd0008		subi	%GPR29,%GPR29,$8	
1227	03e0	00000000		nop
1228	03e1	00000000		nop
1229	03e2	00000000		nop
1230				; Automatically 11 NOPs removed by reduceNOPs.sh
1231	03e3	3c1c0000		lhi	%GPR28,$0	
1232	03e4	00000000		nop
1233	03e5	00000000		nop
1234	03e6	00000000		nop
1235				; Automatically 1 NOPs removed by reduceNOPs.sh
1236	03e7	379c0000		ori	%GPR28,%GPR28,$0	
1237	03e8	00000000		nop	;;7,11
1238	03e9	00000000		nop	;;7,11
1239	03ea	00000000		nop	;;7,11
1240				; Automatically 1 NOPs removed by reduceNOPs.sh
1241	03eb	08000004		j	L_lib_lcd_dlxsim_29	
1242	03ec	00000000		nop
1243	03ed	00000000		nop
1244	03ee	00000000		nop
1245				; Automatically 1 NOPs removed by reduceNOPs.sh
1246			L_lib_lcd_dlxsim_29:
1247	03ef	00000000		nop
1248	03f0	00000000		nop
1249	03f1	00000000		nop
1250				; Automatically 1 NOPs removed by reduceNOPs.sh
1251	03f2	8fdf0004		lw	%GPR31,4(%GPR30)	
1252	03f3	27dd0004		addui	%GPR29,%GPR30,$4	
1253	03f4	00000000		nop	; Automatically added by fix-stall-insns.pl
1254	03f5	00000000		nop	; Automatically added by fix-stall-insns.pl
1255	03f6	00000000		nop	; Automatically added by fix-stall-insns.pl
1256	03f7	8fde0000		lw	%GPR30,0(%GPR30)	
1257	03f8	00000000		nop
1258	03f9	00000000		nop
1259	03fa	00000000		nop
1260	03fb	00000000		nop	; Automatically added by fix-stall-insns.pl
1261	03fc	00000000		nop
1262	03fd	03e00008		jr	%GPR31	
1263	03fe	00000000		nop
1264	03ff	00000000		nop
1265	0400	00000000		nop
1266				; Automatically 1 NOPs removed by reduceNOPs.sh
1267			g_makeradiogroup:
1268			L_lib_lcd_dlxsim_30:
1269	0401	00000000		nop
1270	0402	00000000		nop
1271	0403	00000000		nop
1272				; Automatically 1 NOPs removed by reduceNOPs.sh
1273	0404	afbefffc		sw	-4(%GPR29),%GPR30	
1274	0405	afbf0000		sw	0(%GPR29),%GPR31	
1275	0406	2fbe0004		subui	%GPR30,%GPR29,$4	
1276	0407	00000000		nop
1277	0408	2bbd0008		subi	%GPR29,%GPR29,$8	
1278	0409	00000000		nop
1279	040a	00000000		nop
1280	040b	00000000		nop
1281				; Automatically 11 NOPs removed by reduceNOPs.sh
1282	040c	3c1c0000		lhi	%GPR28,$0	
1283	040d	00000000		nop
1284	040e	00000000		nop
1285	040f	00000000		nop
1286				; Automatically 1 NOPs removed by reduceNOPs.sh
1287	0410	379c0000		ori	%GPR28,%GPR28,$0	
1288	0411	00000000		nop	;;7,11
1289	0412	00000000		nop	;;7,11
1290	0413	00000000		nop	;;7,11
1291				; Automatically 1 NOPs removed by reduceNOPs.sh
1292	0414	08000004		j	L_lib_lcd_dlxsim_31	
1293	0415	00000000		nop
1294	0416	00000000		nop
1295	0417	00000000		nop
1296				; Automatically 1 NOPs removed by reduceNOPs.sh
1297			L_lib_lcd_dlxsim_31:
1298	0418	00000000		nop
1299	0419	00000000		nop
1300	041a	00000000		nop
1301				; Automatically 1 NOPs removed by reduceNOPs.sh
1302	041b	8fdf0004		lw	%GPR31,4(%GPR30)	
1303	041c	27dd0004		addui	%GPR29,%GPR30,$4	
1304	041d	00000000		nop	; Automatically added by fix-stall-insns.pl
1305	041e	00000000		nop	; Automatically added by fix-stall-insns.pl
1306	041f	00000000		nop	; Automatically added by fix-stall-insns.pl
1307	0420	8fde0000		lw	%GPR30,0(%GPR30)	
1308	0421	00000000		nop
1309	0422	00000000		nop
1310	0423	00000000		nop
1311	0424	00000000		nop	; Automatically added by fix-stall-insns.pl
1312	0425	00000000		nop
1313	0426	03e00008		jr	%GPR31	
1314	0427	00000000		nop
1315	0428	00000000		nop
1316	0429	00000000		nop
1317				; Automatically 1 NOPs removed by reduceNOPs.sh
1318			d_clear:
1319			L_lib_lcd_dlxsim_32:
1320	042a	00000000		nop
1321	042b	00000000		nop
1322	042c	00000000		nop
1323				; Automatically 1 NOPs removed by reduceNOPs.sh
1324	042d	afbefffc		sw	-4(%GPR29),%GPR30	
1325	042e	afbf0000		sw	0(%GPR29),%GPR31	
1326	042f	2fbe0004		subui	%GPR30,%GPR29,$4	
1327	0430	00000000		nop
1328	0431	2bbd0008		subi	%GPR29,%GPR29,$8	
1329	0432	00000000		nop
1330	0433	00000000		nop
1331	0434	00000000		nop
1332				; Automatically 9 NOPs removed by reduceNOPs.sh
1333	0435	3c1c0000		lhi	%GPR28,$0	
1334	0436	00000000		nop
1335	0437	00000000		nop
1336	0438	00000000		nop
1337				; Automatically 1 NOPs removed by reduceNOPs.sh
1338	0439	379c0000		ori	%GPR28,%GPR28,$0	
1339	043a	00000000		nop	;;6,10
1340	043b	00000000		nop	;;6,10
1341	043c	00000000		nop	;;6,10
1342				; Automatically 1 NOPs removed by reduceNOPs.sh
1343	043d	08000004		j	L_lib_lcd_dlxsim_33	
1344	043e	00000000		nop
1345	043f	00000000		nop
1346	0440	00000000		nop
1347				; Automatically 1 NOPs removed by reduceNOPs.sh
1348			L_lib_lcd_dlxsim_33:
1349	0441	00000000		nop
1350	0442	00000000		nop
1351	0443	00000000		nop
1352				; Automatically 1 NOPs removed by reduceNOPs.sh
1353	0444	8fdf0004		lw	%GPR31,4(%GPR30)	
1354	0445	27dd0004		addui	%GPR29,%GPR30,$4	
1355	0446	00000000		nop	; Automatically added by fix-stall-insns.pl
1356	0447	00000000		nop	; Automatically added by fix-stall-insns.pl
1357	0448	00000000		nop	; Automatically added by fix-stall-insns.pl
1358	0449	8fde0000		lw	%GPR30,0(%GPR30)	
1359	044a	00000000		nop
1360	044b	00000000		nop
1361	044c	00000000		nop
1362	044d	00000000		nop	; Automatically added by fix-stall-insns.pl
1363	044e	00000000		nop
1364	044f	03e00008		jr	%GPR31	
1365	0450	00000000		nop
1366	0451	00000000		nop
1367	0452	00000000		nop
1368				.section	.data
1369				.section	.text
1370				.addressing	Word
1371				;.addressing	Word
1372			loadByteUnsigned:
1373			L_loadStoreByte_1:
1374	0453	00000000		nop
1375	0454	00000000		nop
1376	0455	00000000		nop
1377				; Automatically 1 NOPs removed by reduceNOPs.sh
1378	0456	afbefffc		sw	-4(%GPR29),%GPR30	
1379	0457	afbf0000		sw	0(%GPR29),%GPR31	
1380	0458	2fbe0004		subui	%GPR30,%GPR29,$4	
1381	0459	00000000		nop
1382	045a	2bbd0008		subi	%GPR29,%GPR29,$8	
1383	045b	00000000		nop
1384	045c	00000000		nop
1385	045d	00000000		nop
1386				; Automatically 1 NOPs removed by reduceNOPs.sh
1387	045e	00201020		add	%GPR2,%GPR1,%GPR0	
1388	045f	00000000		nop
1389	0460	00000000		nop
1390	0461	00000000		nop
1391	0462	30410003		andi	%GPR1,%GPR2,$3	
1392	0463	00000000		nop	;;3,7
1393	0464	00000000		nop	;;3,7
1394	0465	00000000		nop	;;3,7
1395				; Automatically 1 NOPs removed by reduceNOPs.sh
1396	0466	20230001		addi	%GPR3,%GPR1,$1	
1397	0467	00000000		nop
1398	0468	00000000		nop
1399	0469	00000000		nop
1400				; Automatically 1 NOPs removed by reduceNOPs.sh
1401	046a	00031823		subu	%GPR3,%GPR0,%GPR3	
1402	046b	3c01ffff		lhi	%GPR1,$65535	
1403	046c	00000000		nop
1404	046d	00000000		nop
1405	046e	00000000		nop
1406				; Automatically 1 NOPs removed by reduceNOPs.sh
1407	046f	3421fffc		ori	%GPR1,%GPR1,$-4	
1408	0470	00000000		nop	;;8,12
1409	0471	00000000		nop	;;8,12
1410	0472	00000000		nop	;;8,12
1411				; Automatically 1 NOPs removed by reduceNOPs.sh
1412	0473	00410824		and	%GPR1,%GPR2,%GPR1	
1413	0474	40620003		slli	%GPR2,%GPR3,$3	
1414	0475	00000000		nop	;;13,16
1415	0476	00000000		nop	;;13,16
1416	0477	00000000		nop	;;13,16
1417	0478	8c210000		lw	%GPR1,0(%GPR1)	
1418	0479	00000000		nop	;;16,20
1419	047a	00000000		nop	;;16,20
1420	047b	00000000		nop	;;16,20
1421				; Automatically 1 NOPs removed by reduceNOPs.sh
1422	047c	00220803		sra	%GPR1,%GPR1,%GPR2	
1423	047d	00000000		nop	;;20,24
1424	047e	00000000		nop	;;20,24
1425	047f	00000000		nop	;;20,24
1426				; Automatically 1 NOPs removed by reduceNOPs.sh
1427	0480	303c00ff		andi	%GPR28,%GPR1,$255	
1428	0481	00000000		nop	;;24,28
1429	0482	00000000		nop	;;24,28
1430	0483	00000000		nop	;;24,28
1431				; Automatically 1 NOPs removed by reduceNOPs.sh
1432	0484	08000004		j	L_loadStoreByte_2	
1433	0485	00000000		nop
1434	0486	00000000		nop
1435	0487	00000000		nop
1436				; Automatically 1 NOPs removed by reduceNOPs.sh
1437			L_loadStoreByte_2:
1438	0488	00000000		nop
1439	0489	00000000		nop
1440	048a	00000000		nop
1441				; Automatically 1 NOPs removed by reduceNOPs.sh
1442	048b	8fdf0004		lw	%GPR31,4(%GPR30)	
1443	048c	27dd0004		addui	%GPR29,%GPR30,$4	
1444	048d	00000000		nop	; Automatically added by fix-stall-insns.pl
1445	048e	00000000		nop	; Automatically added by fix-stall-insns.pl
1446	048f	00000000		nop	; Automatically added by fix-stall-insns.pl
1447	0490	8fde0000		lw	%GPR30,0(%GPR30)	
1448	0491	00000000		nop
1449	0492	00000000		nop
1450	0493	00000000		nop
1451	0494	00000000		nop	; Automatically added by fix-stall-insns.pl
1452	0495	00000000		nop
1453	0496	03e00008		jr	%GPR31	
1454	0497	00000000		nop
1455	0498	00000000		nop
1456	0499	00000000		nop
1457				; Automatically 1 NOPs removed by reduceNOPs.sh
1458			loadByteSigned:
1459			L_loadStoreByte_3:
1460	049a	00000000		nop
1461	049b	00000000		nop
1462	049c	00000000		nop
1463				; Automatically 1 NOPs removed by reduceNOPs.sh
1464	049d	afbefffc		sw	-4(%GPR29),%GPR30	
1465	049e	afbf0000		sw	0(%GPR29),%GPR31	
1466	049f	2fbe0004		subui	%GPR30,%GPR29,$4	
1467	04a0	00000000		nop
1468	04a1	2bbd0008		subi	%GPR29,%GPR29,$8	
1469	04a2	00000000		nop
1470	04a3	00000000		nop
1471	04a4	00000000		nop
1472				; Automatically 1 NOPs removed by reduceNOPs.sh
1473	04a5	00201020		add	%GPR2,%GPR1,%GPR0	
1474	04a6	00000000		nop
1475	04a7	00000000		nop
1476	04a8	00000000		nop
1477	04a9	30410003		andi	%GPR1,%GPR2,$3	
1478	04aa	00000000		nop	;;3,7
1479	04ab	00000000		nop	;;3,7
1480	04ac	00000000		nop	;;3,7
1481				; Automatically 1 NOPs removed by reduceNOPs.sh
1482	04ad	20230001		addi	%GPR3,%GPR1,$1	
1483	04ae	00000000		nop
1484	04af	00000000		nop
1485	04b0	00000000		nop
1486				; Automatically 1 NOPs removed by reduceNOPs.sh
1487	04b1	00031823		subu	%GPR3,%GPR0,%GPR3	
1488	04b2	3c01ffff		lhi	%GPR1,$65535	
1489	04b3	00000000		nop
1490	04b4	00000000		nop
1491	04b5	00000000		nop
1492				; Automatically 1 NOPs removed by reduceNOPs.sh
1493	04b6	3421fffc		ori	%GPR1,%GPR1,$-4	
1494	04b7	00000000		nop	;;8,12
1495	04b8	00000000		nop	;;8,12
1496	04b9	00000000		nop	;;8,12
1497				; Automatically 1 NOPs removed by reduceNOPs.sh
1498	04ba	00410824		and	%GPR1,%GPR2,%GPR1	
1499	04bb	40620003		slli	%GPR2,%GPR3,$3	
1500	04bc	00000000		nop	;;13,16
1501	04bd	00000000		nop	;;13,16
1502	04be	00000000		nop	;;13,16
1503	04bf	8c210000		lw	%GPR1,0(%GPR1)	
1504	04c0	00000000		nop	;;16,20
1505	04c1	00000000		nop	;;16,20
1506	04c2	00000000		nop	;;16,20
1507				; Automatically 1 NOPs removed by reduceNOPs.sh
1508	04c3	00220803		sra	%GPR1,%GPR1,%GPR2	
1509	04c4	00000000		nop	;;20,24
1510	04c5	00000000		nop	;;20,24
1511	04c6	00000000		nop	;;20,24
1512				; Automatically 1 NOPs removed by reduceNOPs.sh
1513	04c7	302100ff		andi	%GPR1,%GPR1,$255	
1514	04c8	00000000		nop	;;24,28
1515	04c9	00000000		nop	;;24,28
1516	04ca	00000000		nop	;;24,28
1517				; Automatically 1 NOPs removed by reduceNOPs.sh
1518	04cb	40210018		slli	%GPR1,%GPR1,$24	
1519	04cc	00000000		nop	;;28,32
1520	04cd	00000000		nop	;;28,32
1521	04ce	00000000		nop	;;28,32
1522				; Automatically 1 NOPs removed by reduceNOPs.sh
1523	04cf	483c0018		srai	%GPR28,%GPR1,$24	
1524	04d0	00000000		nop	;;32,36
1525	04d1	00000000		nop	;;32,36
1526	04d2	00000000		nop	;;32,36
1527				; Automatically 1 NOPs removed by reduceNOPs.sh
1528	04d3	08000004		j	L_loadStoreByte_4	
1529	04d4	00000000		nop
1530	04d5	00000000		nop
1531	04d6	00000000		nop
1532				; Automatically 1 NOPs removed by reduceNOPs.sh
1533			L_loadStoreByte_4:
1534	04d7	00000000		nop
1535	04d8	00000000		nop
1536	04d9	00000000		nop
1537				; Automatically 1 NOPs removed by reduceNOPs.sh
1538	04da	8fdf0004		lw	%GPR31,4(%GPR30)	
1539	04db	27dd0004		addui	%GPR29,%GPR30,$4	
1540	04dc	00000000		nop	; Automatically added by fix-stall-insns.pl
1541	04dd	00000000		nop	; Automatically added by fix-stall-insns.pl
1542	04de	00000000		nop	; Automatically added by fix-stall-insns.pl
1543	04df	8fde0000		lw	%GPR30,0(%GPR30)	
1544	04e0	00000000		nop
1545	04e1	00000000		nop
1546	04e2	00000000		nop
1547	04e3	00000000		nop	; Automatically added by fix-stall-insns.pl
1548	04e4	00000000		nop
1549	04e5	03e00008		jr	%GPR31	
1550	04e6	00000000		nop
1551	04e7	00000000		nop
1552	04e8	00000000		nop
1553				; Automatically 1 NOPs removed by reduceNOPs.sh
1554			storeByte:
1555			L_loadStoreByte_5:
1556	04e9	00000000		nop
1557	04ea	00000000		nop
1558	04eb	00000000		nop
1559				; Automatically 1 NOPs removed by reduceNOPs.sh
1560	04ec	afbefffc		sw	-4(%GPR29),%GPR30	
1561	04ed	afbf0000		sw	0(%GPR29),%GPR31	
1562	04ee	2fbe0004		subui	%GPR30,%GPR29,$4	
1563	04ef	00000000		nop
1564	04f0	2bbd0008		subi	%GPR29,%GPR29,$8	
1565	04f1	00000000		nop
1566	04f2	00000000		nop
1567	04f3	00000000		nop
1568				; Automatically 1 NOPs removed by reduceNOPs.sh
1569	04f4	00201820		add	%GPR3,%GPR1,%GPR0	
1570	04f5	00000000		nop
1571	04f6	00000000		nop
1572	04f7	00000000		nop
1573				; Automatically 2 NOPs removed by reduceNOPs.sh
1574	04f8	30610003		andi	%GPR1,%GPR3,$3	
1575	04f9	00000000		nop	;;4,6
1576	04fa	00000000		nop	;;4,6
1577	04fb	30640003		andi	%GPR4,%GPR3,$3	
1578	04fc	3c050000		lhi	%GPR5,$0	
1579	04fd	00000000		nop
1580	04fe	00000000		nop
1581	04ff	00000000		nop
1582				; Automatically 1 NOPs removed by reduceNOPs.sh
1583	0500	34a50003		ori	%GPR5,%GPR5,$3	
1584	0501	00000000		nop	;;7,10
1585	0502	00000000		nop	;;7,10
1586	0503	00000000		nop	;;7,10
1587	0504	20840001		addi	%GPR4,%GPR4,$1	
1588	0505	00000000		nop
1589	0506	00000000		nop
1590	0507	00000000		nop
1591				; Automatically 1 NOPs removed by reduceNOPs.sh
1592	0508	00042023		subu	%GPR4,%GPR0,%GPR4	
1593	0509	00a12822		sub	%GPR5,%GPR5,%GPR1	
1594	050a	3c01ffff		lhi	%GPR1,$65535	
1595	050b	00000000		nop
1596	050c	00000000		nop
1597	050d	00000000		nop
1598				; Automatically 1 NOPs removed by reduceNOPs.sh
1599	050e	3421fffc		ori	%GPR1,%GPR1,$-4	
1600	050f	3c060000		lhi	%GPR6,$0	
1601	0510	00000000		nop
1602	0511	00000000		nop
1603	0512	00000000		nop
1604				; Automatically 1 NOPs removed by reduceNOPs.sh
1605	0513	34c600ff		ori	%GPR6,%GPR6,$255	
1606	0514	00000000		nop	;;13,16
1607	0515	00000000		nop	;;13,16
1608	0516	00000000		nop	;;13,16
1609	0517	00610824		and	%GPR1,%GPR3,%GPR1	
1610	0518	40830003		slli	%GPR3,%GPR4,$3	
1611	0519	40a40003		slli	%GPR4,%GPR5,$3	
1612	051a	00000000		nop	;;18,20
1613	051b	00000000		nop	;;18,20
1614	051c	8c3c0000		lw	%GPR28,0(%GPR1)	
1615	051d	00431000		sll	%GPR2,%GPR2,%GPR3	
1616	051e	00c41800		sll	%GPR3,%GPR6,%GPR4	
1617	051f	00000000		nop	;;22,26
1618	0520	00000000		nop	;;22,26
1619	0521	00000000		nop	;;22,26
1620				; Automatically 1 NOPs removed by reduceNOPs.sh
1621	0522	20630001		addi	%GPR3,%GPR3,$1	
1622	0523	00000000		nop
1623	0524	00000000		nop
1624	0525	00000000		nop
1625				; Automatically 1 NOPs removed by reduceNOPs.sh
1626	0526	00031823		subu	%GPR3,%GPR0,%GPR3	
1627	0527	00000000		nop	;;26,30
1628	0528	00000000		nop	;;26,30
1629	0529	00000000		nop	;;26,30
1630				; Automatically 1 NOPs removed by reduceNOPs.sh
1631	052a	0383e024		and	%GPR28,%GPR28,%GPR3	
1632	052b	00000000		nop	;;30,34
1633	052c	00000000		nop	;;30,34
1634	052d	00000000		nop	;;30,34
1635				; Automatically 1 NOPs removed by reduceNOPs.sh
1636	052e	0382e025		or	%GPR28,%GPR28,%GPR2	
1637	052f	00000000		nop	;;34,38
1638	0530	00000000		nop	;;34,38
1639	0531	00000000		nop	;;34,38
1640				; Automatically 1 NOPs removed by reduceNOPs.sh
1641	0532	ac3c0000		sw	0(%GPR1),%GPR28	
1642	0533	08000004		j	L_loadStoreByte_6	
1643	0534	00000000		nop
1644	0535	00000000		nop
1645	0536	00000000		nop
1646				; Automatically 1 NOPs removed by reduceNOPs.sh
1647			L_loadStoreByte_6:
1648	0537	00000000		nop
1649	0538	00000000		nop
1650	0539	00000000		nop
1651				; Automatically 1 NOPs removed by reduceNOPs.sh
1652	053a	8fdf0004		lw	%GPR31,4(%GPR30)	
1653	053b	27dd0004		addui	%GPR29,%GPR30,$4	
1654	053c	00000000		nop	; Automatically added by fix-stall-insns.pl
1655	053d	00000000		nop	; Automatically added by fix-stall-insns.pl
1656	053e	00000000		nop	; Automatically added by fix-stall-insns.pl
1657	053f	8fde0000		lw	%GPR30,0(%GPR30)	
1658	0540	00000000		nop
1659	0541	00000000		nop
1660	0542	00000000		nop
1661	0543	00000000		nop	; Automatically added by fix-stall-insns.pl
1662	0544	00000000		nop
1663	0545	03e00008		jr	%GPR31	
1664	0546	00000000		nop
1665	0547	00000000		nop
1666	0548	00000000		nop
1667				.section	.data
1668			L_main_1:
1669	0000	0d		.data.8	13
1670	0001	0a		.data.8	10
1671	0002	00		.space	1
1672			L_main_2:
1673	0003	0d		.data.8	13
1674	0004	0a		.data.8	10
1675	0005	00		.space	1
1676			L_main_3:
1677	0006	0d		.data.8	13
1678	0007	0a		.data.8	10
1679	0008	00		.space	1
1680				.section	.text
1681				.addressing	Word
1682				;.addressing	Word
1683			Hadamard_2x2_Chroma:
1684			L_main_4:
1685	0549	00000000		nop
1686	054a	00000000		nop
1687	054b	00000000		nop
1688				; Automatically 1 NOPs removed by reduceNOPs.sh
1689	054c	afbefffc		sw	-4(%GPR29),%GPR30	
1690	054d	afbf0000		sw	0(%GPR29),%GPR31	
1691	054e	2fbe0004		subui	%GPR30,%GPR29,$4	
1692	054f	00000000		nop
1693	0550	2bbd0008		subi	%GPR29,%GPR29,$8	
1694	0551	00000000		nop
1695	0552	00000000		nop
1696	0553	00000000		nop
1697				; Automatically 9 NOPs removed by reduceNOPs.sh
1698	0554	3045ffff		andi	%GPR5,%GPR2,$65535	
1699	0555	3026ffff		andi	%GPR6,%GPR1,$65535	
1700	0556	3c08ffff		lhi	%GPR8,$65535	
1701	0557	00000000		nop
1702	0558	00000000		nop
1703	0559	00000000		nop
1704				; Automatically 1 NOPs removed by reduceNOPs.sh
1705	055a	35080000		ori	%GPR8,%GPR8,$-65536	
1706	055b	3c07ffff		lhi	%GPR7,$65535	
1707	055c	00000000		nop
1708	055d	00000000		nop
1709	055e	00000000		nop
1710				; Automatically 1 NOPs removed by reduceNOPs.sh
1711	055f	34e70000		ori	%GPR7,%GPR7,$-65536	
1712	0560	40a50010		slli	%GPR5,%GPR5,$16	
1713	0561	40c90010		slli	%GPR9,%GPR6,$16	
1714	0562	00280824		and	%GPR1,%GPR1,%GPR8	
1715	0563	00471024		and	%GPR2,%GPR2,%GPR7	
1716	0564	48a60010		srai	%GPR6,%GPR5,$16	
1717	0565	49250010		srai	%GPR5,%GPR9,$16	
1718	0566	44210010		srli	%GPR1,%GPR1,$16	
1719	0567	44420010		srli	%GPR2,%GPR2,$16	
1720	0568	00000000		nop	;;16,19
1721	0569	00000000		nop	;;16,19
1722	056a	00000000		nop	;;16,19
1723	056b	00254020		add	%GPR8,%GPR1,%GPR5	
1724	056c	00463820		add	%GPR7,%GPR2,%GPR6	
1725	056d	00255822		sub	%GPR11,%GPR1,%GPR5	
1726	056e	00464822		sub	%GPR9,%GPR2,%GPR6	
1727	056f	00256022		sub	%GPR12,%GPR1,%GPR5	
1728	0570	01073820		add	%GPR7,%GPR8,%GPR7	
1729	0571	00252820		add	%GPR5,%GPR1,%GPR5	
1730	0572	01690820		add	%GPR1,%GPR11,%GPR9	
1731	0573	00465022		sub	%GPR10,%GPR2,%GPR6	
1732	0574	30e7ffff		andi	%GPR7,%GPR7,$65535	
1733	0575	00461020		add	%GPR2,%GPR2,%GPR6	
1734	0576	00000000		nop	;;29,32
1735	0577	00000000		nop	;;29,32
1736	0578	00000000		nop	;;29,32
1737	0579	40e60010		slli	%GPR6,%GPR7,$16	
1738	057a	3027ffff		andi	%GPR7,%GPR1,$65535	
1739	057b	014c0822		sub	%GPR1,%GPR10,%GPR12	
1740	057c	00000000		nop	;;34,38
1741	057d	00000000		nop	;;34,38
1742	057e	00000000		nop	;;34,38
1743				; Automatically 1 NOPs removed by reduceNOPs.sh
1744	057f	3028ffff		andi	%GPR8,%GPR1,$65535	
1745	0580	00450822		sub	%GPR1,%GPR2,%GPR5	
1746	0581	40e20010		slli	%GPR2,%GPR7,$16	
1747	0582	00000000		nop	;;40,42
1748	0583	00000000		nop	;;40,42
1749	0584	00c82825		or	%GPR5,%GPR6,%GPR8	
1750	0585	3021ffff		andi	%GPR1,%GPR1,$65535	
1751	0586	00000000		nop	;;43,46
1752	0587	00000000		nop	;;43,46
1753	0588	00000000		nop	;;43,46
1754	0589	ac650000		sw	0(%GPR3),%GPR5	
1755	058a	00410825		or	%GPR1,%GPR2,%GPR1	
1756	058b	00000000		nop	;;47,51
1757	058c	00000000		nop	;;47,51
1758	058d	00000000		nop	;;47,51
1759				; Automatically 1 NOPs removed by reduceNOPs.sh
1760	058e	ac810000		sw	0(%GPR4),%GPR1	
1761	058f	08000004		j	L_main_5	
1762	0590	00000000		nop
1763	0591	00000000		nop
1764	0592	00000000		nop
1765			L_main_5:
1766	0593	00000000		nop
1767	0594	00000000		nop
1768	0595	00000000		nop
1769				; Automatically 1 NOPs removed by reduceNOPs.sh
1770	0596	8fdf0004		lw	%GPR31,4(%GPR30)	
1771	0597	27dd0004		addui	%GPR29,%GPR30,$4	
1772	0598	00000000		nop	; Automatically added by fix-stall-insns.pl
1773	0599	00000000		nop	; Automatically added by fix-stall-insns.pl
1774	059a	00000000		nop	; Automatically added by fix-stall-insns.pl
1775	059b	8fde0000		lw	%GPR30,0(%GPR30)	
1776	059c	00000000		nop
1777	059d	00000000		nop
1778	059e	00000000		nop
1779	059f	00000000		nop	; Automatically added by fix-stall-insns.pl
1780	05a0	00000000		nop
1781	05a1	03e00008		jr	%GPR31	
1782	05a2	00000000		nop
1783	05a3	00000000		nop
1784	05a4	00000000		nop
1785				; Automatically 1 NOPs removed by reduceNOPs.sh
1786			Hadamard_4x4_IntraLuma:
1787			L_main_6:
1788	05a5	00000000		nop
1789	05a6	00000000		nop
1790	05a7	00000000		nop
1791				; Automatically 1 NOPs removed by reduceNOPs.sh
1792	05a8	afbefffc		sw	-4(%GPR29),%GPR30	
1793	05a9	afbf0000		sw	0(%GPR29),%GPR31	
1794	05aa	2fbe0004		subui	%GPR30,%GPR29,$4	
1795	05ab	00000000		nop
1796	05ac	2bbd0020		subi	%GPR29,%GPR29,$32	
1797	05ad	00000000		nop
1798	05ae	00000000		nop
1799	05af	00000000		nop
1800				; Automatically 1 NOPs removed by reduceNOPs.sh
1801	05b0	00209020		add	%GPR18,%GPR1,%GPR0	
1802	05b1	00000000		nop
1803	05b2	00000000		nop
1804	05b3	00000000		nop
1805				; Automatically 3 NOPs removed by reduceNOPs.sh
1806	05b4	8e450000		lw	%GPR5,0(%GPR18)	
1807	05b5	00000000		nop	;;5,7
1808	05b6	00000000		nop	;;5,7
1809	05b7	3c010000		lhi	%GPR1,$0	
1810	05b8	00000000		nop
1811	05b9	00000000		nop
1812	05ba	00000000		nop
1813				; Automatically 1 NOPs removed by reduceNOPs.sh
1814	05bb	34210020		ori	%GPR1,%GPR1,$32	
1815	05bc	3c030000		lhi	%GPR3,$0	
1816	05bd	00000000		nop
1817	05be	00000000		nop
1818	05bf	00000000		nop
1819				; Automatically 1 NOPs removed by reduceNOPs.sh
1820	05c0	34630020		ori	%GPR3,%GPR3,$32	
1821	05c1	00000000		nop	;;8,10
1822	05c2	00000000		nop	;;8,10
1823	05c3	3c040000		lhi	%GPR4,$0	
1824	05c4	00000000		nop
1825	05c5	00000000		nop
1826	05c6	00000000		nop
1827				; Automatically 1 NOPs removed by reduceNOPs.sh
1828	05c7	34840020		ori	%GPR4,%GPR4,$32	
1829	05c8	02419020		add	%GPR18,%GPR18,%GPR1	
1830	05c9	afc5fffc		sw	-4(%GPR30),%GPR5	
1831	05ca	3c050000		lhi	%GPR5,$0	
1832	05cb	00000000		nop
1833	05cc	00000000		nop
1834	05cd	00000000		nop
1835				; Automatically 1 NOPs removed by reduceNOPs.sh
1836	05ce	34a50020		ori	%GPR5,%GPR5,$32	
1837	05cf	00000000		nop	;;13,15
1838	05d0	00000000		nop	;;13,15
1839	05d1	8e410000		lw	%GPR1,0(%GPR18)	
1840	05d2	02439020		add	%GPR18,%GPR18,%GPR3	
1841	05d3	00000000		nop	;;16,18
1842	05d4	00000000		nop	;;16,18
1843	05d5	3c060000		lhi	%GPR6,$0	
1844	05d6	00000000		nop
1845	05d7	00000000		nop
1846	05d8	00000000		nop
1847				; Automatically 1 NOPs removed by reduceNOPs.sh
1848	05d9	34c60020		ori	%GPR6,%GPR6,$32	
1849	05da	afc1fff8		sw	-8(%GPR30),%GPR1	
1850	05db	00000000		nop	; Automatically added by findLoadStoreProblem.sh
1851	05dc	00000000		nop	; Automatically added by fix-stall-insns.pl
1852	05dd	00000000		nop	; Automatically added by fix-stall-insns.pl
1853	05de	00000000		nop	; Automatically added by fix-stall-insns.pl
1854	05df	8e430000		lw	%GPR3,0(%GPR18)	
1855	05e0	02449020		add	%GPR18,%GPR18,%GPR4	
1856	05e1	3c010000		lhi	%GPR1,$0	
1857	05e2	00000000		nop
1858	05e3	00000000		nop
1859	05e4	00000000		nop
1860				; Automatically 1 NOPs removed by reduceNOPs.sh
1861	05e5	34210020		ori	%GPR1,%GPR1,$32	
1862	05e6	00000000		nop	;;22,24
1863	05e7	00000000		nop	;;22,24
1864	05e8	afc3fff4		sw	-12(%GPR30),%GPR3	
1865	05e9	00000000		nop	; Automatically added by findLoadStoreProblem.sh
1866	05ea	00000000		nop	; Automatically added by fix-stall-insns.pl
1867	05eb	00000000		nop	; Automatically added by fix-stall-insns.pl
1868	05ec	00000000		nop	; Automatically added by fix-stall-insns.pl
1869	05ed	8e440000		lw	%GPR4,0(%GPR18)	
1870	05ee	02459020		add	%GPR18,%GPR18,%GPR5	
1871	05ef	3c030000		lhi	%GPR3,$0	
1872	05f0	00000000		nop
1873	05f1	00000000		nop
1874	05f2	00000000		nop
1875				; Automatically 1 NOPs removed by reduceNOPs.sh
1876	05f3	34630020		ori	%GPR3,%GPR3,$32	
1877	05f4	00000000		nop	;;27,29
1878	05f5	00000000		nop	;;27,29
1879	05f6	afc4fff0		sw	-16(%GPR30),%GPR4	
1880	05f7	00000000		nop	; Automatically added by findLoadStoreProblem.sh
1881	05f8	00000000		nop	; Automatically added by fix-stall-insns.pl
1882	05f9	00000000		nop	; Automatically added by fix-stall-insns.pl
1883	05fa	00000000		nop	; Automatically added by fix-stall-insns.pl
1884	05fb	8e450000		lw	%GPR5,0(%GPR18)	
1885	05fc	02469020		add	%GPR18,%GPR18,%GPR6	
1886	05fd	3c040000		lhi	%GPR4,$0	
1887	05fe	00000000		nop
1888	05ff	00000000		nop
1889	0600	00000000		nop
1890				; Automatically 1 NOPs removed by reduceNOPs.sh
1891	0601	34840020		ori	%GPR4,%GPR4,$32	
1892	0602	00000000		nop	;;32,34
1893	0603	00000000		nop	;;32,34
1894	0604	afc5ffec		sw	-20(%GPR30),%GPR5	
1895	0605	00000000		nop	; Automatically added by findLoadStoreProblem.sh
1896	0606	00000000		nop	; Automatically added by fix-stall-insns.pl
1897	0607	00000000		nop	; Automatically added by fix-stall-insns.pl
1898	0608	00000000		nop	; Automatically added by fix-stall-insns.pl
1899	0609	8e460000		lw	%GPR6,0(%GPR18)	
1900	060a	02419020		add	%GPR18,%GPR18,%GPR1	
1901	060b	3c050000		lhi	%GPR5,$0	
1902	060c	00000000		nop
1903	060d	00000000		nop
1904	060e	00000000		nop
1905				; Automatically 1 NOPs removed by reduceNOPs.sh
1906	060f	34a50020		ori	%GPR5,%GPR5,$32	
1907	0610	00000000		nop	;;37,40
1908	0611	00000000		nop	;;37,40
1909	0612	00000000		nop	;;37,40
1910	0613	8e4c0000		lw	%GPR12,0(%GPR18)	
1911	0614	02439020		add	%GPR18,%GPR18,%GPR3	
1912	0615	3c090000		lhi	%GPR9,$0	
1913	0616	00000000		nop
1914	0617	00000000		nop
1915	0618	00000000		nop
1916				; Automatically 1 NOPs removed by reduceNOPs.sh
1917	0619	35290020		ori	%GPR9,%GPR9,$32	
1918	061a	3c010000		lhi	%GPR1,$0	
1919	061b	00000000		nop
1920	061c	00000000		nop
1921	061d	00000000		nop
1922				; Automatically 1 NOPs removed by reduceNOPs.sh
1923	061e	34210020		ori	%GPR1,%GPR1,$32	
1924	061f	00000000		nop	;;43,45
1925	0620	00000000		nop	;;43,45
1926	0621	8e430000		lw	%GPR3,0(%GPR18)	
1927	0622	02449020		add	%GPR18,%GPR18,%GPR4	
1928	0623	00000000		nop	; Automatically added by fix-stall-insns.pl
1929	0624	00000000		nop	; Automatically added by fix-stall-insns.pl
1930	0625	00000000		nop	; Automatically added by fix-stall-insns.pl
1931	0626	afc6ffe8		sw	-24(%GPR30),%GPR6	
1932	0627	3c060000		lhi	%GPR6,$0	
1933	0628	00000000		nop
1934	0629	00000000		nop
1935	062a	00000000		nop
1936				; Automatically 1 NOPs removed by reduceNOPs.sh
1937	062b	34c60020		ori	%GPR6,%GPR6,$32	
1938	062c	00000000		nop	;;48,50
1939	062d	00000000		nop	;;48,50
1940	062e	8e570000		lw	%GPR23,0(%GPR18)	
1941	062f	02459020		add	%GPR18,%GPR18,%GPR5	
1942	0630	00000000		nop	;;51,54
1943	0631	00000000		nop	;;51,54
1944	0632	00000000		nop	;;51,54
1945	0633	3c18ffff		lhi	%GPR24,$65535	
1946	0634	00000000		nop
1947	0635	00000000		nop
1948	0636	00000000		nop
1949				; Automatically 1 NOPs removed by reduceNOPs.sh
1950	0637	37180000		ori	%GPR24,%GPR24,$-65536	
1951	0638	8e530000		lw	%GPR19,0(%GPR18)	
1952	0639	02499020		add	%GPR18,%GPR18,%GPR9	
1953	063a	3c070000		lhi	%GPR7,$0	
1954	063b	00000000		nop
1955	063c	00000000		nop
1956	063d	00000000		nop
1957				; Automatically 1 NOPs removed by reduceNOPs.sh
1958	063e	34e70020		ori	%GPR7,%GPR7,$32	
1959	063f	00000000		nop	;;57,60
1960	0640	00000000		nop	;;57,60
1961	0641	00000000		nop	;;57,60
1962	0642	8e4b0000		lw	%GPR11,0(%GPR18)	
1963	0643	02419020		add	%GPR18,%GPR18,%GPR1	
1964	0644	3c05ffff		lhi	%GPR5,$65535	
1965	0645	00000000		nop
1966	0646	00000000		nop
1967	0647	00000000		nop
1968				; Automatically 1 NOPs removed by reduceNOPs.sh
1969	0648	34a50000		ori	%GPR5,%GPR5,$-65536	
1970	0649	00000000		nop	;;62,64
1971	064a	00000000		nop	;;62,64
1972	064b	02f8b824		and	%GPR23,%GPR23,%GPR24	
1973	064c	8e440000		lw	%GPR4,0(%GPR18)	
1974	064d	02469020		add	%GPR18,%GPR18,%GPR6	
1975	064e	00000000		nop	;;66,68
1976	064f	00000000		nop	;;66,68
1977	0650	3c1bffff		lhi	%GPR27,$65535	
1978	0651	00000000		nop
1979	0652	00000000		nop
1980	0653	00000000		nop
1981				; Automatically 1 NOPs removed by reduceNOPs.sh
1982	0654	377b0000		ori	%GPR27,%GPR27,$-65536	
1983	0655	3c080000		lhi	%GPR8,$0	
1984	0656	00000000		nop
1985	0657	00000000		nop
1986	0658	00000000		nop
1987				; Automatically 1 NOPs removed by reduceNOPs.sh
1988	0659	35080020		ori	%GPR8,%GPR8,$32	
1989	065a	8e540000		lw	%GPR20,0(%GPR18)	
1990	065b	02479020		add	%GPR18,%GPR18,%GPR7	
1991	065c	00000000		nop	; Automatically added by fix-stall-insns.pl
1992	065d	00000000		nop	; Automatically added by fix-stall-insns.pl
1993	065e	00000000		nop	; Automatically added by fix-stall-insns.pl
1994	065f	8fd8ffec		lw	%GPR24,-20(%GPR30)	
1995	0660	00000000		nop	;;72,74
1996	0661	00000000		nop	;;72,74
1997	0662	02852824		and	%GPR5,%GPR20,%GPR5	
1998	0663	3c0effff		lhi	%GPR14,$65535	
1999	0664	00000000		nop
2000	0665	00000000		nop
2001	0666	00000000		nop
2002				; Automatically 1 NOPs removed by reduceNOPs.sh
2003	0667	35ce0000		ori	%GPR14,%GPR14,$-65536	
2004	0668	8fd4ffe8		lw	%GPR20,-24(%GPR30)	
2005	0669	00000000		nop	;;76,78
2006	066a	00000000		nop	;;76,78
2007	066b	00000000		nop	; Automatically added by fix-stall-insns.pl
2008	066c	00000000		nop	; Automatically added by fix-stall-insns.pl
2009	066d	8e560000		lw	%GPR22,0(%GPR18)	
2010	066e	3c10ffff		lhi	%GPR16,$65535	
2011	066f	00000000		nop
2012	0670	00000000		nop
2013	0671	00000000		nop
2014				; Automatically 1 NOPs removed by reduceNOPs.sh
2015	0672	36100000		ori	%GPR16,%GPR16,$-65536	
2016	0673	00000000		nop	;;79,82
2017	0674	00000000		nop	;;79,82
2018	0675	00000000		nop	;;79,82
2019	0676	02489020		add	%GPR18,%GPR18,%GPR8	
2020	0677	031bc024		and	%GPR24,%GPR24,%GPR27	
2021	0678	00000000		nop	;;83,88
2022	0679	00000000		nop	;;83,88
2023	067a	00000000		nop	;;83,88
2024				; Automatically 2 NOPs removed by reduceNOPs.sh
2025	067b	3c01ffff		lhi	%GPR1,$65535	
2026	067c	00000000		nop
2027	067d	00000000		nop
2028	067e	00000000		nop
2029				; Automatically 1 NOPs removed by reduceNOPs.sh
2030	067f	34210000		ori	%GPR1,%GPR1,$-65536	
2031	0680	8fdbfffc		lw	%GPR27,-4(%GPR30)	
2032	0681	028ea024		and	%GPR20,%GPR20,%GPR14	
2033	0682	3c15ffff		lhi	%GPR21,$65535	
2034	0683	00000000		nop
2035	0684	00000000		nop
2036	0685	00000000		nop
2037				; Automatically 1 NOPs removed by reduceNOPs.sh
2038	0686	36b50000		ori	%GPR21,%GPR21,$-65536	
2039	0687	00708024		and	%GPR16,%GPR3,%GPR16	
2040	0688	3c0fffff		lhi	%GPR15,$65535	
2041	0689	00000000		nop
2042	068a	00000000		nop
2043	068b	00000000		nop
2044				; Automatically 1 NOPs removed by reduceNOPs.sh
2045	068c	35ef0000		ori	%GPR15,%GPR15,$-65536	
2046	068d	3c0dffff		lhi	%GPR13,$65535	
2047	068e	00000000		nop
2048	068f	00000000		nop
2049	0690	00000000		nop
2050				; Automatically 1 NOPs removed by reduceNOPs.sh
2051	0691	35ad0000		ori	%GPR13,%GPR13,$-65536	
2052	0692	8fcefff8		lw	%GPR14,-8(%GPR30)	
2053	0693	8e480000		lw	%GPR8,0(%GPR18)	
2054	0694	3c11ffff		lhi	%GPR17,$65535	
2055	0695	00000000		nop
2056	0696	00000000		nop
2057	0697	00000000		nop
2058				; Automatically 1 NOPs removed by reduceNOPs.sh
2059	0698	36310000		ori	%GPR17,%GPR17,$-65536	
2060	0699	3c0affff		lhi	%GPR10,$65535	
2061	069a	00000000		nop
2062	069b	00000000		nop
2063	069c	00000000		nop
2064				; Automatically 1 NOPs removed by reduceNOPs.sh
2065	069d	354a0000		ori	%GPR10,%GPR10,$-65536	
2066	069e	3c06ffff		lhi	%GPR6,$65535	
2067	069f	00000000		nop
2068	06a0	00000000		nop
2069	06a1	00000000		nop
2070				; Automatically 1 NOPs removed by reduceNOPs.sh
2071	06a2	34c60000		ori	%GPR6,%GPR6,$-65536	
2072	06a3	3c1c0000		lhi	%GPR28,$0	
2073	06a4	00000000		nop
2074	06a5	00000000		nop
2075	06a6	00000000		nop
2076				; Automatically 1 NOPs removed by reduceNOPs.sh
2077	06a7	379c0020		ori	%GPR28,%GPR28,$32	
2078	06a8	8fc3fff0		lw	%GPR3,-16(%GPR30)	
2079	06a9	00000000		nop	;;101,103
2080	06aa	00000000		nop	;;101,103
2081	06ab	03610824		and	%GPR1,%GPR27,%GPR1	
2082	06ac	02759824		and	%GPR19,%GPR19,%GPR21	
2083	06ad	00000000		nop	;;104,106
2084	06ae	00000000		nop	;;104,106
2085	06af	01cfa824		and	%GPR21,%GPR14,%GPR15	
2086	06b0	02cdb024		and	%GPR22,%GPR22,%GPR13	
2087	06b1	00000000		nop	;;107,109
2088	06b2	00000000		nop	;;107,109
2089	06b3	008a7824		and	%GPR15,%GPR4,%GPR10	
2090	06b4	01067024		and	%GPR14,%GPR8,%GPR6	
2091	06b5	025c9020		add	%GPR18,%GPR18,%GPR28	
2092	06b6	00718824		and	%GPR17,%GPR3,%GPR17	
2093	06b7	3c07ffff		lhi	%GPR7,$65535	
2094	06b8	00000000		nop
2095	06b9	00000000		nop
2096	06ba	00000000		nop
2097				; Automatically 1 NOPs removed by reduceNOPs.sh
2098	06bb	34e70000		ori	%GPR7,%GPR7,$-65536	
2099	06bc	8fcdfff4		lw	%GPR13,-12(%GPR30)	
2100	06bd	00000000		nop	;;114,116
2101	06be	00000000		nop	;;114,116
2102	06bf	46e40010		srli	%GPR4,%GPR23,$16	
2103	06c0	44a60010		srli	%GPR6,%GPR5,$16	
2104	06c1	47030010		srli	%GPR3,%GPR24,$16	
2105	06c2	44210010		srli	%GPR1,%GPR1,$16	
2106	06c3	3c19ffff		lhi	%GPR25,$65535	
2107	06c4	00000000		nop
2108	06c5	00000000		nop
2109	06c6	00000000		nop
2110				; Automatically 1 NOPs removed by reduceNOPs.sh
2111	06c7	37390000		ori	%GPR25,%GPR25,$-65536	
2112	06c8	3c1affff		lhi	%GPR26,$65535	
2113	06c9	00000000		nop
2114	06ca	00000000		nop
2115	06cb	00000000		nop
2116				; Automatically 1 NOPs removed by reduceNOPs.sh
2117	06cc	375a0000		ori	%GPR26,%GPR26,$-65536	
2118	06cd	8e520000		lw	%GPR18,0(%GPR18)	
2119	06ce	01a76824		and	%GPR13,%GPR13,%GPR7	
2120	06cf	3c09ffff		lhi	%GPR9,$65535	
2121	06d0	00000000		nop
2122	06d1	00000000		nop
2123	06d2	00000000		nop
2124				; Automatically 1 NOPs removed by reduceNOPs.sh
2125	06d3	35290000		ori	%GPR9,%GPR9,$-65536	
2126	06d4	00644020		add	%GPR8,%GPR3,%GPR4	
2127	06d5	00263820		add	%GPR7,%GPR1,%GPR6	
2128	06d6	46650010		srli	%GPR5,%GPR19,$16	
2129	06d7	46b30010		srli	%GPR19,%GPR21,$16	
2130	06d8	46940010		srli	%GPR20,%GPR20,$16	
2131	06d9	01795824		and	%GPR11,%GPR11,%GPR25	
2132	06da	46d60010		srli	%GPR22,%GPR22,$16	
2133	06db	019a6024		and	%GPR12,%GPR12,%GPR26	
2134	06dc	02499024		and	%GPR18,%GPR18,%GPR9	
2135	06dd	00e85022		sub	%GPR10,%GPR7,%GPR8	
2136	06de	00e84820		add	%GPR9,%GPR7,%GPR8	
2137	06df	02854020		add	%GPR8,%GPR20,%GPR5	
2138	06e0	02763820		add	%GPR7,%GPR19,%GPR22	
2139	06e1	45750010		srli	%GPR21,%GPR11,$16	
2140	06e2	45ab0010		srli	%GPR11,%GPR13,$16	
2141	06e3	458c0010		srli	%GPR12,%GPR12,$16	
2142	06e4	45d90010		srli	%GPR25,%GPR14,$16	
2143	06e5	00e8b820		add	%GPR23,%GPR7,%GPR8	
2144	06e6	00e8c022		sub	%GPR24,%GPR7,%GPR8	
2145	06e7	460e0010		srli	%GPR14,%GPR16,$16	
2146	06e8	01954020		add	%GPR8,%GPR12,%GPR21	
2147	06e9	01793820		add	%GPR7,%GPR11,%GPR25	
2148	06ea	00641822		sub	%GPR3,%GPR3,%GPR4	
2149	06eb	00260822		sub	%GPR1,%GPR1,%GPR6	
2150	06ec	462d0010		srli	%GPR13,%GPR17,$16	
2151	06ed	46500010		srli	%GPR16,%GPR18,$16	
2152	06ee	45ef0010		srli	%GPR15,%GPR15,$16	
2153	06ef	00e8d020		add	%GPR26,%GPR7,%GPR8	
2154	06f0	00e8d822		sub	%GPR27,%GPR7,%GPR8	
2155	06f1	00232020		add	%GPR4,%GPR1,%GPR3	
2156	06f2	00233022		sub	%GPR6,%GPR1,%GPR3	
2157	06f3	01cf4020		add	%GPR8,%GPR14,%GPR15	
2158	06f4	01b03820		add	%GPR7,%GPR13,%GPR16	
2159	06f5	02851822		sub	%GPR3,%GPR20,%GPR5	
2160	06f6	02760822		sub	%GPR1,%GPR19,%GPR22	
2161	06f7	00000000		nop	;;159,161
2162	06f8	00000000		nop	;;159,161
2163	06f9	00e88820		add	%GPR17,%GPR7,%GPR8	
2164	06fa	00e89022		sub	%GPR18,%GPR7,%GPR8	
2165	06fb	00232820		add	%GPR5,%GPR1,%GPR3	
2166	06fc	00239822		sub	%GPR19,%GPR1,%GPR3	
2167	06fd	01951822		sub	%GPR3,%GPR12,%GPR21	
2168	06fe	01790822		sub	%GPR1,%GPR11,%GPR25	
2169	06ff	01313820		add	%GPR7,%GPR9,%GPR17	
2170	0700	02fa4020		add	%GPR8,%GPR23,%GPR26	
2171	0701	00000000		nop	;;168,170
2172	0702	00000000		nop	;;168,170
2173	0703	00236020		add	%GPR12,%GPR1,%GPR3	
2174	0704	00235822		sub	%GPR11,%GPR1,%GPR3	
2175	0705	01b00822		sub	%GPR1,%GPR13,%GPR16	
2176	0706	01cf1822		sub	%GPR3,%GPR14,%GPR15	
2177	0707	00e8e020		add	%GPR28,%GPR7,%GPR8	
2178	0708	00e88022		sub	%GPR16,%GPR7,%GPR8	
2179	0709	00000000		nop	;;175,177
2180	070a	00000000		nop	;;175,177
2181	070b	00236820		add	%GPR13,%GPR1,%GPR3	
2182	070c	00237022		sub	%GPR14,%GPR1,%GPR3	
2183	070d	4b810001		srai	%GPR1,%GPR28,$1	
2184	070e	02fa1822		sub	%GPR3,%GPR23,%GPR26	
2185	070f	00ac4020		add	%GPR8,%GPR5,%GPR12	
2186	0710	00000000		nop	;;181,183
2187	0711	00000000		nop	;;181,183
2188	0712	302fffff		andi	%GPR15,%GPR1,$65535	
2189	0713	01310822		sub	%GPR1,%GPR9,%GPR17	
2190	0714	00000000		nop	;;184,188
2191	0715	00000000		nop	;;184,188
2192	0716	00000000		nop	;;184,188
2193				; Automatically 1 NOPs removed by reduceNOPs.sh
2194	0717	00238822		sub	%GPR17,%GPR1,%GPR3	
2195	0718	00234820		add	%GPR9,%GPR1,%GPR3	
2196	0719	41e10010		slli	%GPR1,%GPR15,$16	
2197	071a	00000000		nop	;;190,192
2198	071b	00000000		nop	;;190,192
2199	071c	4a270001		srai	%GPR7,%GPR17,$1	
2200	071d	49230001		srai	%GPR3,%GPR9,$1	
2201	071e	3c090000		lhi	%GPR9,$0	
2202	071f	00000000		nop
2203	0720	00000000		nop
2204	0721	00000000		nop
2205				; Automatically 1 NOPs removed by reduceNOPs.sh
2206	0722	35290004		ori	%GPR9,%GPR9,$4	
2207	0723	00000000		nop	;;194,196
2208	0724	00000000		nop	;;194,196
2209	0725	30f1ffff		andi	%GPR17,%GPR7,$65535	
2210	0726	3063ffff		andi	%GPR3,%GPR3,$65535	
2211	0727	008d3820		add	%GPR7,%GPR4,%GPR13	
2212	0728	00000000		nop	;;198,200
2213	0729	00000000		nop	;;198,200
2214	072a	00318825		or	%GPR17,%GPR1,%GPR17	
2215	072b	406f0010		slli	%GPR15,%GPR3,$16	
2216	072c	008d0822		sub	%GPR1,%GPR4,%GPR13	
2217	072d	00ac1822		sub	%GPR3,%GPR5,%GPR12	
2218	072e	00e8a020		add	%GPR20,%GPR7,%GPR8	
2219	072f	ac510000		sw	0(%GPR2),%GPR17	
2220	0730	00494820		add	%GPR9,%GPR2,%GPR9	
2221	0731	00232820		add	%GPR5,%GPR1,%GPR3	
2222	0732	00230822		sub	%GPR1,%GPR1,%GPR3	
2223	0733	4a030001		srai	%GPR3,%GPR16,$1	
2224	0734	00e82022		sub	%GPR4,%GPR7,%GPR8	
2225	0735	01523820		add	%GPR7,%GPR10,%GPR18	
2226	0736	48210001		srai	%GPR1,%GPR1,$1	
2227	0737	306cffff		andi	%GPR12,%GPR3,$65535	
2228	0738	4a830001		srai	%GPR3,%GPR20,$1	
2229	0739	031b4020		add	%GPR8,%GPR24,%GPR27	
2230	073a	3021ffff		andi	%GPR1,%GPR1,$65535	
2231	073b	01ec6025		or	%GPR12,%GPR15,%GPR12	
2232	073c	306dffff		andi	%GPR13,%GPR3,$65535	
2233	073d	3c030000		lhi	%GPR3,$0	
2234	073e	00000000		nop
2235	073f	00000000		nop
2236	0740	00000000		nop
2237				; Automatically 1 NOPs removed by reduceNOPs.sh
2238	0741	34630008		ori	%GPR3,%GPR3,$8	
2239	0742	48a50001		srai	%GPR5,%GPR5,$1	
2240	0743	ad2c0000		sw	0(%GPR9),%GPR12	
2241	0744	41ad0010		slli	%GPR13,%GPR13,$16	
2242	0745	00436020		add	%GPR12,%GPR2,%GPR3	
2243	0746	031b1822		sub	%GPR3,%GPR24,%GPR27	
2244	0747	00e87820		add	%GPR15,%GPR7,%GPR8	
2245	0748	01a16825		or	%GPR13,%GPR13,%GPR1	
2246	0749	01520822		sub	%GPR1,%GPR10,%GPR18	
2247	074a	30a5ffff		andi	%GPR5,%GPR5,$65535	
2248	074b	00000000		nop	;;228,231
2249	074c	00000000		nop	;;228,231
2250	074d	00000000		nop	;;228,231
2251	074e	00235020		add	%GPR10,%GPR1,%GPR3	
2252	074f	00230822		sub	%GPR1,%GPR1,%GPR3	
2253	0750	48830001		srai	%GPR3,%GPR4,$1	
2254	0751	40a50010		slli	%GPR5,%GPR5,$16	
2255	0752	3c090000		lhi	%GPR9,$0	
2256	0753	00000000		nop
2257	0754	00000000		nop
2258	0755	00000000		nop
2259				; Automatically 1 NOPs removed by reduceNOPs.sh
2260	0756	3529000c		ori	%GPR9,%GPR9,$12	
2261	0757	48210001		srai	%GPR1,%GPR1,$1	
2262	0758	3070ffff		andi	%GPR16,%GPR3,$65535	
2263	0759	49e30001		srai	%GPR3,%GPR15,$1	
2264	075a	ad8d0000		sw	0(%GPR12),%GPR13	
2265	075b	00494820		add	%GPR9,%GPR2,%GPR9	
2266	075c	00b06025		or	%GPR12,%GPR5,%GPR16	
2267	075d	306fffff		andi	%GPR15,%GPR3,$65535	
2268	075e	3021ffff		andi	%GPR1,%GPR1,$65535	
2269	075f	3c030000		lhi	%GPR3,$0	
2270	0760	00000000		nop
2271	0761	00000000		nop
2272	0762	00000000		nop
2273				; Automatically 1 NOPs removed by reduceNOPs.sh
2274	0763	34630010		ori	%GPR3,%GPR3,$16	
2275	0764	00e82022		sub	%GPR4,%GPR7,%GPR8	
2276	0765	41e50010		slli	%GPR5,%GPR15,$16	
2277	0766	ad2c0000		sw	0(%GPR9),%GPR12	
2278	0767	49470001		srai	%GPR7,%GPR10,$1	
2279	0768	00436020		add	%GPR12,%GPR2,%GPR3	
2280	0769	00a12825		or	%GPR5,%GPR5,%GPR1	
2281	076a	00ce0822		sub	%GPR1,%GPR6,%GPR14	
2282	076b	026b1822		sub	%GPR3,%GPR19,%GPR11	
2283	076c	30edffff		andi	%GPR13,%GPR7,$65535	
2284	076d	00ce3820		add	%GPR7,%GPR6,%GPR14	
2285	076e	026b4020		add	%GPR8,%GPR19,%GPR11	
2286	076f	00233020		add	%GPR6,%GPR1,%GPR3	
2287	0770	00231822		sub	%GPR3,%GPR1,%GPR3	
2288	0771	48810001		srai	%GPR1,%GPR4,$1	
2289	0772	00e85020		add	%GPR10,%GPR7,%GPR8	
2290	0773	00000000		nop	;;259,261
2291	0774	00000000		nop	;;259,261
2292	0775	ad850000		sw	0(%GPR12),%GPR5	
2293	0776	3024ffff		andi	%GPR4,%GPR1,$65535	
2294	0777	49410001		srai	%GPR1,%GPR10,$1	
2295	0778	3c090000		lhi	%GPR9,$0	
2296	0779	00000000		nop
2297	077a	00000000		nop
2298	077b	00000000		nop
2299				; Automatically 1 NOPs removed by reduceNOPs.sh
2300	077c	35290014		ori	%GPR9,%GPR9,$20	
2301	077d	00e82822		sub	%GPR5,%GPR7,%GPR8	
2302	077e	41ad0010		slli	%GPR13,%GPR13,$16	
2303	077f	3021ffff		andi	%GPR1,%GPR1,$65535	
2304	0780	00494020		add	%GPR8,%GPR2,%GPR9	
2305	0781	00000000		nop	;;268,270
2306	0782	00000000		nop	;;268,270
2307	0783	01a42025		or	%GPR4,%GPR13,%GPR4	
2308	0784	40290010		slli	%GPR9,%GPR1,$16	
2309	0785	48c10001		srai	%GPR1,%GPR6,$1	
2310	0786	3c070000		lhi	%GPR7,$0	
2311	0787	00000000		nop
2312	0788	00000000		nop
2313	0789	00000000		nop
2314				; Automatically 1 NOPs removed by reduceNOPs.sh
2315	078a	34e70018		ori	%GPR7,%GPR7,$24	
2316	078b	ad040000		sw	0(%GPR8),%GPR4	
2317	078c	00000000		nop	;;274,276
2318	078d	00000000		nop	;;274,276
2319	078e	3026ffff		andi	%GPR6,%GPR1,$65535	
2320	078f	48610001		srai	%GPR1,%GPR3,$1	
2321	0790	00472020		add	%GPR4,%GPR2,%GPR7	
2322	0791	3c030000		lhi	%GPR3,$0	
2323	0792	00000000		nop
2324	0793	00000000		nop
2325	0794	00000000		nop
2326				; Automatically 1 NOPs removed by reduceNOPs.sh
2327	0795	3463001c		ori	%GPR3,%GPR3,$28	
2328	0796	40c60010		slli	%GPR6,%GPR6,$16	
2329	0797	3021ffff		andi	%GPR1,%GPR1,$65535	
2330	0798	00000000		nop	;;281,283
2331	0799	00000000		nop	;;281,283
2332	079a	00431020		add	%GPR2,%GPR2,%GPR3	
2333	079b	00000000		nop	;;283,285
2334	079c	00000000		nop	;;283,285
2335	079d	01213825		or	%GPR7,%GPR9,%GPR1	
2336	079e	48a10001		srai	%GPR1,%GPR5,$1	
2337	079f	00000000		nop	;;286,289
2338	07a0	00000000		nop	;;286,289
2339	07a1	00000000		nop	;;286,289
2340	07a2	ac870000		sw	0(%GPR4),%GPR7	
2341	07a3	3021ffff		andi	%GPR1,%GPR1,$65535	
2342	07a4	00000000		nop	;;290,294
2343	07a5	00000000		nop	;;290,294
2344	07a6	00000000		nop	;;290,294
2345				; Automatically 1 NOPs removed by reduceNOPs.sh
2346	07a7	00c10825		or	%GPR1,%GPR6,%GPR1	
2347	07a8	00000000		nop	;;294,298
2348	07a9	00000000		nop	;;294,298
2349	07aa	00000000		nop	;;294,298
2350				; Automatically 1 NOPs removed by reduceNOPs.sh
2351	07ab	ac410000		sw	0(%GPR2),%GPR1	
2352	07ac	08000004		j	L_main_7	
2353	07ad	00000000		nop
2354	07ae	00000000		nop
2355	07af	00000000		nop
2356			L_main_7:
2357	07b0	00000000		nop
2358	07b1	00000000		nop
2359	07b2	00000000		nop
2360				; Automatically 1 NOPs removed by reduceNOPs.sh
2361	07b3	8fdf0004		lw	%GPR31,4(%GPR30)	
2362	07b4	27dd0004		addui	%GPR29,%GPR30,$4	
2363	07b5	00000000		nop	; Automatically added by fix-stall-insns.pl
2364	07b6	00000000		nop	; Automatically added by fix-stall-insns.pl
2365	07b7	00000000		nop	; Automatically added by fix-stall-insns.pl
2366	07b8	8fde0000		lw	%GPR30,0(%GPR30)	
2367	07b9	00000000		nop
2368	07ba	00000000		nop
2369	07bb	00000000		nop
2370	07bc	00000000		nop	; Automatically added by fix-stall-insns.pl
2371	07bd	00000000		nop
2372	07be	03e00008		jr	%GPR31	
2373	07bf	00000000		nop
2374	07c0	00000000		nop
2375	07c1	00000000		nop
2376				; Automatically 1 NOPs removed by reduceNOPs.sh
2377			SATD_4x4:
2378			L_main_8:
2379	07c2	00000000		nop
2380	07c3	00000000		nop
2381	07c4	00000000		nop
2382				; Automatically 1 NOPs removed by reduceNOPs.sh
2383	07c5	afbefffc		sw	-4(%GPR29),%GPR30	
2384	07c6	afbf0000		sw	0(%GPR29),%GPR31	
2385	07c7	2fbe0004		subui	%GPR30,%GPR29,$4	
2386	07c8	00000000		nop
2387	07c9	2bbd0078		subi	%GPR29,%GPR29,$120	
2388	07ca	00000000		nop
2389	07cb	00000000		nop
2390	07cc	00000000		nop
2391				; Automatically 1 NOPs removed by reduceNOPs.sh
2392	07cd	00209820		add	%GPR19,%GPR1,%GPR0	
2393	07ce	00403020		add	%GPR6,%GPR2,%GPR0	
2394	07cf	00602820		add	%GPR5,%GPR3,%GPR0	
2395	07d0	00000000		nop
2396	07d1	00000000		nop
2397	07d2	00000000		nop
2398				; Automatically 5 NOPs removed by reduceNOPs.sh
2399	07d3	3c070000		lhi	%GPR7,$0	
2400	07d4	00000000		nop
2401	07d5	00000000		nop
2402	07d6	00000000		nop
2403				; Automatically 1 NOPs removed by reduceNOPs.sh
2404	07d7	34e70004		ori	%GPR7,%GPR7,$4	
2405	07d8	3c030000		lhi	%GPR3,$0	
2406	07d9	00000000		nop
2407	07da	00000000		nop
2408	07db	00000000		nop
2409				; Automatically 1 NOPs removed by reduceNOPs.sh
2410	07dc	34630004		ori	%GPR3,%GPR3,$4	
2411	07dd	3c020000		lhi	%GPR2,$0	
2412	07de	00000000		nop
2413	07df	00000000		nop
2414	07e0	00000000		nop
2415				; Automatically 1 NOPs removed by reduceNOPs.sh
2416	07e1	34420004		ori	%GPR2,%GPR2,$4	
2417	07e2	00000000		nop	;;11,13
2418	07e3	00000000		nop	;;11,13
2419	07e4	00c77818		mult	%GPR15,%GPR6,%GPR7	
2420	07e5	00c35018		mult	%GPR10,%GPR6,%GPR3	
2421	07e6	00000000		nop	; Automatically added by fix-stall-insns.pl
2422	07e7	00000000		nop	; Automatically added by fix-stall-insns.pl
2423	07e8	00000000		nop	; Automatically added by fix-stall-insns.pl
2424	07e9	00c21018		mult	%GPR2,%GPR6,%GPR2	
2425	07ea	00000000		nop	;;15,19
2426	07eb	00000000		nop	;;15,19
2427	07ec	00000000		nop	;;15,19
2428				; Automatically 1 NOPs removed by reduceNOPs.sh
2429	07ed	8ca60000		lw	%GPR6,0(%GPR5)	
2430	07ee	3c010000		lhi	%GPR1,$0	
2431	07ef	00000000		nop
2432	07f0	00000000		nop
2433	07f1	00000000		nop
2434				; Automatically 1 NOPs removed by reduceNOPs.sh
2435	07f2	34210010		ori	%GPR1,%GPR1,$16	
2436	07f3	00000000		nop	;;20,23
2437	07f4	00000000		nop	;;20,23
2438	07f5	00000000		nop	;;20,23
2439	07f6	afc6fffc		sw	-4(%GPR30),%GPR6	
2440	07f7	00000000		nop	; Automatically added by findLoadStoreProblem.sh
2441	07f8	00000000		nop	; Automatically added by fix-stall-insns.pl
2442	07f9	00000000		nop	; Automatically added by fix-stall-insns.pl
2443	07fa	00000000		nop	; Automatically added by fix-stall-insns.pl
2444	07fb	8e660000		lw	%GPR6,0(%GPR19)	
2445	07fc	00000000		nop	;;24,28
2446	07fd	00000000		nop	;;24,28
2447	07fe	00000000		nop	;;24,28
2448				; Automatically 1 NOPs removed by reduceNOPs.sh
2449	07ff	00000000		nop	; Automatically added by fix-stall-insns.pl
2450	0800	afc6fff8		sw	-8(%GPR30),%GPR6	
2451	0801	00000000		nop	; Automatically added by findLoadStoreProblem.sh
2452	0802	00000000		nop	; Automatically added by fix-stall-insns.pl
2453	0803	00000000		nop	; Automatically added by fix-stall-insns.pl
2454	0804	00000000		nop	; Automatically added by fix-stall-insns.pl
2455	0805	8ca60000		lw	%GPR6,0(%GPR5)	
2456	0806	3c040000		lhi	%GPR4,$0	
2457	0807	00000000		nop
2458	0808	00000000		nop
2459	0809	00000000		nop
2460				; Automatically 1 NOPs removed by reduceNOPs.sh
2461	080a	34840010		ori	%GPR4,%GPR4,$16	
2462	080b	00000000		nop	;;30,33
2463	080c	00000000		nop	;;30,33
2464	080d	00000000		nop	;;30,33
2465	080e	afc6fff4		sw	-12(%GPR30),%GPR6	
2466	080f	00000000		nop	; Automatically added by findLoadStoreProblem.sh
2467	0810	00000000		nop	; Automatically added by fix-stall-insns.pl
2468	0811	00000000		nop	; Automatically added by fix-stall-insns.pl
2469	0812	00000000		nop	; Automatically added by fix-stall-insns.pl
2470	0813	8e660000		lw	%GPR6,0(%GPR19)	
2471	0814	00000000		nop	;;34,38
2472	0815	00000000		nop	;;34,38
2473	0816	00000000		nop	;;34,38
2474				; Automatically 1 NOPs removed by reduceNOPs.sh
2475	0817	00000000		nop	; Automatically added by fix-stall-insns.pl
2476	0818	afc6fff0		sw	-16(%GPR30),%GPR6	
2477	0819	00000000		nop	; Automatically added by findLoadStoreProblem.sh
2478	081a	00000000		nop	; Automatically added by fix-stall-insns.pl
2479	081b	00000000		nop	; Automatically added by fix-stall-insns.pl
2480	081c	00000000		nop	; Automatically added by fix-stall-insns.pl
2481	081d	8ca60000		lw	%GPR6,0(%GPR5)	
2482	081e	00000000		nop	;;39,43
2483	081f	00000000		nop	;;39,43
2484	0820	00000000		nop	;;39,43
2485				; Automatically 1 NOPs removed by reduceNOPs.sh
2486	0821	00000000		nop	; Automatically added by fix-stall-insns.pl
2487	0822	afc6ffec		sw	-20(%GPR30),%GPR6	
2488	0823	00000000		nop	; Automatically added by findLoadStoreProblem.sh
2489	0824	00000000		nop	; Automatically added by fix-stall-insns.pl
2490	0825	00000000		nop	; Automatically added by fix-stall-insns.pl
2491	0826	00000000		nop	; Automatically added by fix-stall-insns.pl
2492	0827	8e660000		lw	%GPR6,0(%GPR19)	
2493	0828	00000000		nop	;;44,48
2494	0829	00000000		nop	;;44,48
2495	082a	00000000		nop	;;44,48
2496				; Automatically 1 NOPs removed by reduceNOPs.sh
2497	082b	00000000		nop	; Automatically added by fix-stall-insns.pl
2498	082c	afc6ffe8		sw	-24(%GPR30),%GPR6	
2499	082d	00000000		nop	; Automatically added by findLoadStoreProblem.sh
2500	082e	00000000		nop	; Automatically added by fix-stall-insns.pl
2501	082f	00000000		nop	; Automatically added by fix-stall-insns.pl
2502	0830	00000000		nop	; Automatically added by fix-stall-insns.pl
2503	0831	8ca60000		lw	%GPR6,0(%GPR5)	
2504	0832	00a12820		add	%GPR5,%GPR5,%GPR1	
2505	0833	00000000		nop	;;50,53
2506	0834	00000000		nop	;;50,53
2507	0835	00000000		nop	;;50,53
2508	0836	afc6ffe4		sw	-28(%GPR30),%GPR6	
2509	0837	00000000		nop	; Automatically added by findLoadStoreProblem.sh
2510	0838	00000000		nop	; Automatically added by fix-stall-insns.pl
2511	0839	00000000		nop	; Automatically added by fix-stall-insns.pl
2512	083a	00000000		nop	; Automatically added by fix-stall-insns.pl
2513	083b	8ca10000		lw	%GPR1,0(%GPR5)	
2514	083c	8e660000		lw	%GPR6,0(%GPR19)	
2515	083d	02629820		add	%GPR19,%GPR19,%GPR2	
2516	083e	00000000		nop	; Automatically added by fix-stall-insns.pl
2517	083f	00000000		nop	; Automatically added by fix-stall-insns.pl
2518	0840	00000000		nop	; Automatically added by fix-stall-insns.pl
2519	0841	8ca70000		lw	%GPR7,0(%GPR5)	
2520	0842	00000000		nop	; Automatically added by findLoadStoreProblem.sh
2521	0843	00000000		nop	; Automatically added by fix-stall-insns.pl
2522	0844	00000000		nop	; Automatically added by fix-stall-insns.pl
2523	0845	00000000		nop	; Automatically added by fix-stall-insns.pl
2524	0846	afc1ffe0		sw	-32(%GPR30),%GPR1	
2525	0847	00000000		nop	; Automatically added by findLoadStoreProblem.sh
2526	0848	00000000		nop	; Automatically added by fix-stall-insns.pl
2527	0849	00000000		nop	; Automatically added by fix-stall-insns.pl
2528	084a	00000000		nop	; Automatically added by fix-stall-insns.pl
2529	084b	8ca10000		lw	%GPR1,0(%GPR5)	
2530	084c	00000000		nop	; Automatically added by findLoadStoreProblem.sh
2531	084d	00000000		nop	; Automatically added by fix-stall-insns.pl
2532	084e	00000000		nop	; Automatically added by fix-stall-insns.pl
2533	084f	00000000		nop	; Automatically added by fix-stall-insns.pl
2534	0850	afc6ffdc		sw	-36(%GPR30),%GPR6	
2535	0851	00000000		nop	; Automatically added by findLoadStoreProblem.sh
2536	0852	00000000		nop	; Automatically added by fix-stall-insns.pl
2537	0853	00000000		nop	; Automatically added by fix-stall-insns.pl
2538	0854	00000000		nop	; Automatically added by fix-stall-insns.pl
2539	0855	8ca60000		lw	%GPR6,0(%GPR5)	
2540	0856	00a42820		add	%GPR5,%GPR5,%GPR4	
2541	0857	00000000		nop	; Automatically added by fix-stall-insns.pl
2542	0858	00000000		nop	; Automatically added by fix-stall-insns.pl
2543	0859	00000000		nop	; Automatically added by fix-stall-insns.pl
2544	085a	afc1ffd8		sw	-40(%GPR30),%GPR1	
2545	085b	00000000		nop	; Automatically added by findLoadStoreProblem.sh
2546	085c	00000000		nop	; Automatically added by fix-stall-insns.pl
2547	085d	00000000		nop	; Automatically added by fix-stall-insns.pl
2548	085e	00000000		nop	; Automatically added by fix-stall-insns.pl
2549	085f	8e610000		lw	%GPR1,0(%GPR19)	
2550	0860	8e690000		lw	%GPR9,0(%GPR19)	
2551	0861	00000000		nop	; Automatically added by fix-stall-insns.pl
2552	0862	00000000		nop	; Automatically added by fix-stall-insns.pl
2553	0863	00000000		nop	; Automatically added by fix-stall-insns.pl
2554	0864	00000000		nop	; Automatically added by fix-stall-insns.pl
2555	0865	8e6b0000		lw	%GPR11,0(%GPR19)	
2556	0866	00000000		nop	;;66,68
2557	0867	00000000		nop	;;66,68
2558	0868	00000000		nop	; Automatically added by fix-stall-insns.pl
2559	0869	00000000		nop	; Automatically added by fix-stall-insns.pl
2560	086a	afc1ffd4		sw	-44(%GPR30),%GPR1	
2561	086b	00000000		nop	; Automatically added by findLoadStoreProblem.sh
2562	086c	00000000		nop	; Automatically added by fix-stall-insns.pl
2563	086d	00000000		nop	; Automatically added by fix-stall-insns.pl
2564	086e	00000000		nop	; Automatically added by fix-stall-insns.pl
2565	086f	8e610000		lw	%GPR1,0(%GPR19)	
2566	0870	026a9820		add	%GPR19,%GPR19,%GPR10	
2567	0871	00000000		nop	;;70,73
2568	0872	00000000		nop	;;70,73
2569	0873	00000000		nop	;;70,73
2570	0874	afc1ffd0		sw	-48(%GPR30),%GPR1	
2571	0875	00000000		nop	; Automatically added by findLoadStoreProblem.sh
2572	0876	00000000		nop	; Automatically added by fix-stall-insns.pl
2573	0877	00000000		nop	; Automatically added by fix-stall-insns.pl
2574	0878	00000000		nop	; Automatically added by fix-stall-insns.pl
2575	0879	8ca10000		lw	%GPR1,0(%GPR5)	
2576	087a	3c0a00ff		lhi	%GPR10,$255	
2577	087b	00000000		nop
2578	087c	00000000		nop
2579	087d	00000000		nop
2580				; Automatically 1 NOPs removed by reduceNOPs.sh
2581	087e	354a0000		ori	%GPR10,%GPR10,$16711680	
2582	087f	00000000		nop	;;75,77
2583	0880	00000000		nop	;;75,77
2584	0881	3c0dff00		lhi	%GPR13,$65280	
2585	0882	00000000		nop
2586	0883	00000000		nop
2587	0884	00000000		nop
2588				; Automatically 1 NOPs removed by reduceNOPs.sh
2589	0885	35ad0000		ori	%GPR13,%GPR13,$-16777216	
2590	0886	afc1ffcc		sw	-52(%GPR30),%GPR1	
2591	0887	00000000		nop	; Automatically added by findLoadStoreProblem.sh
2592	0888	00000000		nop	; Automatically added by fix-stall-insns.pl
2593	0889	00000000		nop	; Automatically added by fix-stall-insns.pl
2594	088a	00000000		nop	; Automatically added by fix-stall-insns.pl
2595	088b	8ca10000		lw	%GPR1,0(%GPR5)	
2596	088c	00000000		nop	;;79,83
2597	088d	00000000		nop	;;79,83
2598	088e	00000000		nop	;;79,83
2599				; Automatically 1 NOPs removed by reduceNOPs.sh
2600	088f	00000000		nop	; Automatically added by fix-stall-insns.pl
2601	0890	afc1ffc8		sw	-56(%GPR30),%GPR1	
2602	0891	00000000		nop	; Automatically added by findLoadStoreProblem.sh
2603	0892	00000000		nop	; Automatically added by fix-stall-insns.pl
2604	0893	00000000		nop	; Automatically added by fix-stall-insns.pl
2605	0894	00000000		nop	; Automatically added by fix-stall-insns.pl
2606	0895	8e610000		lw	%GPR1,0(%GPR19)	
2607	0896	00ea5024		and	%GPR10,%GPR7,%GPR10	
2608	0897	3c030000		lhi	%GPR3,$0	
2609	0898	00000000		nop
2610	0899	00000000		nop
2611	089a	00000000		nop
2612				; Automatically 1 NOPs removed by reduceNOPs.sh
2613	089b	34630010		ori	%GPR3,%GPR3,$16	
2614	089c	00cd3824		and	%GPR7,%GPR6,%GPR13	
2615	089d	afc1ffc4		sw	-60(%GPR30),%GPR1	
2616	089e	00000000		nop	; Automatically added by findLoadStoreProblem.sh
2617	089f	00000000		nop	; Automatically added by fix-stall-insns.pl
2618	08a0	00000000		nop	; Automatically added by fix-stall-insns.pl
2619	08a1	00000000		nop	; Automatically added by fix-stall-insns.pl
2620	08a2	8e610000		lw	%GPR1,0(%GPR19)	
2621	08a3	3c0c00ff		lhi	%GPR12,$255	
2622	08a4	00000000		nop
2623	08a5	00000000		nop
2624	08a6	00000000		nop
2625				; Automatically 1 NOPs removed by reduceNOPs.sh
2626	08a7	358c0000		ori	%GPR12,%GPR12,$16711680	
2627	08a8	3c1000ff		lhi	%GPR16,$255	
2628	08a9	00000000		nop
2629	08aa	00000000		nop
2630	08ab	00000000		nop
2631				; Automatically 1 NOPs removed by reduceNOPs.sh
2632	08ac	36100000		ori	%GPR16,%GPR16,$16711680	
2633	08ad	8fc6ffec		lw	%GPR6,-20(%GPR30)	
2634	08ae	00000000		nop	; Automatically added by findLoadStoreProblem.sh
2635	08af	00000000		nop	; Automatically added by fix-stall-insns.pl
2636	08b0	00000000		nop	; Automatically added by fix-stall-insns.pl
2637	08b1	00000000		nop	; Automatically added by fix-stall-insns.pl
2638	08b2	afc1ffc0		sw	-64(%GPR30),%GPR1	
2639	08b3	3c0100ff		lhi	%GPR1,$255	
2640	08b4	00000000		nop
2641	08b5	00000000		nop
2642	08b6	00000000		nop
2643				; Automatically 1 NOPs removed by reduceNOPs.sh
2644	08b7	34210000		ori	%GPR1,%GPR1,$16711680	
2645	08b8	8ca20000		lw	%GPR2,0(%GPR5)	
2646	08b9	8ca80000		lw	%GPR8,0(%GPR5)	
2647	08ba	00a32820		add	%GPR5,%GPR5,%GPR3	
2648	08bb	00000000		nop	; Automatically added by fix-stall-insns.pl
2649	08bc	00000000		nop	; Automatically added by fix-stall-insns.pl
2650	08bd	00000000		nop	; Automatically added by fix-stall-insns.pl
2651	08be	afc1ffbc		sw	-68(%GPR30),%GPR1	
2652	08bf	3c0100ff		lhi	%GPR1,$255	
2653	08c0	00000000		nop
2654	08c1	00000000		nop
2655	08c2	00000000		nop
2656				; Automatically 1 NOPs removed by reduceNOPs.sh
2657	08c3	34210000		ori	%GPR1,%GPR1,$16711680	
2658	08c4	00000000		nop	;;99,104
2659	08c5	00000000		nop	;;99,104
2660	08c6	00000000		nop	;;99,104
2661				; Automatically 2 NOPs removed by reduceNOPs.sh
2662	08c7	016c5824		and	%GPR11,%GPR11,%GPR12	
2663	08c8	00d06024		and	%GPR12,%GPR6,%GPR16	
2664	08c9	3c1100ff		lhi	%GPR17,$255	
2665	08ca	00000000		nop
2666	08cb	00000000		nop
2667	08cc	00000000		nop
2668				; Automatically 1 NOPs removed by reduceNOPs.sh
2669	08cd	36310000		ori	%GPR17,%GPR17,$16711680	
2670	08ce	3c0eff00		lhi	%GPR14,$65280	
2671	08cf	00000000		nop
2672	08d0	00000000		nop
2673	08d1	00000000		nop
2674				; Automatically 1 NOPs removed by reduceNOPs.sh
2675	08d2	35ce0000		ori	%GPR14,%GPR14,$-16777216	
2676	08d3	8fc6ffe8		lw	%GPR6,-24(%GPR30)	
2677	08d4	00000000		nop	; Automatically added by findLoadStoreProblem.sh
2678	08d5	00000000		nop	; Automatically added by fix-stall-insns.pl
2679	08d6	00000000		nop	; Automatically added by fix-stall-insns.pl
2680	08d7	00000000		nop	; Automatically added by fix-stall-insns.pl
2681	08d8	afc1ffb8		sw	-72(%GPR30),%GPR1	
2682	08d9	00000000		nop	; Automatically added by findLoadStoreProblem.sh
2683	08da	00000000		nop	; Automatically added by fix-stall-insns.pl
2684	08db	00000000		nop	; Automatically added by fix-stall-insns.pl
2685	08dc	00000000		nop	; Automatically added by fix-stall-insns.pl
2686	08dd	8ca30000		lw	%GPR3,0(%GPR5)	
2687	08de	3c04ff00		lhi	%GPR4,$65280	
2688	08df	00000000		nop
2689	08e0	00000000		nop
2690	08e1	00000000		nop
2691				; Automatically 1 NOPs removed by reduceNOPs.sh
2692	08e2	34840000		ori	%GPR4,%GPR4,$-16777216	
2693	08e3	3c01ff00		lhi	%GPR1,$65280	
2694	08e4	00000000		nop
2695	08e5	00000000		nop
2696	08e6	00000000		nop
2697				; Automatically 1 NOPs removed by reduceNOPs.sh
2698	08e7	34210000		ori	%GPR1,%GPR1,$-16777216	
2699	08e8	00000000		nop	;;112,114
2700	08e9	00000000		nop	;;112,114
2701	08ea	00d16824		and	%GPR13,%GPR6,%GPR17	
2702	08eb	012e4824		and	%GPR9,%GPR9,%GPR14	
2703	08ec	00618824		and	%GPR17,%GPR3,%GPR1	
2704	08ed	3c15ff00		lhi	%GPR21,$65280	
2705	08ee	00000000		nop
2706	08ef	00000000		nop
2707	08f0	00000000		nop
2708				; Automatically 1 NOPs removed by reduceNOPs.sh
2709	08f1	36b50000		ori	%GPR21,%GPR21,$-16777216	
2710	08f2	8fceffdc		lw	%GPR14,-36(%GPR30)	
2711	08f3	00000000		nop	; Automatically added by findLoadStoreProblem.sh
2712	08f4	00000000		nop	; Automatically added by fix-stall-insns.pl
2713	08f5	00000000		nop	; Automatically added by fix-stall-insns.pl
2714	08f6	00000000		nop	; Automatically added by fix-stall-insns.pl
2715	08f7	afc4ffb4		sw	-76(%GPR30),%GPR4	
2716	08f8	00000000		nop	; Automatically added by findLoadStoreProblem.sh
2717	08f9	00000000		nop	; Automatically added by fix-stall-insns.pl
2718	08fa	00000000		nop	; Automatically added by fix-stall-insns.pl
2719	08fb	00000000		nop	; Automatically added by fix-stall-insns.pl
2720	08fc	8e760000		lw	%GPR22,0(%GPR19)	
2721	08fd	8e770000		lw	%GPR23,0(%GPR19)	
2722	08fe	00000000		nop	; Automatically added by fix-stall-insns.pl
2723	08ff	00000000		nop	; Automatically added by fix-stall-insns.pl
2724	0900	00000000		nop	; Automatically added by fix-stall-insns.pl
2725	0901	00000000		nop	; Automatically added by fix-stall-insns.pl
2726	0902	8ca40000		lw	%GPR4,0(%GPR5)	
2727	0903	8fc1ffbc		lw	%GPR1,-68(%GPR30)	
2728	0904	026f9820		add	%GPR19,%GPR19,%GPR15	
2729	0905	00000000		nop	;;124,126
2730	0906	00000000		nop	;;124,126
2731	0907	01d58024		and	%GPR16,%GPR14,%GPR21	
2732	0908	00817024		and	%GPR14,%GPR4,%GPR1	
2733	0909	8fc6ffe4		lw	%GPR6,-28(%GPR30)	
2734	090a	3c12ff00		lhi	%GPR18,$65280	
2735	090b	00000000		nop
2736	090c	00000000		nop
2737	090d	00000000		nop
2738				; Automatically 1 NOPs removed by reduceNOPs.sh
2739	090e	36520000		ori	%GPR18,%GPR18,$-16777216	
2740	090f	8e6f0000		lw	%GPR15,0(%GPR19)	
2741	0910	8fc1ffb4		lw	%GPR1,-76(%GPR30)	
2742	0911	00000000		nop	; Automatically added by fix-stall-insns.pl
2743	0912	00000000		nop	; Automatically added by fix-stall-insns.pl
2744	0913	00000000		nop	; Automatically added by fix-stall-insns.pl
2745	0914	00000000		nop	; Automatically added by fix-stall-insns.pl
2746	0915	8e740000		lw	%GPR20,0(%GPR19)	
2747	0916	00d23024		and	%GPR6,%GPR6,%GPR18	
2748	0917	00000000		nop	;;133,135
2749	0918	00000000		nop	;;133,135
2750	0919	01e19024		and	%GPR18,%GPR15,%GPR1	
2751	091a	8fc1ffb8		lw	%GPR1,-72(%GPR30)	
2752	091b	00000000		nop	;;136,138
2753	091c	00000000		nop	;;136,138
2754	091d	3c1800ff		lhi	%GPR24,$255	
2755	091e	00000000		nop
2756	091f	00000000		nop
2757	0920	00000000		nop
2758				; Automatically 1 NOPs removed by reduceNOPs.sh
2759	0921	37180000		ori	%GPR24,%GPR24,$16711680	
2760	0922	00000000		nop	;;138,140
2761	0923	00000000		nop	;;138,140
2762	0924	02817824		and	%GPR15,%GPR20,%GPR1	
2763	0925	8fc1fff4		lw	%GPR1,-12(%GPR30)	
2764	0926	01184024		and	%GPR8,%GPR8,%GPR24	
2765	0927	3c1900ff		lhi	%GPR25,$255	
2766	0928	00000000		nop
2767	0929	00000000		nop
2768	092a	00000000		nop
2769				; Automatically 1 NOPs removed by reduceNOPs.sh
2770	092b	37390000		ori	%GPR25,%GPR25,$16711680	
2771	092c	3c1aff00		lhi	%GPR26,$65280	
2772	092d	00000000		nop
2773	092e	00000000		nop
2774	092f	00000000		nop
2775				; Automatically 1 NOPs removed by reduceNOPs.sh
2776	0930	375a0000		ori	%GPR26,%GPR26,$-16777216	
2777	0931	3038ff00		andi	%GPR24,%GPR1,$65280	
2778	0932	8fc1fff0		lw	%GPR1,-16(%GPR30)	
2779	0933	00000000		nop	; Automatically added by findLoadStoreProblem.sh
2780	0934	00000000		nop	; Automatically added by fix-stall-insns.pl
2781	0935	00000000		nop	; Automatically added by fix-stall-insns.pl
2782	0936	00000000		nop	; Automatically added by fix-stall-insns.pl
2783	0937	afc8ffb0		sw	-80(%GPR30),%GPR8	
2784	0938	02f94024		and	%GPR8,%GPR23,%GPR25	
2785	0939	005a1024		and	%GPR2,%GPR2,%GPR26	
2786	093a	3037ff00		andi	%GPR23,%GPR1,$65280	
2787	093b	00000000		nop	; Automatically added by fix-stall-insns.pl
2788	093c	8fc1ffe0		lw	%GPR1,-32(%GPR30)	
2789	093d	8cbc0000		lw	%GPR28,0(%GPR5)	
2790	093e	00000000		nop	;;152,155
2791	093f	00000000		nop	;;152,155
2792	0940	00000000		nop	;;152,155
2793	0941	3039ff00		andi	%GPR25,%GPR1,$65280	
2794	0942	8fc1ffd4		lw	%GPR1,-44(%GPR30)	
2795	0943	00000000		nop	; Automatically added by findLoadStoreProblem.sh
2796	0944	00000000		nop	; Automatically added by fix-stall-insns.pl
2797	0945	00000000		nop	; Automatically added by fix-stall-insns.pl
2798	0946	00000000		nop	; Automatically added by fix-stall-insns.pl
2799	0947	afdcffac		sw	-84(%GPR30),%GPR28	
2800	0948	3c1bff00		lhi	%GPR27,$65280	
2801	0949	00000000		nop
2802	094a	00000000		nop
2803	094b	00000000		nop
2804				; Automatically 1 NOPs removed by reduceNOPs.sh
2805	094c	377b0000		ori	%GPR27,%GPR27,$-16777216	
2806	094d	00000000		nop	;;158,160
2807	094e	00000000		nop	;;158,160
2808	094f	303aff00		andi	%GPR26,%GPR1,$65280	
2809	0950	8fc1ffcc		lw	%GPR1,-52(%GPR30)	
2810	0951	00000000		nop	; Automatically added by findLoadStoreProblem.sh
2811	0952	00000000		nop	; Automatically added by fix-stall-insns.pl
2812	0953	00000000		nop	; Automatically added by fix-stall-insns.pl
2813	0954	00000000		nop	; Automatically added by fix-stall-insns.pl
2814	0955	afc8ffa8		sw	-88(%GPR30),%GPR8	
2815	0956	02db4024		and	%GPR8,%GPR22,%GPR27	
2816	0957	00000000		nop	; Automatically added by fix-stall-insns.pl
2817	0958	00000000		nop	; Automatically added by fix-stall-insns.pl
2818	0959	00000000		nop	; Automatically added by fix-stall-insns.pl
2819	095a	8e7c0000		lw	%GPR28,0(%GPR19)	
2820	095b	3023ff00		andi	%GPR3,%GPR1,$65280	
2821	095c	00000000		nop	; Automatically added by fix-stall-insns.pl
2822	095d	00000000		nop	; Automatically added by fix-stall-insns.pl
2823	095e	00000000		nop	; Automatically added by fix-stall-insns.pl
2824	095f	8fc1ffc4		lw	%GPR1,-60(%GPR30)	
2825	0960	8e760000		lw	%GPR22,0(%GPR19)	
2826	0961	3c130000		lhi	%GPR19,$0	
2827	0962	00000000		nop
2828	0963	00000000		nop
2829	0964	00000000		nop
2830				; Automatically 1 NOPs removed by reduceNOPs.sh
2831	0965	36730018		ori	%GPR19,%GPR19,$24	
2832	0966	00000000		nop	;;168,170
2833	0967	00000000		nop	;;168,170
2834	0968	3024ff00		andi	%GPR4,%GPR1,$65280	
2835	0969	8ca10000		lw	%GPR1,0(%GPR5)	
2836	096a	8fc5ffac		lw	%GPR5,-84(%GPR30)	
2837	096b	02138002		srl	%GPR16,%GPR16,%GPR19	
2838	096c	01334802		srl	%GPR9,%GPR9,%GPR19	
2839	096d	303500ff		andi	%GPR21,%GPR1,$255	
2840	096e	30a5ff00		andi	%GPR5,%GPR5,$65280	
2841	096f	3c010000		lhi	%GPR1,$0	
2842	0970	00000000		nop
2843	0971	00000000		nop
2844	0972	00000000		nop
2845				; Automatically 1 NOPs removed by reduceNOPs.sh
2846	0973	34210008		ori	%GPR1,%GPR1,$8	
2847	0974	afd0ffa4		sw	-92(%GPR30),%GPR16	
2848	0975	01134002		srl	%GPR8,%GPR8,%GPR19	
2849	0976	00a0d820		add	%GPR27,%GPR5,%GPR0	
2850	0977	03802820		add	%GPR5,%GPR28,%GPR0	
2851	0978	02e1b803		sra	%GPR23,%GPR23,%GPR1	
2852	0979	0301c003		sra	%GPR24,%GPR24,%GPR1	
2853	097a	0341d003		sra	%GPR26,%GPR26,%GPR1	
2854	097b	30a5ff00		andi	%GPR5,%GPR5,$65280	
2855	097c	0321c803		sra	%GPR25,%GPR25,%GPR1	
2856	097d	00812003		sra	%GPR4,%GPR4,%GPR1	
2857	097e	00611803		sra	%GPR3,%GPR3,%GPR1	
2858	097f	00a12803		sra	%GPR5,%GPR5,%GPR1	
2859	0980	03610803		sra	%GPR1,%GPR27,%GPR1	
2860	0981	00d33002		srl	%GPR6,%GPR6,%GPR19	
2861	0982	8fdbffa4		lw	%GPR27,-92(%GPR30)	
2862	0983	00000000		nop	; Automatically added by findLoadStoreProblem.sh
2863	0984	00000000		nop	; Automatically added by fix-stall-insns.pl
2864	0985	00000000		nop	; Automatically added by fix-stall-insns.pl
2865	0986	00000000		nop	; Automatically added by fix-stall-insns.pl
2866	0987	afc9ffa0		sw	-96(%GPR30),%GPR9	
2867	0988	afc8ff9c		sw	-100(%GPR30),%GPR8	
2868	0989	00534002		srl	%GPR8,%GPR2,%GPR19	
2869	098a	02531002		srl	%GPR2,%GPR18,%GPR19	
2870	098b	03663023		subu	%GPR6,%GPR27,%GPR6	
2871	098c	00000000		nop	;;197,199
2872	098d	00000000		nop	;;197,199
2873	098e	00f33802		srl	%GPR7,%GPR7,%GPR19	
2874	098f	8fdbffa0		lw	%GPR27,-96(%GPR30)	
2875	0990	00000000		nop	; Automatically added by findLoadStoreProblem.sh
2876	0991	00000000		nop	; Automatically added by fix-stall-insns.pl
2877	0992	00000000		nop	; Automatically added by fix-stall-insns.pl
2878	0993	00000000		nop	; Automatically added by fix-stall-insns.pl
2879	0994	afc2ff98		sw	-104(%GPR30),%GPR2	
2880	0995	3c020000		lhi	%GPR2,$0	
2881	0996	00000000		nop
2882	0997	00000000		nop
2883	0998	00000000		nop
2884				; Automatically 1 NOPs removed by reduceNOPs.sh
2885	0999	34420010		ori	%GPR2,%GPR2,$16	
2886	099a	02334802		srl	%GPR9,%GPR17,%GPR19	
2887	099b	03673823		subu	%GPR7,%GPR27,%GPR7	
2888	099c	8fdbff9c		lw	%GPR27,-100(%GPR30)	
2889	099d	01a26803		sra	%GPR13,%GPR13,%GPR2	
2890	099e	01826003		sra	%GPR12,%GPR12,%GPR2	
2891	099f	01625803		sra	%GPR11,%GPR11,%GPR2	
2892	09a0	03684023		subu	%GPR8,%GPR27,%GPR8	
2893	09a1	8fdbff98		lw	%GPR27,-104(%GPR30)	
2894	09a2	00000000		nop	; Automatically added by findLoadStoreProblem.sh
2895	09a3	00000000		nop	; Automatically added by fix-stall-insns.pl
2896	09a4	00000000		nop	; Automatically added by fix-stall-insns.pl
2897	09a5	00000000		nop	; Automatically added by fix-stall-insns.pl
2898	09a6	afcdff94		sw	-108(%GPR30),%GPR13	
2899	09a7	0180e020		add	%GPR28,%GPR12,%GPR0	
2900	09a8	00000000		nop	; Automatically added by fix-stall-insns.pl
2901	09a9	00000000		nop	; Automatically added by fix-stall-insns.pl
2902	09aa	00000000		nop	; Automatically added by fix-stall-insns.pl
2903	09ab	afcbff90		sw	-112(%GPR30),%GPR11	
2904	09ac	03694823		subu	%GPR9,%GPR27,%GPR9	
2905	09ad	00000000		nop	; Automatically added by fix-stall-insns.pl
2906	09ae	00000000		nop	; Automatically added by fix-stall-insns.pl
2907	09af	00000000		nop	; Automatically added by fix-stall-insns.pl
2908	09b0	8fccffb0		lw	%GPR12,-80(%GPR30)	
2909	09b1	8fcbffa8		lw	%GPR11,-88(%GPR30)	
2910	09b2	00000000		nop	; Automatically added by fix-stall-insns.pl
2911	09b3	00000000		nop	; Automatically added by fix-stall-insns.pl
2912	09b4	00000000		nop	; Automatically added by fix-stall-insns.pl
2913	09b5	00000000		nop	; Automatically added by fix-stall-insns.pl
2914	09b6	8fdbff94		lw	%GPR27,-108(%GPR30)	
2915	09b7	01e26803		sra	%GPR13,%GPR15,%GPR2	
2916	09b8	00000000		nop	; Automatically added by fix-stall-insns.pl
2917	09b9	00000000		nop	; Automatically added by fix-stall-insns.pl
2918	09ba	00000000		nop	; Automatically added by fix-stall-insns.pl
2919	09bb	8fd0fff8		lw	%GPR16,-8(%GPR30)	
2920	09bc	8fd2ffd0		lw	%GPR18,-48(%GPR30)	
2921	09bd	00000000		nop	; Automatically added by fix-stall-insns.pl
2922	09be	00000000		nop	; Automatically added by fix-stall-insns.pl
2923	09bf	00000000		nop	; Automatically added by fix-stall-insns.pl
2924	09c0	00000000		nop	; Automatically added by fix-stall-insns.pl
2925	09c1	8fd1ffd8		lw	%GPR17,-40(%GPR30)	
2926	09c2	8fcffffc		lw	%GPR15,-4(%GPR30)	
2927	09c3	00000000		nop	; Automatically added by fix-stall-insns.pl
2928	09c4	00000000		nop	; Automatically added by fix-stall-insns.pl
2929	09c5	00000000		nop	; Automatically added by fix-stall-insns.pl
2930	09c6	00000000		nop	; Automatically added by fix-stall-insns.pl
2931	09c7	8fd4ffc0		lw	%GPR20,-64(%GPR30)	
2932	09c8	8fd3ffc8		lw	%GPR19,-56(%GPR30)	
2933	09c9	01826003		sra	%GPR12,%GPR12,%GPR2	
2934	09ca	01625803		sra	%GPR11,%GPR11,%GPR2	
2935	09cb	037cd822		sub	%GPR27,%GPR27,%GPR28	
2936	09cc	01425003		sra	%GPR10,%GPR10,%GPR2	
2937	09cd	01c27003		sra	%GPR14,%GPR14,%GPR2	
2938	09ce	8fdcff90		lw	%GPR28,-112(%GPR30)	
2939	09cf	321000ff		andi	%GPR16,%GPR16,$255	
2940	09d0	325200ff		andi	%GPR18,%GPR18,$255	
2941	09d1	323100ff		andi	%GPR17,%GPR17,$255	
2942	09d2	31ef00ff		andi	%GPR15,%GPR15,$255	
2943	09d3	32d600ff		andi	%GPR22,%GPR22,$255	
2944	09d4	329400ff		andi	%GPR20,%GPR20,$255	
2945	09d5	327300ff		andi	%GPR19,%GPR19,$255	
2946	09d6	016c5822		sub	%GPR11,%GPR11,%GPR12	
2947	09d7	01ae6022		sub	%GPR12,%GPR13,%GPR14	
2948	09d8	038a5022		sub	%GPR10,%GPR28,%GPR10	
2949	09d9	02517022		sub	%GPR14,%GPR18,%GPR17	
2950	09da	020f6822		sub	%GPR13,%GPR16,%GPR15	
2951	09db	03599022		sub	%GPR18,%GPR26,%GPR25	
2952	09dc	02937822		sub	%GPR15,%GPR20,%GPR19	
2953	09dd	02d58022		sub	%GPR16,%GPR22,%GPR21	
2954	09de	00831822		sub	%GPR3,%GPR4,%GPR3	
2955	09df	00a10822		sub	%GPR1,%GPR5,%GPR1	
2956	09e0	02f88822		sub	%GPR17,%GPR23,%GPR24	
2957	09e1	00c22000		sll	%GPR4,%GPR6,%GPR2	
2958	09e2	00e22800		sll	%GPR5,%GPR7,%GPR2	
2959	09e3	01023000		sll	%GPR6,%GPR8,%GPR2	
2960	09e4	01223800		sll	%GPR7,%GPR9,%GPR2	
2961	09e5	3153ffff		andi	%GPR19,%GPR10,$65535	
2962	09e6	3174ffff		andi	%GPR20,%GPR11,$65535	
2963	09e7	3375ffff		andi	%GPR21,%GPR27,$65535	
2964	09e8	3188ffff		andi	%GPR8,%GPR12,$65535	
2965	09e9	31a9ffff		andi	%GPR9,%GPR13,$65535	
2966	09ea	31caffff		andi	%GPR10,%GPR14,$65535	
2967	09eb	02426800		sll	%GPR13,%GPR18,%GPR2	
2968	09ec	00627000		sll	%GPR14,%GPR3,%GPR2	
2969	09ed	31ebffff		andi	%GPR11,%GPR15,$65535	
2970	09ee	320cffff		andi	%GPR12,%GPR16,$65535	
2971	09ef	00227800		sll	%GPR15,%GPR1,%GPR2	
2972	09f0	02228000		sll	%GPR16,%GPR17,%GPR2	
2973	09f1	00000000		nop	;;264,267
2974	09f2	00000000		nop	;;264,267
2975	09f3	00000000		nop	;;264,267
2976	09f4	00b31825		or	%GPR3,%GPR5,%GPR19	
2977	09f5	00000000		nop	;;267,270
2978	09f6	00000000		nop	;;267,270
2979	09f7	00000000		nop	;;267,270
2980	09f8	00950825		or	%GPR1,%GPR4,%GPR21	
2981	09f9	00d42825		or	%GPR5,%GPR6,%GPR20	
2982	09fa	01aa2025		or	%GPR4,%GPR13,%GPR10	
2983	09fb	01cb3025		or	%GPR6,%GPR14,%GPR11	
2984	09fc	00e83825		or	%GPR7,%GPR7,%GPR8	
2985	09fd	02091025		or	%GPR2,%GPR16,%GPR9	
2986	09fe	01ec4025		or	%GPR8,%GPR15,%GPR12	
2987	09ff	3c0dffff		lhi	%GPR13,$65535	
2988	0a00	00000000		nop
2989	0a01	00000000		nop
2990	0a02	00000000		nop
2991				; Automatically 1 NOPs removed by reduceNOPs.sh
2992	0a03	35ad0000		ori	%GPR13,%GPR13,$-65536	
2993	0a04	3c0effff		lhi	%GPR14,$65535	
2994	0a05	00000000		nop
2995	0a06	00000000		nop
2996	0a07	00000000		nop
2997				; Automatically 1 NOPs removed by reduceNOPs.sh
2998	0a08	35ce0000		ori	%GPR14,%GPR14,$-65536	
2999	0a09	3c10ffff		lhi	%GPR16,$65535	
3000	0a0a	00000000		nop
3001	0a0b	00000000		nop
3002	0a0c	00000000		nop
3003				; Automatically 1 NOPs removed by reduceNOPs.sh
3004	0a0d	36100000		ori	%GPR16,%GPR16,$-65536	
3005	0a0e	3c0fffff		lhi	%GPR15,$65535	
3006	0a0f	00000000		nop
3007	0a10	00000000		nop
3008	0a11	00000000		nop
3009				; Automatically 1 NOPs removed by reduceNOPs.sh
3010	0a12	35ef0000		ori	%GPR15,%GPR15,$-65536	
3011	0a13	30b3ffff		andi	%GPR19,%GPR5,$65535	
3012	0a14	30f4ffff		andi	%GPR20,%GPR7,$65535	
3013	0a15	ccae2c00		fex	%GPR5,%GPR5,%GPR14,$16	
3014	0a16	cced3c00		fex	%GPR7,%GPR7,%GPR13,$16	
3015	0a17	cc307400		fex	%GPR14,%GPR1,%GPR16,$16	
3016	0a18	cc6f6c00		fex	%GPR13,%GPR3,%GPR15,$16	
3017	0a19	3072ffff		andi	%GPR18,%GPR3,$65535	
3018	0a1a	3031ffff		andi	%GPR17,%GPR1,$65535	
3019	0a1b	01c70820		add	%GPR1,%GPR14,%GPR7	
3020	0a1c	01a51820		add	%GPR3,%GPR13,%GPR5	
3021	0a1d	01c73822		sub	%GPR7,%GPR14,%GPR7	
3022	0a1e	01a52822		sub	%GPR5,%GPR13,%GPR5	
3023	0a1f	42730010		slli	%GPR19,%GPR19,$16	
3024	0a20	42520010		slli	%GPR18,%GPR18,$16	
3025	0a21	42940010		slli	%GPR20,%GPR20,$16	
3026	0a22	42310010		slli	%GPR17,%GPR17,$16	
3027	0a23	00236820		add	%GPR13,%GPR1,%GPR3	
3028	0a24	00e57820		add	%GPR15,%GPR7,%GPR5	
3029	0a25	00e5d022		sub	%GPR26,%GPR7,%GPR5	
3030	0a26	0023c822		sub	%GPR25,%GPR1,%GPR3	
3031	0a27	4a650010		srai	%GPR5,%GPR19,$16	
3032	0a28	4a410010		srai	%GPR1,%GPR18,$16	
3033	0a29	4a900010		srai	%GPR16,%GPR20,$16	
3034	0a2a	4a270010		srai	%GPR7,%GPR17,$16	
3035	0a2b	00000000		nop	;;304,306
3036	0a2c	00000000		nop	;;304,306
3037	0a2d	00251820		add	%GPR3,%GPR1,%GPR5	
3038	0a2e	00000000		nop	;;306,308
3039	0a2f	00000000		nop	;;306,308
3040	0a30	00252822		sub	%GPR5,%GPR1,%GPR5	
3041	0a31	00f00820		add	%GPR1,%GPR7,%GPR16	
3042	0a32	00000000		nop	;;309,312
3043	0a33	00000000		nop	;;309,312
3044	0a34	00000000		nop	;;309,312
3045	0a35	00f03822		sub	%GPR7,%GPR7,%GPR16	
3046	0a36	3c17ffff		lhi	%GPR23,$65535	
3047	0a37	00000000		nop
3048	0a38	00000000		nop
3049	0a39	00000000		nop
3050				; Automatically 1 NOPs removed by reduceNOPs.sh
3051	0a3a	36f70000		ori	%GPR23,%GPR23,$-65536	
3052	0a3b	3c16ffff		lhi	%GPR22,$65535	
3053	0a3c	00000000		nop
3054	0a3d	00000000		nop
3055	0a3e	00000000		nop
3056				; Automatically 1 NOPs removed by reduceNOPs.sh
3057	0a3f	36d60000		ori	%GPR22,%GPR22,$-65536	
3058	0a40	3c18ffff		lhi	%GPR24,$65535	
3059	0a41	00000000		nop
3060	0a42	00000000		nop
3061	0a43	00000000		nop
3062				; Automatically 1 NOPs removed by reduceNOPs.sh
3063	0a44	37180000		ori	%GPR24,%GPR24,$-65536	
3064	0a45	3c15ffff		lhi	%GPR21,$65535	
3065	0a46	00000000		nop
3066	0a47	00000000		nop
3067	0a48	00000000		nop
3068				; Automatically 1 NOPs removed by reduceNOPs.sh
3069	0a49	36b50000		ori	%GPR21,%GPR21,$-65536	
3070	0a4a	00237020		add	%GPR14,%GPR1,%GPR3	
3071	0a4b	00e59022		sub	%GPR18,%GPR7,%GPR5	
3072	0a4c	00e58020		add	%GPR16,%GPR7,%GPR5	
3073	0a4d	00238822		sub	%GPR17,%GPR1,%GPR3	
3074	0a4e	ccd62c00		fex	%GPR5,%GPR6,%GPR22,$16	
3075	0a4f	cc970c00		fex	%GPR1,%GPR4,%GPR23,$16	
3076	0a50	308affff		andi	%GPR10,%GPR4,$65535	
3077	0a51	cd153c00		fex	%GPR7,%GPR8,%GPR21,$16	
3078	0a52	cc582400		fex	%GPR4,%GPR2,%GPR24,$16	
3079	0a53	00251820		add	%GPR3,%GPR1,%GPR5	
3080	0a54	30cbffff		andi	%GPR11,%GPR6,$65535	
3081	0a55	00252822		sub	%GPR5,%GPR1,%GPR5	
3082	0a56	3049ffff		andi	%GPR9,%GPR2,$65535	
3083	0a57	00870820		add	%GPR1,%GPR4,%GPR7	
3084	0a58	310cffff		andi	%GPR12,%GPR8,$65535	
3085	0a59	00873822		sub	%GPR7,%GPR4,%GPR7	
3086	0a5a	414a0010		slli	%GPR10,%GPR10,$16	
3087	0a5b	416b0010		slli	%GPR11,%GPR11,$16	
3088	0a5c	41290010		slli	%GPR9,%GPR9,$16	
3089	0a5d	418c0010		slli	%GPR12,%GPR12,$16	
3090	0a5e	00231020		add	%GPR2,%GPR1,%GPR3	
3091	0a5f	00e59822		sub	%GPR19,%GPR7,%GPR5	
3092	0a60	00e52020		add	%GPR4,%GPR7,%GPR5	
3093	0a61	00233022		sub	%GPR6,%GPR1,%GPR3	
3094	0a62	49650010		srai	%GPR5,%GPR11,$16	
3095	0a63	49410010		srai	%GPR1,%GPR10,$16	
3096	0a64	49270010		srai	%GPR7,%GPR9,$16	
3097	0a65	49890010		srai	%GPR9,%GPR12,$16	
3098	0a66	00000000		nop	;;344,346
3099	0a67	00000000		nop	;;344,346
3100	0a68	00251820		add	%GPR3,%GPR1,%GPR5	
3101	0a69	00252822		sub	%GPR5,%GPR1,%GPR5	
3102	0a6a	00e90820		add	%GPR1,%GPR7,%GPR9	
3103	0a6b	00e93822		sub	%GPR7,%GPR7,%GPR9	
3104	0a6c	00000000		nop	;;349,352
3105	0a6d	00000000		nop	;;349,352
3106	0a6e	00000000		nop	;;349,352
3107	0a6f	00235020		add	%GPR10,%GPR1,%GPR3	
3108	0a70	00234022		sub	%GPR8,%GPR1,%GPR3	
3109	0a71	01c21820		add	%GPR3,%GPR14,%GPR2	
3110	0a72	00e55820		add	%GPR11,%GPR7,%GPR5	
3111	0a73	01aa0820		add	%GPR1,%GPR13,%GPR10	
3112	0a74	00e54822		sub	%GPR9,%GPR7,%GPR5	
3113	0a75	01c22822		sub	%GPR5,%GPR14,%GPR2	
3114	0a76	01aa3822		sub	%GPR7,%GPR13,%GPR10	
3115	0a77	0023a020		add	%GPR20,%GPR1,%GPR3	
3116	0a78	00230822		sub	%GPR1,%GPR1,%GPR3	
3117	0a79	3c020000		lhi	%GPR2,$0	
3118	0a7a	00000000		nop
3119	0a7b	00000000		nop
3120	0a7c	00000000		nop
3121				; Automatically 1 NOPs removed by reduceNOPs.sh
3122	0a7d	34420000		ori	%GPR2,%GPR2,$0	
3123	0a7e	00e51820		add	%GPR3,%GPR7,%GPR5	
3124	0a7f	00e53822		sub	%GPR7,%GPR7,%GPR5	
3125	0a80	3c0c0000		lhi	%GPR12,$0	
3126	0a81	00000000		nop
3127	0a82	00000000		nop
3128	0a83	00000000		nop
3129				; Automatically 1 NOPs removed by reduceNOPs.sh
3130	0a84	358c0000		ori	%GPR12,%GPR12,$0	
3131	0a85	4a850001		srai	%GPR5,%GPR20,$1	
3132	0a86	486a0001		srai	%GPR10,%GPR3,$1	
3133	0a87	48210001		srai	%GPR1,%GPR1,$1	
3134	0a88	48e30001		srai	%GPR3,%GPR7,$1	
3135	0a89	00451020		add	%GPR2,%GPR2,%GPR5	
3136	0a8a	014cd82a		slt	%GPR27,%GPR10,%GPR12	
3137	0a8b	00000000		nop	; Automatically added by findDataDependency.sh
3138	0a8c	00000000		nop	; Automatically added by findDataDependency.sh
3139	0a8d	00000000		nop	; Automatically added by findDataDependency.sh
3140	0a8e	17600008		bnez	%GPR27,L_main_9	
3141	0a8f	00000000		nop
3142	0a90	00000000		nop
3143	0a91	00000000		nop
3144				; Automatically 1 NOPs removed by reduceNOPs.sh
3145	0a92	0800000a		j	L_main_10	
3146	0a93	00000000		nop
3147	0a94	00000000		nop
3148	0a95	00000000		nop
3149				; Automatically 1 NOPs removed by reduceNOPs.sh
3150			L_main_9:
3151	0a96	00000000		nop	; Automatically Added by addNopAfterLabels.pl
3152	0a97	000a5022		sub	%GPR10,%GPR0,%GPR10	
3153	0a98	08000007		j	L_main_11	
3154	0a99	00000000		nop
3155	0a9a	00000000		nop
3156	0a9b	00000000		nop
3157			L_main_10:
3158	0a9c	00000000		nop
3159	0a9d	00000000		nop
3160	0a9e	00000000		nop
3161			L_main_11:
3162	0a9f	00000000		nop	; Automatically Added by addNopAfterLabels.pl
3163	0aa0	004a1020		add	%GPR2,%GPR2,%GPR10	
3164	0aa1	00000000		nop	;;1,4
3165	0aa2	00000000		nop	;;1,4
3166	0aa3	00000000		nop	;;1,4
3167	0aa4	3c050000		lhi	%GPR5,$0	
3168	0aa5	00000000		nop
3169	0aa6	00000000		nop
3170	0aa7	00000000		nop
3171				; Automatically 1 NOPs removed by reduceNOPs.sh
3172	0aa8	34a50000		ori	%GPR5,%GPR5,$0	
3173	0aa9	00000000		nop	;;4,8
3174	0aaa	00000000		nop	;;4,8
3175	0aab	00000000		nop	;;4,8
3176				; Automatically 1 NOPs removed by reduceNOPs.sh
3177	0aac	0025d82a		slt	%GPR27,%GPR1,%GPR5	
3178	0aad	00000000		nop	; Automatically added by findDataDependency.sh
3179	0aae	00000000		nop	; Automatically added by findDataDependency.sh
3180	0aaf	00000000		nop	; Automatically added by findDataDependency.sh
3181	0ab0	17600008		bnez	%GPR27,L_main_12	
3182	0ab1	00000000		nop
3183	0ab2	00000000		nop
3184	0ab3	00000000		nop
3185				; Automatically 1 NOPs removed by reduceNOPs.sh
3186	0ab4	0800000a		j	L_main_13	
3187	0ab5	00000000		nop
3188	0ab6	00000000		nop
3189	0ab7	00000000		nop
3190				; Automatically 1 NOPs removed by reduceNOPs.sh
3191			L_main_12:
3192	0ab8	00000000		nop	; Automatically Added by addNopAfterLabels.pl
3193	0ab9	00015022		sub	%GPR10,%GPR0,%GPR1	
3194	0aba	08000009		j	L_main_14	
3195	0abb	00000000		nop
3196	0abc	00000000		nop
3197	0abd	00000000		nop
3198			L_main_13:
3199	0abe	00000000		nop	; Automatically Added by addNopAfterLabels.pl
3200	0abf	00205020		add	%GPR10,%GPR1,%GPR0	
3201	0ac0	00000000		nop
3202	0ac1	00000000		nop
3203	0ac2	00000000		nop
3204			L_main_14:
3205	0ac3	00000000		nop	; Automatically Added by addNopAfterLabels.pl
3206	0ac4	004a1020		add	%GPR2,%GPR2,%GPR10	
3207	0ac5	00000000		nop	;;1,4
3208	0ac6	00000000		nop	;;1,4
3209	0ac7	00000000		nop	;;1,4
3210	0ac8	3c010000		lhi	%GPR1,$0	
3211	0ac9	00000000		nop
3212	0aca	00000000		nop
3213	0acb	00000000		nop
3214				; Automatically 1 NOPs removed by reduceNOPs.sh
3215	0acc	34210000		ori	%GPR1,%GPR1,$0	
3216	0acd	00000000		nop	;;4,8
3217	0ace	00000000		nop	;;4,8
3218	0acf	00000000		nop	;;4,8
3219				; Automatically 1 NOPs removed by reduceNOPs.sh
3220	0ad0	0061d82a		slt	%GPR27,%GPR3,%GPR1	
3221	0ad1	00000000		nop	; Automatically added by findDataDependency.sh
3222	0ad2	00000000		nop	; Automatically added by findDataDependency.sh
3223	0ad3	00000000		nop	; Automatically added by findDataDependency.sh
3224	0ad4	17600008		bnez	%GPR27,L_main_15	
3225	0ad5	00000000		nop
3226	0ad6	00000000		nop
3227	0ad7	00000000		nop
3228				; Automatically 1 NOPs removed by reduceNOPs.sh
3229	0ad8	0800000a		j	L_main_16	
3230	0ad9	00000000		nop
3231	0ada	00000000		nop
3232	0adb	00000000		nop
3233				; Automatically 1 NOPs removed by reduceNOPs.sh
3234			L_main_15:
3235	0adc	00000000		nop	; Automatically Added by addNopAfterLabels.pl
3236	0add	00035022		sub	%GPR10,%GPR0,%GPR3	
3237	0ade	08000009		j	L_main_17	
3238	0adf	00000000		nop
3239	0ae0	00000000		nop
3240	0ae1	00000000		nop
3241			L_main_16:
3242	0ae2	00000000		nop	; Automatically Added by addNopAfterLabels.pl
3243	0ae3	00605020		add	%GPR10,%GPR3,%GPR0	
3244	0ae4	00000000		nop
3245	0ae5	00000000		nop
3246	0ae6	00000000		nop
3247			L_main_17:
3248	0ae7	00000000		nop	; Automatically Added by addNopAfterLabels.pl
3249	0ae8	01eb0820		add	%GPR1,%GPR15,%GPR11	
3250	0ae9	02041820		add	%GPR3,%GPR16,%GPR4	
3251	0aea	02042822		sub	%GPR5,%GPR16,%GPR4	
3252	0aeb	01eb3822		sub	%GPR7,%GPR15,%GPR11	
3253	0aec	00000000		nop	;;3,5
3254	0aed	00000000		nop	;;3,5
3255	0aee	00236020		add	%GPR12,%GPR1,%GPR3	
3256	0aef	00230822		sub	%GPR1,%GPR1,%GPR3	
3257	0af0	00e51820		add	%GPR3,%GPR7,%GPR5	
3258	0af1	004a1020		add	%GPR2,%GPR2,%GPR10	
3259	0af2	3c0b0000		lhi	%GPR11,$0	
3260	0af3	00000000		nop
3261	0af4	00000000		nop
3262	0af5	00000000		nop
3263				; Automatically 1 NOPs removed by reduceNOPs.sh
3264	0af6	356b0000		ori	%GPR11,%GPR11,$0	
3265	0af7	00e52822		sub	%GPR5,%GPR7,%GPR5	
3266	0af8	498a0001		srai	%GPR10,%GPR12,$1	
3267	0af9	48240001		srai	%GPR4,%GPR1,$1	
3268	0afa	48630001		srai	%GPR3,%GPR3,$1	
3269	0afb	48a10001		srai	%GPR1,%GPR5,$1	
3270	0afc	014bd82a		slt	%GPR27,%GPR10,%GPR11	
3271	0afd	00000000		nop	; Automatically added by findDataDependency.sh
3272	0afe	00000000		nop	; Automatically added by findDataDependency.sh
3273	0aff	00000000		nop	; Automatically added by findDataDependency.sh
3274	0b00	17600008		bnez	%GPR27,L_main_18	
3275	0b01	00000000		nop
3276	0b02	00000000		nop
3277	0b03	00000000		nop
3278				; Automatically 1 NOPs removed by reduceNOPs.sh
3279	0b04	0800000a		j	L_main_19	
3280	0b05	00000000		nop
3281	0b06	00000000		nop
3282	0b07	00000000		nop
3283				; Automatically 1 NOPs removed by reduceNOPs.sh
3284			L_main_18:
3285	0b08	00000000		nop	; Automatically Added by addNopAfterLabels.pl
3286	0b09	000a5022		sub	%GPR10,%GPR0,%GPR10	
3287	0b0a	08000007		j	L_main_20	
3288	0b0b	00000000		nop
3289	0b0c	00000000		nop
3290	0b0d	00000000		nop
3291			L_main_19:
3292	0b0e	00000000		nop
3293	0b0f	00000000		nop
3294	0b10	00000000		nop
3295			L_main_20:
3296	0b11	00000000		nop	; Automatically Added by addNopAfterLabels.pl
3297	0b12	004a1020		add	%GPR2,%GPR2,%GPR10	
3298	0b13	00000000		nop	;;1,4
3299	0b14	00000000		nop	;;1,4
3300	0b15	00000000		nop	;;1,4
3301	0b16	3c050000		lhi	%GPR5,$0	
3302	0b17	00000000		nop
3303	0b18	00000000		nop
3304	0b19	00000000		nop
3305				; Automatically 1 NOPs removed by reduceNOPs.sh
3306	0b1a	34a50000		ori	%GPR5,%GPR5,$0	
3307	0b1b	00000000		nop	;;4,8
3308	0b1c	00000000		nop	;;4,8
3309	0b1d	00000000		nop	;;4,8
3310				; Automatically 1 NOPs removed by reduceNOPs.sh
3311	0b1e	0065d82a		slt	%GPR27,%GPR3,%GPR5	
3312	0b1f	00000000		nop	; Automatically added by findDataDependency.sh
3313	0b20	00000000		nop	; Automatically added by findDataDependency.sh
3314	0b21	00000000		nop	; Automatically added by findDataDependency.sh
3315	0b22	17600008		bnez	%GPR27,L_main_21	
3316	0b23	00000000		nop
3317	0b24	00000000		nop
3318	0b25	00000000		nop
3319				; Automatically 1 NOPs removed by reduceNOPs.sh
3320	0b26	0800000a		j	L_main_22	
3321	0b27	00000000		nop
3322	0b28	00000000		nop
3323	0b29	00000000		nop
3324				; Automatically 1 NOPs removed by reduceNOPs.sh
3325			L_main_21:
3326	0b2a	00000000		nop	; Automatically Added by addNopAfterLabels.pl
3327	0b2b	00035022		sub	%GPR10,%GPR0,%GPR3	
3328	0b2c	08000009		j	L_main_23	
3329	0b2d	00000000		nop
3330	0b2e	00000000		nop
3331	0b2f	00000000		nop
3332			L_main_22:
3333	0b30	00000000		nop	; Automatically Added by addNopAfterLabels.pl
3334	0b31	00605020		add	%GPR10,%GPR3,%GPR0	
3335	0b32	00000000		nop
3336	0b33	00000000		nop
3337	0b34	00000000		nop
3338			L_main_23:
3339	0b35	00000000		nop	; Automatically Added by addNopAfterLabels.pl
3340	0b36	004a1020		add	%GPR2,%GPR2,%GPR10	
3341	0b37	00000000		nop	;;1,4
3342	0b38	00000000		nop	;;1,4
3343	0b39	00000000		nop	;;1,4
3344	0b3a	3c030000		lhi	%GPR3,$0	
3345	0b3b	00000000		nop
3346	0b3c	00000000		nop
3347	0b3d	00000000		nop
3348				; Automatically 1 NOPs removed by reduceNOPs.sh
3349	0b3e	34630000		ori	%GPR3,%GPR3,$0	
3350	0b3f	00000000		nop	;;4,8
3351	0b40	00000000		nop	;;4,8
3352	0b41	00000000		nop	;;4,8
3353				; Automatically 1 NOPs removed by reduceNOPs.sh
3354	0b42	0083d82a		slt	%GPR27,%GPR4,%GPR3	
3355	0b43	00000000		nop	; Automatically added by findDataDependency.sh
3356	0b44	00000000		nop	; Automatically added by findDataDependency.sh
3357	0b45	00000000		nop	; Automatically added by findDataDependency.sh
3358	0b46	17600008		bnez	%GPR27,L_main_24	
3359	0b47	00000000		nop
3360	0b48	00000000		nop
3361	0b49	00000000		nop
3362				; Automatically 1 NOPs removed by reduceNOPs.sh
3363	0b4a	0800000a		j	L_main_25	
3364	0b4b	00000000		nop
3365	0b4c	00000000		nop
3366	0b4d	00000000		nop
3367				; Automatically 1 NOPs removed by reduceNOPs.sh
3368			L_main_24:
3369	0b4e	00000000		nop	; Automatically Added by addNopAfterLabels.pl
3370	0b4f	00045022		sub	%GPR10,%GPR0,%GPR4	
3371	0b50	08000009		j	L_main_26	
3372	0b51	00000000		nop
3373	0b52	00000000		nop
3374	0b53	00000000		nop
3375			L_main_25:
3376	0b54	00000000		nop	; Automatically Added by addNopAfterLabels.pl
3377	0b55	00805020		add	%GPR10,%GPR4,%GPR0	
3378	0b56	00000000		nop
3379	0b57	00000000		nop
3380	0b58	00000000		nop
3381			L_main_26:
3382	0b59	00000000		nop	; Automatically Added by addNopAfterLabels.pl
3383	0b5a	004a1020		add	%GPR2,%GPR2,%GPR10	
3384	0b5b	00000000		nop	;;1,4
3385	0b5c	00000000		nop	;;1,4
3386	0b5d	00000000		nop	;;1,4
3387	0b5e	3c030000		lhi	%GPR3,$0	
3388	0b5f	00000000		nop
3389	0b60	00000000		nop
3390	0b61	00000000		nop
3391				; Automatically 1 NOPs removed by reduceNOPs.sh
3392	0b62	34630000		ori	%GPR3,%GPR3,$0	
3393	0b63	00000000		nop	;;4,8
3394	0b64	00000000		nop	;;4,8
3395	0b65	00000000		nop	;;4,8
3396				; Automatically 1 NOPs removed by reduceNOPs.sh
3397	0b66	0023d82a		slt	%GPR27,%GPR1,%GPR3	
3398	0b67	00000000		nop	; Automatically added by findDataDependency.sh
3399	0b68	00000000		nop	; Automatically added by findDataDependency.sh
3400	0b69	00000000		nop	; Automatically added by findDataDependency.sh
3401	0b6a	17600008		bnez	%GPR27,L_main_27	
3402	0b6b	00000000		nop
3403	0b6c	00000000		nop
3404	0b6d	00000000		nop
3405				; Automatically 1 NOPs removed by reduceNOPs.sh
3406	0b6e	0800000a		j	L_main_28	
3407	0b6f	00000000		nop
3408	0b70	00000000		nop
3409	0b71	00000000		nop
3410				; Automatically 1 NOPs removed by reduceNOPs.sh
3411			L_main_27:
3412	0b72	00000000		nop	; Automatically Added by addNopAfterLabels.pl
3413	0b73	00015022		sub	%GPR10,%GPR0,%GPR1	
3414	0b74	08000009		j	L_main_29	
3415	0b75	00000000		nop
3416	0b76	00000000		nop
3417	0b77	00000000		nop
3418			L_main_28:
3419	0b78	00000000		nop	; Automatically Added by addNopAfterLabels.pl
3420	0b79	00205020		add	%GPR10,%GPR1,%GPR0	
3421	0b7a	00000000		nop
3422	0b7b	00000000		nop
3423	0b7c	00000000		nop
3424			L_main_29:
3425	0b7d	00000000		nop	; Automatically Added by addNopAfterLabels.pl
3426	0b7e	03280820		add	%GPR1,%GPR25,%GPR8	
3427	0b7f	02261820		add	%GPR3,%GPR17,%GPR6	
3428	0b80	02262822		sub	%GPR5,%GPR17,%GPR6	
3429	0b81	03283822		sub	%GPR7,%GPR25,%GPR8	
3430	0b82	00000000		nop	;;3,5
3431	0b83	00000000		nop	;;3,5
3432	0b84	00234020		add	%GPR8,%GPR1,%GPR3	
3433	0b85	00230822		sub	%GPR1,%GPR1,%GPR3	
3434	0b86	00e53020		add	%GPR6,%GPR7,%GPR5	
3435	0b87	004a1020		add	%GPR2,%GPR2,%GPR10	
3436	0b88	00e52822		sub	%GPR5,%GPR7,%GPR5	
3437	0b89	3c040000		lhi	%GPR4,$0	
3438	0b8a	00000000		nop
3439	0b8b	00000000		nop
3440	0b8c	00000000		nop
3441				; Automatically 1 NOPs removed by reduceNOPs.sh
3442	0b8d	34840000		ori	%GPR4,%GPR4,$0	
3443	0b8e	490a0001		srai	%GPR10,%GPR8,$1	
3444	0b8f	48230001		srai	%GPR3,%GPR1,$1	
3445	0b90	48a50001		srai	%GPR5,%GPR5,$1	
3446	0b91	48c10001		srai	%GPR1,%GPR6,$1	
3447	0b92	0144d82a		slt	%GPR27,%GPR10,%GPR4	
3448	0b93	00000000		nop	; Automatically added by findDataDependency.sh
3449	0b94	00000000		nop	; Automatically added by findDataDependency.sh
3450	0b95	00000000		nop	; Automatically added by findDataDependency.sh
3451	0b96	17600008		bnez	%GPR27,L_main_30	
3452	0b97	00000000		nop
3453	0b98	00000000		nop
3454	0b99	00000000		nop
3455				; Automatically 1 NOPs removed by reduceNOPs.sh
3456	0b9a	0800000a		j	L_main_31	
3457	0b9b	00000000		nop
3458	0b9c	00000000		nop
3459	0b9d	00000000		nop
3460				; Automatically 1 NOPs removed by reduceNOPs.sh
3461			L_main_30:
3462	0b9e	00000000		nop	; Automatically Added by addNopAfterLabels.pl
3463	0b9f	000a5022		sub	%GPR10,%GPR0,%GPR10	
3464	0ba0	08000007		j	L_main_32	
3465	0ba1	00000000		nop
3466	0ba2	00000000		nop
3467	0ba3	00000000		nop
3468			L_main_31:
3469	0ba4	00000000		nop
3470	0ba5	00000000		nop
3471	0ba6	00000000		nop
3472			L_main_32:
3473	0ba7	00000000		nop	; Automatically Added by addNopAfterLabels.pl
3474	0ba8	004a1020		add	%GPR2,%GPR2,%GPR10	
3475	0ba9	00000000		nop	;;1,4
3476	0baa	00000000		nop	;;1,4
3477	0bab	00000000		nop	;;1,4
3478	0bac	3c040000		lhi	%GPR4,$0	
3479	0bad	00000000		nop
3480	0bae	00000000		nop
3481	0baf	00000000		nop
3482				; Automatically 1 NOPs removed by reduceNOPs.sh
3483	0bb0	34840000		ori	%GPR4,%GPR4,$0	
3484	0bb1	00000000		nop	;;4,8
3485	0bb2	00000000		nop	;;4,8
3486	0bb3	00000000		nop	;;4,8
3487				; Automatically 1 NOPs removed by reduceNOPs.sh
3488	0bb4	0024d82a		slt	%GPR27,%GPR1,%GPR4	
3489	0bb5	00000000		nop	; Automatically added by findDataDependency.sh
3490	0bb6	00000000		nop	; Automatically added by findDataDependency.sh
3491	0bb7	00000000		nop	; Automatically added by findDataDependency.sh
3492	0bb8	17600008		bnez	%GPR27,L_main_33	
3493	0bb9	00000000		nop
3494	0bba	00000000		nop
3495	0bbb	00000000		nop
3496				; Automatically 1 NOPs removed by reduceNOPs.sh
3497	0bbc	0800000a		j	L_main_34	
3498	0bbd	00000000		nop
3499	0bbe	00000000		nop
3500	0bbf	00000000		nop
3501				; Automatically 1 NOPs removed by reduceNOPs.sh
3502			L_main_33:
3503	0bc0	00000000		nop	; Automatically Added by addNopAfterLabels.pl
3504	0bc1	00015022		sub	%GPR10,%GPR0,%GPR1	
3505	0bc2	08000009		j	L_main_35	
3506	0bc3	00000000		nop
3507	0bc4	00000000		nop
3508	0bc5	00000000		nop
3509			L_main_34:
3510	0bc6	00000000		nop	; Automatically Added by addNopAfterLabels.pl
3511	0bc7	00205020		add	%GPR10,%GPR1,%GPR0	
3512	0bc8	00000000		nop
3513	0bc9	00000000		nop
3514	0bca	00000000		nop
3515			L_main_35:
3516	0bcb	00000000		nop	; Automatically Added by addNopAfterLabels.pl
3517	0bcc	004a1020		add	%GPR2,%GPR2,%GPR10	
3518	0bcd	00000000		nop	;;1,4
3519	0bce	00000000		nop	;;1,4
3520	0bcf	00000000		nop	;;1,4
3521	0bd0	3c010000		lhi	%GPR1,$0	
3522	0bd1	00000000		nop
3523	0bd2	00000000		nop
3524	0bd3	00000000		nop
3525				; Automatically 1 NOPs removed by reduceNOPs.sh
3526	0bd4	34210000		ori	%GPR1,%GPR1,$0	
3527	0bd5	00000000		nop	;;4,8
3528	0bd6	00000000		nop	;;4,8
3529	0bd7	00000000		nop	;;4,8
3530				; Automatically 1 NOPs removed by reduceNOPs.sh
3531	0bd8	0061d82a		slt	%GPR27,%GPR3,%GPR1	
3532	0bd9	00000000		nop	; Automatically added by findDataDependency.sh
3533	0bda	00000000		nop	; Automatically added by findDataDependency.sh
3534	0bdb	00000000		nop	; Automatically added by findDataDependency.sh
3535	0bdc	17600008		bnez	%GPR27,L_main_36	
3536	0bdd	00000000		nop
3537	0bde	00000000		nop
3538	0bdf	00000000		nop
3539				; Automatically 1 NOPs removed by reduceNOPs.sh
3540	0be0	0800000a		j	L_main_37	
3541	0be1	00000000		nop
3542	0be2	00000000		nop
3543	0be3	00000000		nop
3544				; Automatically 1 NOPs removed by reduceNOPs.sh
3545			L_main_36:
3546	0be4	00000000		nop	; Automatically Added by addNopAfterLabels.pl
3547	0be5	00035022		sub	%GPR10,%GPR0,%GPR3	
3548	0be6	08000009		j	L_main_38	
3549	0be7	00000000		nop
3550	0be8	00000000		nop
3551	0be9	00000000		nop
3552			L_main_37:
3553	0bea	00000000		nop	; Automatically Added by addNopAfterLabels.pl
3554	0beb	00605020		add	%GPR10,%GPR3,%GPR0	
3555	0bec	00000000		nop
3556	0bed	00000000		nop
3557	0bee	00000000		nop
3558			L_main_38:
3559	0bef	00000000		nop	; Automatically Added by addNopAfterLabels.pl
3560	0bf0	004a1020		add	%GPR2,%GPR2,%GPR10	
3561	0bf1	00000000		nop	;;1,4
3562	0bf2	00000000		nop	;;1,4
3563	0bf3	00000000		nop	;;1,4
3564	0bf4	3c010000		lhi	%GPR1,$0	
3565	0bf5	00000000		nop
3566	0bf6	00000000		nop
3567	0bf7	00000000		nop
3568				; Automatically 1 NOPs removed by reduceNOPs.sh
3569	0bf8	34210000		ori	%GPR1,%GPR1,$0	
3570	0bf9	00000000		nop	;;4,8
3571	0bfa	00000000		nop	;;4,8
3572	0bfb	00000000		nop	;;4,8
3573				; Automatically 1 NOPs removed by reduceNOPs.sh
3574	0bfc	00a1d82a		slt	%GPR27,%GPR5,%GPR1	
3575	0bfd	00000000		nop	; Automatically added by findDataDependency.sh
3576	0bfe	00000000		nop	; Automatically added by findDataDependency.sh
3577	0bff	00000000		nop	; Automatically added by findDataDependency.sh
3578	0c00	17600008		bnez	%GPR27,L_main_39	
3579	0c01	00000000		nop
3580	0c02	00000000		nop
3581	0c03	00000000		nop
3582				; Automatically 1 NOPs removed by reduceNOPs.sh
3583	0c04	0800000a		j	L_main_40	
3584	0c05	00000000		nop
3585	0c06	00000000		nop
3586	0c07	00000000		nop
3587				; Automatically 1 NOPs removed by reduceNOPs.sh
3588			L_main_39:
3589	0c08	00000000		nop	; Automatically Added by addNopAfterLabels.pl
3590	0c09	00055022		sub	%GPR10,%GPR0,%GPR5	
3591	0c0a	08000009		j	L_main_41	
3592	0c0b	00000000		nop
3593	0c0c	00000000		nop
3594	0c0d	00000000		nop
3595			L_main_40:
3596	0c0e	00000000		nop	; Automatically Added by addNopAfterLabels.pl
3597	0c0f	00a05020		add	%GPR10,%GPR5,%GPR0	
3598	0c10	00000000		nop
3599	0c11	00000000		nop
3600	0c12	00000000		nop
3601			L_main_41:
3602	0c13	00000000		nop	; Automatically Added by addNopAfterLabels.pl
3603	0c14	03490820		add	%GPR1,%GPR26,%GPR9	
3604	0c15	02531820		add	%GPR3,%GPR18,%GPR19	
3605	0c16	02532822		sub	%GPR5,%GPR18,%GPR19	
3606	0c17	03493822		sub	%GPR7,%GPR26,%GPR9	
3607	0c18	00000000		nop	;;3,5
3608	0c19	00000000		nop	;;3,5
3609	0c1a	00233020		add	%GPR6,%GPR1,%GPR3	
3610	0c1b	00230822		sub	%GPR1,%GPR1,%GPR3	
3611	0c1c	00e54020		add	%GPR8,%GPR7,%GPR5	
3612	0c1d	004a1020		add	%GPR2,%GPR2,%GPR10	
3613	0c1e	00e52822		sub	%GPR5,%GPR7,%GPR5	
3614	0c1f	3c040000		lhi	%GPR4,$0	
3615	0c20	00000000		nop
3616	0c21	00000000		nop
3617	0c22	00000000		nop
3618				; Automatically 1 NOPs removed by reduceNOPs.sh
3619	0c23	34840000		ori	%GPR4,%GPR4,$0	
3620	0c24	48ca0001		srai	%GPR10,%GPR6,$1	
3621	0c25	48230001		srai	%GPR3,%GPR1,$1	
3622	0c26	48a50001		srai	%GPR5,%GPR5,$1	
3623	0c27	49010001		srai	%GPR1,%GPR8,$1	
3624	0c28	0144d82a		slt	%GPR27,%GPR10,%GPR4	
3625	0c29	00000000		nop	; Automatically added by findDataDependency.sh
3626	0c2a	00000000		nop	; Automatically added by findDataDependency.sh
3627	0c2b	00000000		nop	; Automatically added by findDataDependency.sh
3628	0c2c	17600008		bnez	%GPR27,L_main_42	
3629	0c2d	00000000		nop
3630	0c2e	00000000		nop
3631	0c2f	00000000		nop
3632				; Automatically 1 NOPs removed by reduceNOPs.sh
3633	0c30	0800000a		j	L_main_43	
3634	0c31	00000000		nop
3635	0c32	00000000		nop
3636	0c33	00000000		nop
3637				; Automatically 1 NOPs removed by reduceNOPs.sh
3638			L_main_42:
3639	0c34	00000000		nop	; Automatically Added by addNopAfterLabels.pl
3640	0c35	000a5022		sub	%GPR10,%GPR0,%GPR10	
3641	0c36	08000007		j	L_main_44	
3642	0c37	00000000		nop
3643	0c38	00000000		nop
3644	0c39	00000000		nop
3645			L_main_43:
3646	0c3a	00000000		nop
3647	0c3b	00000000		nop
3648	0c3c	00000000		nop
3649			L_main_44:
3650	0c3d	00000000		nop	; Automatically Added by addNopAfterLabels.pl
3651	0c3e	004a1020		add	%GPR2,%GPR2,%GPR10	
3652	0c3f	00000000		nop	;;1,4
3653	0c40	00000000		nop	;;1,4
3654	0c41	00000000		nop	;;1,4
3655	0c42	3c040000		lhi	%GPR4,$0	
3656	0c43	00000000		nop
3657	0c44	00000000		nop
3658	0c45	00000000		nop
3659				; Automatically 1 NOPs removed by reduceNOPs.sh
3660	0c46	34840000		ori	%GPR4,%GPR4,$0	
3661	0c47	00000000		nop	;;4,8
3662	0c48	00000000		nop	;;4,8
3663	0c49	00000000		nop	;;4,8
3664				; Automatically 1 NOPs removed by reduceNOPs.sh
3665	0c4a	0024d82a		slt	%GPR27,%GPR1,%GPR4	
3666	0c4b	00000000		nop	; Automatically added by findDataDependency.sh
3667	0c4c	00000000		nop	; Automatically added by findDataDependency.sh
3668	0c4d	00000000		nop	; Automatically added by findDataDependency.sh
3669	0c4e	17600008		bnez	%GPR27,L_main_45	
3670	0c4f	00000000		nop
3671	0c50	00000000		nop
3672	0c51	00000000		nop
3673				; Automatically 1 NOPs removed by reduceNOPs.sh
3674	0c52	0800000a		j	L_main_46	
3675	0c53	00000000		nop
3676	0c54	00000000		nop
3677	0c55	00000000		nop
3678				; Automatically 1 NOPs removed by reduceNOPs.sh
3679			L_main_45:
3680	0c56	00000000		nop	; Automatically Added by addNopAfterLabels.pl
3681	0c57	00015022		sub	%GPR10,%GPR0,%GPR1	
3682	0c58	08000009		j	L_main_47	
3683	0c59	00000000		nop
3684	0c5a	00000000		nop
3685	0c5b	00000000		nop
3686			L_main_46:
3687	0c5c	00000000		nop	; Automatically Added by addNopAfterLabels.pl
3688	0c5d	00205020		add	%GPR10,%GPR1,%GPR0	
3689	0c5e	00000000		nop
3690	0c5f	00000000		nop
3691	0c60	00000000		nop
3692			L_main_47:
3693	0c61	00000000		nop	; Automatically Added by addNopAfterLabels.pl
3694	0c62	004a1020		add	%GPR2,%GPR2,%GPR10	
3695	0c63	00000000		nop	;;1,4
3696	0c64	00000000		nop	;;1,4
3697	0c65	00000000		nop	;;1,4
3698	0c66	3c010000		lhi	%GPR1,$0	
3699	0c67	00000000		nop
3700	0c68	00000000		nop
3701	0c69	00000000		nop
3702				; Automatically 1 NOPs removed by reduceNOPs.sh
3703	0c6a	34210000		ori	%GPR1,%GPR1,$0	
3704	0c6b	00000000		nop	;;4,8
3705	0c6c	00000000		nop	;;4,8
3706	0c6d	00000000		nop	;;4,8
3707				; Automatically 1 NOPs removed by reduceNOPs.sh
3708	0c6e	0061d82a		slt	%GPR27,%GPR3,%GPR1	
3709	0c6f	00000000		nop	; Automatically added by findDataDependency.sh
3710	0c70	00000000		nop	; Automatically added by findDataDependency.sh
3711	0c71	00000000		nop	; Automatically added by findDataDependency.sh
3712	0c72	17600008		bnez	%GPR27,L_main_48	
3713	0c73	00000000		nop
3714	0c74	00000000		nop
3715	0c75	00000000		nop
3716				; Automatically 1 NOPs removed by reduceNOPs.sh
3717	0c76	0800000a		j	L_main_49	
3718	0c77	00000000		nop
3719	0c78	00000000		nop
3720	0c79	00000000		nop
3721				; Automatically 1 NOPs removed by reduceNOPs.sh
3722			L_main_48:
3723	0c7a	00000000		nop	; Automatically Added by addNopAfterLabels.pl
3724	0c7b	00035022		sub	%GPR10,%GPR0,%GPR3	
3725	0c7c	08000009		j	L_main_50	
3726	0c7d	00000000		nop
3727	0c7e	00000000		nop
3728	0c7f	00000000		nop
3729			L_main_49:
3730	0c80	00000000		nop	; Automatically Added by addNopAfterLabels.pl
3731	0c81	00605020		add	%GPR10,%GPR3,%GPR0	
3732	0c82	00000000		nop
3733	0c83	00000000		nop
3734	0c84	00000000		nop
3735			L_main_50:
3736	0c85	00000000		nop	; Automatically Added by addNopAfterLabels.pl
3737	0c86	004a1020		add	%GPR2,%GPR2,%GPR10	
3738	0c87	00000000		nop	;;1,4
3739	0c88	00000000		nop	;;1,4
3740	0c89	00000000		nop	;;1,4
3741	0c8a	3c010000		lhi	%GPR1,$0	
3742	0c8b	00000000		nop
3743	0c8c	00000000		nop
3744	0c8d	00000000		nop
3745				; Automatically 1 NOPs removed by reduceNOPs.sh
3746	0c8e	34210000		ori	%GPR1,%GPR1,$0	
3747	0c8f	00000000		nop	;;4,8
3748	0c90	00000000		nop	;;4,8
3749	0c91	00000000		nop	;;4,8
3750				; Automatically 1 NOPs removed by reduceNOPs.sh
3751	0c92	00a1d82a		slt	%GPR27,%GPR5,%GPR1	
3752	0c93	00000000		nop	; Automatically added by findDataDependency.sh
3753	0c94	00000000		nop	; Automatically added by findDataDependency.sh
3754	0c95	00000000		nop	; Automatically added by findDataDependency.sh
3755	0c96	17600008		bnez	%GPR27,L_main_51	
3756	0c97	00000000		nop
3757	0c98	00000000		nop
3758	0c99	00000000		nop
3759				; Automatically 1 NOPs removed by reduceNOPs.sh
3760	0c9a	0800000a		j	L_main_52	
3761	0c9b	00000000		nop
3762	0c9c	00000000		nop
3763	0c9d	00000000		nop
3764				; Automatically 1 NOPs removed by reduceNOPs.sh
3765			L_main_51:
3766	0c9e	00000000		nop	; Automatically Added by addNopAfterLabels.pl
3767	0c9f	00055022		sub	%GPR10,%GPR0,%GPR5	
3768	0ca0	08000009		j	L_main_53	
3769	0ca1	00000000		nop
3770	0ca2	00000000		nop
3771	0ca3	00000000		nop
3772			L_main_52:
3773	0ca4	00000000		nop	; Automatically Added by addNopAfterLabels.pl
3774	0ca5	00a05020		add	%GPR10,%GPR5,%GPR0	
3775	0ca6	00000000		nop
3776	0ca7	00000000		nop
3777	0ca8	00000000		nop
3778			L_main_53:
3779	0ca9	00000000		nop	; Automatically Added by addNopAfterLabels.pl
3780	0caa	004ae020		add	%GPR28,%GPR2,%GPR10	
3781	0cab	00000000		nop	;;0,4
3782	0cac	00000000		nop	;;0,4
3783	0cad	00000000		nop	;;0,4
3784				; Automatically 1 NOPs removed by reduceNOPs.sh
3785	0cae	08000004		j	L_main_54	
3786	0caf	00000000		nop
3787	0cb0	00000000		nop
3788	0cb1	00000000		nop
3789				; Automatically 1 NOPs removed by reduceNOPs.sh
3790			L_main_54:
3791	0cb2	00000000		nop
3792	0cb3	00000000		nop
3793	0cb4	00000000		nop
3794				; Automatically 1 NOPs removed by reduceNOPs.sh
3795	0cb5	8fdf0004		lw	%GPR31,4(%GPR30)	
3796	0cb6	27dd0004		addui	%GPR29,%GPR30,$4	
3797	0cb7	00000000		nop	; Automatically added by fix-stall-insns.pl
3798	0cb8	00000000		nop	; Automatically added by fix-stall-insns.pl
3799	0cb9	00000000		nop	; Automatically added by fix-stall-insns.pl
3800	0cba	8fde0000		lw	%GPR30,0(%GPR30)	
3801	0cbb	00000000		nop
3802	0cbc	00000000		nop
3803	0cbd	00000000		nop
3804	0cbe	00000000		nop	; Automatically added by fix-stall-insns.pl
3805	0cbf	00000000		nop
3806	0cc0	03e00008		jr	%GPR31	
3807	0cc1	00000000		nop
3808	0cc2	00000000		nop
3809	0cc3	00000000		nop
3810				; Automatically 1 NOPs removed by reduceNOPs.sh
3811			DCT_4x4:
3812			L_main_55:
3813	0cc4	00000000		nop
3814	0cc5	00000000		nop
3815	0cc6	00000000		nop
3816				; Automatically 1 NOPs removed by reduceNOPs.sh
3817	0cc7	afbefffc		sw	-4(%GPR29),%GPR30	
3818	0cc8	afbf0000		sw	0(%GPR29),%GPR31	
3819	0cc9	2fbe0004		subui	%GPR30,%GPR29,$4	
3820	0cca	00000000		nop
3821	0ccb	2bbd0074		subi	%GPR29,%GPR29,$116	
3822	0ccc	00000000		nop
3823	0ccd	00000000		nop
3824	0cce	00000000		nop
3825				; Automatically 1 NOPs removed by reduceNOPs.sh
3826	0ccf	00206820		add	%GPR13,%GPR1,%GPR0	
3827	0cd0	00403020		add	%GPR6,%GPR2,%GPR0	
3828	0cd1	00608820		add	%GPR17,%GPR3,%GPR0	
3829	0cd2	00000000		nop
3830	0cd3	00000000		nop
3831	0cd4	00000000		nop
3832				; Automatically 5 NOPs removed by reduceNOPs.sh
3833	0cd5	3c010000		lhi	%GPR1,$0	
3834	0cd6	00000000		nop
3835	0cd7	00000000		nop
3836	0cd8	00000000		nop
3837				; Automatically 1 NOPs removed by reduceNOPs.sh
3838	0cd9	34210004		ori	%GPR1,%GPR1,$4	
3839	0cda	3c050000		lhi	%GPR5,$0	
3840	0cdb	00000000		nop
3841	0cdc	00000000		nop
3842	0cdd	00000000		nop
3843				; Automatically 1 NOPs removed by reduceNOPs.sh
3844	0cde	34a50004		ori	%GPR5,%GPR5,$4	
3845	0cdf	8e2a0000		lw	%GPR10,0(%GPR17)	
3846	0ce0	00000000		nop	;;11,13
3847	0ce1	00000000		nop	;;11,13
3848	0ce2	00000000		nop	; Automatically added by fix-stall-insns.pl
3849	0ce3	00000000		nop	; Automatically added by fix-stall-insns.pl
3850	0ce4	00c11018		mult	%GPR2,%GPR6,%GPR1	
3851	0ce5	3c030000		lhi	%GPR3,$0	
3852	0ce6	00000000		nop
3853	0ce7	00000000		nop
3854	0ce8	00000000		nop
3855				; Automatically 1 NOPs removed by reduceNOPs.sh
3856	0ce9	34630004		ori	%GPR3,%GPR3,$4	
3857	0cea	afcafffc		sw	-4(%GPR30),%GPR10	
3858	0ceb	00000000		nop	;;15,17
3859	0cec	00000000		nop	;;15,17
3860	0ced	00000000		nop	; Automatically added by fix-stall-insns.pl
3861	0cee	00000000		nop	; Automatically added by fix-stall-insns.pl
3862	0cef	8e210000		lw	%GPR1,0(%GPR17)	
3863	0cf0	00c33818		mult	%GPR7,%GPR6,%GPR3	
3864	0cf1	00000000		nop	; Automatically added by fix-stall-insns.pl
3865	0cf2	00000000		nop	; Automatically added by fix-stall-insns.pl
3866	0cf3	00000000		nop	; Automatically added by fix-stall-insns.pl
3867	0cf4	8daa0000		lw	%GPR10,0(%GPR13)	
3868	0cf5	00000000		nop	;;19,21
3869	0cf6	00000000		nop	;;19,21
3870	0cf7	00000000		nop	; Automatically added by fix-stall-insns.pl
3871	0cf8	00000000		nop	; Automatically added by fix-stall-insns.pl
3872	0cf9	afc1fff8		sw	-8(%GPR30),%GPR1	
3873	0cfa	00000000		nop	; Automatically added by findLoadStoreProblem.sh
3874	0cfb	00000000		nop	; Automatically added by fix-stall-insns.pl
3875	0cfc	00000000		nop	; Automatically added by fix-stall-insns.pl
3876	0cfd	00000000		nop	; Automatically added by fix-stall-insns.pl
3877	0cfe	8da10000		lw	%GPR1,0(%GPR13)	
3878	0cff	8da30000		lw	%GPR3,0(%GPR13)	
3879	0d00	00000000		nop	;;23,26
3880	0d01	00000000		nop	;;23,26
3881	0d02	00000000		nop	;;23,26
3882	0d03	00000000		nop	; Automatically added by fix-stall-insns.pl
3883	0d04	afc1fff4		sw	-12(%GPR30),%GPR1	
3884	0d05	00000000		nop	; Automatically added by findLoadStoreProblem.sh
3885	0d06	00000000		nop	; Automatically added by fix-stall-insns.pl
3886	0d07	00000000		nop	; Automatically added by fix-stall-insns.pl
3887	0d08	00000000		nop	; Automatically added by fix-stall-insns.pl
3888	0d09	8e210000		lw	%GPR1,0(%GPR17)	
3889	0d0a	3c080000		lhi	%GPR8,$0	
3890	0d0b	00000000		nop
3891	0d0c	00000000		nop
3892	0d0d	00000000		nop
3893				; Automatically 1 NOPs removed by reduceNOPs.sh
3894	0d0e	35080004		ori	%GPR8,%GPR8,$4	
3895	0d0f	00000000		nop	;;28,31
3896	0d10	00000000		nop	;;28,31
3897	0d11	00000000		nop	;;28,31
3898	0d12	afc1fff0		sw	-16(%GPR30),%GPR1	
3899	0d13	00000000		nop	; Automatically added by findLoadStoreProblem.sh
3900	0d14	00000000		nop	; Automatically added by fix-stall-insns.pl
3901	0d15	00000000		nop	; Automatically added by fix-stall-insns.pl
3902	0d16	00000000		nop	; Automatically added by fix-stall-insns.pl
3903	0d17	8da10000		lw	%GPR1,0(%GPR13)	
3904	0d18	01a26820		add	%GPR13,%GPR13,%GPR2	
3905	0d19	00000000		nop	;;33,36
3906	0d1a	00000000		nop	;;33,36
3907	0d1b	00000000		nop	;;33,36
3908	0d1c	afc1ffec		sw	-20(%GPR30),%GPR1	
3909	0d1d	00000000		nop	; Automatically added by findLoadStoreProblem.sh
3910	0d1e	00000000		nop	; Automatically added by fix-stall-insns.pl
3911	0d1f	00000000		nop	; Automatically added by fix-stall-insns.pl
3912	0d20	00000000		nop	; Automatically added by fix-stall-insns.pl
3913	0d21	8e210000		lw	%GPR1,0(%GPR17)	
3914	0d22	02258820		add	%GPR17,%GPR17,%GPR5	
3915	0d23	00000000		nop	; Automatically added by fix-stall-insns.pl
3916	0d24	00000000		nop	; Automatically added by fix-stall-insns.pl
3917	0d25	00000000		nop	; Automatically added by fix-stall-insns.pl
3918	0d26	8db50000		lw	%GPR21,0(%GPR13)	
3919	0d27	8da20000		lw	%GPR2,0(%GPR13)	
3920	0d28	00000000		nop	;;40,42
3921	0d29	00000000		nop	;;40,42
3922	0d2a	00000000		nop	; Automatically added by fix-stall-insns.pl
3923	0d2b	00000000		nop	; Automatically added by fix-stall-insns.pl
3924	0d2c	8e250000		lw	%GPR5,0(%GPR17)	
3925	0d2d	8e320000		lw	%GPR18,0(%GPR17)	
3926	0d2e	00000000		nop	; Automatically added by fix-stall-insns.pl
3927	0d2f	00000000		nop	; Automatically added by fix-stall-insns.pl
3928	0d30	00000000		nop	; Automatically added by fix-stall-insns.pl
3929	0d31	00000000		nop	; Automatically added by fix-stall-insns.pl
3930	0d32	8e330000		lw	%GPR19,0(%GPR17)	
3931	0d33	00000000		nop	;;44,46
3932	0d34	00000000		nop	;;44,46
3933	0d35	00000000		nop	; Automatically added by fix-stall-insns.pl
3934	0d36	00000000		nop	; Automatically added by fix-stall-insns.pl
3935	0d37	afc5ffe8		sw	-24(%GPR30),%GPR5	
3936	0d38	00000000		nop	; Automatically added by findLoadStoreProblem.sh
3937	0d39	00000000		nop	; Automatically added by fix-stall-insns.pl
3938	0d3a	00000000		nop	; Automatically added by fix-stall-insns.pl
3939	0d3b	00000000		nop	; Automatically added by fix-stall-insns.pl
3940	0d3c	8e250000		lw	%GPR5,0(%GPR17)	
3941	0d3d	02288820		add	%GPR17,%GPR17,%GPR8	
3942	0d3e	00000000		nop	;;48,51
3943	0d3f	00000000		nop	;;48,51
3944	0d40	00000000		nop	;;48,51
3945	0d41	afc5ffe4		sw	-28(%GPR30),%GPR5	
3946	0d42	00000000		nop	; Automatically added by findLoadStoreProblem.sh
3947	0d43	00000000		nop	; Automatically added by fix-stall-insns.pl
3948	0d44	00000000		nop	; Automatically added by fix-stall-insns.pl
3949	0d45	00000000		nop	; Automatically added by fix-stall-insns.pl
3950	0d46	8da50000		lw	%GPR5,0(%GPR13)	
3951	0d47	00000000		nop	;;52,56
3952	0d48	00000000		nop	;;52,56
3953	0d49	00000000		nop	;;52,56
3954				; Automatically 1 NOPs removed by reduceNOPs.sh
3955	0d4a	00000000		nop	; Automatically added by fix-stall-insns.pl
3956	0d4b	afc5ffe0		sw	-32(%GPR30),%GPR5	
3957	0d4c	00000000		nop	; Automatically added by findLoadStoreProblem.sh
3958	0d4d	00000000		nop	; Automatically added by fix-stall-insns.pl
3959	0d4e	00000000		nop	; Automatically added by fix-stall-insns.pl
3960	0d4f	00000000		nop	; Automatically added by fix-stall-insns.pl
3961	0d50	8da50000		lw	%GPR5,0(%GPR13)	
3962	0d51	01a76820		add	%GPR13,%GPR13,%GPR7	
3963	0d52	00000000		nop	;;58,61
3964	0d53	00000000		nop	;;58,61
3965	0d54	00000000		nop	;;58,61
3966	0d55	afc5ffdc		sw	-36(%GPR30),%GPR5	
3967	0d56	00000000		nop	; Automatically added by findLoadStoreProblem.sh
3968	0d57	00000000		nop	; Automatically added by fix-stall-insns.pl
3969	0d58	00000000		nop	; Automatically added by fix-stall-insns.pl
3970	0d59	00000000		nop	; Automatically added by fix-stall-insns.pl
3971	0d5a	8e250000		lw	%GPR5,0(%GPR17)	
3972	0d5b	00000000		nop	;;62,66
3973	0d5c	00000000		nop	;;62,66
3974	0d5d	00000000		nop	;;62,66
3975				; Automatically 1 NOPs removed by reduceNOPs.sh
3976	0d5e	00000000		nop	; Automatically added by fix-stall-insns.pl
3977	0d5f	afc5ffd8		sw	-40(%GPR30),%GPR5	
3978	0d60	00000000		nop	; Automatically added by findLoadStoreProblem.sh
3979	0d61	00000000		nop	; Automatically added by fix-stall-insns.pl
3980	0d62	00000000		nop	; Automatically added by fix-stall-insns.pl
3981	0d63	00000000		nop	; Automatically added by fix-stall-insns.pl
3982	0d64	8e250000		lw	%GPR5,0(%GPR17)	
3983	0d65	3c1a00ff		lhi	%GPR26,$255	
3984	0d66	00000000		nop
3985	0d67	00000000		nop
3986	0d68	00000000		nop
3987				; Automatically 1 NOPs removed by reduceNOPs.sh
3988	0d69	375a0000		ori	%GPR26,%GPR26,$16711680	
3989	0d6a	00000000		nop	;;68,71
3990	0d6b	00000000		nop	;;68,71
3991	0d6c	00000000		nop	;;68,71
3992	0d6d	afc5ffd4		sw	-44(%GPR30),%GPR5	
3993	0d6e	00000000		nop	; Automatically added by findLoadStoreProblem.sh
3994	0d6f	00000000		nop	; Automatically added by fix-stall-insns.pl
3995	0d70	00000000		nop	; Automatically added by fix-stall-insns.pl
3996	0d71	00000000		nop	; Automatically added by fix-stall-insns.pl
3997	0d72	8da50000		lw	%GPR5,0(%GPR13)	
3998	0d73	3c090000		lhi	%GPR9,$0	
3999	0d74	00000000		nop
4000	0d75	00000000		nop
4001	0d76	00000000		nop
4002				; Automatically 1 NOPs removed by reduceNOPs.sh
4003	0d77	35290004		ori	%GPR9,%GPR9,$4	
4004	0d78	027a9824		and	%GPR19,%GPR19,%GPR26	
4005	0d79	00000000		nop	;;74,76
4006	0d7a	00000000		nop	;;74,76
4007	0d7b	afc5ffd0		sw	-48(%GPR30),%GPR5	
4008	0d7c	00000000		nop	; Automatically added by findLoadStoreProblem.sh
4009	0d7d	00000000		nop	; Automatically added by fix-stall-insns.pl
4010	0d7e	00000000		nop	; Automatically added by fix-stall-insns.pl
4011	0d7f	00000000		nop	; Automatically added by fix-stall-insns.pl
4012	0d80	8da50000		lw	%GPR5,0(%GPR13)	
4013	0d81	00000000		nop	;;77,79
4014	0d82	00000000		nop	;;77,79
4015	0d83	3c1b00ff		lhi	%GPR27,$255	
4016	0d84	00000000		nop
4017	0d85	00000000		nop
4018	0d86	00000000		nop
4019				; Automatically 1 NOPs removed by reduceNOPs.sh
4020	0d87	377b0000		ori	%GPR27,%GPR27,$16711680	
4021	0d88	00000000		nop	;;79,81
4022	0d89	00000000		nop	;;79,81
4023	0d8a	afc5ffcc		sw	-52(%GPR30),%GPR5	
4024	0d8b	3c0500ff		lhi	%GPR5,$255	
4025	0d8c	00000000		nop
4026	0d8d	00000000		nop
4027	0d8e	00000000		nop
4028				; Automatically 1 NOPs removed by reduceNOPs.sh
4029	0d8f	34a50000		ori	%GPR5,%GPR5,$16711680	
4030	0d90	00000000		nop	;;82,84
4031	0d91	00000000		nop	;;82,84
4032	0d92	00c95818		mult	%GPR11,%GPR6,%GPR9	
4033	0d93	00000000		nop	;;84,86
4034	0d94	00000000		nop	;;84,86
4035	0d95	00000000		nop	; Automatically added by fix-stall-insns.pl
4036	0d96	afc5ffc8		sw	-56(%GPR30),%GPR5	
4037	0d97	3c0500ff		lhi	%GPR5,$255	
4038	0d98	00000000		nop
4039	0d99	00000000		nop
4040	0d9a	00000000		nop
4041				; Automatically 1 NOPs removed by reduceNOPs.sh
4042	0d9b	34a50000		ori	%GPR5,%GPR5,$16711680	
4043	0d9c	00000000		nop	;;87,90
4044	0d9d	00000000		nop	;;87,90
4045	0d9e	00000000		nop	;;87,90
4046	0d9f	afd3ffc4		sw	-60(%GPR30),%GPR19	
4047	0da0	afc5ffc0		sw	-64(%GPR30),%GPR5	
4048	0da1	3c05ff00		lhi	%GPR5,$65280	
4049	0da2	00000000		nop
4050	0da3	00000000		nop
4051	0da4	00000000		nop
4052				; Automatically 1 NOPs removed by reduceNOPs.sh
4053	0da5	34a50000		ori	%GPR5,%GPR5,$-16777216	
4054	0da6	02bb9824		and	%GPR19,%GPR21,%GPR27	
4055	0da7	00000000		nop	;;93,95
4056	0da8	00000000		nop	;;93,95
4057	0da9	3c0fff00		lhi	%GPR15,$65280	
4058	0daa	00000000		nop
4059	0dab	00000000		nop
4060	0dac	00000000		nop
4061				; Automatically 1 NOPs removed by reduceNOPs.sh
4062	0dad	35ef0000		ori	%GPR15,%GPR15,$-16777216	
4063	0dae	afc5ffbc		sw	-68(%GPR30),%GPR5	
4064	0daf	3c05ff00		lhi	%GPR5,$65280	
4065	0db0	00000000		nop
4066	0db1	00000000		nop
4067	0db2	00000000		nop
4068				; Automatically 1 NOPs removed by reduceNOPs.sh
4069	0db3	34a50000		ori	%GPR5,%GPR5,$-16777216	
4070	0db4	8e360000		lw	%GPR22,0(%GPR17)	
4071	0db5	3c0600ff		lhi	%GPR6,$255	
4072	0db6	00000000		nop
4073	0db7	00000000		nop
4074	0db8	00000000		nop
4075				; Automatically 1 NOPs removed by reduceNOPs.sh
4076	0db9	34c60000		ori	%GPR6,%GPR6,$16711680	
4077	0dba	afcaffb8		sw	-72(%GPR30),%GPR10	
4078	0dbb	afc5ffb4		sw	-76(%GPR30),%GPR5	
4079	0dbc	3c0500ff		lhi	%GPR5,$255	
4080	0dbd	00000000		nop
4081	0dbe	00000000		nop
4082	0dbf	00000000		nop
4083				; Automatically 1 NOPs removed by reduceNOPs.sh
4084	0dc0	34a50000		ori	%GPR5,%GPR5,$16711680	
4085	0dc1	8db80000		lw	%GPR24,0(%GPR13)	
4086	0dc2	3c090000		lhi	%GPR9,$0	
4087	0dc3	00000000		nop
4088	0dc4	00000000		nop
4089	0dc5	00000000		nop
4090				; Automatically 1 NOPs removed by reduceNOPs.sh
4091	0dc6	35290004		ori	%GPR9,%GPR9,$4	
4092	0dc7	3c0a00ff		lhi	%GPR10,$255	
4093	0dc8	00000000		nop
4094	0dc9	00000000		nop
4095	0dca	00000000		nop
4096				; Automatically 1 NOPs removed by reduceNOPs.sh
4097	0dcb	354a0000		ori	%GPR10,%GPR10,$16711680	
4098	0dcc	00652824		and	%GPR5,%GPR3,%GPR5	
4099	0dcd	3c07ff00		lhi	%GPR7,$65280	
4100	0dce	00000000		nop
4101	0dcf	00000000		nop
4102	0dd0	00000000		nop
4103				; Automatically 1 NOPs removed by reduceNOPs.sh
4104	0dd1	34e70000		ori	%GPR7,%GPR7,$-16777216	
4105	0dd2	8fc3fffc		lw	%GPR3,-4(%GPR30)	
4106	0dd3	00000000		nop	;;108,110
4107	0dd4	00000000		nop	;;108,110
4108	0dd5	00000000		nop	; Automatically added by fix-stall-insns.pl
4109	0dd6	00000000		nop	; Automatically added by fix-stall-insns.pl
4110	0dd7	afd3ffb0		sw	-80(%GPR30),%GPR19	
4111	0dd8	004f9824		and	%GPR19,%GPR2,%GPR15	
4112	0dd9	00000000		nop	;;111,113
4113	0dda	00000000		nop	;;111,113
4114	0ddb	00000000		nop	; Automatically added by fix-stall-insns.pl
4115	0ddc	8e340000		lw	%GPR20,0(%GPR17)	
4116	0ddd	02c61024		and	%GPR2,%GPR22,%GPR6	
4117	0dde	02298820		add	%GPR17,%GPR17,%GPR9	
4118	0ddf	030a3024		and	%GPR6,%GPR24,%GPR10	
4119	0de0	00675024		and	%GPR10,%GPR3,%GPR7	
4120	0de1	3c0cff00		lhi	%GPR12,$65280	
4121	0de2	00000000		nop
4122	0de3	00000000		nop
4123	0de4	00000000		nop
4124				; Automatically 1 NOPs removed by reduceNOPs.sh
4125	0de5	358c0000		ori	%GPR12,%GPR12,$-16777216	
4126	0de6	3c08ff00		lhi	%GPR8,$65280	
4127	0de7	00000000		nop
4128	0de8	00000000		nop
4129	0de9	00000000		nop
4130				; Automatically 1 NOPs removed by reduceNOPs.sh
4131	0dea	35080000		ori	%GPR8,%GPR8,$-16777216	
4132	0deb	8fc3ffb8		lw	%GPR3,-72(%GPR30)	
4133	0dec	00000000		nop	;;120,122
4134	0ded	00000000		nop	;;120,122
4135	0dee	00000000		nop	; Automatically added by fix-stall-insns.pl
4136	0def	00000000		nop	; Automatically added by fix-stall-insns.pl
4137	0df0	8e300000		lw	%GPR16,0(%GPR17)	
4138	0df1	028ca824		and	%GPR21,%GPR20,%GPR12	
4139	0df2	00000000		nop	; Automatically added by fix-stall-insns.pl
4140	0df3	00000000		nop	; Automatically added by fix-stall-insns.pl
4141	0df4	00000000		nop	; Automatically added by fix-stall-insns.pl
4142	0df5	8db70000		lw	%GPR23,0(%GPR13)	
4143	0df6	00686024		and	%GPR12,%GPR3,%GPR8	
4144	0df7	3c0eff00		lhi	%GPR14,$65280	
4145	0df8	00000000		nop
4146	0df9	00000000		nop
4147	0dfa	00000000		nop
4148				; Automatically 1 NOPs removed by reduceNOPs.sh
4149	0dfb	35ce0000		ori	%GPR14,%GPR14,$-16777216	
4150	0dfc	8e290000		lw	%GPR9,0(%GPR17)	
4151	0dfd	8fc3ffbc		lw	%GPR3,-68(%GPR30)	
4152	0dfe	00000000		nop	; Automatically added by findLoadStoreProblem.sh
4153	0dff	00000000		nop	; Automatically added by fix-stall-insns.pl
4154	0e00	00000000		nop	; Automatically added by fix-stall-insns.pl
4155	0e01	00000000		nop	; Automatically added by fix-stall-insns.pl
4156	0e02	afd0ffac		sw	-84(%GPR30),%GPR16	
4157	0e03	02eea024		and	%GPR20,%GPR23,%GPR14	
4158	0e04	00000000		nop	; Automatically added by fix-stall-insns.pl
4159	0e05	00000000		nop	; Automatically added by fix-stall-insns.pl
4160	0e06	00000000		nop	; Automatically added by fix-stall-insns.pl
4161	0e07	8fc7ffc8		lw	%GPR7,-56(%GPR30)	
4162	0e08	01237024		and	%GPR14,%GPR9,%GPR3	
4163	0e09	00000000		nop	; Automatically added by fix-stall-insns.pl
4164	0e0a	00000000		nop	; Automatically added by fix-stall-insns.pl
4165	0e0b	00000000		nop	; Automatically added by fix-stall-insns.pl
4166	0e0c	8fc3ffac		lw	%GPR3,-84(%GPR30)	
4167	0e0d	01ab6820		add	%GPR13,%GPR13,%GPR11	
4168	0e0e	00000000		nop	;;134,137
4169	0e0f	00000000		nop	;;134,137
4170	0e10	00000000		nop	;;134,137
4171	0e11	00674024		and	%GPR8,%GPR3,%GPR7	
4172	0e12	8dab0000		lw	%GPR11,0(%GPR13)	
4173	0e13	8fc3ffb4		lw	%GPR3,-76(%GPR30)	
4174	0e14	00000000		nop	; Automatically added by fix-stall-insns.pl
4175	0e15	00000000		nop	; Automatically added by fix-stall-insns.pl
4176	0e16	00000000		nop	; Automatically added by fix-stall-insns.pl
4177	0e17	00000000		nop	; Automatically added by fix-stall-insns.pl
4178	0e18	8db00000		lw	%GPR16,0(%GPR13)	
4179	0e19	3c1cff00		lhi	%GPR28,$65280	
4180	0e1a	00000000		nop
4181	0e1b	00000000		nop
4182	0e1c	00000000		nop
4183				; Automatically 1 NOPs removed by reduceNOPs.sh
4184	0e1d	379c0000		ori	%GPR28,%GPR28,$-16777216	
4185	0e1e	00000000		nop	;;141,143
4186	0e1f	00000000		nop	;;141,143
4187	0e20	01637824		and	%GPR15,%GPR11,%GPR3	
4188	0e21	8fc3ffc0		lw	%GPR3,-64(%GPR30)	
4189	0e22	025c9024		and	%GPR18,%GPR18,%GPR28	
4190	0e23	00000000		nop	;;145,148
4191	0e24	00000000		nop	;;145,148
4192	0e25	00000000		nop	;;145,148
4193	0e26	02034824		and	%GPR9,%GPR16,%GPR3	
4194	0e27	3c030000		lhi	%GPR3,$0	
4195	0e28	00000000		nop
4196	0e29	00000000		nop
4197	0e2a	00000000		nop
4198				; Automatically 1 NOPs removed by reduceNOPs.sh
4199	0e2b	34630018		ori	%GPR3,%GPR3,$24	
4200	0e2c	8fd0ffb0		lw	%GPR16,-80(%GPR30)	
4201	0e2d	3c1900ff		lhi	%GPR25,$255	
4202	0e2e	00000000		nop
4203	0e2f	00000000		nop
4204	0e30	00000000		nop
4205				; Automatically 1 NOPs removed by reduceNOPs.sh
4206	0e31	37390000		ori	%GPR25,%GPR25,$16711680	
4207	0e32	00000000		nop	;;151,153
4208	0e33	00000000		nop	;;151,153
4209	0e34	02435802		srl	%GPR11,%GPR18,%GPR3	
4210	0e35	3c120000		lhi	%GPR18,$0	
4211	0e36	00000000		nop
4212	0e37	00000000		nop
4213	0e38	00000000		nop
4214				; Automatically 1 NOPs removed by reduceNOPs.sh
4215	0e39	36520010		ori	%GPR18,%GPR18,$16	
4216	0e3a	00390824		and	%GPR1,%GPR1,%GPR25	
4217	0e3b	02633802		srl	%GPR7,%GPR19,%GPR3	
4218	0e3c	0183c002		srl	%GPR24,%GPR12,%GPR3	
4219	0e3d	0212d003		sra	%GPR26,%GPR16,%GPR18	
4220	0e3e	8fd0ffc4		lw	%GPR16,-60(%GPR30)	
4221	0e3f	00529803		sra	%GPR19,%GPR2,%GPR18	
4222	0e40	0143c802		srl	%GPR25,%GPR10,%GPR3	
4223	0e41	01e31002		srl	%GPR2,%GPR15,%GPR3	
4224	0e42	0212d803		sra	%GPR27,%GPR16,%GPR18	
4225	0e43	00d28003		sra	%GPR16,%GPR6,%GPR18	
4226	0e44	00323003		sra	%GPR6,%GPR1,%GPR18	
4227	0e45	8fc1ffe8		lw	%GPR1,-24(%GPR30)	
4228	0e46	0283a002		srl	%GPR20,%GPR20,%GPR3	
4229	0e47	02a3a802		srl	%GPR21,%GPR21,%GPR3	
4230	0e48	01c31802		srl	%GPR3,%GPR14,%GPR3	
4231	0e49	00000000		nop	; Automatically added by fix-stall-insns.pl
4232	0e4a	8fccffd0		lw	%GPR12,-48(%GPR30)	
4233	0e4b	302eff00		andi	%GPR14,%GPR1,$65280	
4234	0e4c	00000000		nop	; Automatically added by fix-stall-insns.pl
4235	0e4d	00000000		nop	; Automatically added by fix-stall-insns.pl
4236	0e4e	00000000		nop	; Automatically added by fix-stall-insns.pl
4237	0e4f	8fc1ffe0		lw	%GPR1,-32(%GPR30)	
4238	0e50	01125003		sra	%GPR10,%GPR8,%GPR18	
4239	0e51	318fff00		andi	%GPR15,%GPR12,$65280	
4240	0e52	00eb6023		subu	%GPR12,%GPR7,%GPR11	
4241	0e53	02953823		subu	%GPR7,%GPR20,%GPR21	
4242	0e54	3028ff00		andi	%GPR8,%GPR1,$65280	
4243	0e55	8db70000		lw	%GPR23,0(%GPR13)	
4244	0e56	8db40000		lw	%GPR20,0(%GPR13)	
4245	0e57	00000000		nop	; Automatically added by fix-stall-insns.pl
4246	0e58	00000000		nop	; Automatically added by fix-stall-insns.pl
4247	0e59	00000000		nop	; Automatically added by fix-stall-insns.pl
4248	0e5a	00000000		nop	; Automatically added by fix-stall-insns.pl
4249	0e5b	8fc1ffd8		lw	%GPR1,-40(%GPR30)	
4250	0e5c	00000000		nop	;;180,182
4251	0e5d	00000000		nop	;;180,182
4252	0e5e	00000000		nop	; Automatically added by fix-stall-insns.pl
4253	0e5f	00000000		nop	; Automatically added by fix-stall-insns.pl
4254	0e60	8fcdfff0		lw	%GPR13,-16(%GPR30)	
4255	0e61	02138022		sub	%GPR16,%GPR16,%GPR19	
4256	0e62	3021ff00		andi	%GPR1,%GPR1,$65280	
4257	0e63	3c130000		lhi	%GPR19,$0	
4258	0e64	00000000		nop
4259	0e65	00000000		nop
4260	0e66	00000000		nop
4261				; Automatically 1 NOPs removed by reduceNOPs.sh
4262	0e67	36730008		ori	%GPR19,%GPR19,$8	
4263	0e68	31adff00		andi	%GPR13,%GPR13,$65280	
4264	0e69	035b5822		sub	%GPR11,%GPR26,%GPR27	
4265	0e6a	00b22803		sra	%GPR5,%GPR5,%GPR18	
4266	0e6b	0033d003		sra	%GPR26,%GPR1,%GPR19	
4267	0e6c	8fc1fff8		lw	%GPR1,-8(%GPR30)	
4268	0e6d	00000000		nop	; Automatically added by findLoadStoreProblem.sh
4269	0e6e	00000000		nop	; Automatically added by fix-stall-insns.pl
4270	0e6f	00000000		nop	; Automatically added by fix-stall-insns.pl
4271	0e70	00000000		nop	; Automatically added by fix-stall-insns.pl
4272	0e71	afcdffa8		sw	-88(%GPR30),%GPR13	
4273	0e72	01324803		sra	%GPR9,%GPR9,%GPR18	
4274	0e73	00431023		subu	%GPR2,%GPR2,%GPR3	
4275	0e74	00000000		nop	; Automatically added by fix-stall-insns.pl
4276	0e75	00000000		nop	; Automatically added by fix-stall-insns.pl
4277	0e76	8fcdffec		lw	%GPR13,-20(%GPR30)	
4278	0e77	8e360000		lw	%GPR22,0(%GPR17)	
4279	0e78	00a61822		sub	%GPR3,%GPR5,%GPR6	
4280	0e79	0319c023		subu	%GPR24,%GPR24,%GPR25	
4281	0e7a	01f3c803		sra	%GPR25,%GPR15,%GPR19	
4282	0e7b	00000000		nop	; Automatically added by fix-stall-insns.pl
4283	0e7c	8fc5ffe4		lw	%GPR5,-28(%GPR30)	
4284	0e7d	302f00ff		andi	%GPR15,%GPR1,$255	
4285	0e7e	012a4822		sub	%GPR9,%GPR9,%GPR10	
4286	0e7f	31b5ff00		andi	%GPR21,%GPR13,$65280	
4287	0e80	00000000		nop	; Automatically added by fix-stall-insns.pl
4288	0e81	8fc1fff4		lw	%GPR1,-12(%GPR30)	
4289	0e82	01925000		sll	%GPR10,%GPR12,%GPR18	
4290	0e83	32cdff00		andi	%GPR13,%GPR22,$65280	
4291	0e84	316cffff		andi	%GPR12,%GPR11,$65535	
4292	0e85	30b600ff		andi	%GPR22,%GPR5,$255	
4293	0e86	320bffff		andi	%GPR11,%GPR16,$65535	
4294	0e87	8fc5ffdc		lw	%GPR5,-36(%GPR30)	
4295	0e88	303000ff		andi	%GPR16,%GPR1,$255	
4296	0e89	03120800		sll	%GPR1,%GPR24,%GPR18	
4297	0e8a	01a0d820		add	%GPR27,%GPR13,%GPR0	
4298	0e8b	32edff00		andi	%GPR13,%GPR23,$65280	
4299	0e8c	8fd8ffa8		lw	%GPR24,-88(%GPR30)	
4300	0e8d	30b700ff		andi	%GPR23,%GPR5,$255	
4301	0e8e	00000000		nop	; Automatically added by fix-stall-insns.pl
4302	0e8f	00000000		nop	; Automatically added by fix-stall-insns.pl
4303	0e90	00000000		nop	; Automatically added by fix-stall-insns.pl
4304	0e91	8fc6ffcc		lw	%GPR6,-52(%GPR30)	
4305	0e92	8fc5ffd4		lw	%GPR5,-44(%GPR30)	
4306	0e93	00000000		nop	;;217,219
4307	0e94	00000000		nop	;;217,219
4308	0e95	01134003		sra	%GPR8,%GPR8,%GPR19	
4309	0e96	01d37003		sra	%GPR14,%GPR14,%GPR19	
4310	0e97	02b3a803		sra	%GPR21,%GPR21,%GPR19	
4311	0e98	01b36803		sra	%GPR13,%GPR13,%GPR19	
4312	0e99	0313c003		sra	%GPR24,%GPR24,%GPR19	
4313	0e9a	03739803		sra	%GPR19,%GPR27,%GPR19	
4314	0e9b	30c600ff		andi	%GPR6,%GPR6,$255	
4315	0e9c	30a500ff		andi	%GPR5,%GPR5,$255	
4316	0e9d	3c1b0000		lhi	%GPR27,$0	
4317	0e9e	00000000		nop
4318	0e9f	00000000		nop
4319	0ea0	00000000		nop
4320				; Automatically 1 NOPs removed by reduceNOPs.sh
4321	0ea1	377b0002		ori	%GPR27,%GPR27,$2	
4322	0ea2	00000000		nop	;;227,229
4323	0ea3	00000000		nop	;;227,229
4324	0ea4	02f6b022		sub	%GPR22,%GPR23,%GPR22	
4325	0ea5	00c5b822		sub	%GPR23,%GPR6,%GPR5	
4326	0ea6	afdbffa4		sw	-92(%GPR30),%GPR27	
4327	0ea7	014c2825		or	%GPR5,%GPR10,%GPR12	
4328	0ea8	3c1bffff		lhi	%GPR27,$65535	
4329	0ea9	00000000		nop
4330	0eaa	00000000		nop
4331	0eab	00000000		nop
4332				; Automatically 1 NOPs removed by reduceNOPs.sh
4333	0eac	377b0000		ori	%GPR27,%GPR27,$-65536	
4334	0ead	00521000		sll	%GPR2,%GPR2,%GPR18	
4335	0eae	3129ffff		andi	%GPR9,%GPR9,$65535	
4336	0eaf	00000000		nop	;;235,237
4337	0eb0	00000000		nop	;;235,237
4338	0eb1	010e3022		sub	%GPR6,%GPR8,%GPR14	
4339	0eb2	30aaffff		andi	%GPR10,%GPR5,$65535	
4340	0eb3	afdbffa0		sw	-96(%GPR30),%GPR27	
4341	0eb4	00494825		or	%GPR9,%GPR2,%GPR9	
4342	0eb5	3c1bffff		lhi	%GPR27,$65535	
4343	0eb6	00000000		nop
4344	0eb7	00000000		nop
4345	0eb8	00000000		nop
4346				; Automatically 1 NOPs removed by reduceNOPs.sh
4347	0eb9	377b0000		ori	%GPR27,%GPR27,$-65536	
4348	0eba	32e2ffff		andi	%GPR2,%GPR23,$65535	
4349	0ebb	00d2b800		sll	%GPR23,%GPR6,%GPR18	
4350	0ebc	00f23800		sll	%GPR7,%GPR7,%GPR18	
4351	0ebd	41460010		slli	%GPR6,%GPR10,$16	
4352	0ebe	03605020		add	%GPR10,%GPR27,%GPR0	
4353	0ebf	00000000		nop	;;246,248
4354	0ec0	00000000		nop	;;246,248
4355	0ec1	8e310000		lw	%GPR17,0(%GPR17)	
4356	0ec2	00eb3825		or	%GPR7,%GPR7,%GPR11	
4357	0ec3	ccaa2c00		fex	%GPR5,%GPR5,%GPR10,$16	
4358	0ec4	3063ffff		andi	%GPR3,%GPR3,$65535	
4359	0ec5	3c0b0000		lhi	%GPR11,$0	
4360	0ec6	00000000		nop
4361	0ec7	00000000		nop
4362	0ec8	00000000		nop
4363				; Automatically 1 NOPs removed by reduceNOPs.sh
4364	0ec9	356b0002		ori	%GPR11,%GPR11,$2	
4365	0eca	329400ff		andi	%GPR20,%GPR20,$255	
4366	0ecb	323100ff		andi	%GPR17,%GPR17,$255	
4367	0ecc	8fcaffa0		lw	%GPR10,-96(%GPR30)	
4368	0ecd	00000000		nop	;;255,258
4369	0ece	00000000		nop	;;255,258
4370	0ecf	00000000		nop	;;255,258
4371	0ed0	033a4022		sub	%GPR8,%GPR25,%GPR26	
4372	0ed1	00231825		or	%GPR3,%GPR1,%GPR3	
4373	0ed2	020f7822		sub	%GPR15,%GPR16,%GPR15	
4374	0ed3	30eeffff		andi	%GPR14,%GPR7,$65535	
4375	0ed4	afcbff9c		sw	-100(%GPR30),%GPR11	
4376	0ed5	ccea3c00		fex	%GPR7,%GPR7,%GPR10,$16	
4377	0ed6	02918022		sub	%GPR16,%GPR20,%GPR17	
4378	0ed7	3c0cffff		lhi	%GPR12,$65535	
4379	0ed8	00000000		nop
4380	0ed9	00000000		nop
4381	0eda	00000000		nop
4382				; Automatically 1 NOPs removed by reduceNOPs.sh
4383	0edb	358c0000		ori	%GPR12,%GPR12,$-65536	
4384	0edc	3c0bffff		lhi	%GPR11,$65535	
4385	0edd	00000000		nop
4386	0ede	00000000		nop
4387	0edf	00000000		nop
4388				; Automatically 1 NOPs removed by reduceNOPs.sh
4389	0ee0	356b0000		ori	%GPR11,%GPR11,$-65536	
4390	0ee1	02b88822		sub	%GPR17,%GPR21,%GPR24	
4391	0ee2	0112c000		sll	%GPR24,%GPR8,%GPR18	
4392	0ee3	3134ffff		andi	%GPR20,%GPR9,$65535	
4393	0ee4	3075ffff		andi	%GPR21,%GPR3,$65535	
4394	0ee5	41c80010		slli	%GPR8,%GPR14,$16	
4395	0ee6	00a75022		sub	%GPR10,%GPR5,%GPR7	
4396	0ee7	cd2b4c00		fex	%GPR9,%GPR9,%GPR11,$16	
4397	0ee8	cc6c1c00		fex	%GPR3,%GPR3,%GPR12,$16	
4398	0ee9	8fceffa4		lw	%GPR14,-92(%GPR30)	
4399	0eea	8fccff9c		lw	%GPR12,-100(%GPR30)	
4400	0eeb	00000000		nop	;;276,278
4401	0eec	00000000		nop	;;276,278
4402	0eed	00695822		sub	%GPR11,%GPR3,%GPR9	
4403	0eee	00000000		nop	; Automatically added by fix-stall-insns.pl
4404	0eef	014ed018		mult	%GPR26,%GPR10,%GPR14	
4405	0ef0	48c60010		srai	%GPR6,%GPR6,$16	
4406	0ef1	49080010		srai	%GPR8,%GPR8,$16	
4407	0ef2	00000000		nop	;;281,283
4408	0ef3	00000000		nop	;;281,283
4409	0ef4	056c5038		mac	%GPR10,%GPR11,%GPR12	
4410	0ef5	01b39822		sub	%GPR19,%GPR13,%GPR19	
4411	0ef6	02328800		sll	%GPR17,%GPR17,%GPR18	
4412	0ef7	3c0d0000		lhi	%GPR13,$0	
4413	0ef8	00000000		nop
4414	0ef9	00000000		nop
4415	0efa	00000000		nop
4416				; Automatically 1 NOPs removed by reduceNOPs.sh
4417	0efb	35ad0002		ori	%GPR13,%GPR13,$2	
4418	0efc	01406020		add	%GPR12,%GPR10,%GPR0	
4419	0efd	3c0a0000		lhi	%GPR10,$0	
4420	0efe	00000000		nop
4421	0eff	00000000		nop
4422	0f00	00000000		nop
4423				; Automatically 1 NOPs removed by reduceNOPs.sh
4424	0f01	354a0002		ori	%GPR10,%GPR10,$2	
4425	0f02	02729000		sll	%GPR18,%GPR19,%GPR18	
4426	0f03	00000000		nop	;;289,291
4427	0f04	00000000		nop	;;289,291
4428	0f05	42b30010		slli	%GPR19,%GPR21,$16	
4429	0f06	afcaff98		sw	-104(%GPR30),%GPR10	
4430	0f07	00c85022		sub	%GPR10,%GPR6,%GPR8	
4431	0f08	42940010		slli	%GPR20,%GPR20,$16	
4432	0f09	4a730010		srai	%GPR19,%GPR19,$16	
4433	0f0a	32c1ffff		andi	%GPR1,%GPR22,$65535	
4434	0f0b	014dc818		mult	%GPR25,%GPR10,%GPR13	
4435	0f0c	4a940010		srai	%GPR20,%GPR20,$16	
4436	0f0d	00000000		nop	;;298,301
4437	0f0e	00000000		nop	;;298,301
4438	0f0f	00000000		nop	;;298,301
4439	0f10	017a6822		sub	%GPR13,%GPR11,%GPR26	
4440	0f11	3c0b0000		lhi	%GPR11,$0	
4441	0f12	00000000		nop
4442	0f13	00000000		nop
4443	0f14	00000000		nop
4444				; Automatically 1 NOPs removed by reduceNOPs.sh
4445	0f15	356b0002		ori	%GPR11,%GPR11,$2	
4446	0f16	00000000		nop	;;302,304
4447	0f17	00000000		nop	;;302,304
4448	0f18	03021025		or	%GPR2,%GPR24,%GPR2	
4449	0f19	02e10825		or	%GPR1,%GPR23,%GPR1	
4450	0f1a	afcbff94		sw	-108(%GPR30),%GPR11	
4451	0f1b	02745822		sub	%GPR11,%GPR19,%GPR20	
4452	0f1c	31efffff		andi	%GPR15,%GPR15,$65535	
4453	0f1d	3210ffff		andi	%GPR16,%GPR16,$65535	
4454	0f1e	3c0e0000		lhi	%GPR14,$0	
4455	0f1f	00000000		nop
4456	0f20	00000000		nop
4457	0f21	00000000		nop
4458				; Automatically 1 NOPs removed by reduceNOPs.sh
4459	0f22	35ce0002		ori	%GPR14,%GPR14,$2	
4460	0f23	3c16ffff		lhi	%GPR22,$65535	
4461	0f24	00000000		nop
4462	0f25	00000000		nop
4463	0f26	00000000		nop
4464				; Automatically 1 NOPs removed by reduceNOPs.sh
4465	0f27	36d60000		ori	%GPR22,%GPR22,$-65536	
4466	0f28	3c15ffff		lhi	%GPR21,$65535	
4467	0f29	00000000		nop
4468	0f2a	00000000		nop
4469	0f2b	00000000		nop
4470				; Automatically 1 NOPs removed by reduceNOPs.sh
4471	0f2c	36b50000		ori	%GPR21,%GPR21,$-65536	
4472	0f2d	00000000		nop	;;312,315
4473	0f2e	00000000		nop	;;312,315
4474	0f2f	00000000		nop	;;312,315
4475	0f30	022f7825		or	%GPR15,%GPR17,%GPR15	
4476	0f31	02508025		or	%GPR16,%GPR18,%GPR16	
4477	0f32	056e5038		mac	%GPR10,%GPR11,%GPR14	
4478	0f33	3058ffff		andi	%GPR24,%GPR2,$65535	
4479	0f34	3037ffff		andi	%GPR23,%GPR1,$65535	
4480	0f35	cc551400		fex	%GPR2,%GPR2,%GPR21,$16	
4481	0f36	cc360c00		fex	%GPR1,%GPR1,%GPR22,$16	
4482	0f37	3c1bffff		lhi	%GPR27,$65535	
4483	0f38	00000000		nop
4484	0f39	00000000		nop
4485	0f3a	00000000		nop
4486				; Automatically 1 NOPs removed by reduceNOPs.sh
4487	0f3b	377b0000		ori	%GPR27,%GPR27,$-65536	
4488	0f3c	3c1affff		lhi	%GPR26,$65535	
4489	0f3d	00000000		nop
4490	0f3e	00000000		nop
4491	0f3f	00000000		nop
4492				; Automatically 1 NOPs removed by reduceNOPs.sh
4493	0f40	375a0000		ori	%GPR26,%GPR26,$-65536	
4494	0f41	00a72820		add	%GPR5,%GPR5,%GPR7	
4495	0f42	00691820		add	%GPR3,%GPR3,%GPR9	
4496	0f43	01407020		add	%GPR14,%GPR10,%GPR0	
4497	0f44	31f1ffff		andi	%GPR17,%GPR15,$65535	
4498	0f45	3212ffff		andi	%GPR18,%GPR16,$65535	
4499	0f46	00225022		sub	%GPR10,%GPR1,%GPR2	
4500	0f47	cdfb7c00		fex	%GPR15,%GPR15,%GPR27,$16	
4501	0f48	ce1a8400		fex	%GPR16,%GPR16,%GPR26,$16	
4502	0f49	8fd5ff98		lw	%GPR21,-104(%GPR30)	
4503	0f4a	00653820		add	%GPR7,%GPR3,%GPR5	
4504	0f4b	00654822		sub	%GPR9,%GPR3,%GPR5	
4505	0f4c	0179b022		sub	%GPR22,%GPR11,%GPR25	
4506	0f4d	00000000		nop	; Automatically added by fix-stall-insns.pl
4507	0f4e	0155a818		mult	%GPR21,%GPR10,%GPR21	
4508	0f4f	01f05822		sub	%GPR11,%GPR15,%GPR16	
4509	0f50	00c82820		add	%GPR5,%GPR6,%GPR8	
4510	0f51	02741820		add	%GPR3,%GPR19,%GPR20	
4511	0f52	8fdaff94		lw	%GPR26,-108(%GPR30)	
4512	0f53	43180010		slli	%GPR24,%GPR24,$16	
4513	0f54	42f70010		slli	%GPR23,%GPR23,$16	
4514	0f55	42310010		slli	%GPR17,%GPR17,$16	
4515	0f56	42520010		slli	%GPR18,%GPR18,$16	
4516	0f57	00653020		add	%GPR6,%GPR3,%GPR5	
4517	0f58	00654022		sub	%GPR8,%GPR3,%GPR5	
4518	0f59	057a5038		mac	%GPR10,%GPR11,%GPR26	
4519	0f5a	01759822		sub	%GPR19,%GPR11,%GPR21	
4520	0f5b	00222820		add	%GPR5,%GPR1,%GPR2	
4521	0f5c	01f01820		add	%GPR3,%GPR15,%GPR16	
4522	0f5d	4a2b0010		srai	%GPR11,%GPR17,$16	
4523	0f5e	4af70010		srai	%GPR23,%GPR23,$16	
4524	0f5f	4b180010		srai	%GPR24,%GPR24,$16	
4525	0f60	00000000		nop	;;353,355
4526	0f61	00000000		nop	;;353,355
4527	0f62	4a510010		srai	%GPR17,%GPR18,$16	
4528	0f63	0140d020		add	%GPR26,%GPR10,%GPR0	
4529	0f64	02f85022		sub	%GPR10,%GPR23,%GPR24	
4530	0f65	00650822		sub	%GPR1,%GPR3,%GPR5	
4531	0f66	00657820		add	%GPR15,%GPR3,%GPR5	
4532	0f67	3c1c0000		lhi	%GPR28,$0	
4533	0f68	00000000		nop
4534	0f69	00000000		nop
4535	0f6a	00000000		nop
4536				; Automatically 1 NOPs removed by reduceNOPs.sh
4537	0f6b	379c0002		ori	%GPR28,%GPR28,$2	
4538	0f6c	00000000		nop	;;360,362
4539	0f6d	00000000		nop	;;360,362
4540	0f6e	01711820		add	%GPR3,%GPR11,%GPR17	
4541	0f6f	02f82820		add	%GPR5,%GPR23,%GPR24	
4542	0f70	015ce018		mult	%GPR28,%GPR10,%GPR28	
4543	0f71	01715822		sub	%GPR11,%GPR11,%GPR17	
4544	0f72	3c190000		lhi	%GPR25,$0	
4545	0f73	00000000		nop
4546	0f74	00000000		nop
4547	0f75	00000000		nop
4548				; Automatically 1 NOPs removed by reduceNOPs.sh
4549	0f76	37390002		ori	%GPR25,%GPR25,$2	
4550	0f77	00658020		add	%GPR16,%GPR3,%GPR5	
4551	0f78	00651022		sub	%GPR2,%GPR3,%GPR5	
4552	0f79	00cf2820		add	%GPR5,%GPR6,%GPR15	
4553	0f7a	05795038		mac	%GPR10,%GPR11,%GPR25	
4554	0f7b	00f01820		add	%GPR3,%GPR7,%GPR16	
4555	0f7c	00000000		nop	;;371,374
4556	0f7d	00000000		nop	;;371,374
4557	0f7e	00000000		nop	;;371,374
4558	0f7f	01408820		add	%GPR17,%GPR10,%GPR0	
4559	0f80	00655020		add	%GPR10,%GPR3,%GPR5	
4560	0f81	3c1b0000		lhi	%GPR27,$0	
4561	0f82	00000000		nop
4562	0f83	00000000		nop
4563	0f84	00000000		nop
4564				; Automatically 1 NOPs removed by reduceNOPs.sh
4565	0f85	377b0002		ori	%GPR27,%GPR27,$2	
4566	0f86	3c120000		lhi	%GPR18,$0	
4567	0f87	00000000		nop
4568	0f88	00000000		nop
4569	0f89	00000000		nop
4570				; Automatically 1 NOPs removed by reduceNOPs.sh
4571	0f8a	36520002		ori	%GPR18,%GPR18,$2	
4572	0f8b	00000000		nop	;;377,379
4573	0f8c	00000000		nop	;;377,379
4574	0f8d	3154ffff		andi	%GPR20,%GPR10,$65535	
4575	0f8e	00cf5022		sub	%GPR10,%GPR6,%GPR15	
4576	0f8f	017c3022		sub	%GPR6,%GPR11,%GPR28	
4577	0f90	00f05822		sub	%GPR11,%GPR7,%GPR16	
4578	0f91	42940010		slli	%GPR20,%GPR20,$16	
4579	0f92	015ba818		mult	%GPR21,%GPR10,%GPR27	
4580	0f93	00651822		sub	%GPR3,%GPR3,%GPR5	
4581	0f94	00000000		nop	;;385,388
4582	0f95	00000000		nop	;;385,388
4583	0f96	00000000		nop	;;385,388
4584	0f97	05725038		mac	%GPR10,%GPR11,%GPR18	
4585	0f98	01753822		sub	%GPR7,%GPR11,%GPR21	
4586	0f99	3c0b0000		lhi	%GPR11,$0	
4587	0f9a	00000000		nop
4588	0f9b	00000000		nop
4589	0f9c	00000000		nop
4590				; Automatically 1 NOPs removed by reduceNOPs.sh
4591	0f9d	356b0004		ori	%GPR11,%GPR11,$4	
4592	0f9e	3c0f0000		lhi	%GPR15,$0	
4593	0f9f	00000000		nop
4594	0fa0	00000000		nop
4595	0fa1	00000000		nop
4596				; Automatically 1 NOPs removed by reduceNOPs.sh
4597	0fa2	35ef0002		ori	%GPR15,%GPR15,$2	
4598	0fa3	314affff		andi	%GPR10,%GPR10,$65535	
4599	0fa4	30f2ffff		andi	%GPR18,%GPR7,$65535	
4600	0fa5	01da2820		add	%GPR5,%GPR14,%GPR26	
4601	0fa6	008ba820		add	%GPR21,%GPR4,%GPR11	
4602	0fa7	41500010		slli	%GPR16,%GPR10,$16	
4603	0fa8	02929025		or	%GPR18,%GPR20,%GPR18	
4604	0fa9	01da5022		sub	%GPR10,%GPR14,%GPR26	
4605	0faa	3074ffff		andi	%GPR20,%GPR3,$65535	
4606	0fab	01911820		add	%GPR3,%GPR12,%GPR17	
4607	0fac	01915822		sub	%GPR11,%GPR12,%GPR17	
4608	0fad	014f7818		mult	%GPR15,%GPR10,%GPR15	
4609	0fae	3c070000		lhi	%GPR7,$0	
4610	0faf	00000000		nop
4611	0fb0	00000000		nop
4612	0fb1	00000000		nop
4613				; Automatically 1 NOPs removed by reduceNOPs.sh
4614	0fb2	34e70002		ori	%GPR7,%GPR7,$2	
4615	0fb3	00657020		add	%GPR14,%GPR3,%GPR5	
4616	0fb4	00000000		nop	;;404,406
4617	0fb5	00000000		nop	;;404,406
4618	0fb6	ac920000		sw	0(%GPR4),%GPR18	
4619	0fb7	05675038		mac	%GPR10,%GPR11,%GPR7	
4620	0fb8	016f3822		sub	%GPR7,%GPR11,%GPR15	
4621	0fb9	31d7ffff		andi	%GPR23,%GPR14,$65535	
4622	0fba	02148025		or	%GPR16,%GPR16,%GPR20	
4623	0fbb	3c120000		lhi	%GPR18,$0	
4624	0fbc	00000000		nop
4625	0fbd	00000000		nop
4626	0fbe	00000000		nop
4627				; Automatically 1 NOPs removed by reduceNOPs.sh
4628	0fbf	36520008		ori	%GPR18,%GPR18,$8	
4629	0fc0	30f1ffff		andi	%GPR17,%GPR7,$65535	
4630	0fc1	42f40010		slli	%GPR20,%GPR23,$16	
4631	0fc2	314affff		andi	%GPR10,%GPR10,$65535	
4632	0fc3	00000000		nop	;;414,416
4633	0fc4	00000000		nop	;;414,416
4634	0fc5	00651822		sub	%GPR3,%GPR3,%GPR5	
4635	0fc6	aeb00000		sw	0(%GPR21),%GPR16	
4636	0fc7	00000000		nop	;;417,419
4637	0fc8	00000000		nop	;;417,419
4638	0fc9	00926020		add	%GPR12,%GPR4,%GPR18	
4639	0fca	02918025		or	%GPR16,%GPR20,%GPR17	
4640	0fcb	414f0010		slli	%GPR15,%GPR10,$16	
4641	0fcc	3c0b0000		lhi	%GPR11,$0	
4642	0fcd	00000000		nop
4643	0fce	00000000		nop
4644	0fcf	00000000		nop
4645				; Automatically 1 NOPs removed by reduceNOPs.sh
4646	0fd0	356b000c		ori	%GPR11,%GPR11,$12	
4647	0fd1	01015022		sub	%GPR10,%GPR8,%GPR1	
4648	0fd2	3c0e0000		lhi	%GPR14,$0	
4649	0fd3	00000000		nop
4650	0fd4	00000000		nop
4651	0fd5	00000000		nop
4652				; Automatically 1 NOPs removed by reduceNOPs.sh
4653	0fd6	35ce0002		ori	%GPR14,%GPR14,$2	
4654	0fd7	00000000		nop	;;424,426
4655	0fd8	00000000		nop	;;424,426
4656	0fd9	3071ffff		andi	%GPR17,%GPR3,$65535	
4657	0fda	01221820		add	%GPR3,%GPR9,%GPR2	
4658	0fdb	01012820		add	%GPR5,%GPR8,%GPR1	
4659	0fdc	ad900000		sw	0(%GPR12),%GPR16	
4660	0fdd	008b6020		add	%GPR12,%GPR4,%GPR11	
4661	0fde	00000000		nop	; Automatically added by fix-stall-insns.pl
4662	0fdf	00000000		nop	; Automatically added by fix-stall-insns.pl
4663	0fe0	00000000		nop	; Automatically added by fix-stall-insns.pl
4664	0fe1	014e7018		mult	%GPR14,%GPR10,%GPR14	
4665	0fe2	01225822		sub	%GPR11,%GPR9,%GPR2	
4666	0fe3	3c070000		lhi	%GPR7,$0	
4667	0fe4	00000000		nop
4668	0fe5	00000000		nop
4669	0fe6	00000000		nop
4670				; Automatically 1 NOPs removed by reduceNOPs.sh
4671	0fe7	34e70002		ori	%GPR7,%GPR7,$2	
4672	0fe8	00650820		add	%GPR1,%GPR3,%GPR5	
4673	0fe9	00000000		nop	;;434,436
4674	0fea	00000000		nop	;;434,436
4675	0feb	016e1022		sub	%GPR2,%GPR11,%GPR14	
4676	0fec	05675038		mac	%GPR10,%GPR11,%GPR7	
4677	0fed	3032ffff		andi	%GPR18,%GPR1,$65535	
4678	0fee	01f17825		or	%GPR15,%GPR15,%GPR17	
4679	0fef	00651822		sub	%GPR3,%GPR3,%GPR5	
4680	0ff0	3149ffff		andi	%GPR9,%GPR10,$65535	
4681	0ff1	304affff		andi	%GPR10,%GPR2,$65535	
4682	0ff2	3c010000		lhi	%GPR1,$0	
4683	0ff3	00000000		nop
4684	0ff4	00000000		nop
4685	0ff5	00000000		nop
4686				; Automatically 1 NOPs removed by reduceNOPs.sh
4687	0ff6	34210010		ori	%GPR1,%GPR1,$16	
4688	0ff7	42500010		slli	%GPR16,%GPR18,$16	
4689	0ff8	00000000		nop	;;444,446
4690	0ff9	00000000		nop	;;444,446
4691	0ffa	ad8f0000		sw	0(%GPR12),%GPR15	
4692	0ffb	306cffff		andi	%GPR12,%GPR3,$65535	
4693	0ffc	020a5825		or	%GPR11,%GPR16,%GPR10	
4694	0ffd	00810820		add	%GPR1,%GPR4,%GPR1	
4695	0ffe	00000000		nop	;;449,451
4696	0fff	00000000		nop	;;449,451
4697	1000	01a61820		add	%GPR3,%GPR13,%GPR6	
4698	1001	02d35022		sub	%GPR10,%GPR22,%GPR19	
4699	1002	02d32820		add	%GPR5,%GPR22,%GPR19	
4700	1003	3c080000		lhi	%GPR8,$0	
4701	1004	00000000		nop
4702	1005	00000000		nop
4703	1006	00000000		nop
4704				; Automatically 1 NOPs removed by reduceNOPs.sh
4705	1007	35080002		ori	%GPR8,%GPR8,$2	
4706	1008	00000000		nop	;;454,456
4707	1009	00000000		nop	;;454,456
4708	100a	ac2b0000		sw	0(%GPR1),%GPR11	
4709	100b	3c020000		lhi	%GPR2,$0	
4710	100c	00000000		nop
4711	100d	00000000		nop
4712	100e	00000000		nop
4713				; Automatically 1 NOPs removed by reduceNOPs.sh
4714	100f	34420014		ori	%GPR2,%GPR2,$20	
4715	1010	00000000		nop	;;457,459
4716	1011	00000000		nop	;;457,459
4717	1012	01484018		mult	%GPR8,%GPR10,%GPR8	
4718	1013	00657020		add	%GPR14,%GPR3,%GPR5	
4719	1014	01a65822		sub	%GPR11,%GPR13,%GPR6	
4720	1015	3c070000		lhi	%GPR7,$0	
4721	1016	00000000		nop
4722	1017	00000000		nop
4723	1018	00000000		nop
4724				; Automatically 1 NOPs removed by reduceNOPs.sh
4725	1019	34e70002		ori	%GPR7,%GPR7,$2	
4726	101a	41290010		slli	%GPR9,%GPR9,$16	
4727	101b	3c010000		lhi	%GPR1,$0	
4728	101c	00000000		nop
4729	101d	00000000		nop
4730	101e	00000000		nop
4731				; Automatically 1 NOPs removed by reduceNOPs.sh
4732	101f	34210018		ori	%GPR1,%GPR1,$24	
4733	1020	00827820		add	%GPR15,%GPR4,%GPR2	
4734	1021	01681022		sub	%GPR2,%GPR11,%GPR8	
4735	1022	05675038		mac	%GPR10,%GPR11,%GPR7	
4736	1023	31ceffff		andi	%GPR14,%GPR14,$65535	
4737	1024	012c4825		or	%GPR9,%GPR9,%GPR12	
4738	1025	00814020		add	%GPR8,%GPR4,%GPR1	
4739	1026	00650822		sub	%GPR1,%GPR3,%GPR5	
4740	1027	3042ffff		andi	%GPR2,%GPR2,$65535	
4741	1028	3146ffff		andi	%GPR6,%GPR10,$65535	
4742	1029	00000000		nop	;;473,475
4743	102a	00000000		nop	;;473,475
4744	102b	41cc0010		slli	%GPR12,%GPR14,$16	
4745	102c	ade90000		sw	0(%GPR15),%GPR9	
4746	102d	3021ffff		andi	%GPR1,%GPR1,$65535	
4747	102e	40c60010		slli	%GPR6,%GPR6,$16	
4748	102f	3c070000		lhi	%GPR7,$0	
4749	1030	00000000		nop
4750	1031	00000000		nop
4751	1032	00000000		nop
4752				; Automatically 1 NOPs removed by reduceNOPs.sh
4753	1033	34e7001c		ori	%GPR7,%GPR7,$28	
4754	1034	01821025		or	%GPR2,%GPR12,%GPR2	
4755	1035	00000000		nop	;;480,482
4756	1036	00000000		nop	;;480,482
4757	1037	00c10825		or	%GPR1,%GPR6,%GPR1	
4758	1038	00871820		add	%GPR3,%GPR4,%GPR7	
4759	1039	ad020000		sw	0(%GPR8),%GPR2	
4760	103a	00000000		nop	;;484,488
4761	103b	00000000		nop	;;484,488
4762	103c	00000000		nop	;;484,488
4763				; Automatically 1 NOPs removed by reduceNOPs.sh
4764	103d	00000000		nop	; Automatically added by fix-stall-insns.pl
4765	103e	ac610000		sw	0(%GPR3),%GPR1	
4766	103f	00000000		nop
4767	1040	00000000		nop
4768	1041	00000000		nop
4769			L_main_56:
4770	1042	00000000		nop
4771	1043	00000000		nop
4772	1044	00000000		nop
4773				; Automatically 1 NOPs removed by reduceNOPs.sh
4774	1045	8fdf0004		lw	%GPR31,4(%GPR30)	
4775	1046	27dd0004		addui	%GPR29,%GPR30,$4	
4776	1047	00000000		nop	; Automatically added by fix-stall-insns.pl
4777	1048	00000000		nop	; Automatically added by fix-stall-insns.pl
4778	1049	00000000		nop	; Automatically added by fix-stall-insns.pl
4779	104a	8fde0000		lw	%GPR30,0(%GPR30)	
4780	104b	00000000		nop
4781	104c	00000000		nop
4782	104d	00000000		nop
4783	104e	00000000		nop	; Automatically added by fix-stall-insns.pl
4784	104f	00000000		nop
4785	1050	03e00008		jr	%GPR31	
4786	1051	00000000		nop
4787	1052	00000000		nop
4788	1053	00000000		nop
4789				; Automatically 1 NOPs removed by reduceNOPs.sh
4790			main:
4791			L_main_57:
4792	1054	00000000		nop
4793	1055	00000000		nop
4794	1056	00000000		nop
4795				; Automatically 1 NOPs removed by reduceNOPs.sh
4796	1057	afbefffc		sw	-4(%GPR29),%GPR30	
4797	1058	afbf0000		sw	0(%GPR29),%GPR31	
4798	1059	2fbe0004		subui	%GPR30,%GPR29,$4	
4799	105a	00000000		nop
4800	105b	2bbd05e8		subi	%GPR29,%GPR29,$1512	
4801	105c	00000000		nop
4802	105d	00000000		nop
4803	105e	00000000		nop
4804				; Automatically 9 NOPs removed by reduceNOPs.sh
4805	105f	3c010000		lhi	%GPR1,$0	
4806	1060	00000000		nop
4807	1061	00000000		nop
4808	1062	00000000		nop
4809				; Automatically 1 NOPs removed by reduceNOPs.sh
4810	1063	34210010		ori	%GPR1,%GPR1,$16	
4811	1064	3c020000		lhi	%GPR2,$0	
4812	1065	00000000		nop
4813	1066	00000000		nop
4814	1067	00000000		nop
4815				; Automatically 1 NOPs removed by reduceNOPs.sh
4816	1068	34420004		ori	%GPR2,%GPR2,$4	
4817	1069	00000000		nop	;;7,11
4818	106a	00000000		nop	;;7,11
4819	106b	00000000		nop	;;7,11
4820				; Automatically 1 NOPs removed by reduceNOPs.sh
4821	106c	0022101a		div	%GPR2,%GPR1,%GPR2	
4822	106d	00000000		nop	;;11,15
4823	106e	00000000		nop	;;11,15
4824	106f	00000000		nop	;;11,15
4825				; Automatically 1 NOPs removed by reduceNOPs.sh
4826	1070	afc2fa48		sw	-1464(%GPR30),%GPR2	
4827	1071	2bc205b4		subi	%GPR2,%GPR30,$1460	
4828	1072	00000000		nop	;;16,20
4829	1073	00000000		nop	;;16,20
4830	1074	00000000		nop	;;16,20
4831				; Automatically 1 NOPs removed by reduceNOPs.sh
4832	1075	afc2fa44		sw	-1468(%GPR30),%GPR2	
4833	1076	2bc20594		subi	%GPR2,%GPR30,$1428	
4834	1077	00000000		nop	;;21,25
4835	1078	00000000		nop	;;21,25
4836	1079	00000000		nop	;;21,25
4837				; Automatically 1 NOPs removed by reduceNOPs.sh
4838	107a	afc2fa40		sw	-1472(%GPR30),%GPR2	
4839	107b	2bc20594		subi	%GPR2,%GPR30,$1428	
4840	107c	00000000		nop	;;26,30
4841	107d	00000000		nop	;;26,30
4842	107e	00000000		nop	;;26,30
4843				; Automatically 1 NOPs removed by reduceNOPs.sh
4844	107f	afc2fa3c		sw	-1476(%GPR30),%GPR2	
4845	1080	3c020000		lhi	%GPR2,$0	
4846	1081	00000000		nop
4847	1082	00000000		nop
4848	1083	00000000		nop
4849				; Automatically 1 NOPs removed by reduceNOPs.sh
4850	1084	34420000		ori	%GPR2,%GPR2,$0	
4851	1085	00000000		nop	;;31,35
4852	1086	00000000		nop	;;31,35
4853	1087	00000000		nop	;;31,35
4854				; Automatically 1 NOPs removed by reduceNOPs.sh
4855	1088	afc2fa38		sw	-1480(%GPR30),%GPR2	
4856	1089	3c02ffff		lhi	%GPR2,$65535	
4857	108a	00000000		nop
4858	108b	00000000		nop
4859	108c	00000000		nop
4860				; Automatically 1 NOPs removed by reduceNOPs.sh
4861	108d	3442ffff		ori	%GPR2,%GPR2,$-1	
4862	108e	00000000		nop	;;36,40
4863	108f	00000000		nop	;;36,40
4864	1090	00000000		nop	;;36,40
4865				; Automatically 1 NOPs removed by reduceNOPs.sh
4866	1091	afc2fa34		sw	-1484(%GPR30),%GPR2	
4867	1092	3c020000		lhi	%GPR2,$0	
4868	1093	00000000		nop
4869	1094	00000000		nop
4870	1095	00000000		nop
4871				; Automatically 1 NOPs removed by reduceNOPs.sh
4872	1096	34420000		ori	%GPR2,%GPR2,$0	
4873	1097	00000000		nop	;;41,45
4874	1098	00000000		nop	;;41,45
4875	1099	00000000		nop	;;41,45
4876				; Automatically 1 NOPs removed by reduceNOPs.sh
4877	109a	afc2fa30		sw	-1488(%GPR30),%GPR2	
4878	109b	3c020000		lhi	%GPR2,$0	
4879	109c	00000000		nop
4880	109d	00000000		nop
4881	109e	00000000		nop
4882				; Automatically 1 NOPs removed by reduceNOPs.sh
4883	109f	34420000		ori	%GPR2,%GPR2,$0	
4884	10a0	00000000		nop	;;46,50
4885	10a1	00000000		nop	;;46,50
4886	10a2	00000000		nop	;;46,50
4887				; Automatically 1 NOPs removed by reduceNOPs.sh
4888	10a3	afc2fa2c		sw	-1492(%GPR30),%GPR2	
4889	10a4	3c020000		lhi	%GPR2,$0	
4890	10a5	00000000		nop
4891	10a6	00000000		nop
4892	10a7	00000000		nop
4893				; Automatically 1 NOPs removed by reduceNOPs.sh
4894	10a8	34420000		ori	%GPR2,%GPR2,$0	
4895	10a9	00000000		nop	;;51,55
4896	10aa	00000000		nop	;;51,55
4897	10ab	00000000		nop	;;51,55
4898				; Automatically 1 NOPs removed by reduceNOPs.sh
4899	10ac	afc2fa28		sw	-1496(%GPR30),%GPR2	
4900	10ad	3c020000		lhi	%GPR2,$0	
4901	10ae	00000000		nop
4902	10af	00000000		nop
4903	10b0	00000000		nop
4904				; Automatically 1 NOPs removed by reduceNOPs.sh
4905	10b1	34420000		ori	%GPR2,%GPR2,$0	
4906	10b2	00000000		nop	;;56,60
4907	10b3	00000000		nop	;;56,60
4908	10b4	00000000		nop	;;56,60
4909				; Automatically 1 NOPs removed by reduceNOPs.sh
4910	10b5	afc2fa24		sw	-1500(%GPR30),%GPR2	
4911	10b6	00000000		nop
4912	10b7	00000000		nop
4913	10b8	00000000		nop
4914			L_main_58:
4915	10b9	00000000		nop	; Automatically Added by addNopAfterLabels.pl
4916	10ba	8fc6fa38		lw	%GPR6,-1480(%GPR30)	
4917	10bb	2bc20594		subi	%GPR2,%GPR30,$1428	
4918	10bc	00000000		nop	;;2,4
4919	10bd	00000000		nop	;;2,4
4920	10be	3c030000		lhi	%GPR3,$0	
4921	10bf	00000000		nop
4922	10c0	00000000		nop
4923	10c1	00000000		nop
4924				; Automatically 1 NOPs removed by reduceNOPs.sh
4925	10c2	34630004		ori	%GPR3,%GPR3,$4	
4926	10c3	00000000		nop	;;4,7
4927	10c4	00000000		nop	;;4,7
4928	10c5	00000000		nop	;;4,7
4929	10c6	3c040000		lhi	%GPR4,$0	
4930	10c7	00000000		nop
4931	10c8	00000000		nop
4932	10c9	00000000		nop
4933				; Automatically 1 NOPs removed by reduceNOPs.sh
4934	10ca	34840000		ori	%GPR4,%GPR4,$0	
4935	10cb	00c31818		mult	%GPR3,%GPR6,%GPR3	
4936	10cc	3c050000		lhi	%GPR5,$0	
4937	10cd	00000000		nop
4938	10ce	00000000		nop
4939	10cf	00000000		nop
4940				; Automatically 1 NOPs removed by reduceNOPs.sh
4941	10d0	34a50080		ori	%GPR5,%GPR5,$128	
4942	10d1	00000000		nop	;;9,12
4943	10d2	00000000		nop	;;9,12
4944	10d3	00000000		nop	;;9,12
4945	10d4	00431020		add	%GPR2,%GPR2,%GPR3	
4946	10d5	00c01820		add	%GPR3,%GPR6,%GPR0	
4947	10d6	00000000		nop	;;13,16
4948	10d7	00000000		nop	;;13,16
4949	10d8	00000000		nop	;;13,16
4950	10d9	ac440000		sw	0(%GPR2),%GPR4	
4951	10da	20630001		addi	%GPR3,%GPR3,$1	
4952	10db	00000000		nop	;;17,21
4953	10dc	00000000		nop	;;17,21
4954	10dd	00000000		nop	;;17,21
4955				; Automatically 1 NOPs removed by reduceNOPs.sh
4956	10de	00601020		add	%GPR2,%GPR3,%GPR0	
4957	10df	afc3fa38		sw	-1480(%GPR30),%GPR3	
4958	10e0	00000000		nop	;;22,25
4959	10e1	00000000		nop	;;22,25
4960	10e2	00000000		nop	;;22,25
4961	10e3	0045d82a		slt	%GPR27,%GPR2,%GPR5	
4962	10e4	00000000		nop	; Automatically added by findDataDependency.sh
4963	10e5	00000000		nop	; Automatically added by findDataDependency.sh
4964	10e6	00000000		nop	; Automatically added by findDataDependency.sh
4965	10e7	1760ffd2		bnez	%GPR27,L_main_58	
4966	10e8	00000000		nop
4967	10e9	00000000		nop
4968	10ea	00000000		nop
4969				; Automatically 1 NOPs removed by reduceNOPs.sh
4970	10eb	08000004		j	L_main_59	
4971	10ec	00000000		nop
4972	10ed	00000000		nop
4973	10ee	00000000		nop
4974				; Automatically 1 NOPs removed by reduceNOPs.sh
4975			L_main_59:
4976	10ef	00000000		nop	;;0,4
4977	10f0	00000000		nop	;;0,4
4978	10f1	00000000		nop	;;0,4
4979				; Automatically 1 NOPs removed by reduceNOPs.sh
4980	10f2	3c020000		lhi	%GPR2,$0	
4981	10f3	00000000		nop
4982	10f4	00000000		nop
4983	10f5	00000000		nop
4984				; Automatically 1 NOPs removed by reduceNOPs.sh
4985	10f6	34420000		ori	%GPR2,%GPR2,$0	
4986	10f7	00000000		nop	;;4,8
4987	10f8	00000000		nop	;;4,8
4988	10f9	00000000		nop	;;4,8
4989				; Automatically 1 NOPs removed by reduceNOPs.sh
4990	10fa	afc2fa38		sw	-1480(%GPR30),%GPR2	
4991	10fb	00000000		nop
4992	10fc	00000000		nop
4993	10fd	00000000		nop
4994			L_main_60:
4995	10fe	00000000		nop	; Automatically Added by addNopAfterLabels.pl
4996	10ff	8fc6fa38		lw	%GPR6,-1480(%GPR30)	
4997	1100	2bc205b4		subi	%GPR2,%GPR30,$1460	
4998	1101	00000000		nop	;;2,4
4999	1102	00000000		nop	;;2,4
5000	1103	3c030000		lhi	%GPR3,$0	
5001	1104	00000000		nop
5002	1105	00000000		nop
5003	1106	00000000		nop
5004				; Automatically 1 NOPs removed by reduceNOPs.sh
5005	1107	34630004		ori	%GPR3,%GPR3,$4	
5006	1108	00000000		nop	;;4,7
5007	1109	00000000		nop	;;4,7
5008	110a	00000000		nop	;;4,7
5009	110b	3c040000		lhi	%GPR4,$0	
5010	110c	00000000		nop
5011	110d	00000000		nop
5012	110e	00000000		nop
5013				; Automatically 1 NOPs removed by reduceNOPs.sh
5014	110f	34840000		ori	%GPR4,%GPR4,$0	
5015	1110	00c31818		mult	%GPR3,%GPR6,%GPR3	
5016	1111	3c050000		lhi	%GPR5,$0	
5017	1112	00000000		nop
5018	1113	00000000		nop
5019	1114	00000000		nop
5020				; Automatically 1 NOPs removed by reduceNOPs.sh
5021	1115	34a50008		ori	%GPR5,%GPR5,$8	
5022	1116	00000000		nop	;;9,12
5023	1117	00000000		nop	;;9,12
5024	1118	00000000		nop	;;9,12
5025	1119	00431020		add	%GPR2,%GPR2,%GPR3	
5026	111a	00c01820		add	%GPR3,%GPR6,%GPR0	
5027	111b	00000000		nop	;;13,16
5028	111c	00000000		nop	;;13,16
5029	111d	00000000		nop	;;13,16
5030	111e	ac440000		sw	0(%GPR2),%GPR4	
5031	111f	20630001		addi	%GPR3,%GPR3,$1	
5032	1120	00000000		nop	;;17,21
5033	1121	00000000		nop	;;17,21
5034	1122	00000000		nop	;;17,21
5035				; Automatically 1 NOPs removed by reduceNOPs.sh
5036	1123	00601020		add	%GPR2,%GPR3,%GPR0	
5037	1124	afc3fa38		sw	-1480(%GPR30),%GPR3	
5038	1125	00000000		nop	;;22,25
5039	1126	00000000		nop	;;22,25
5040	1127	00000000		nop	;;22,25
5041	1128	0045d82a		slt	%GPR27,%GPR2,%GPR5	
5042	1129	00000000		nop	; Automatically added by findDataDependency.sh
5043	112a	00000000		nop	; Automatically added by findDataDependency.sh
5044	112b	00000000		nop	; Automatically added by findDataDependency.sh
5045	112c	1760ffd2		bnez	%GPR27,L_main_60	
5046	112d	00000000		nop
5047	112e	00000000		nop
5048	112f	00000000		nop
5049				; Automatically 1 NOPs removed by reduceNOPs.sh
5050	1130	08000004		j	L_main_61	
5051	1131	00000000		nop
5052	1132	00000000		nop
5053	1133	00000000		nop
5054				; Automatically 1 NOPs removed by reduceNOPs.sh
5055			L_main_61:
5056	1134	00000000		nop	;;0,4
5057	1135	00000000		nop	;;0,4
5058	1136	00000000		nop	;;0,4
5059				; Automatically 1 NOPs removed by reduceNOPs.sh
5060	1137	3c020000		lhi	%GPR2,$0	
5061	1138	00000000		nop
5062	1139	00000000		nop
5063	113a	00000000		nop
5064				; Automatically 1 NOPs removed by reduceNOPs.sh
5065	113b	34420000		ori	%GPR2,%GPR2,$0	
5066	113c	00000000		nop	;;4,8
5067	113d	00000000		nop	;;4,8
5068	113e	00000000		nop	;;4,8
5069				; Automatically 1 NOPs removed by reduceNOPs.sh
5070	113f	afc2fa38		sw	-1480(%GPR30),%GPR2	
5071	1140	00000000		nop
5072	1141	00000000		nop
5073	1142	00000000		nop
5074			L_main_62:
5075	1143	00000000		nop	; Automatically Added by addNopAfterLabels.pl
5076	1144	8fc3fa38		lw	%GPR3,-1480(%GPR30)	
5077	1145	00000000		nop	;;1,4
5078	1146	00000000		nop	;;1,4
5079	1147	00000000		nop	;;1,4
5080	1148	3c020000		lhi	%GPR2,$0	
5081	1149	00000000		nop
5082	114a	00000000		nop
5083	114b	00000000		nop
5084				; Automatically 1 NOPs removed by reduceNOPs.sh
5085	114c	34420004		ori	%GPR2,%GPR2,$4	
5086	114d	00000000		nop	;;4,6
5087	114e	00000000		nop	;;4,6
5088	114f	00603820		add	%GPR7,%GPR3,%GPR0	
5089	1150	3c040000		lhi	%GPR4,$0	
5090	1151	00000000		nop
5091	1152	00000000		nop
5092	1153	00000000		nop
5093				; Automatically 1 NOPs removed by reduceNOPs.sh
5094	1154	34840001		ori	%GPR4,%GPR4,$1	
5095	1155	00621018		mult	%GPR2,%GPR3,%GPR2	
5096	1156	3c050000		lhi	%GPR5,$0	
5097	1157	00000000		nop
5098	1158	00000000		nop
5099	1159	00000000		nop
5100				; Automatically 1 NOPs removed by reduceNOPs.sh
5101	115a	34a50004		ori	%GPR5,%GPR5,$4	
5102	115b	00000000		nop	;;9,12
5103	115c	00000000		nop	;;9,12
5104	115d	00000000		nop	;;9,12
5105	115e	3c030000		lhi	%GPR3,$0	
5106	115f	00000000		nop
5107	1160	00000000		nop
5108	1161	00000000		nop
5109				; Automatically 1 NOPs removed by reduceNOPs.sh
5110	1162	34630004		ori	%GPR3,%GPR3,$4	
5111	1163	00000000		nop	;;12,14
5112	1164	00000000		nop	;;12,14
5113	1165	04e52038		mac	%GPR4,%GPR7,%GPR5	
5114	1166	00e04820		add	%GPR9,%GPR7,%GPR0	
5115	1167	3c080000		lhi	%GPR8,$0	
5116	1168	00000000		nop
5117	1169	00000000		nop
5118	116a	00000000		nop
5119				; Automatically 1 NOPs removed by reduceNOPs.sh
5120	116b	35080004		ori	%GPR8,%GPR8,$4	
5121	116c	3c070000		lhi	%GPR7,$0	
5122	116d	00000000		nop
5123	116e	00000000		nop
5124	116f	00000000		nop
5125				; Automatically 1 NOPs removed by reduceNOPs.sh
5126	1170	34e70002		ori	%GPR7,%GPR7,$2	
5127	1171	00431018		mult	%GPR2,%GPR2,%GPR3	
5128	1172	2bc60194		subi	%GPR6,%GPR30,$404	
5129	1173	00000000		nop	;;19,21
5130	1174	00000000		nop	;;19,21
5131	1175	3c050000		lhi	%GPR5,$0	
5132	1176	00000000		nop
5133	1177	00000000		nop
5134	1178	00000000		nop
5135				; Automatically 1 NOPs removed by reduceNOPs.sh
5136	1179	34a50004		ori	%GPR5,%GPR5,$4	
5137	117a	00000000		nop	;;21,23
5138	117b	00000000		nop	;;21,23
5139	117c	05283838		mac	%GPR7,%GPR9,%GPR8	
5140	117d	00c21020		add	%GPR2,%GPR6,%GPR2	
5141	117e	3c080202		lhi	%GPR8,$514	
5142	117f	00000000		nop
5143	1180	00000000		nop
5144	1181	00000000		nop
5145				; Automatically 1 NOPs removed by reduceNOPs.sh
5146	1182	35080304		ori	%GPR8,%GPR8,$33686276	
5147	1183	00852018		mult	%GPR4,%GPR4,%GPR5	
5148	1184	2bc30194		subi	%GPR3,%GPR30,$404	
5149	1185	00000000		nop	;;27,31
5150	1186	00000000		nop	;;27,31
5151	1187	00000000		nop	;;27,31
5152				; Automatically 1 NOPs removed by reduceNOPs.sh
5153	1188	3c090000		lhi	%GPR9,$0	
5154	1189	00000000		nop
5155	118a	00000000		nop
5156	118b	00000000		nop
5157				; Automatically 1 NOPs removed by reduceNOPs.sh
5158	118c	35290004		ori	%GPR9,%GPR9,$4	
5159	118d	ac480000		sw	0(%GPR2),%GPR8	
5160	118e	00641820		add	%GPR3,%GPR3,%GPR4	
5161	118f	3c020506		lhi	%GPR2,$1286	
5162	1190	00000000		nop
5163	1191	00000000		nop
5164	1192	00000000		nop
5165				; Automatically 1 NOPs removed by reduceNOPs.sh
5166	1193	34420708		ori	%GPR2,%GPR2,$84281096	
5167	1194	8fc6fa38		lw	%GPR6,-1480(%GPR30)	
5168	1195	2bc50194		subi	%GPR5,%GPR30,$404	
5169	1196	3c0a0000		lhi	%GPR10,$0	
5170	1197	00000000		nop
5171	1198	00000000		nop
5172	1199	00000000		nop
5173				; Automatically 1 NOPs removed by reduceNOPs.sh
5174	119a	354a0003		ori	%GPR10,%GPR10,$3	
5175	119b	00e93818		mult	%GPR7,%GPR7,%GPR9	
5176	119c	00000000		nop	;;38,40
5177	119d	00000000		nop	;;38,40
5178	119e	3c0b0000		lhi	%GPR11,$0	
5179	119f	00000000		nop
5180	11a0	00000000		nop
5181	11a1	00000000		nop
5182				; Automatically 1 NOPs removed by reduceNOPs.sh
5183	11a2	356b0004		ori	%GPR11,%GPR11,$4	
5184	11a3	00000000		nop	;;40,42
5185	11a4	00000000		nop	;;40,42
5186	11a5	ac620000		sw	0(%GPR3),%GPR2	
5187	11a6	3c02090a		lhi	%GPR2,$2314	
5188	11a7	00000000		nop
5189	11a8	00000000		nop
5190	11a9	00000000		nop
5191				; Automatically 1 NOPs removed by reduceNOPs.sh
5192	11aa	34420b0c		ori	%GPR2,%GPR2,$151653132	
5193	11ab	00a72820		add	%GPR5,%GPR5,%GPR7	
5194	11ac	04cb5038		mac	%GPR10,%GPR6,%GPR11	
5195	11ad	3c060000		lhi	%GPR6,$0	
5196	11ae	00000000		nop
5197	11af	00000000		nop
5198	11b0	00000000		nop
5199				; Automatically 1 NOPs removed by reduceNOPs.sh
5200	11b1	34c60004		ori	%GPR6,%GPR6,$4	
5201	11b2	00000000		nop	;;46,48
5202	11b3	00000000		nop	;;46,48
5203	11b4	aca20000		sw	0(%GPR5),%GPR2	
5204	11b5	00000000		nop	; Automatically added by findLoadStoreProblem.sh
5205	11b6	00000000		nop	; Automatically added by fix-stall-insns.pl
5206	11b7	00000000		nop	; Automatically added by fix-stall-insns.pl
5207	11b8	00000000		nop	; Automatically added by fix-stall-insns.pl
5208	11b9	8fc2fa38		lw	%GPR2,-1480(%GPR30)	
5209	11ba	01461818		mult	%GPR3,%GPR10,%GPR6	
5210	11bb	00000000		nop	;;50,52
5211	11bc	00000000		nop	;;50,52
5212	11bd	2bc40194		subi	%GPR4,%GPR30,$404	
5213	11be	20420001		addi	%GPR2,%GPR2,$1	
5214	11bf	3c060d0e		lhi	%GPR6,$3342	
5215	11c0	00000000		nop
5216	11c1	00000000		nop
5217	11c2	00000000		nop
5218				; Automatically 1 NOPs removed by reduceNOPs.sh
5219	11c3	34c60f00		ori	%GPR6,%GPR6,$219025152	
5220	11c4	3c070000		lhi	%GPR7,$0	
5221	11c5	00000000		nop
5222	11c6	00000000		nop
5223	11c7	00000000		nop
5224				; Automatically 1 NOPs removed by reduceNOPs.sh
5225	11c8	34e70010		ori	%GPR7,%GPR7,$16	
5226	11c9	00831820		add	%GPR3,%GPR4,%GPR3	
5227	11ca	afc2fa38		sw	-1480(%GPR30),%GPR2	
5228	11cb	00000000		nop	;;57,60
5229	11cc	00000000		nop	;;57,60
5230	11cd	00000000		nop	;;57,60
5231	11ce	00000000		nop	; Automatically added by fix-stall-insns.pl
5232	11cf	ac660000		sw	0(%GPR3),%GPR6	
5233	11d0	0047d82a		slt	%GPR27,%GPR2,%GPR7	
5234	11d1	00000000		nop	; Automatically added by findDataDependency.sh
5235	11d2	00000000		nop	; Automatically added by findDataDependency.sh
5236	11d3	00000000		nop	; Automatically added by findDataDependency.sh
5237	11d4	1760ff6f		bnez	%GPR27,L_main_62	
5238	11d5	00000000		nop
5239	11d6	00000000		nop
5240	11d7	00000000		nop
5241				; Automatically 1 NOPs removed by reduceNOPs.sh
5242	11d8	08000004		j	L_main_63	
5243	11d9	00000000		nop
5244	11da	00000000		nop
5245	11db	00000000		nop
5246				; Automatically 1 NOPs removed by reduceNOPs.sh
5247			L_main_63:
5248	11dc	00000000		nop	;;0,4
5249	11dd	00000000		nop	;;0,4
5250	11de	00000000		nop	;;0,4
5251				; Automatically 1 NOPs removed by reduceNOPs.sh
5252	11df	3c020000		lhi	%GPR2,$0	
5253	11e0	00000000		nop
5254	11e1	00000000		nop
5255	11e2	00000000		nop
5256				; Automatically 1 NOPs removed by reduceNOPs.sh
5257	11e3	34420000		ori	%GPR2,%GPR2,$0	
5258	11e4	00000000		nop	;;4,8
5259	11e5	00000000		nop	;;4,8
5260	11e6	00000000		nop	;;4,8
5261				; Automatically 1 NOPs removed by reduceNOPs.sh
5262	11e7	afc2fa38		sw	-1480(%GPR30),%GPR2	
5263	11e8	00000000		nop
5264	11e9	00000000		nop
5265	11ea	00000000		nop
5266			L_main_64:
5267	11eb	00000000		nop	; Automatically Added by addNopAfterLabels.pl
5268	11ec	8fc3fa38		lw	%GPR3,-1480(%GPR30)	
5269	11ed	00000000		nop	;;1,4
5270	11ee	00000000		nop	;;1,4
5271	11ef	00000000		nop	;;1,4
5272	11f0	3c020000		lhi	%GPR2,$0	
5273	11f1	00000000		nop
5274	11f2	00000000		nop
5275	11f3	00000000		nop
5276				; Automatically 1 NOPs removed by reduceNOPs.sh
5277	11f4	34420004		ori	%GPR2,%GPR2,$4	
5278	11f5	00000000		nop	;;4,6
5279	11f6	00000000		nop	;;4,6
5280	11f7	00603820		add	%GPR7,%GPR3,%GPR0	
5281	11f8	3c040000		lhi	%GPR4,$0	
5282	11f9	00000000		nop
5283	11fa	00000000		nop
5284	11fb	00000000		nop
5285				; Automatically 1 NOPs removed by reduceNOPs.sh
5286	11fc	34840001		ori	%GPR4,%GPR4,$1	
5287	11fd	00621018		mult	%GPR2,%GPR3,%GPR2	
5288	11fe	3c050000		lhi	%GPR5,$0	
5289	11ff	00000000		nop
5290	1200	00000000		nop
5291	1201	00000000		nop
5292				; Automatically 1 NOPs removed by reduceNOPs.sh
5293	1202	34a50004		ori	%GPR5,%GPR5,$4	
5294	1203	00000000		nop	;;9,12
5295	1204	00000000		nop	;;9,12
5296	1205	00000000		nop	;;9,12
5297	1206	3c030000		lhi	%GPR3,$0	
5298	1207	00000000		nop
5299	1208	00000000		nop
5300	1209	00000000		nop
5301				; Automatically 1 NOPs removed by reduceNOPs.sh
5302	120a	34630004		ori	%GPR3,%GPR3,$4	
5303	120b	00000000		nop	;;12,14
5304	120c	00000000		nop	;;12,14
5305	120d	04e52038		mac	%GPR4,%GPR7,%GPR5	
5306	120e	00e04820		add	%GPR9,%GPR7,%GPR0	
5307	120f	3c080000		lhi	%GPR8,$0	
5308	1210	00000000		nop
5309	1211	00000000		nop
5310	1212	00000000		nop
5311				; Automatically 1 NOPs removed by reduceNOPs.sh
5312	1213	35080004		ori	%GPR8,%GPR8,$4	
5313	1214	3c070000		lhi	%GPR7,$0	
5314	1215	00000000		nop
5315	1216	00000000		nop
5316	1217	00000000		nop
5317				; Automatically 1 NOPs removed by reduceNOPs.sh
5318	1218	34e70002		ori	%GPR7,%GPR7,$2	
5319	1219	00431018		mult	%GPR2,%GPR2,%GPR3	
5320	121a	2bc60294		subi	%GPR6,%GPR30,$660	
5321	121b	00000000		nop	;;19,21
5322	121c	00000000		nop	;;19,21
5323	121d	3c050000		lhi	%GPR5,$0	
5324	121e	00000000		nop
5325	121f	00000000		nop
5326	1220	00000000		nop
5327				; Automatically 1 NOPs removed by reduceNOPs.sh
5328	1221	34a50004		ori	%GPR5,%GPR5,$4	
5329	1222	00000000		nop	;;21,23
5330	1223	00000000		nop	;;21,23
5331	1224	05283838		mac	%GPR7,%GPR9,%GPR8	
5332	1225	00c21020		add	%GPR2,%GPR6,%GPR2	
5333	1226	3c08090f		lhi	%GPR8,$2319	
5334	1227	00000000		nop
5335	1228	00000000		nop
5336	1229	00000000		nop
5337				; Automatically 1 NOPs removed by reduceNOPs.sh
5338	122a	35080a09		ori	%GPR8,%GPR8,$151980553	
5339	122b	00852018		mult	%GPR4,%GPR4,%GPR5	
5340	122c	2bc30294		subi	%GPR3,%GPR30,$660	
5341	122d	00000000		nop	;;27,31
5342	122e	00000000		nop	;;27,31
5343	122f	00000000		nop	;;27,31
5344				; Automatically 1 NOPs removed by reduceNOPs.sh
5345	1230	3c090000		lhi	%GPR9,$0	
5346	1231	00000000		nop
5347	1232	00000000		nop
5348	1233	00000000		nop
5349				; Automatically 1 NOPs removed by reduceNOPs.sh
5350	1234	35290004		ori	%GPR9,%GPR9,$4	
5351	1235	ac480000		sw	0(%GPR2),%GPR8	
5352	1236	00641820		add	%GPR3,%GPR3,%GPR4	
5353	1237	3c02070c		lhi	%GPR2,$1804	
5354	1238	00000000		nop
5355	1239	00000000		nop
5356	123a	00000000		nop
5357				; Automatically 1 NOPs removed by reduceNOPs.sh
5358	123b	34420300		ori	%GPR2,%GPR2,$118227712	
5359	123c	8fc6fa38		lw	%GPR6,-1480(%GPR30)	
5360	123d	2bc50294		subi	%GPR5,%GPR30,$660	
5361	123e	3c0a0000		lhi	%GPR10,$0	
5362	123f	00000000		nop
5363	1240	00000000		nop
5364	1241	00000000		nop
5365				; Automatically 1 NOPs removed by reduceNOPs.sh
5366	1242	354a0003		ori	%GPR10,%GPR10,$3	
5367	1243	00e93818		mult	%GPR7,%GPR7,%GPR9	
5368	1244	00000000		nop	;;38,40
5369	1245	00000000		nop	;;38,40
5370	1246	3c0b0000		lhi	%GPR11,$0	
5371	1247	00000000		nop
5372	1248	00000000		nop
5373	1249	00000000		nop
5374				; Automatically 1 NOPs removed by reduceNOPs.sh
5375	124a	356b0004		ori	%GPR11,%GPR11,$4	
5376	124b	00000000		nop	;;40,42
5377	124c	00000000		nop	;;40,42
5378	124d	ac620000		sw	0(%GPR3),%GPR2	
5379	124e	3c020408		lhi	%GPR2,$1032	
5380	124f	00000000		nop
5381	1250	00000000		nop
5382	1251	00000000		nop
5383				; Automatically 1 NOPs removed by reduceNOPs.sh
5384	1252	34420d01		ori	%GPR2,%GPR2,$67636481	
5385	1253	00a72820		add	%GPR5,%GPR5,%GPR7	
5386	1254	04cb5038		mac	%GPR10,%GPR6,%GPR11	
5387	1255	3c060000		lhi	%GPR6,$0	
5388	1256	00000000		nop
5389	1257	00000000		nop
5390	1258	00000000		nop
5391				; Automatically 1 NOPs removed by reduceNOPs.sh
5392	1259	34c60004		ori	%GPR6,%GPR6,$4	
5393	125a	00000000		nop	;;46,48
5394	125b	00000000		nop	;;46,48
5395	125c	aca20000		sw	0(%GPR5),%GPR2	
5396	125d	00000000		nop	; Automatically added by findLoadStoreProblem.sh
5397	125e	00000000		nop	; Automatically added by fix-stall-insns.pl
5398	125f	00000000		nop	; Automatically added by fix-stall-insns.pl
5399	1260	00000000		nop	; Automatically added by fix-stall-insns.pl
5400	1261	8fc2fa38		lw	%GPR2,-1480(%GPR30)	
5401	1262	01461818		mult	%GPR3,%GPR10,%GPR6	
5402	1263	00000000		nop	;;50,52
5403	1264	00000000		nop	;;50,52
5404	1265	2bc40294		subi	%GPR4,%GPR30,$660	
5405	1266	20420001		addi	%GPR2,%GPR2,$1	
5406	1267	3c06060e		lhi	%GPR6,$1550	
5407	1268	00000000		nop
5408	1269	00000000		nop
5409	126a	00000000		nop
5410				; Automatically 1 NOPs removed by reduceNOPs.sh
5411	126b	34c60b05		ori	%GPR6,%GPR6,$101583621	
5412	126c	3c070000		lhi	%GPR7,$0	
5413	126d	00000000		nop
5414	126e	00000000		nop
5415	126f	00000000		nop
5416				; Automatically 1 NOPs removed by reduceNOPs.sh
5417	1270	34e70010		ori	%GPR7,%GPR7,$16	
5418	1271	00831820		add	%GPR3,%GPR4,%GPR3	
5419	1272	afc2fa38		sw	-1480(%GPR30),%GPR2	
5420	1273	00000000		nop	;;57,60
5421	1274	00000000		nop	;;57,60
5422	1275	00000000		nop	;;57,60
5423	1276	00000000		nop	; Automatically added by fix-stall-insns.pl
5424	1277	ac660000		sw	0(%GPR3),%GPR6	
5425	1278	0047d82a		slt	%GPR27,%GPR2,%GPR7	
5426	1279	00000000		nop	; Automatically added by findDataDependency.sh
5427	127a	00000000		nop	; Automatically added by findDataDependency.sh
5428	127b	00000000		nop	; Automatically added by findDataDependency.sh
5429	127c	1760ff6f		bnez	%GPR27,L_main_64	
5430	127d	00000000		nop
5431	127e	00000000		nop
5432	127f	00000000		nop
5433				; Automatically 1 NOPs removed by reduceNOPs.sh
5434	1280	08000004		j	L_main_65	
5435	1281	00000000		nop
5436	1282	00000000		nop
5437	1283	00000000		nop
5438				; Automatically 1 NOPs removed by reduceNOPs.sh
5439			L_main_65:
5440	1284	00000000		nop	;;0,4
5441	1285	00000000		nop	;;0,4
5442	1286	00000000		nop	;;0,4
5443				; Automatically 1 NOPs removed by reduceNOPs.sh
5444	1287	3c020000		lhi	%GPR2,$0	
5445	1288	00000000		nop
5446	1289	00000000		nop
5447	128a	00000000		nop
5448				; Automatically 1 NOPs removed by reduceNOPs.sh
5449	128b	34420000		ori	%GPR2,%GPR2,$0	
5450	128c	00000000		nop	;;4,8
5451	128d	00000000		nop	;;4,8
5452	128e	00000000		nop	;;4,8
5453				; Automatically 1 NOPs removed by reduceNOPs.sh
5454	128f	afc2fa38		sw	-1480(%GPR30),%GPR2	
5455	1290	00000000		nop
5456	1291	00000000		nop
5457	1292	00000000		nop
5458			L_main_66:
5459	1293	00000000		nop	; Automatically Added by addNopAfterLabels.pl
5460	1294	8fc3fa38		lw	%GPR3,-1480(%GPR30)	
5461	1295	00000000		nop	;;1,4
5462	1296	00000000		nop	;;1,4
5463	1297	00000000		nop	;;1,4
5464	1298	3c020000		lhi	%GPR2,$0	
5465	1299	00000000		nop
5466	129a	00000000		nop
5467	129b	00000000		nop
5468				; Automatically 1 NOPs removed by reduceNOPs.sh
5469	129c	34420004		ori	%GPR2,%GPR2,$4	
5470	129d	00000000		nop	;;4,6
5471	129e	00000000		nop	;;4,6
5472	129f	00603820		add	%GPR7,%GPR3,%GPR0	
5473	12a0	3c040000		lhi	%GPR4,$0	
5474	12a1	00000000		nop
5475	12a2	00000000		nop
5476	12a3	00000000		nop
5477				; Automatically 1 NOPs removed by reduceNOPs.sh
5478	12a4	34840001		ori	%GPR4,%GPR4,$1	
5479	12a5	00621018		mult	%GPR2,%GPR3,%GPR2	
5480	12a6	3c050000		lhi	%GPR5,$0	
5481	12a7	00000000		nop
5482	12a8	00000000		nop
5483	12a9	00000000		nop
5484				; Automatically 1 NOPs removed by reduceNOPs.sh
5485	12aa	34a50004		ori	%GPR5,%GPR5,$4	
5486	12ab	00000000		nop	;;9,12
5487	12ac	00000000		nop	;;9,12
5488	12ad	00000000		nop	;;9,12
5489	12ae	3c030000		lhi	%GPR3,$0	
5490	12af	00000000		nop
5491	12b0	00000000		nop
5492	12b1	00000000		nop
5493				; Automatically 1 NOPs removed by reduceNOPs.sh
5494	12b2	34630004		ori	%GPR3,%GPR3,$4	
5495	12b3	00000000		nop	;;12,14
5496	12b4	00000000		nop	;;12,14
5497	12b5	04e52038		mac	%GPR4,%GPR7,%GPR5	
5498	12b6	00e04820		add	%GPR9,%GPR7,%GPR0	
5499	12b7	3c080000		lhi	%GPR8,$0	
5500	12b8	00000000		nop
5501	12b9	00000000		nop
5502	12ba	00000000		nop
5503				; Automatically 1 NOPs removed by reduceNOPs.sh
5504	12bb	35080004		ori	%GPR8,%GPR8,$4	
5505	12bc	3c070000		lhi	%GPR7,$0	
5506	12bd	00000000		nop
5507	12be	00000000		nop
5508	12bf	00000000		nop
5509				; Automatically 1 NOPs removed by reduceNOPs.sh
5510	12c0	34e70002		ori	%GPR7,%GPR7,$2	
5511	12c1	00431018		mult	%GPR2,%GPR2,%GPR3	
5512	12c2	2bc60394		subi	%GPR6,%GPR30,$916	
5513	12c3	00000000		nop	;;19,21
5514	12c4	00000000		nop	;;19,21
5515	12c5	3c050000		lhi	%GPR5,$0	
5516	12c6	00000000		nop
5517	12c7	00000000		nop
5518	12c8	00000000		nop
5519				; Automatically 1 NOPs removed by reduceNOPs.sh
5520	12c9	34a50004		ori	%GPR5,%GPR5,$4	
5521	12ca	00000000		nop	;;21,23
5522	12cb	00000000		nop	;;21,23
5523	12cc	05283838		mac	%GPR7,%GPR9,%GPR8	
5524	12cd	00c21020		add	%GPR2,%GPR6,%GPR2	
5525	12ce	3c08090f		lhi	%GPR8,$2319	
5526	12cf	00000000		nop
5527	12d0	00000000		nop
5528	12d1	00000000		nop
5529				; Automatically 1 NOPs removed by reduceNOPs.sh
5530	12d2	35080a09		ori	%GPR8,%GPR8,$151980553	
5531	12d3	00852018		mult	%GPR4,%GPR4,%GPR5	
5532	12d4	2bc30394		subi	%GPR3,%GPR30,$916	
5533	12d5	00000000		nop	;;27,31
5534	12d6	00000000		nop	;;27,31
5535	12d7	00000000		nop	;;27,31
5536				; Automatically 1 NOPs removed by reduceNOPs.sh
5537	12d8	3c090000		lhi	%GPR9,$0	
5538	12d9	00000000		nop
5539	12da	00000000		nop
5540	12db	00000000		nop
5541				; Automatically 1 NOPs removed by reduceNOPs.sh
5542	12dc	35290004		ori	%GPR9,%GPR9,$4	
5543	12dd	ac480000		sw	0(%GPR2),%GPR8	
5544	12de	00641820		add	%GPR3,%GPR3,%GPR4	
5545	12df	3c02070c		lhi	%GPR2,$1804	
5546	12e0	00000000		nop
5547	12e1	00000000		nop
5548	12e2	00000000		nop
5549				; Automatically 1 NOPs removed by reduceNOPs.sh
5550	12e3	34420300		ori	%GPR2,%GPR2,$118227712	
5551	12e4	8fc6fa38		lw	%GPR6,-1480(%GPR30)	
5552	12e5	2bc50394		subi	%GPR5,%GPR30,$916	
5553	12e6	3c0a0000		lhi	%GPR10,$0	
5554	12e7	00000000		nop
5555	12e8	00000000		nop
5556	12e9	00000000		nop
5557				; Automatically 1 NOPs removed by reduceNOPs.sh
5558	12ea	354a0003		ori	%GPR10,%GPR10,$3	
5559	12eb	00e93818		mult	%GPR7,%GPR7,%GPR9	
5560	12ec	00000000		nop	;;38,40
5561	12ed	00000000		nop	;;38,40
5562	12ee	3c0b0000		lhi	%GPR11,$0	
5563	12ef	00000000		nop
5564	12f0	00000000		nop
5565	12f1	00000000		nop
5566				; Automatically 1 NOPs removed by reduceNOPs.sh
5567	12f2	356b0004		ori	%GPR11,%GPR11,$4	
5568	12f3	00000000		nop	;;40,42
5569	12f4	00000000		nop	;;40,42
5570	12f5	ac620000		sw	0(%GPR3),%GPR2	
5571	12f6	3c020408		lhi	%GPR2,$1032	
5572	12f7	00000000		nop
5573	12f8	00000000		nop
5574	12f9	00000000		nop
5575				; Automatically 1 NOPs removed by reduceNOPs.sh
5576	12fa	34420d01		ori	%GPR2,%GPR2,$67636481	
5577	12fb	00a72820		add	%GPR5,%GPR5,%GPR7	
5578	12fc	04cb5038		mac	%GPR10,%GPR6,%GPR11	
5579	12fd	3c060000		lhi	%GPR6,$0	
5580	12fe	00000000		nop
5581	12ff	00000000		nop
5582	1300	00000000		nop
5583				; Automatically 1 NOPs removed by reduceNOPs.sh
5584	1301	34c60004		ori	%GPR6,%GPR6,$4	
5585	1302	00000000		nop	;;46,48
5586	1303	00000000		nop	;;46,48
5587	1304	aca20000		sw	0(%GPR5),%GPR2	
5588	1305	00000000		nop	; Automatically added by findLoadStoreProblem.sh
5589	1306	00000000		nop	; Automatically added by fix-stall-insns.pl
5590	1307	00000000		nop	; Automatically added by fix-stall-insns.pl
5591	1308	00000000		nop	; Automatically added by fix-stall-insns.pl
5592	1309	8fc2fa38		lw	%GPR2,-1480(%GPR30)	
5593	130a	01461818		mult	%GPR3,%GPR10,%GPR6	
5594	130b	00000000		nop	;;50,52
5595	130c	00000000		nop	;;50,52
5596	130d	2bc40394		subi	%GPR4,%GPR30,$916	
5597	130e	20420001		addi	%GPR2,%GPR2,$1	
5598	130f	3c06060e		lhi	%GPR6,$1550	
5599	1310	00000000		nop
5600	1311	00000000		nop
5601	1312	00000000		nop
5602				; Automatically 1 NOPs removed by reduceNOPs.sh
5603	1313	34c60b05		ori	%GPR6,%GPR6,$101583621	
5604	1314	3c070000		lhi	%GPR7,$0	
5605	1315	00000000		nop
5606	1316	00000000		nop
5607	1317	00000000		nop
5608				; Automatically 1 NOPs removed by reduceNOPs.sh
5609	1318	34e70010		ori	%GPR7,%GPR7,$16	
5610	1319	00831820		add	%GPR3,%GPR4,%GPR3	
5611	131a	afc2fa38		sw	-1480(%GPR30),%GPR2	
5612	131b	00000000		nop	;;57,60
5613	131c	00000000		nop	;;57,60
5614	131d	00000000		nop	;;57,60
5615	131e	00000000		nop	; Automatically added by fix-stall-insns.pl
5616	131f	ac660000		sw	0(%GPR3),%GPR6	
5617	1320	0047d82a		slt	%GPR27,%GPR2,%GPR7	
5618	1321	00000000		nop	; Automatically added by findDataDependency.sh
5619	1322	00000000		nop	; Automatically added by findDataDependency.sh
5620	1323	00000000		nop	; Automatically added by findDataDependency.sh
5621	1324	1760ff6f		bnez	%GPR27,L_main_66	
5622	1325	00000000		nop
5623	1326	00000000		nop
5624	1327	00000000		nop
5625				; Automatically 1 NOPs removed by reduceNOPs.sh
5626	1328	08000004		j	L_main_67	
5627	1329	00000000		nop
5628	132a	00000000		nop
5629	132b	00000000		nop
5630				; Automatically 1 NOPs removed by reduceNOPs.sh
5631			L_main_67:
5632	132c	00000000		nop	;;0,4
5633	132d	00000000		nop	;;0,4
5634	132e	00000000		nop	;;0,4
5635				; Automatically 1 NOPs removed by reduceNOPs.sh
5636	132f	3c020000		lhi	%GPR2,$0	
5637	1330	00000000		nop
5638	1331	00000000		nop
5639	1332	00000000		nop
5640				; Automatically 1 NOPs removed by reduceNOPs.sh
5641	1333	34420000		ori	%GPR2,%GPR2,$0	
5642	1334	00000000		nop	;;4,8
5643	1335	00000000		nop	;;4,8
5644	1336	00000000		nop	;;4,8
5645				; Automatically 1 NOPs removed by reduceNOPs.sh
5646	1337	afc2fa38		sw	-1480(%GPR30),%GPR2	
5647	1338	00000000		nop
5648	1339	00000000		nop
5649	133a	00000000		nop
5650			L_main_68:
5651	133b	00000000		nop	; Automatically Added by addNopAfterLabels.pl
5652	133c	8fc3fa38		lw	%GPR3,-1480(%GPR30)	
5653	133d	00000000		nop	;;0,4
5654	133e	00000000		nop	;;0,4
5655	133f	00000000		nop	;;0,4
5656				; Automatically 1 NOPs removed by reduceNOPs.sh
5657	1340	00602020		add	%GPR4,%GPR3,%GPR0	
5658	1341	3c020000		lhi	%GPR2,$0	
5659	1342	00000000		nop
5660	1343	00000000		nop
5661	1344	00000000		nop
5662				; Automatically 1 NOPs removed by reduceNOPs.sh
5663	1345	34420004		ori	%GPR2,%GPR2,$4	
5664	1346	00000000		nop	;;5,7
5665	1347	00000000		nop	;;5,7
5666	1348	3c080000		lhi	%GPR8,$0	
5667	1349	00000000		nop
5668	134a	00000000		nop
5669	134b	00000000		nop
5670				; Automatically 1 NOPs removed by reduceNOPs.sh
5671	134c	35080004		ori	%GPR8,%GPR8,$4	
5672	134d	00804820		add	%GPR9,%GPR4,%GPR0	
5673	134e	00821018		mult	%GPR2,%GPR4,%GPR2	
5674	134f	00000000		nop	;;9,11
5675	1350	00000000		nop	;;9,11
5676	1351	3c0a0000		lhi	%GPR10,$0	
5677	1352	00000000		nop
5678	1353	00000000		nop
5679	1354	00000000		nop
5680				; Automatically 1 NOPs removed by reduceNOPs.sh
5681	1355	354a0004		ori	%GPR10,%GPR10,$4	
5682	1356	00000000		nop	;;11,13
5683	1357	00000000		nop	;;11,13
5684	1358	3c040000		lhi	%GPR4,$0	
5685	1359	00000000		nop
5686	135a	00000000		nop
5687	135b	00000000		nop
5688				; Automatically 1 NOPs removed by reduceNOPs.sh
5689	135c	34840001		ori	%GPR4,%GPR4,$1	
5690	135d	00000000		nop	;;13,15
5691	135e	00000000		nop	;;13,15
5692	135f	3c050000		lhi	%GPR5,$0	
5693	1360	00000000		nop
5694	1361	00000000		nop
5695	1362	00000000		nop
5696				; Automatically 1 NOPs removed by reduceNOPs.sh
5697	1363	34a50001		ori	%GPR5,%GPR5,$1	
5698	1364	004a8018		mult	%GPR16,%GPR2,%GPR10	
5699	1365	05282038		mac	%GPR4,%GPR9,%GPR8	
5700	1366	01204020		add	%GPR8,%GPR9,%GPR0	
5701	1367	3c0e0000		lhi	%GPR14,$0	
5702	1368	00000000		nop
5703	1369	00000000		nop
5704	136a	00000000		nop
5705				; Automatically 1 NOPs removed by reduceNOPs.sh
5706	136b	35ce0004		ori	%GPR14,%GPR14,$4	
5707	136c	00000000		nop	;;19,23
5708	136d	00000000		nop	;;19,23
5709	136e	00000000		nop	;;19,23
5710				; Automatically 1 NOPs removed by reduceNOPs.sh
5711	136f	00611818		mult	%GPR3,%GPR3,%GPR1	
5712	1370	3c0b0000		lhi	%GPR11,$0	
5713	1371	00000000		nop
5714	1372	00000000		nop
5715	1373	00000000		nop
5716				; Automatically 1 NOPs removed by reduceNOPs.sh
5717	1374	356b0004		ori	%GPR11,%GPR11,$4	
5718	1375	00000000		nop	;;24,26
5719	1376	00000000		nop	;;24,26
5720	1377	05012838		mac	%GPR5,%GPR8,%GPR1	
5721	1378	8fc2fa38		lw	%GPR2,-1480(%GPR30)	
5722	1379	00000000		nop	; Automatically added by fix-stall-insns.pl
5723	137a	00000000		nop	; Automatically added by fix-stall-insns.pl
5724	137b	00000000		nop	; Automatically added by fix-stall-insns.pl
5725	137c	00000000		nop	; Automatically added by fix-stall-insns.pl
5726	137d	008e2018		mult	%GPR4,%GPR4,%GPR14	
5727	137e	2bc60094		subi	%GPR6,%GPR30,$148	
5728	137f	3c0c0000		lhi	%GPR12,$0	
5729	1380	00000000		nop
5730	1381	00000000		nop
5731	1382	00000000		nop
5732				; Automatically 1 NOPs removed by reduceNOPs.sh
5733	1383	358c0004		ori	%GPR12,%GPR12,$4	
5734	1384	3c090000		lhi	%GPR9,$0	
5735	1385	00000000		nop
5736	1386	00000000		nop
5737	1387	00000000		nop
5738				; Automatically 1 NOPs removed by reduceNOPs.sh
5739	1388	35290002		ori	%GPR9,%GPR9,$2	
5740	1389	3c080000		lhi	%GPR8,$0	
5741	138a	00000000		nop
5742	138b	00000000		nop
5743	138c	00000000		nop
5744				; Automatically 1 NOPs removed by reduceNOPs.sh
5745	138d	35080002		ori	%GPR8,%GPR8,$2	
5746	138e	006b8818		mult	%GPR17,%GPR3,%GPR11	
5747	138f	2bc70294		subi	%GPR7,%GPR30,$660	
5748	1390	2bca0094		subi	%GPR10,%GPR30,$148	
5749	1391	3c0f0000		lhi	%GPR15,$0	
5750	1392	00000000		nop
5751	1393	00000000		nop
5752	1394	00000000		nop
5753				; Automatically 1 NOPs removed by reduceNOPs.sh
5754	1395	35ef0004		ori	%GPR15,%GPR15,$4	
5755	1396	00000000		nop	;;36,42
5756	1397	00000000		nop	;;36,42
5757	1398	00000000		nop	;;36,42
5758				; Automatically 3 NOPs removed by reduceNOPs.sh
5759	1399	00d07020		add	%GPR14,%GPR6,%GPR16	
5760	139a	044c4038		mac	%GPR8,%GPR2,%GPR12	
5761	139b	04414838		mac	%GPR9,%GPR2,%GPR1	
5762	139c	00000000		nop	; Automatically added by fix-stall-insns.pl
5763	139d	00000000		nop	; Automatically added by fix-stall-insns.pl
5764	139e	00000000		nop	; Automatically added by fix-stall-insns.pl
5765	139f	8fc6fa38		lw	%GPR6,-1480(%GPR30)	
5766	13a0	00af2818		mult	%GPR5,%GPR5,%GPR15	
5767	13a1	00f13820		add	%GPR7,%GPR7,%GPR17	
5768	13a2	01442020		add	%GPR4,%GPR10,%GPR4	
5769	13a3	2bcb0294		subi	%GPR11,%GPR30,$660	
5770	13a4	3c120000		lhi	%GPR18,$0	
5771	13a5	00000000		nop
5772	13a6	00000000		nop
5773	13a7	00000000		nop
5774				; Automatically 1 NOPs removed by reduceNOPs.sh
5775	13a8	36520004		ori	%GPR18,%GPR18,$4	
5776	13a9	3c030000		lhi	%GPR3,$0	
5777	13aa	00000000		nop
5778	13ab	00000000		nop
5779	13ac	00000000		nop
5780				; Automatically 1 NOPs removed by reduceNOPs.sh
5781	13ad	34630003		ori	%GPR3,%GPR3,$3	
5782	13ae	3c020000		lhi	%GPR2,$0	
5783	13af	00000000		nop
5784	13b0	00000000		nop
5785	13b1	00000000		nop
5786				; Automatically 1 NOPs removed by reduceNOPs.sh
5787	13b2	34420003		ori	%GPR2,%GPR2,$3	
5788	13b3	8fcafa38		lw	%GPR10,-1480(%GPR30)	
5789	13b4	3c0d0000		lhi	%GPR13,$0	
5790	13b5	00000000		nop
5791	13b6	00000000		nop
5792	13b7	00000000		nop
5793				; Automatically 1 NOPs removed by reduceNOPs.sh
5794	13b8	35ad0004		ori	%GPR13,%GPR13,$4	
5795	13b9	3c0c0000		lhi	%GPR12,$0	
5796	13ba	00000000		nop
5797	13bb	00000000		nop
5798	13bc	00000000		nop
5799				; Automatically 1 NOPs removed by reduceNOPs.sh
5800	13bd	358c0004		ori	%GPR12,%GPR12,$4	
5801	13be	00000000		nop	;;55,57
5802	13bf	00000000		nop	;;55,57
5803	13c0	adc70000		sw	0(%GPR14),%GPR7	
5804	13c1	00000000		nop	;;57,59
5805	13c2	00000000		nop	;;57,59
5806	13c3	00000000		nop	; Automatically added by fix-stall-insns.pl
5807	13c4	00000000		nop	; Automatically added by fix-stall-insns.pl
5808	13c5	04d21038		mac	%GPR2,%GPR6,%GPR18	
5809	13c6	01652820		add	%GPR5,%GPR11,%GPR5	
5810	13c7	00000000		nop	; Automatically added by fix-stall-insns.pl
5811	13c8	00000000		nop	; Automatically added by fix-stall-insns.pl
5812	13c9	04c11838		mac	%GPR3,%GPR6,%GPR1	
5813	13ca	00000000		nop	;;61,63
5814	13cb	00000000		nop	;;61,63
5815	13cc	00000000		nop	; Automatically added by fix-stall-insns.pl
5816	13cd	012d4818		mult	%GPR9,%GPR9,%GPR13	
5817	13ce	010c4018		mult	%GPR8,%GPR8,%GPR12	
5818	13cf	01405820		add	%GPR11,%GPR10,%GPR0	
5819	13d0	3c100000		lhi	%GPR16,$0	
5820	13d1	00000000		nop
5821	13d2	00000000		nop
5822	13d3	00000000		nop
5823				; Automatically 1 NOPs removed by reduceNOPs.sh
5824	13d4	36100004		ori	%GPR16,%GPR16,$4	
5825	13d5	2bc70294		subi	%GPR7,%GPR30,$660	
5826	13d6	2bc60094		subi	%GPR6,%GPR30,$148	
5827	13d7	00000000		nop	;;68,71
5828	13d8	00000000		nop	;;68,71
5829	13d9	00000000		nop	;;68,71
5830	13da	3c0e0000		lhi	%GPR14,$0	
5831	13db	00000000		nop
5832	13dc	00000000		nop
5833	13dd	00000000		nop
5834				; Automatically 1 NOPs removed by reduceNOPs.sh
5835	13de	35ce0004		ori	%GPR14,%GPR14,$4	
5836	13df	ac850000		sw	0(%GPR4),%GPR5	
5837	13e0	3c0f0000		lhi	%GPR15,$0	
5838	13e1	00000000		nop
5839	13e2	00000000		nop
5840	13e3	00000000		nop
5841				; Automatically 1 NOPs removed by reduceNOPs.sh
5842	13e4	35ef0004		ori	%GPR15,%GPR15,$4	
5843	13e5	00000000		nop	;;73,75
5844	13e6	00000000		nop	;;73,75
5845	13e7	01705818		mult	%GPR11,%GPR11,%GPR16	
5846	13e8	00e93820		add	%GPR7,%GPR7,%GPR9	
5847	13e9	00c84020		add	%GPR8,%GPR6,%GPR8	
5848	13ea	00000000		nop	;;77,80
5849	13eb	00000000		nop	;;77,80
5850	13ec	00000000		nop	;;77,80
5851	13ed	8fc6fa38		lw	%GPR6,-1480(%GPR30)	
5852	13ee	3c120000		lhi	%GPR18,$0	
5853	13ef	00000000		nop
5854	13f0	00000000		nop
5855	13f1	00000000		nop
5856				; Automatically 1 NOPs removed by reduceNOPs.sh
5857	13f2	36520004		ori	%GPR18,%GPR18,$4	
5858	13f3	3c040000		lhi	%GPR4,$0	
5859	13f4	00000000		nop
5860	13f5	00000000		nop
5861	13f6	00000000		nop
5862				; Automatically 1 NOPs removed by reduceNOPs.sh
5863	13f7	34840001		ori	%GPR4,%GPR4,$1	
5864	13f8	00000000		nop	;;82,84
5865	13f9	00000000		nop	;;82,84
5866	13fa	004e1018		mult	%GPR2,%GPR2,%GPR14	
5867	13fb	2bcc0094		subi	%GPR12,%GPR30,$148	
5868	13fc	00000000		nop	; Automatically added by fix-stall-insns.pl
5869	13fd	00000000		nop	; Automatically added by fix-stall-insns.pl
5870	13fe	006f1818		mult	%GPR3,%GPR3,%GPR15	
5871	13ff	2bcd0294		subi	%GPR13,%GPR30,$660	
5872	1400	3c050000		lhi	%GPR5,$0	
5873	1401	00000000		nop
5874	1402	00000000		nop
5875	1403	00000000		nop
5876				; Automatically 1 NOPs removed by reduceNOPs.sh
5877	1404	34a50001		ori	%GPR5,%GPR5,$1	
5878	1405	ad070000		sw	0(%GPR8),%GPR7	
5879	1406	00000000		nop	;;89,93
5880	1407	00000000		nop	;;89,93
5881	1408	00000000		nop	;;89,93
5882				; Automatically 1 NOPs removed by reduceNOPs.sh
5883	1409	00000000		nop	; Automatically added by fix-stall-insns.pl
5884	140a	01415018		mult	%GPR10,%GPR10,%GPR1	
5885	140b	3c100000		lhi	%GPR16,$0	
5886	140c	00000000		nop
5887	140d	00000000		nop
5888	140e	00000000		nop
5889				; Automatically 1 NOPs removed by reduceNOPs.sh
5890	140f	36100004		ori	%GPR16,%GPR16,$4	
5891	1410	3c110000		lhi	%GPR17,$0	
5892	1411	00000000		nop
5893	1412	00000000		nop
5894	1413	00000000		nop
5895				; Automatically 1 NOPs removed by reduceNOPs.sh
5896	1414	36310004		ori	%GPR17,%GPR17,$4	
5897	1415	00000000		nop	;;95,97
5898	1416	00000000		nop	;;95,97
5899	1417	04d22038		mac	%GPR4,%GPR6,%GPR18	
5900	1418	3c080000		lhi	%GPR8,$0	
5901	1419	00000000		nop
5902	141a	00000000		nop
5903	141b	00000000		nop
5904				; Automatically 1 NOPs removed by reduceNOPs.sh
5905	141c	35080004		ori	%GPR8,%GPR8,$4	
5906	141d	01826020		add	%GPR12,%GPR12,%GPR2	
5907	141e	8fc2fa38		lw	%GPR2,-1480(%GPR30)	
5908	141f	01a31820		add	%GPR3,%GPR13,%GPR3	
5909	1420	00000000		nop	; Automatically added by fix-stall-insns.pl
5910	1421	00000000		nop	; Automatically added by fix-stall-insns.pl
5911	1422	00000000		nop	; Automatically added by fix-stall-insns.pl
5912	1423	04c12838		mac	%GPR5,%GPR6,%GPR1	
5913	1424	3c0e0000		lhi	%GPR14,$0	
5914	1425	00000000		nop
5915	1426	00000000		nop
5916	1427	00000000		nop
5917				; Automatically 1 NOPs removed by reduceNOPs.sh
5918	1428	35ce0002		ori	%GPR14,%GPR14,$2	
5919	1429	3c0f0000		lhi	%GPR15,$0	
5920	142a	00000000		nop
5921	142b	00000000		nop
5922	142c	00000000		nop
5923				; Automatically 1 NOPs removed by reduceNOPs.sh
5924	142d	35ef0002		ori	%GPR15,%GPR15,$2	
5925	142e	3c120000		lhi	%GPR18,$0	
5926	142f	00000000		nop
5927	1430	00000000		nop
5928	1431	00000000		nop
5929				; Automatically 1 NOPs removed by reduceNOPs.sh
5930	1432	36520004		ori	%GPR18,%GPR18,$4	
5931	1433	01705818		mult	%GPR11,%GPR11,%GPR16	
5932	1434	01515018		mult	%GPR10,%GPR10,%GPR17	
5933	1435	2bc70194		subi	%GPR7,%GPR30,$404	
5934	1436	3c090000		lhi	%GPR9,$0	
5935	1437	00000000		nop
5936	1438	00000000		nop
5937	1439	00000000		nop
5938				; Automatically 1 NOPs removed by reduceNOPs.sh
5939	143a	35290004		ori	%GPR9,%GPR9,$4	
5940	143b	2bc60054		subi	%GPR6,%GPR30,$84	
5941	143c	00882018		mult	%GPR4,%GPR4,%GPR8	
5942	143d	00000000		nop	;;111,114
5943	143e	00000000		nop	;;111,114
5944	143f	00000000		nop	;;111,114
5945	1440	ad830000		sw	0(%GPR12),%GPR3	
5946	1441	04527038		mac	%GPR14,%GPR2,%GPR18	
5947	1442	00000000		nop	; Automatically added by fix-stall-insns.pl
5948	1443	00000000		nop	; Automatically added by fix-stall-insns.pl
5949	1444	00000000		nop	; Automatically added by fix-stall-insns.pl
5950	1445	04417838		mac	%GPR15,%GPR2,%GPR1	
5951	1446	00a92818		mult	%GPR5,%GPR5,%GPR9	
5952	1447	00ea3820		add	%GPR7,%GPR7,%GPR10	
5953	1448	00cb3020		add	%GPR6,%GPR6,%GPR11	
5954	1449	2bc30194		subi	%GPR3,%GPR30,$404	
5955	144a	2bc20054		subi	%GPR2,%GPR30,$84	
5956	144b	00000000		nop	;;121,123
5957	144c	00000000		nop	;;121,123
5958	144d	8fc8fa38		lw	%GPR8,-1480(%GPR30)	
5959	144e	3c100000		lhi	%GPR16,$0	
5960	144f	00000000		nop
5961	1450	00000000		nop
5962	1451	00000000		nop
5963				; Automatically 1 NOPs removed by reduceNOPs.sh
5964	1452	36100003		ori	%GPR16,%GPR16,$3	
5965	1453	00000000		nop	;;124,128
5966	1454	00000000		nop	;;124,128
5967	1455	00000000		nop	;;124,128
5968				; Automatically 1 NOPs removed by reduceNOPs.sh
5969	1456	3c120000		lhi	%GPR18,$0	
5970	1457	00000000		nop
5971	1458	00000000		nop
5972	1459	00000000		nop
5973				; Automatically 1 NOPs removed by reduceNOPs.sh
5974	145a	36520004		ori	%GPR18,%GPR18,$4	
5975	145b	acc70000		sw	0(%GPR6),%GPR7	
5976	145c	00651820		add	%GPR3,%GPR3,%GPR5	
5977	145d	00441020		add	%GPR2,%GPR2,%GPR4	
5978	145e	3c110000		lhi	%GPR17,$0	
5979	145f	00000000		nop
5980	1460	00000000		nop
5981	1461	00000000		nop
5982				; Automatically 1 NOPs removed by reduceNOPs.sh
5983	1462	36310003		ori	%GPR17,%GPR17,$3	
5984	1463	3c070000		lhi	%GPR7,$0	
5985	1464	00000000		nop
5986	1465	00000000		nop
5987	1466	00000000		nop
5988				; Automatically 1 NOPs removed by reduceNOPs.sh
5989	1467	34e70004		ori	%GPR7,%GPR7,$4	
5990	1468	05128038		mac	%GPR16,%GPR8,%GPR18	
5991	1469	00000000		nop	;;134,136
5992	146a	00000000		nop	;;134,136
5993	146b	3c0c0000		lhi	%GPR12,$0	
5994	146c	00000000		nop
5995	146d	00000000		nop
5996	146e	00000000		nop
5997				; Automatically 1 NOPs removed by reduceNOPs.sh
5998	146f	358c0004		ori	%GPR12,%GPR12,$4	
5999	1470	3c0d0000		lhi	%GPR13,$0	
6000	1471	00000000		nop
6001	1472	00000000		nop
6002	1473	00000000		nop
6003				; Automatically 1 NOPs removed by reduceNOPs.sh
6004	1474	35ad0004		ori	%GPR13,%GPR13,$4	
6005	1475	ac430000		sw	0(%GPR2),%GPR3	
6006	1476	05018838		mac	%GPR17,%GPR8,%GPR1	
6007	1477	00000000		nop	; Automatically added by fix-stall-insns.pl
6008	1478	00000000		nop	; Automatically added by fix-stall-insns.pl
6009	1479	00000000		nop	; Automatically added by fix-stall-insns.pl
6010	147a	02071018		mult	%GPR2,%GPR16,%GPR7	
6011	147b	2bc60194		subi	%GPR6,%GPR30,$404	
6012	147c	2bc40054		subi	%GPR4,%GPR30,$84	
6013	147d	2bc80054		subi	%GPR8,%GPR30,$84	
6014	147e	3c090000		lhi	%GPR9,$0	
6015	147f	00000000		nop
6016	1480	00000000		nop
6017	1481	00000000		nop
6018				; Automatically 1 NOPs removed by reduceNOPs.sh
6019	1482	35290004		ori	%GPR9,%GPR9,$4	
6020	1483	01cc5018		mult	%GPR10,%GPR14,%GPR12	
6021	1484	01ed5818		mult	%GPR11,%GPR15,%GPR13	
6022	1485	00821020		add	%GPR2,%GPR4,%GPR2	
6023	1486	00000000		nop	; Automatically added by fix-stall-insns.pl
6024	1487	00000000		nop	; Automatically added by fix-stall-insns.pl
6025	1488	02291818		mult	%GPR3,%GPR17,%GPR9	
6026	1489	010a3820		add	%GPR7,%GPR8,%GPR10	
6027	148a	2bc50194		subi	%GPR5,%GPR30,$404	
6028	148b	00cb3020		add	%GPR6,%GPR6,%GPR11	
6029	148c	8fc4fa38		lw	%GPR4,-1480(%GPR30)	
6030	148d	00000000		nop	;;152,154
6031	148e	00000000		nop	;;152,154
6032	148f	00a31820		add	%GPR3,%GPR5,%GPR3	
6033	1490	00000000		nop	; Automatically added by fix-stall-insns.pl
6034	1491	ace60000		sw	0(%GPR7),%GPR6	
6035	1492	20840001		addi	%GPR4,%GPR4,$1	
6036	1493	3c080000		lhi	%GPR8,$0	
6037	1494	00000000		nop
6038	1495	00000000		nop
6039	1496	00000000		nop
6040				; Automatically 1 NOPs removed by reduceNOPs.sh
6041	1497	35080004		ori	%GPR8,%GPR8,$4	
6042	1498	00000000		nop	;;157,159
6043	1499	00000000		nop	;;157,159
6044	149a	ac430000		sw	0(%GPR2),%GPR3	
6045	149b	00801020		add	%GPR2,%GPR4,%GPR0	
6046	149c	00000000		nop	; Automatically added by fix-stall-insns.pl
6047	149d	00000000		nop	; Automatically added by fix-stall-insns.pl
6048	149e	00000000		nop	; Automatically added by fix-stall-insns.pl
6049	149f	afc4fa38		sw	-1480(%GPR30),%GPR4	
6050	14a0	00000000		nop	;;161,164
6051	14a1	00000000		nop	;;161,164
6052	14a2	00000000		nop	;;161,164
6053	14a3	0048d82a		slt	%GPR27,%GPR2,%GPR8	
6054	14a4	00000000		nop	; Automatically added by findDataDependency.sh
6055	14a5	00000000		nop	; Automatically added by findDataDependency.sh
6056	14a6	00000000		nop	; Automatically added by findDataDependency.sh
6057	14a7	1760fe94		bnez	%GPR27,L_main_68	
6058	14a8	00000000		nop
6059	14a9	00000000		nop
6060	14aa	00000000		nop
6061				; Automatically 1 NOPs removed by reduceNOPs.sh
6062	14ab	08000004		j	L_main_69	
6063	14ac	00000000		nop
6064	14ad	00000000		nop
6065	14ae	00000000		nop
6066				; Automatically 1 NOPs removed by reduceNOPs.sh
6067			L_main_69:
6068	14af	00000000		nop	;;0,4
6069	14b0	00000000		nop	;;0,4
6070	14b1	00000000		nop	;;0,4
6071				; Automatically 1 NOPs removed by reduceNOPs.sh
6072	14b2	3c010000		lhi	%GPR1,$0	
6073	14b3	00000000		nop
6074	14b4	00000000		nop
6075	14b5	00000000		nop
6076				; Automatically 1 NOPs removed by reduceNOPs.sh
6077	14b6	34210000		ori	%GPR1,%GPR1,$0	
6078	14b7	00000000		nop	;;4,8
6079	14b8	00000000		nop	;;4,8
6080	14b9	00000000		nop	;;4,8
6081				; Automatically 1 NOPs removed by reduceNOPs.sh
6082	14ba	afc1fa38		sw	-1480(%GPR30),%GPR1	
6083	14bb	00000000		nop
6084	14bc	00000000		nop
6085	14bd	00000000		nop
6086			L_main_70:
6087	14be	00000000		nop	; Automatically Added by addNopAfterLabels.pl
6088	14bf	8fc1fa38		lw	%GPR1,-1480(%GPR30)	
6089	14c0	00000000		nop	;;0,4
6090	14c1	00000000		nop	;;0,4
6091	14c2	00000000		nop	;;0,4
6092				; Automatically 1 NOPs removed by reduceNOPs.sh
6093	14c3	20210001		addi	%GPR1,%GPR1,$1	
6094	14c4	00000000		nop	;;4,8
6095	14c5	00000000		nop	;;4,8
6096	14c6	00000000		nop	;;4,8
6097				; Automatically 1 NOPs removed by reduceNOPs.sh
6098	14c7	00201020		add	%GPR2,%GPR1,%GPR0	
6099	14c8	afc1fa38		sw	-1480(%GPR30),%GPR1	
6100	14c9	3c010000		lhi	%GPR1,$0	
6101	14ca	00000000		nop
6102	14cb	00000000		nop
6103	14cc	00000000		nop
6104				; Automatically 1 NOPs removed by reduceNOPs.sh
6105	14cd	34210010		ori	%GPR1,%GPR1,$16	
6106	14ce	00000000		nop	;;10,14
6107	14cf	00000000		nop	;;10,14
6108	14d0	00000000		nop	;;10,14
6109				; Automatically 1 NOPs removed by reduceNOPs.sh
6110	14d1	0041d82a		slt	%GPR27,%GPR2,%GPR1	
6111	14d2	00000000		nop	; Automatically added by findDataDependency.sh
6112	14d3	00000000		nop	; Automatically added by findDataDependency.sh
6113	14d4	00000000		nop	; Automatically added by findDataDependency.sh
6114	14d5	1760ffe9		bnez	%GPR27,L_main_70	
6115	14d6	00000000		nop
6116	14d7	00000000		nop
6117	14d8	00000000		nop
6118				; Automatically 1 NOPs removed by reduceNOPs.sh
6119	14d9	08000004		j	L_main_71	
6120	14da	00000000		nop
6121	14db	00000000		nop
6122	14dc	00000000		nop
6123				; Automatically 1 NOPs removed by reduceNOPs.sh
6124			L_main_71:
6125	14dd	00000000		nop	;;0,4
6126	14de	00000000		nop	;;0,4
6127	14df	00000000		nop	;;0,4
6128				; Automatically 1 NOPs removed by reduceNOPs.sh
6129	14e0	3c010000		lhi	%GPR1,$0	
6130	14e1	00000000		nop
6131	14e2	00000000		nop
6132	14e3	00000000		nop
6133				; Automatically 1 NOPs removed by reduceNOPs.sh
6134	14e4	34210000		ori	%GPR1,%GPR1,$0	
6135	14e5	00000000		nop	;;4,8
6136	14e6	00000000		nop	;;4,8
6137	14e7	00000000		nop	;;4,8
6138				; Automatically 1 NOPs removed by reduceNOPs.sh
6139	14e8	afc1fa20		sw	-1504(%GPR30),%GPR1	
6140	14e9	00000000		nop
6141	14ea	00000000		nop
6142	14eb	00000000		nop
6143			L_main_72:
6144	14ec	00000000		nop	;;0,4
6145	14ed	00000000		nop	;;0,4
6146	14ee	00000000		nop	;;0,4
6147				; Automatically 1 NOPs removed by reduceNOPs.sh
6148	14ef	3c010000		lhi	%GPR1,$0	
6149	14f0	00000000		nop
6150	14f1	00000000		nop
6151	14f2	00000000		nop
6152				; Automatically 1 NOPs removed by reduceNOPs.sh
6153	14f3	34210000		ori	%GPR1,%GPR1,$0	
6154	14f4	00000000		nop	;;4,8
6155	14f5	00000000		nop	;;4,8
6156	14f6	00000000		nop	;;4,8
6157				; Automatically 1 NOPs removed by reduceNOPs.sh
6158	14f7	afc1fa38		sw	-1480(%GPR30),%GPR1	
6159	14f8	00000000		nop
6160	14f9	00000000		nop
6161	14fa	00000000		nop
6162			L_main_73:
6163	14fb	00000000		nop	;;0,4
6164	14fc	00000000		nop	;;0,4
6165	14fd	00000000		nop	;;0,4
6166				; Automatically 1 NOPs removed by reduceNOPs.sh
6167	14fe	3c010000		lhi	%GPR1,$0	
6168	14ff	00000000		nop
6169	1500	00000000		nop
6170	1501	00000000		nop
6171				; Automatically 1 NOPs removed by reduceNOPs.sh
6172	1502	34210000		ori	%GPR1,%GPR1,$0	
6173			
6174			
6175	1503	3c020100		lhi	%GPR2, $0x100
6176	1504	00000000		nop
6177	1505	00000000		nop
6178	1506	00000000		nop
6179	1507	ac410000		sw	0(%GPR2), %GPR1
6180			
6181	1508	00000000		nop	;;5,7
6182	1509	00000000		nop	;;5,7
6183	150a	00000000		nop	; Automatically added by fix-stall-insns.pl
6184	150b	00000000		nop	; Automatically added by fix-stall-insns.pl
6185	150c	8fc5fa20		lw	%GPR5,-1504(%GPR30)	
6186	150d	00000000		nop	;;7,9
6187	150e	00000000		nop	;;7,9
6188	150f	2bc20094		subi	%GPR2,%GPR30,$148	
6189	1510	3c030000		lhi	%GPR3,$0	
6190	1511	00000000		nop
6191	1512	00000000		nop
6192	1513	00000000		nop
6193				; Automatically 1 NOPs removed by reduceNOPs.sh
6194	1514	34630004		ori	%GPR3,%GPR3,$4	
6195	1515	2bc10054		subi	%GPR1,%GPR30,$84	
6196	1516	3c040000		lhi	%GPR4,$0	
6197	1517	00000000		nop
6198	1518	00000000		nop
6199	1519	00000000		nop
6200				; Automatically 1 NOPs removed by reduceNOPs.sh
6201	151a	34840004		ori	%GPR4,%GPR4,$4	
6202	151b	00000000		nop	;;12,14
6203	151c	00000000		nop	;;12,14
6204	151d	00a31818		mult	%GPR3,%GPR5,%GPR3	
6205	151e	00000000		nop	;;14,18
6206	151f	00000000		nop	;;14,18
6207	1520	00000000		nop	;;14,18
6208				; Automatically 1 NOPs removed by reduceNOPs.sh
6209	1521	8fc5fa38		lw	%GPR5,-1480(%GPR30)	
6210	1522	00230820		add	%GPR1,%GPR1,%GPR3	
6211	1523	00000000		nop	;;19,22
6212	1524	00000000		nop	;;19,22
6213	1525	00000000		nop	;;19,22
6214	1526	00a42018		mult	%GPR4,%GPR5,%GPR4	
6215	1527	8c210000		lw	%GPR1,0(%GPR1)	
6216	1528	00000000		nop	;;23,26
6217	1529	00000000		nop	;;23,26
6218	152a	00000000		nop	;;23,26
6219	152b	00441020		add	%GPR2,%GPR2,%GPR4	
6220	152c	00000000		nop	;;26,30
6221	152d	00000000		nop	;;26,30
6222	152e	00000000		nop	;;26,30
6223				; Automatically 1 NOPs removed by reduceNOPs.sh
6224	152f	8c430000		lw	%GPR3,0(%GPR2)	
6225	1530	8fc2fa48		lw	%GPR2,-1464(%GPR30)	
6226	1531	00000000		nop
6227	1532	00000000		nop
6228	1533	00000000		nop
6229				; Automatically 1 NOPs removed by reduceNOPs.sh
6230	1534	2bbd0008		subi	%GPR29,%GPR29,$8	
6231	1535	00000000		nop
6232	1536	00000000		nop
6233	1537	00000000		nop
6234				; Automatically 1 NOPs removed by reduceNOPs.sh
6235	1538	0ffff28a		jal	SATD_4x4	
6236	1539	00000000		nop
6237	153a	00000000		nop
6238	153b	00000000		nop
6239				; Automatically 1 NOPs removed by reduceNOPs.sh
6240	153c	23bd0008		addi	%GPR29,%GPR29,$8	
6241	153d	00000000		nop
6242	153e	00000000		nop
6243	153f	00000000		nop
6244				; Automatically 1 NOPs removed by reduceNOPs.sh
6245	1540	03800820		add	%GPR1,%GPR28,%GPR0	
6246			
6247			
6248	1541	3c020100		lhi	%GPR2,$0x100
6249	1542	00000000		nop
6250	1543	00000000		nop
6251	1544	00000000		nop
6252	1545	8c420000		lw	%GPR2, 0(%GPR2)
6253	1546	00000000		nop
6254	1547	00000000		nop
6255	1548	00000000		nop
6256			
6257	1549	00000000		nop	; Automatically added by fix-stall-insns.pl
6258	154a	8fc3fa28		lw	%GPR3,-1496(%GPR30)	
6259	154b	00000000		nop	;;35,39
6260	154c	00000000		nop	;;35,39
6261	154d	00000000		nop	;;35,39
6262				; Automatically 1 NOPs removed by reduceNOPs.sh
6263	154e	00621020		add	%GPR2,%GPR3,%GPR2	
6264	154f	00000000		nop	;;39,43
6265	1550	00000000		nop	;;39,43
6266	1551	00000000		nop	;;39,43
6267				; Automatically 1 NOPs removed by reduceNOPs.sh
6268	1552	afc2fa28		sw	-1496(%GPR30),%GPR2	
6269	1553	00000000		nop	; Automatically added by findLoadStoreProblem.sh
6270	1554	00000000		nop	; Automatically added by fix-stall-insns.pl
6271	1555	00000000		nop	; Automatically added by fix-stall-insns.pl
6272	1556	00000000		nop	; Automatically added by fix-stall-insns.pl
6273	1557	8fc2fa34		lw	%GPR2,-1484(%GPR30)	
6274	1558	00000000		nop	;;44,48
6275	1559	00000000		nop	;;44,48
6276	155a	00000000		nop	;;44,48
6277				; Automatically 1 NOPs removed by reduceNOPs.sh
6278	155b	0022d83a		sltu	%GPR27,%GPR1,%GPR2	
6279	155c	00000000		nop	; Automatically added by findDataDependency.sh
6280	155d	00000000		nop	; Automatically added by findDataDependency.sh
6281	155e	00000000		nop	; Automatically added by findDataDependency.sh
6282	155f	17600008		bnez	%GPR27,L_main_74	
6283	1560	00000000		nop
6284	1561	00000000		nop
6285	1562	00000000		nop
6286				; Automatically 1 NOPs removed by reduceNOPs.sh
6287	1563	08000025		j	L_main_75	
6288	1564	00000000		nop
6289	1565	00000000		nop
6290	1566	00000000		nop
6291				; Automatically 1 NOPs removed by reduceNOPs.sh
6292			L_main_74:
6293	1567	00000000		nop	; Automatically Added by addNopAfterLabels.pl
6294	1568	8fc3fa38		lw	%GPR3,-1480(%GPR30)	
6295	1569	00000000		nop	; Automatically added by findLoadStoreProblem.sh
6296	156a	00000000		nop	; Automatically added by fix-stall-insns.pl
6297	156b	00000000		nop	; Automatically added by fix-stall-insns.pl
6298	156c	00000000		nop	; Automatically added by fix-stall-insns.pl
6299	156d	afc1fa34		sw	-1484(%GPR30),%GPR1	
6300	156e	2bc10094		subi	%GPR1,%GPR30,$148	
6301	156f	3c020000		lhi	%GPR2,$0	
6302	1570	00000000		nop
6303	1571	00000000		nop
6304	1572	00000000		nop
6305				; Automatically 1 NOPs removed by reduceNOPs.sh
6306	1573	34420004		ori	%GPR2,%GPR2,$4	
6307	1574	00000000		nop	;;4,8
6308	1575	00000000		nop	;;4,8
6309	1576	00000000		nop	;;4,8
6310				; Automatically 1 NOPs removed by reduceNOPs.sh
6311	1577	00621018		mult	%GPR2,%GPR3,%GPR2	
6312	1578	00000000		nop	;;8,12
6313	1579	00000000		nop	;;8,12
6314	157a	00000000		nop	;;8,12
6315				; Automatically 1 NOPs removed by reduceNOPs.sh
6316	157b	00220820		add	%GPR1,%GPR1,%GPR2	
6317	157c	00000000		nop	;;12,16
6318	157d	00000000		nop	;;12,16
6319	157e	00000000		nop	;;12,16
6320				; Automatically 1 NOPs removed by reduceNOPs.sh
6321	157f	8c210000		lw	%GPR1,0(%GPR1)	
6322	1580	00000000		nop	;;16,20
6323	1581	00000000		nop	;;16,20
6324	1582	00000000		nop	;;16,20
6325				; Automatically 1 NOPs removed by reduceNOPs.sh
6326	1583	00000000		nop	; Automatically added by fix-stall-insns.pl
6327	1584	afc1fa24		sw	-1500(%GPR30),%GPR1	
6328	1585	00000000		nop
6329	1586	00000000		nop
6330	1587	00000000		nop
6331			L_main_75:
6332	1588	00000000		nop	; Automatically Added by addNopAfterLabels.pl
6333	1589	8fc1fa38		lw	%GPR1,-1480(%GPR30)	
6334	158a	00000000		nop	;;0,4
6335	158b	00000000		nop	;;0,4
6336	158c	00000000		nop	;;0,4
6337				; Automatically 1 NOPs removed by reduceNOPs.sh
6338	158d	20210001		addi	%GPR1,%GPR1,$1	
6339	158e	00000000		nop	;;4,8
6340	158f	00000000		nop	;;4,8
6341	1590	00000000		nop	;;4,8
6342				; Automatically 1 NOPs removed by reduceNOPs.sh
6343	1591	00201020		add	%GPR2,%GPR1,%GPR0	
6344	1592	afc1fa38		sw	-1480(%GPR30),%GPR1	
6345	1593	3c010000		lhi	%GPR1,$0	
6346	1594	00000000		nop
6347	1595	00000000		nop
6348	1596	00000000		nop
6349				; Automatically 1 NOPs removed by reduceNOPs.sh
6350	1597	34210010		ori	%GPR1,%GPR1,$16	
6351	1598	00000000		nop	;;10,14
6352	1599	00000000		nop	;;10,14
6353	159a	00000000		nop	;;10,14
6354				; Automatically 1 NOPs removed by reduceNOPs.sh
6355	159b	0041d82a		slt	%GPR27,%GPR2,%GPR1	
6356	159c	00000000		nop	; Automatically added by findDataDependency.sh
6357	159d	00000000		nop	; Automatically added by findDataDependency.sh
6358	159e	00000000		nop	; Automatically added by findDataDependency.sh
6359	159f	1760ff5c		bnez	%GPR27,L_main_73	
6360	15a0	00000000		nop
6361	15a1	00000000		nop
6362	15a2	00000000		nop
6363				; Automatically 1 NOPs removed by reduceNOPs.sh
6364	15a3	08000004		j	L_main_76	
6365	15a4	00000000		nop
6366	15a5	00000000		nop
6367	15a6	00000000		nop
6368				; Automatically 1 NOPs removed by reduceNOPs.sh
6369			L_main_76:
6370	15a7	00000000		nop	;;0,4
6371	15a8	00000000		nop	;;0,4
6372	15a9	00000000		nop	;;0,4
6373				; Automatically 1 NOPs removed by reduceNOPs.sh
6374	15aa	3c010000		lhi	%GPR1,$0	
6375	15ab	00000000		nop
6376	15ac	00000000		nop
6377	15ad	00000000		nop
6378				; Automatically 1 NOPs removed by reduceNOPs.sh
6379	15ae	34210000		ori	%GPR1,%GPR1,$0	
6380			
6381			
6382	15af	3c020100		lhi	%GPR2, $0x100
6383	15b0	00000000		nop
6384	15b1	00000000		nop
6385	15b2	00000000		nop
6386	15b3	ac410000		sw	0(%GPR2), %GPR1
6387			
6388	15b4	00000000		nop	;;5,7
6389	15b5	00000000		nop	;;5,7
6390	15b6	00000000		nop	; Automatically added by fix-stall-insns.pl
6391	15b7	00000000		nop	; Automatically added by fix-stall-insns.pl
6392	15b8	8fc3fa20		lw	%GPR3,-1504(%GPR30)	
6393	15b9	2bc10054		subi	%GPR1,%GPR30,$84	
6394	15ba	00000000		nop	; Automatically added by fix-stall-insns.pl
6395	15bb	00000000		nop	; Automatically added by fix-stall-insns.pl
6396	15bc	00000000		nop	; Automatically added by fix-stall-insns.pl
6397	15bd	8fc4fa3c		lw	%GPR4,-1476(%GPR30)	
6398	15be	3c020000		lhi	%GPR2,$0	
6399	15bf	00000000		nop
6400	15c0	00000000		nop
6401	15c1	00000000		nop
6402				; Automatically 1 NOPs removed by reduceNOPs.sh
6403	15c2	34420004		ori	%GPR2,%GPR2,$4	
6404	15c3	00000000		nop	;;10,14
6405	15c4	00000000		nop	;;10,14
6406	15c5	00000000		nop	;;10,14
6407				; Automatically 1 NOPs removed by reduceNOPs.sh
6408	15c6	00621018		mult	%GPR2,%GPR3,%GPR2	
6409	15c7	00000000		nop	;;14,18
6410	15c8	00000000		nop	;;14,18
6411	15c9	00000000		nop	;;14,18
6412				; Automatically 1 NOPs removed by reduceNOPs.sh
6413	15ca	00220820		add	%GPR1,%GPR1,%GPR2	
6414	15cb	8fc3fa24		lw	%GPR3,-1500(%GPR30)	
6415	15cc	8fc2fa48		lw	%GPR2,-1464(%GPR30)	
6416	15cd	00000000		nop	;;20,22
6417	15ce	00000000		nop	;;20,22
6418	15cf	00000000		nop	; Automatically added by fix-stall-insns.pl
6419	15d0	00000000		nop	; Automatically added by fix-stall-insns.pl
6420	15d1	8c210000		lw	%GPR1,0(%GPR1)	
6421	15d2	00000000		nop
6422	15d3	00000000		nop
6423	15d4	00000000		nop
6424				; Automatically 1 NOPs removed by reduceNOPs.sh
6425	15d5	2bbd0008		subi	%GPR29,%GPR29,$8	
6426	15d6	00000000		nop
6427	15d7	00000000		nop
6428	15d8	00000000		nop
6429				; Automatically 1 NOPs removed by reduceNOPs.sh
6430	15d9	0ffff6eb		jal	DCT_4x4	
6431	15da	00000000		nop
6432	15db	00000000		nop
6433	15dc	00000000		nop
6434				; Automatically 1 NOPs removed by reduceNOPs.sh
6435	15dd	23bd0008		addi	%GPR29,%GPR29,$8	
6436	15de	00000000		nop
6437	15df	00000000		nop
6438	15e0	00000000		nop
6439				; Automatically 1 NOPs removed by reduceNOPs.sh
6440			
6441			
6442	15e1	3c010100		lhi	%GPR1,$0x100
6443	15e2	00000000		nop
6444	15e3	00000000		nop
6445	15e4	00000000		nop
6446	15e5	8c210000		lw	%GPR1, 0(%GPR1)
6447	15e6	00000000		nop
6448	15e7	00000000		nop
6449	15e8	00000000		nop
6450			
6451	15e9	00000000		nop	; Automatically added by fix-stall-insns.pl
6452	15ea	8fc2fa20		lw	%GPR2,-1504(%GPR30)	
6453	15eb	00000000		nop	;;25,27
6454	15ec	00000000		nop	;;25,27
6455	15ed	00000000		nop	; Automatically added by fix-stall-insns.pl
6456	15ee	00000000		nop	; Automatically added by fix-stall-insns.pl
6457	15ef	8fc3fa3c		lw	%GPR3,-1476(%GPR30)	
6458	15f0	00000000		nop	;;27,29
6459	15f1	00000000		nop	;;27,29
6460	15f2	20420001		addi	%GPR2,%GPR2,$1	
6461	15f3	00000000		nop	;;29,33
6462	15f4	00000000		nop	;;29,33
6463	15f5	00000000		nop	;;29,33
6464				; Automatically 1 NOPs removed by reduceNOPs.sh
6465	15f6	afc2fa20		sw	-1504(%GPR30),%GPR2	
6466	15f7	00000000		nop	; Automatically added by findLoadStoreProblem.sh
6467	15f8	00000000		nop	; Automatically added by fix-stall-insns.pl
6468	15f9	00000000		nop	; Automatically added by fix-stall-insns.pl
6469	15fa	00000000		nop	; Automatically added by fix-stall-insns.pl
6470	15fb	8fc2fa2c		lw	%GPR2,-1492(%GPR30)	
6471	15fc	00000000		nop	;;34,38
6472	15fd	00000000		nop	;;34,38
6473	15fe	00000000		nop	;;34,38
6474				; Automatically 1 NOPs removed by reduceNOPs.sh
6475	15ff	00410820		add	%GPR1,%GPR2,%GPR1	
6476	1600	3c020000		lhi	%GPR2,$0	
6477	1601	00000000		nop
6478	1602	00000000		nop
6479	1603	00000000		nop
6480				; Automatically 1 NOPs removed by reduceNOPs.sh
6481	1604	34420020		ori	%GPR2,%GPR2,$32	
6482	1605	00000000		nop	;;39,42
6483	1606	00000000		nop	;;39,42
6484	1607	00000000		nop	;;39,42
6485	1608	afc1fa2c		sw	-1492(%GPR30),%GPR1	
6486	1609	00621020		add	%GPR2,%GPR3,%GPR2	
6487	160a	3c010000		lhi	%GPR1,$0	
6488	160b	00000000		nop
6489	160c	00000000		nop
6490	160d	00000000		nop
6491				; Automatically 1 NOPs removed by reduceNOPs.sh
6492	160e	34210010		ori	%GPR1,%GPR1,$16	
6493	160f	00000000		nop	;;44,47
6494	1610	00000000		nop	;;44,47
6495	1611	00000000		nop	;;44,47
6496	1612	afc2fa3c		sw	-1476(%GPR30),%GPR2	
6497	1613	00000000		nop	; Automatically added by findLoadStoreProblem.sh
6498	1614	00000000		nop	; Automatically added by fix-stall-insns.pl
6499	1615	00000000		nop	; Automatically added by fix-stall-insns.pl
6500	1616	00000000		nop	; Automatically added by fix-stall-insns.pl
6501	1617	8fc2fa20		lw	%GPR2,-1504(%GPR30)	
6502	1618	00000000		nop	;;48,52
6503	1619	00000000		nop	;;48,52
6504	161a	00000000		nop	;;48,52
6505				; Automatically 1 NOPs removed by reduceNOPs.sh
6506	161b	0041d82a		slt	%GPR27,%GPR2,%GPR1	
6507	161c	00000000		nop	; Automatically added by findDataDependency.sh
6508	161d	00000000		nop	; Automatically added by findDataDependency.sh
6509	161e	00000000		nop	; Automatically added by findDataDependency.sh
6510	161f	1760fecd		bnez	%GPR27,L_main_72	
6511	1620	00000000		nop
6512	1621	00000000		nop
6513	1622	00000000		nop
6514				; Automatically 1 NOPs removed by reduceNOPs.sh
6515	1623	08000004		j	L_main_77	
6516	1624	00000000		nop
6517	1625	00000000		nop
6518	1626	00000000		nop
6519				; Automatically 1 NOPs removed by reduceNOPs.sh
6520			L_main_77:
6521	1627	00000000		nop	;;0,4
6522	1628	00000000		nop	;;0,4
6523	1629	00000000		nop	;;0,4
6524				; Automatically 1 NOPs removed by reduceNOPs.sh
6525	162a	3c010000		lhi	%GPR1,$0	
6526	162b	00000000		nop
6527	162c	00000000		nop
6528	162d	00000000		nop
6529				; Automatically 1 NOPs removed by reduceNOPs.sh
6530	162e	34210000		ori	%GPR1,%GPR1,$0	
6531			
6532			
6533	162f	3c020100		lhi	%GPR2, $0x100
6534	1630	00000000		nop
6535	1631	00000000		nop
6536	1632	00000000		nop
6537	1633	ac410000		sw	0(%GPR2), %GPR1
6538			
6539	1634	8fc1fa40		lw	%GPR1,-1472(%GPR30)	
6540	1635	00000000		nop	; Automatically added by fix-stall-insns.pl
6541	1636	00000000		nop	; Automatically added by fix-stall-insns.pl
6542	1637	00000000		nop	; Automatically added by fix-stall-insns.pl
6543	1638	00000000		nop	; Automatically added by fix-stall-insns.pl
6544	1639	8fc2fa44		lw	%GPR2,-1468(%GPR30)	
6545	163a	00000000		nop
6546	163b	00000000		nop
6547	163c	00000000		nop
6548				; Automatically 1 NOPs removed by reduceNOPs.sh
6549	163d	2bbd0008		subi	%GPR29,%GPR29,$8	
6550	163e	00000000		nop
6551	163f	00000000		nop
6552	1640	00000000		nop
6553				; Automatically 1 NOPs removed by reduceNOPs.sh
6554	1641	0fffef64		jal	Hadamard_4x4_IntraLuma	
6555	1642	00000000		nop
6556	1643	00000000		nop
6557	1644	00000000		nop
6558				; Automatically 1 NOPs removed by reduceNOPs.sh
6559	1645	23bd0008		addi	%GPR29,%GPR29,$8	
6560	1646	00000000		nop
6561	1647	00000000		nop
6562	1648	00000000		nop
6563				; Automatically 5 NOPs removed by reduceNOPs.sh
6564			
6565			
6566	1649	3c010100		lhi	%GPR1,$0x100
6567	164a	00000000		nop
6568	164b	00000000		nop
6569	164c	00000000		nop
6570	164d	8c210000		lw	%GPR1, 0(%GPR1)
6571	164e	00000000		nop
6572	164f	00000000		nop
6573	1650	00000000		nop
6574			
6575	1651	00000000		nop	; Automatically added by fix-stall-insns.pl
6576	1652	8fc3fa30		lw	%GPR3,-1488(%GPR30)	
6577	1653	00000000		nop	;;10,12
6578	1654	00000000		nop	;;10,12
6579	1655	00000000		nop	; Automatically added by fix-stall-insns.pl
6580	1656	00000000		nop	; Automatically added by fix-stall-insns.pl
6581	1657	8fc4fa2c		lw	%GPR4,-1492(%GPR30)	
6582	1658	00000000		nop	;;12,14
6583	1659	00000000		nop	;;12,14
6584	165a	00610820		add	%GPR1,%GPR3,%GPR1	
6585	165b	2bc20014		subi	%GPR2,%GPR30,$20	
6586	165c	00000000		nop	;;15,17
6587	165d	00000000		nop	;;15,17
6588	165e	3c030000		lhi	%GPR3,$0	
6589	165f	00000000		nop
6590	1660	00000000		nop
6591	1661	00000000		nop
6592				; Automatically 1 NOPs removed by reduceNOPs.sh
6593	1662	34630100		ori	%GPR3,%GPR3,$256	
6594	1663	afc1fa30		sw	-1488(%GPR30),%GPR1	
6595	1664	3c010000		lhi	%GPR1,$0	
6596	1665	00000000		nop
6597	1666	00000000		nop
6598	1667	00000000		nop
6599				; Automatically 1 NOPs removed by reduceNOPs.sh
6600	1668	34210010		ori	%GPR1,%GPR1,$16	
6601	1669	00000000		nop	;;19,23
6602	166a	00000000		nop	;;19,23
6603	166b	00000000		nop	;;19,23
6604				; Automatically 1 NOPs removed by reduceNOPs.sh
6605	166c	0081081a		div	%GPR1,%GPR4,%GPR1	
6606	166d	00000000		nop	;;23,27
6607	166e	00000000		nop	;;23,27
6608	166f	00000000		nop	;;23,27
6609				; Automatically 1 NOPs removed by reduceNOPs.sh
6610	1670	afc1fa2c		sw	-1492(%GPR30),%GPR1	
6611	1671	00000000		nop	; Automatically added by findLoadStoreProblem.sh
6612	1672	00000000		nop	; Automatically added by fix-stall-insns.pl
6613	1673	00000000		nop	; Automatically added by fix-stall-insns.pl
6614	1674	00000000		nop	; Automatically added by fix-stall-insns.pl
6615	1675	8fc1fa28		lw	%GPR1,-1496(%GPR30)	
6616	1676	00000000		nop	;;28,32
6617	1677	00000000		nop	;;28,32
6618	1678	00000000		nop	;;28,32
6619				; Automatically 1 NOPs removed by reduceNOPs.sh
6620	1679	00000000		nop	; Automatically added by fix-stall-insns.pl
6621	167a	0023081a		div	%GPR1,%GPR1,%GPR3	
6622	167b	00000000		nop
6623	167c	00000000		nop
6624	167d	00000000		nop
6625				; Automatically 1 NOPs removed by reduceNOPs.sh
6626	167e	2bbd0008		subi	%GPR29,%GPR29,$8	
6627	167f	00000000		nop
6628	1680	00000000		nop
6629	1681	00000000		nop
6630				; Automatically 1 NOPs removed by reduceNOPs.sh
6631	1682	0fffe99b		jal	intToStr	
6632	1683	00000000		nop
6633	1684	00000000		nop
6634	1685	00000000		nop
6635				; Automatically 1 NOPs removed by reduceNOPs.sh
6636	1686	23bd0008		addi	%GPR29,%GPR29,$8	
6637	1687	00000000		nop
6638	1688	00000000		nop
6639	1689	00000000		nop
6640				; Automatically 1 NOPs removed by reduceNOPs.sh
6641	168a	2bc10014		subi	%GPR1,%GPR30,$20	
6642	168b	00000000		nop
6643	168c	00000000		nop
6644	168d	00000000		nop
6645				; Automatically 1 NOPs removed by reduceNOPs.sh
6646	168e	2bbd0008		subi	%GPR29,%GPR29,$8	
6647	168f	00000000		nop
6648	1690	00000000		nop
6649	1691	00000000		nop
6650				; Automatically 1 NOPs removed by reduceNOPs.sh
6651	1692	0fffeb9b		jal	t_print	
6652	1693	00000000		nop
6653	1694	00000000		nop
6654	1695	00000000		nop
6655				; Automatically 1 NOPs removed by reduceNOPs.sh
6656	1696	23bd0008		addi	%GPR29,%GPR29,$8	
6657	1697	00000000		nop
6658	1698	00000000		nop
6659	1699	00000000		nop
6660				; Automatically 1 NOPs removed by reduceNOPs.sh
6661	169a	3c010000		lhi	%GPR1,$( L_main_1	/0x10000)
6662	169b	00000000		nop
6663	169c	00000000		nop
6664	169d	00000000		nop
6665	169e	34210000		ori	%GPR1,%GPR1,$( L_main_1	%0x10000)
6666	169f	00000000		nop	;;36,41
6667	16a0	00000000		nop	;;36,41
6668	16a1	00000000		nop	;;36,41
6669				; Automatically 6 NOPs removed by reduceNOPs.sh
6670	16a2	2bbd0008		subi	%GPR29,%GPR29,$8	
6671	16a3	00000000		nop
6672	16a4	00000000		nop
6673	16a5	00000000		nop
6674				; Automatically 1 NOPs removed by reduceNOPs.sh
6675	16a6	0fffeb87		jal	t_print	
6676	16a7	00000000		nop
6677	16a8	00000000		nop
6678	16a9	00000000		nop
6679				; Automatically 1 NOPs removed by reduceNOPs.sh
6680	16aa	23bd0008		addi	%GPR29,%GPR29,$8	
6681	16ab	00000000		nop
6682	16ac	00000000		nop
6683	16ad	00000000		nop
6684				; Automatically 1 NOPs removed by reduceNOPs.sh
6685	16ae	8fc1fa2c		lw	%GPR1,-1492(%GPR30)	
6686	16af	2bc20014		subi	%GPR2,%GPR30,$20	
6687	16b0	00000000		nop
6688	16b1	00000000		nop
6689	16b2	00000000		nop
6690				; Automatically 1 NOPs removed by reduceNOPs.sh
6691	16b3	2bbd0008		subi	%GPR29,%GPR29,$8	
6692	16b4	00000000		nop
6693	16b5	00000000		nop
6694	16b6	00000000		nop
6695				; Automatically 1 NOPs removed by reduceNOPs.sh
6696	16b7	0fffe966		jal	intToStr	
6697	16b8	00000000		nop
6698	16b9	00000000		nop
6699	16ba	00000000		nop
6700				; Automatically 1 NOPs removed by reduceNOPs.sh
6701	16bb	23bd0008		addi	%GPR29,%GPR29,$8	
6702	16bc	00000000		nop
6703	16bd	00000000		nop
6704	16be	00000000		nop
6705				; Automatically 1 NOPs removed by reduceNOPs.sh
6706	16bf	2bc10014		subi	%GPR1,%GPR30,$20	
6707	16c0	00000000		nop
6708	16c1	00000000		nop
6709	16c2	00000000		nop
6710				; Automatically 1 NOPs removed by reduceNOPs.sh
6711	16c3	2bbd0008		subi	%GPR29,%GPR29,$8	
6712	16c4	00000000		nop
6713	16c5	00000000		nop
6714	16c6	00000000		nop
6715				; Automatically 1 NOPs removed by reduceNOPs.sh
6716	16c7	0fffeb66		jal	t_print	
6717	16c8	00000000		nop
6718	16c9	00000000		nop
6719	16ca	00000000		nop
6720				; Automatically 1 NOPs removed by reduceNOPs.sh
6721	16cb	23bd0008		addi	%GPR29,%GPR29,$8	
6722	16cc	00000000		nop
6723	16cd	00000000		nop
6724	16ce	00000000		nop
6725				; Automatically 1 NOPs removed by reduceNOPs.sh
6726	16cf	3c010000		lhi	%GPR1,$( L_main_2	/0x10000)
6727	16d0	00000000		nop
6728	16d1	00000000		nop
6729	16d2	00000000		nop
6730	16d3	34210003		ori	%GPR1,%GPR1,$( L_main_2	%0x10000)
6731	16d4	00000000		nop	;;47,52
6732	16d5	00000000		nop	;;47,52
6733	16d6	00000000		nop	;;47,52
6734				; Automatically 6 NOPs removed by reduceNOPs.sh
6735	16d7	2bbd0008		subi	%GPR29,%GPR29,$8	
6736	16d8	00000000		nop
6737	16d9	00000000		nop
6738	16da	00000000		nop
6739				; Automatically 1 NOPs removed by reduceNOPs.sh
6740	16db	0fffeb52		jal	t_print	
6741	16dc	00000000		nop
6742	16dd	00000000		nop
6743	16de	00000000		nop
6744				; Automatically 1 NOPs removed by reduceNOPs.sh
6745	16df	23bd0008		addi	%GPR29,%GPR29,$8	
6746	16e0	00000000		nop
6747	16e1	00000000		nop
6748	16e2	00000000		nop
6749				; Automatically 1 NOPs removed by reduceNOPs.sh
6750	16e3	8fc1fa30		lw	%GPR1,-1488(%GPR30)	
6751	16e4	2bc20014		subi	%GPR2,%GPR30,$20	
6752	16e5	00000000		nop
6753	16e6	00000000		nop
6754	16e7	00000000		nop
6755				; Automatically 1 NOPs removed by reduceNOPs.sh
6756	16e8	2bbd0008		subi	%GPR29,%GPR29,$8	
6757	16e9	00000000		nop
6758	16ea	00000000		nop
6759	16eb	00000000		nop
6760				; Automatically 1 NOPs removed by reduceNOPs.sh
6761	16ec	0fffe931		jal	intToStr	
6762	16ed	00000000		nop
6763	16ee	00000000		nop
6764	16ef	00000000		nop
6765				; Automatically 1 NOPs removed by reduceNOPs.sh
6766	16f0	23bd0008		addi	%GPR29,%GPR29,$8	
6767	16f1	00000000		nop
6768	16f2	00000000		nop
6769	16f3	00000000		nop
6770				; Automatically 1 NOPs removed by reduceNOPs.sh
6771	16f4	2bc10014		subi	%GPR1,%GPR30,$20	
6772	16f5	00000000		nop
6773	16f6	00000000		nop
6774	16f7	00000000		nop
6775				; Automatically 1 NOPs removed by reduceNOPs.sh
6776	16f8	2bbd0008		subi	%GPR29,%GPR29,$8	
6777	16f9	00000000		nop
6778	16fa	00000000		nop
6779	16fb	00000000		nop
6780				; Automatically 1 NOPs removed by reduceNOPs.sh
6781	16fc	0fffeb31		jal	t_print	
6782	16fd	00000000		nop
6783	16fe	00000000		nop
6784	16ff	00000000		nop
6785				; Automatically 1 NOPs removed by reduceNOPs.sh
6786	1700	23bd0008		addi	%GPR29,%GPR29,$8	
6787	1701	00000000		nop
6788	1702	00000000		nop
6789	1703	00000000		nop
6790				; Automatically 1 NOPs removed by reduceNOPs.sh
6791	1704	3c010000		lhi	%GPR1,$( L_main_3	/0x10000)
6792	1705	00000000		nop
6793	1706	00000000		nop
6794	1707	00000000		nop
6795	1708	34210006		ori	%GPR1,%GPR1,$( L_main_3	%0x10000)
6796	1709	00000000		nop	;;58,63
6797	170a	00000000		nop	;;58,63
6798	170b	00000000		nop	;;58,63
6799				; Automatically 6 NOPs removed by reduceNOPs.sh
6800	170c	2bbd0008		subi	%GPR29,%GPR29,$8	
6801	170d	00000000		nop
6802	170e	00000000		nop
6803	170f	00000000		nop
6804				; Automatically 1 NOPs removed by reduceNOPs.sh
6805	1710	0fffeb1d		jal	t_print	
6806	1711	00000000		nop
6807	1712	00000000		nop
6808	1713	00000000		nop
6809				; Automatically 1 NOPs removed by reduceNOPs.sh
6810	1714	23bd0008		addi	%GPR29,%GPR29,$8	
6811	1715	00000000		nop
6812	1716	00000000		nop
6813	1717	00000000		nop
6814				; Automatically 1 NOPs removed by reduceNOPs.sh
6815	1718	8fdcfa44		lw	%GPR28,-1468(%GPR30)	
6816	1719	00000000		nop	;;64,72
6817	171a	00000000		nop	;;64,72
6818	171b	00000000		nop	;;64,72
6819				; Automatically 5 NOPs removed by reduceNOPs.sh
6820	171c	08000004		j	L_main_78	
6821	171d	00000000		nop
6822	171e	00000000		nop
6823	171f	00000000		nop
6824				; Automatically 1 NOPs removed by reduceNOPs.sh
6825			L_main_78:
6826	1720	00000000		nop
6827	1721	00000000		nop
6828	1722	00000000		nop
6829				; Automatically 1 NOPs removed by reduceNOPs.sh
6830	1723	8fdf0004		lw	%GPR31,4(%GPR30)	
6831	1724	27dd0004		addui	%GPR29,%GPR30,$4	
6832	1725	00000000		nop	; Automatically added by fix-stall-insns.pl
6833	1726	00000000		nop	; Automatically added by fix-stall-insns.pl
6834	1727	00000000		nop	; Automatically added by fix-stall-insns.pl
6835	1728	8fde0000		lw	%GPR30,0(%GPR30)	
6836	1729	00000000		nop
6837	172a	00000000		nop
6838	172b	00000000		nop
6839	172c	00000000		nop	; Automatically added by fix-stall-insns.pl
6840	172d	00000000		nop
6841	172e	03e00008		jr	%GPR31	
6842	172f	00000000		nop
6843	1730	00000000		nop
6844	1731	00000000		nop
6845	1732	00000000		nop
6846			exit:
6847	1733	00000000		nop
6848	1734	00000000		nop


******** Cross Reference List ********
Defined Symbol
name   	section	lc     	attr   	value  	lineno 
L_loadStoreByte_2	.text	0488	Label	488	1437 
L_main_60	.text	10fe	Label	10fe	4994 
L_loadStoreByte_3	.text	049a	Label	49a	1459 
g_makeradiogroup	.text	0401	Label	401	1267 
L_main_61	.text	1134	Label	1134	5055 
L_loadStoreByte_4	.text	04d7	Label	4d7	1533 
L_main_62	.text	1143	Label	1143	5074 
L_loadStoreByte_5	.text	04e9	Label	4e9	1555 
L_main_63	.text	11dc	Label	11dc	5247 
L_loadStoreByte_6	.text	0537	Label	537	1647 
loadByteSigned	.text	049a	Label	49a	1458 
L_main_64	.text	11eb	Label	11eb	5266 
L_main_65	.text	1284	Label	1284	5439 
L_main_66	.text	1293	Label	1293	5458 
L_main_67	.text	132c	Label	132c	5631 
sendcommand	.text	0204	Label	204	631 
L_main_68	.text	133b	Label	133b	5650 
L_main_30	.text	0b9e	Label	b9e	3461 
L_main_69	.text	14af	Label	14af	6067 
L_main_31	.text	0ba4	Label	ba4	3468 
L_lib_lcd_dlxsim_20	.text	0334	Label	334	1013 
L_main_32	.text	0ba7	Label	ba7	3472 
L_lib_lcd_dlxsim_21	.text	034b	Label	34b	1042 
L_main_33	.text	0bc0	Label	bc0	3502 
L_lib_lcd_dlxsim_22	.text	035d	Label	35d	1064 
L_main_34	.text	0bc6	Label	bc6	3509 
loadByteUnsigned	.text	0453	Label	453	1372 
L_lib_lcd_dlxsim_23	.text	0374	Label	374	1093 
L_main_35	.text	0bcb	Label	bcb	3515 
d_clear	.text	042a	Label	42a	1318 
L_lib_lcd_dlxsim_24	.text	0386	Label	386	1115 
L_main_36	.text	0be4	Label	be4	3545 
L_lib_lcd_dlxsim_25	.text	039d	Label	39d	1144 
exit	.text	1733	Label	1733	6846 
L_main_37	.text	0bea	Label	bea	3552 
L_lib_lcd_dlxsim_26	.text	03af	Label	3af	1166 
L_main_38	.text	0bef	Label	bef	3558 
Hadamard_4x4_IntraLuma	.text	05a5	Label	5a5	1786 
L_lib_lcd_dlxsim_27	.text	03c6	Label	3c6	1195 
L_main_39	.text	0c08	Label	c08	3588 
L_lib_lcd_dlxsim_28	.text	03d8	Label	3d8	1217 
L_lib_lcd_dlxsim_29	.text	03ef	Label	3ef	1246 
getbytes	.text	01db	Label	1db	580 
checkbuffer	.text	01b2	Label	1b2	529 
L_main_70	.text	14be	Label	14be	6086 
L_main_71	.text	14dd	Label	14dd	6124 
g_drawline	.text	0334	Label	334	1012 
L_main_72	.text	14ec	Label	14ec	6143 
L_main_73	.text	14fb	Label	14fb	6162 
L_main_74	.text	1567	Label	1567	6292 
g_makeswitch	.text	03af	Label	3af	1165 
L_main_75	.text	1588	Label	1588	6331 
L_main_76	.text	15a7	Label	15a7	6369 
t_cursor	.text	0290	Label	290	808 
L_main_77	.text	1627	Label	1627	6520 
L_main_78	.text	1720	Label	1720	6825 
L_main_40	.text	0c0e	Label	c0e	3595 
L_main_41	.text	0c13	Label	c13	3601 
L_lib_lcd_dlxsim_30	.text	0401	Label	401	1268 
L_main_42	.text	0c34	Label	c34	3638 
L_lib_lcd_dlxsim_31	.text	0418	Label	418	1297 
L_main_43	.text	0c3a	Label	c3a	3645 
L_lib_lcd_dlxsim_32	.text	042a	Label	42a	1319 
L_main_44	.text	0c3d	Label	c3d	3649 
L_lib_lcd_dlxsim_33	.text	0441	Label	441	1348 
L_main_45	.text	0c56	Label	c56	3679 
L_main_46	.text	0c5c	Label	c5c	3686 
L_main_47	.text	0c61	Label	c61	3692 
Hadamard_2x2_Chroma	.text	0549	Label	549	1683 
L_main_48	.text	0c7a	Label	c7a	3722 
L_main_10	.text	0a9c	Label	a9c	3157 
L_main_49	.text	0c80	Label	c80	3729 
L_main_11	.text	0a9f	Label	a9f	3161 
L_main_1	.data	0000	Label	0	1668 
g_print	.text	02e2	Label	2e2	910 
L_main_12	.text	0ab8	Label	ab8	3191 
L_main_2	.data	0003	Label	3	1672 
L_main_13	.text	0abe	Label	abe	3198 
L_main_3	.data	0006	Label	6	1676 
L_main_14	.text	0ac3	Label	ac3	3204 
L_main_4	.text	0549	Label	549	1684 
L_main_15	.text	0adc	Label	adc	3234 
L_main_5	.text	0593	Label	593	1765 
t_print	.text	022d	Label	22d	682 
intToStr	.text	001d	Label	1d	39 
L_main_16	.text	0ae2	Label	ae2	3241 
L_main_6	.text	05a5	Label	5a5	1787 
L_main_17	.text	0ae7	Label	ae7	3247 
L_main_7	.text	07b0	Label	7b0	2356 
L_main_18	.text	0b08	Label	b08	3284 
L_main_8	.text	07c2	Label	7c2	2378 
L_main_19	.text	0b0e	Label	b0e	3291 
L_main_9	.text	0a96	Label	a96	3150 
DCT_4x4	.text	0cc4	Label	cc4	3811 
L_intToStr_10	.text	01a0	Label	1a0	505 
L_intToStr_1	.text	001d	Label	1d	40 
L_intToStr_2	.text	0059	Label	59	111 
g_makebar	.text	035d	Label	35d	1063 
L_intToStr_3	.text	0089	Label	89	168 
L_intToStr_4	.text	00a2	Label	a2	198 
L_intToStr_5	.text	00c7	Label	c7	243 
L_intToStr_6	.text	00e0	Label	e0	273 
L_main_50	.text	0c85	Label	c85	3735 
L_intToStr_7	.text	0122	Label	122	352 
L_main_51	.text	0c9e	Label	c9e	3765 
L_intToStr_8	.text	013b	Label	13b	382 
L_main_52	.text	0ca4	Label	ca4	3772 
t_enable	.text	02b9	Label	2b9	859 
L_intToStr_9	.text	0179	Label	179	456 
L_main_53	.text	0ca9	Label	ca9	3778 
L_main_54	.text	0cb2	Label	cb2	3790 
L_main_55	.text	0cc4	Label	cc4	3812 
L_main_56	.text	1042	Label	1042	4769 
L_main_57	.text	1054	Label	1054	4791 
L_main_58	.text	10b9	Label	10b9	4914 
L_main_20	.text	0b11	Label	b11	3295 
L_main_59	.text	10ef	Label	10ef	4975 
L_main_21	.text	0b2a	Label	b2a	3325 
L_lib_lcd_dlxsim_10	.text	026f	Label	26f	767 
L_main_22	.text	0b30	Label	b30	3332 
g_drawrect	.text	030b	Label	30b	961 
L_lib_lcd_dlxsim_11	.text	027e	Label	27e	787 
L_main_23	.text	0b35	Label	b35	3338 
L_lib_lcd_dlxsim_12	.text	0290	Label	290	809 
L_main_24	.text	0b4e	Label	b4e	3368 
L_lib_lcd_dlxsim_13	.text	02a7	Label	2a7	838 
L_main_25	.text	0b54	Label	b54	3375 
L_lib_lcd_dlxsim_14	.text	02b9	Label	2b9	860 
L_main_26	.text	0b59	Label	b59	3381 
g_makemenubutton	.text	03d8	Label	3d8	1216 
L_lib_lcd_dlxsim_15	.text	02d0	Label	2d0	889 
L_main_27	.text	0b72	Label	b72	3411 
SATD_4x4	.text	07c2	Label	7c2	2377 
L_lib_lcd_dlxsim_16	.text	02e2	Label	2e2	911 
L_main_28	.text	0b78	Label	b78	3418 
L_lib_lcd_dlxsim_17	.text	02f9	Label	2f9	940 
L_lib_lcd_dlxsim_1	.text	01b2	Label	1b2	530 
L_main_29	.text	0b7d	Label	b7d	3424 
L_lib_lcd_dlxsim_18	.text	030b	Label	30b	962 
L_lib_lcd_dlxsim_2	.text	01c9	Label	1c9	559 
L_lib_lcd_dlxsim_19	.text	0322	Label	322	991 
L_lib_lcd_dlxsim_3	.text	01db	Label	1db	581 
L_lib_lcd_dlxsim_4	.text	01f2	Label	1f2	610 
L_lib_lcd_dlxsim_5	.text	0204	Label	204	632 
L_lib_lcd_dlxsim_6	.text	021b	Label	21b	661 
L_lib_lcd_dlxsim_7	.text	022d	Label	22d	683 
L_lib_lcd_dlxsim_8	.text	023f	Label	23f	707 
main	.text	1054	Label	1054	4790 
L_lib_lcd_dlxsim_9	.text	0258	Label	258	737 
storeByte	.text	04e9	Label	4e9	1554 
g_setbar	.text	0386	Label	386	1114 
L_loadStoreByte_1	.text	0453	Label	453	1373 


Undefined Symbol
name   	section	lc     	attr   	value  	lineno 


Multiple Defined Symbol
name   	section	lc     	attr   	value  	lineno 


******* Section Data List ******* 
Sec	Attr		Size
.text 	Writable 	1735 
addr_space : 16 
addressing : Word 
bitwidth per byte : 8 
word alignment : 4 
.data 	Data		9 
addr_space : 16 
addressing : Byte 
bitwidth per byte : 8 
word alignment : 4 
