****** Source Program List ******
LineNo	LC	Code		Source Program 
1				.section	.data
2				.section	.text
3				.addressing	Word
4				.section	.text
5				.addressing	Word
6				;.addressing	Word
7			
8	0000	03def026		xor	%GPR30, %GPR30, %GPR30
9	0001	03bde826		xor	%GPR29, %GPR29, %GPR29
10	0002	039ce026		xor	%GPR28, %GPR28, %GPR28
11	0003	00000000		nop
12	0004	3c1e0000		lhi	%GPR30, $(0x3BFC/0x10000)
13	0005	3c1d0000		lhi	%GPR29, $(0x3BFC/0x10000)
14	0006	00000000		nop
15	0007	00000000		nop
16	0008	37de3bfc		ori	%GPR30, %GPR30, $(0x3BFC%0x10000)
17	0009	37bd3bfc		ori	%GPR29, %GPR29, $(0x3BFC%0x10000)
18	000a	00000000		nop
19	000b	00000000		nop
20	000c	00000000		nop
21	000d	afbefffc		sw	-4(%GPR29), %GPR30
22	000e	afbffff8		sw	-8(%GPR29), %GPR31
23	000f	23ddfff8		addi	%GPR29, %GPR30, $-8
24	0010	00000000		nop
25	0011	00000000		nop
26	0012	00000000		nop
27	0013	0c000777		jal	main	
28	0014	00000000		nop
29	0015	00000000		nop
30	0016	00000000		nop
31	0017	00000000		nop
32	0018	00000000		nop
33	0019	afa10000		sw	0(%GPR29), %GPR1
34	001a	0c002dd9		jal	exit
35	001b	00000000		nop
36	001c	00000000		nop
37			
38				;.addressing	Word
39				.section	.data
40				.section	.text
41				.addressing	Word
42				;.addressing	Word
43	001d	00000000		nop	; Automatically Added by addNops.pl
44	001e	00000000		nop	; Automatically Added by addNops.pl
45	001f	00000000		nop	; Automatically Added by addNops.pl
46			intToStr:
47			L_intToStr_1:
48	0020	00000000		nop	; Automatically Added by addNops.pl
49	0021	00000000		nop	; Automatically Added by addNops.pl
50	0022	00000000		nop	; Automatically Added by addNops.pl
51				; Automatically 16 NOPs removed by reduceNOPs.sh
52	0023	afbefffc		sw	-4(%GPR29),%GPR30	
53	0024	00000000		nop	; Automatically Added by addNops.pl
54	0025	00000000		nop	; Automatically Added by addNops.pl
55	0026	00000000		nop	; Automatically Added by addNops.pl
56	0027	00000000		nop	; Automatically added by fix-stall-insns.pl
57	0028	afbf0000		sw	0(%GPR29),%GPR31	
58	0029	00000000		nop	; Automatically Added by addNops.pl
59	002a	00000000		nop	; Automatically Added by addNops.pl
60	002b	00000000		nop	; Automatically Added by addNops.pl
61	002c	2fbe0004		subui	%GPR30,%GPR29,$4	
62	002d	00000000		nop	; Automatically Added by addNops.pl
63	002e	00000000		nop	; Automatically Added by addNops.pl
64	002f	00000000		nop	; Automatically Added by addNops.pl
65				; Automatically 4 NOPs removed by reduceNOPs.sh
66	0030	2bbd0038		subi	%GPR29,%GPR29,$56	
67	0031	00000000		nop	; Automatically Added by addNops.pl
68	0032	00000000		nop	; Automatically Added by addNops.pl
69	0033	00000000		nop	; Automatically Added by addNops.pl
70				; Automatically 16 NOPs removed by reduceNOPs.sh
71	0034	afc1ffdc		sw	-36(%GPR30),%GPR1	
72	0035	00000000		nop	; Automatically Added by addNops.pl
73	0036	00000000		nop	; Automatically Added by addNops.pl
74	0037	00000000		nop	; Automatically Added by addNops.pl
75	0038	00000000		nop	; Automatically added by fix-stall-insns.pl
76	0039	afc2ffd8		sw	-40(%GPR30),%GPR2	
77	003a	00000000		nop	; Automatically Added by addNops.pl
78	003b	00000000		nop	; Automatically Added by addNops.pl
79	003c	00000000		nop	; Automatically Added by addNops.pl
80				; Automatically 32 NOPs removed by reduceNOPs.sh
81	003d	3c020000		lhi	%GPR2,$0	
82	003e	00000000		nop	; Automatically Added by addNops.pl
83	003f	00000000		nop	; Automatically Added by addNops.pl
84	0040	00000000		nop	; Automatically Added by addNops.pl
85				; Automatically 16 NOPs removed by reduceNOPs.sh
86	0041	34420000		ori	%GPR2,%GPR2,$0	
87	0042	00000000		nop	; Automatically Added by addNops.pl
88	0043	00000000		nop	; Automatically Added by addNops.pl
89	0044	00000000		nop	; Automatically Added by addNops.pl
90				; Automatically 8 NOPs removed by reduceNOPs.sh
91	0045	3c010000		lhi	%GPR1,$0	
92	0046	00000000		nop	; Automatically Added by addNops.pl
93	0047	00000000		nop	; Automatically Added by addNops.pl
94	0048	00000000		nop	; Automatically Added by addNops.pl
95				; Automatically 16 NOPs removed by reduceNOPs.sh
96	0049	34210000		ori	%GPR1,%GPR1,$0	
97	004a	00000000		nop	; Automatically Added by addNops.pl
98	004b	00000000		nop	; Automatically Added by addNops.pl
99	004c	00000000		nop	; Automatically Added by addNops.pl
100				; Automatically 8 NOPs removed by reduceNOPs.sh
101	004d	afc2ffd4		sw	-44(%GPR30),%GPR2	
102	004e	00000000		nop	; Automatically Added by addNops.pl
103	004f	00000000		nop	; Automatically Added by addNops.pl
104	0050	00000000		nop	; Automatically Added by addNops.pl
105	0051	3c020000		lhi	%GPR2,$0	
106	0052	00000000		nop	; Automatically Added by addNops.pl
107	0053	00000000		nop	; Automatically Added by addNops.pl
108	0054	00000000		nop	; Automatically Added by addNops.pl
109				; Automatically 16 NOPs removed by reduceNOPs.sh
110	0055	34420000		ori	%GPR2,%GPR2,$0	
111	0056	00000000		nop	; Automatically Added by addNops.pl
112	0057	00000000		nop	; Automatically Added by addNops.pl
113	0058	00000000		nop	; Automatically Added by addNops.pl
114				; Automatically 16 NOPs removed by reduceNOPs.sh
115	0059	afc2ffd0		sw	-48(%GPR30),%GPR2	
116	005a	00000000		nop	; Automatically Added by addNops.pl
117	005b	00000000		nop	; Automatically Added by addNops.pl
118	005c	00000000		nop	; Automatically Added by addNops.pl
119	005d	00000000		nop	; Automatically added by fix-stall-insns.pl
120	005e	8fc2ffdc		lw	%GPR2,-36(%GPR30)	
121	005f	00000000		nop	; Automatically Added by addNops.pl
122	0060	00000000		nop	; Automatically Added by addNops.pl
123	0061	00000000		nop	; Automatically Added by addNops.pl
124				; Automatically 16 NOPs removed by reduceNOPs.sh
125	0062	0041d82a		slt	%GPR27,%GPR2,%GPR1	
126	0063	00000000		nop	; Automatically Added by addNops.pl
127	0064	00000000		nop	; Automatically Added by addNops.pl
128	0065	00000000		nop	; Automatically Added by addNops.pl
129	0066	17600008		bnez	%GPR27,L_intToStr_2	
130	0067	00000000		nop	; Automatically Added by addNops.pl
131	0068	00000000		nop	; Automatically Added by addNops.pl
132	0069	00000000		nop	; Automatically Added by addNops.pl
133				; Automatically 16 NOPs removed by reduceNOPs.sh
134	006a	0800003c		j	L_intToStr_3	
135	006b	00000000		nop	; Automatically Added by addNops.pl
136	006c	00000000		nop	; Automatically Added by addNops.pl
137	006d	00000000		nop	; Automatically Added by addNops.pl
138				; Automatically 16 NOPs removed by reduceNOPs.sh
139			L_intToStr_2:
140	006e	00000000		nop	; Automatically Added by addNops.pl
141	006f	00000000		nop	; Automatically Added by addNops.pl
142	0070	00000000		nop	; Automatically Added by addNops.pl
143	0071	8fc1ffdc		lw	%GPR1,-36(%GPR30)	
144	0072	00000000		nop	; Automatically Added by addNops.pl
145	0073	00000000		nop	; Automatically Added by addNops.pl
146	0074	00000000		nop	; Automatically Added by addNops.pl
147				; Automatically 16 NOPs removed by reduceNOPs.sh
148	0075	00010822		sub	%GPR1,%GPR0,%GPR1	
149	0076	00000000		nop	; Automatically Added by addNops.pl
150	0077	00000000		nop	; Automatically Added by addNops.pl
151	0078	00000000		nop	; Automatically Added by addNops.pl
152	0079	3c020000		lhi	%GPR2,$0	
153	007a	00000000		nop	; Automatically Added by addNops.pl
154	007b	00000000		nop	; Automatically Added by addNops.pl
155	007c	00000000		nop	; Automatically Added by addNops.pl
156				; Automatically 16 NOPs removed by reduceNOPs.sh
157	007d	3442002d		ori	%GPR2,%GPR2,$45	
158	007e	00000000		nop	; Automatically Added by addNops.pl
159	007f	00000000		nop	; Automatically Added by addNops.pl
160	0080	00000000		nop	; Automatically Added by addNops.pl
161				; Automatically 12 NOPs removed by reduceNOPs.sh
162	0081	afc1ffdc		sw	-36(%GPR30),%GPR1	
163	0082	00000000		nop	; Automatically Added by addNops.pl
164	0083	00000000		nop	; Automatically Added by addNops.pl
165	0084	00000000		nop	; Automatically Added by addNops.pl
166	0085	00000000		nop	; Automatically added by fix-stall-insns.pl
167	0086	8fc1ffd8		lw	%GPR1,-40(%GPR30)	
168	0087	00000000		nop	; Automatically Added by addNops.pl
169	0088	00000000		nop	; Automatically Added by addNops.pl
170	0089	00000000		nop	; Automatically Added by addNops.pl
171				; Automatically 16 NOPs removed by reduceNOPs.sh
172	008a	2bbd0008		subi	%GPR29,%GPR29,$8	
173	008b	00000000		nop	; Automatically Added by addNops.pl
174	008c	00000000		nop	; Automatically Added by addNops.pl
175	008d	00000000		nop	; Automatically Added by addNops.pl
176				; Automatically 16 NOPs removed by reduceNOPs.sh
177	008e	0c002905		jal	storeByte	
178	008f	00000000		nop	; Automatically Added by addNops.pl
179	0090	00000000		nop	; Automatically Added by addNops.pl
180	0091	00000000		nop	; Automatically Added by addNops.pl
181				; Automatically 16 NOPs removed by reduceNOPs.sh
182	0092	23bd0008		addi	%GPR29,%GPR29,$8	
183	0093	00000000		nop	; Automatically Added by addNops.pl
184	0094	00000000		nop	; Automatically Added by addNops.pl
185	0095	00000000		nop	; Automatically Added by addNops.pl
186				; Automatically 16 NOPs removed by reduceNOPs.sh
187	0096	8fc1ffd4		lw	%GPR1,-44(%GPR30)	
188	0097	00000000		nop	; Automatically Added by addNops.pl
189	0098	00000000		nop	; Automatically Added by addNops.pl
190	0099	00000000		nop	; Automatically Added by addNops.pl
191				; Automatically 16 NOPs removed by reduceNOPs.sh
192	009a	20210001		addi	%GPR1,%GPR1,$1	
193	009b	00000000		nop	; Automatically Added by addNops.pl
194	009c	00000000		nop	; Automatically Added by addNops.pl
195	009d	00000000		nop	; Automatically Added by addNops.pl
196				; Automatically 16 NOPs removed by reduceNOPs.sh
197	009e	afc1ffd4		sw	-44(%GPR30),%GPR1	
198	009f	00000000		nop	; Automatically Added by addNops.pl
199	00a0	00000000		nop	; Automatically Added by addNops.pl
200	00a1	00000000		nop	; Automatically Added by addNops.pl
201	00a2	08000046		j	L_intToStr_5	
202	00a3	00000000		nop	; Automatically Added by addNops.pl
203	00a4	00000000		nop	; Automatically Added by addNops.pl
204	00a5	00000000		nop	; Automatically Added by addNops.pl
205				; Automatically 12 NOPs removed by reduceNOPs.sh
206			L_intToStr_3:
207	00a6	00000000		nop	; Automatically Added by addNops.pl
208	00a7	00000000		nop	; Automatically Added by addNops.pl
209	00a8	00000000		nop	; Automatically Added by addNops.pl
210	00a9	8fc2ffdc		lw	%GPR2,-36(%GPR30)	
211	00aa	00000000		nop	; Automatically Added by addNops.pl
212	00ab	00000000		nop	; Automatically Added by addNops.pl
213	00ac	00000000		nop	; Automatically Added by addNops.pl
214				; Automatically 12 NOPs removed by reduceNOPs.sh
215	00ad	3c010000		lhi	%GPR1,$0	
216	00ae	00000000		nop	; Automatically Added by addNops.pl
217	00af	00000000		nop	; Automatically Added by addNops.pl
218	00b0	00000000		nop	; Automatically Added by addNops.pl
219				; Automatically 16 NOPs removed by reduceNOPs.sh
220	00b1	34210000		ori	%GPR1,%GPR1,$0	
221	00b2	00000000		nop	; Automatically Added by addNops.pl
222	00b3	00000000		nop	; Automatically Added by addNops.pl
223	00b4	00000000		nop	; Automatically Added by addNops.pl
224				; Automatically 16 NOPs removed by reduceNOPs.sh
225	00b5	0041d82e		seq	%GPR27,%GPR2,%GPR1	
226	00b6	00000000		nop	; Automatically Added by addNops.pl
227	00b7	00000000		nop	; Automatically Added by addNops.pl
228	00b8	00000000		nop	; Automatically Added by addNops.pl
229	00b9	17600008		bnez	%GPR27,L_intToStr_4	
230	00ba	00000000		nop	; Automatically Added by addNops.pl
231	00bb	00000000		nop	; Automatically Added by addNops.pl
232	00bc	00000000		nop	; Automatically Added by addNops.pl
233				; Automatically 16 NOPs removed by reduceNOPs.sh
234	00bd	08000046		j	L_intToStr_6	
235	00be	00000000		nop	; Automatically Added by addNops.pl
236	00bf	00000000		nop	; Automatically Added by addNops.pl
237	00c0	00000000		nop	; Automatically Added by addNops.pl
238				; Automatically 16 NOPs removed by reduceNOPs.sh
239			L_intToStr_4:
240	00c1	00000000		nop	; Automatically Added by addNops.pl
241	00c2	00000000		nop	; Automatically Added by addNops.pl
242	00c3	00000000		nop	; Automatically Added by addNops.pl
243	00c4	8fc1ffd8		lw	%GPR1,-40(%GPR30)	
244	00c5	00000000		nop	; Automatically Added by addNops.pl
245	00c6	00000000		nop	; Automatically Added by addNops.pl
246	00c7	00000000		nop	; Automatically Added by addNops.pl
247				; Automatically 12 NOPs removed by reduceNOPs.sh
248	00c8	3c020000		lhi	%GPR2,$0	
249	00c9	00000000		nop	; Automatically Added by addNops.pl
250	00ca	00000000		nop	; Automatically Added by addNops.pl
251	00cb	00000000		nop	; Automatically Added by addNops.pl
252				; Automatically 16 NOPs removed by reduceNOPs.sh
253	00cc	34420030		ori	%GPR2,%GPR2,$48	
254	00cd	00000000		nop	; Automatically Added by addNops.pl
255	00ce	00000000		nop	; Automatically Added by addNops.pl
256	00cf	00000000		nop	; Automatically Added by addNops.pl
257				; Automatically 16 NOPs removed by reduceNOPs.sh
258	00d0	2bbd0008		subi	%GPR29,%GPR29,$8	
259	00d1	00000000		nop	; Automatically Added by addNops.pl
260	00d2	00000000		nop	; Automatically Added by addNops.pl
261	00d3	00000000		nop	; Automatically Added by addNops.pl
262				; Automatically 16 NOPs removed by reduceNOPs.sh
263	00d4	0c0028bf		jal	storeByte	
264	00d5	00000000		nop	; Automatically Added by addNops.pl
265	00d6	00000000		nop	; Automatically Added by addNops.pl
266	00d7	00000000		nop	; Automatically Added by addNops.pl
267				; Automatically 16 NOPs removed by reduceNOPs.sh
268	00d8	23bd0008		addi	%GPR29,%GPR29,$8	
269	00d9	00000000		nop	; Automatically Added by addNops.pl
270	00da	00000000		nop	; Automatically Added by addNops.pl
271	00db	00000000		nop	; Automatically Added by addNops.pl
272				; Automatically 16 NOPs removed by reduceNOPs.sh
273	00dc	8fc1ffd4		lw	%GPR1,-44(%GPR30)	
274	00dd	00000000		nop	; Automatically Added by addNops.pl
275	00de	00000000		nop	; Automatically Added by addNops.pl
276	00df	00000000		nop	; Automatically Added by addNops.pl
277				; Automatically 16 NOPs removed by reduceNOPs.sh
278	00e0	20210001		addi	%GPR1,%GPR1,$1	
279	00e1	00000000		nop	; Automatically Added by addNops.pl
280	00e2	00000000		nop	; Automatically Added by addNops.pl
281	00e3	00000000		nop	; Automatically Added by addNops.pl
282				; Automatically 16 NOPs removed by reduceNOPs.sh
283	00e4	afc1ffd4		sw	-44(%GPR30),%GPR1	
284	00e5	00000000		nop	; Automatically Added by addNops.pl
285	00e6	00000000		nop	; Automatically Added by addNops.pl
286	00e7	00000000		nop	; Automatically Added by addNops.pl
287				; Automatically 12 NOPs removed by reduceNOPs.sh
288			L_intToStr_5:
289	00e8	00000000		nop	; Automatically Added by addNops.pl
290	00e9	00000000		nop	; Automatically Added by addNops.pl
291	00ea	00000000		nop	; Automatically Added by addNops.pl
292	00eb	8fc2ffdc		lw	%GPR2,-36(%GPR30)	
293	00ec	00000000		nop	; Automatically Added by addNops.pl
294	00ed	00000000		nop	; Automatically Added by addNops.pl
295	00ee	00000000		nop	; Automatically Added by addNops.pl
296				; Automatically 12 NOPs removed by reduceNOPs.sh
297	00ef	3c010000		lhi	%GPR1,$0	
298	00f0	00000000		nop	; Automatically Added by addNops.pl
299	00f1	00000000		nop	; Automatically Added by addNops.pl
300	00f2	00000000		nop	; Automatically Added by addNops.pl
301				; Automatically 16 NOPs removed by reduceNOPs.sh
302	00f3	34210000		ori	%GPR1,%GPR1,$0	
303	00f4	00000000		nop	; Automatically Added by addNops.pl
304	00f5	00000000		nop	; Automatically Added by addNops.pl
305	00f6	00000000		nop	; Automatically Added by addNops.pl
306				; Automatically 16 NOPs removed by reduceNOPs.sh
307	00f7	0041d82f		sne	%GPR27,%GPR2,%GPR1	
308	00f8	00000000		nop	; Automatically Added by addNops.pl
309	00f9	00000000		nop	; Automatically Added by addNops.pl
310	00fa	00000000		nop	; Automatically Added by addNops.pl
311	00fb	17600008		bnez	%GPR27,L_intToStr_6	
312	00fc	00000000		nop	; Automatically Added by addNops.pl
313	00fd	00000000		nop	; Automatically Added by addNops.pl
314	00fe	00000000		nop	; Automatically Added by addNops.pl
315				; Automatically 16 NOPs removed by reduceNOPs.sh
316	00ff	08000058		j	L_intToStr_7	
317	0100	00000000		nop	; Automatically Added by addNops.pl
318	0101	00000000		nop	; Automatically Added by addNops.pl
319	0102	00000000		nop	; Automatically Added by addNops.pl
320				; Automatically 16 NOPs removed by reduceNOPs.sh
321			L_intToStr_6:
322	0103	00000000		nop	; Automatically Added by addNops.pl
323	0104	00000000		nop	; Automatically Added by addNops.pl
324	0105	00000000		nop	; Automatically Added by addNops.pl
325	0106	2bc10020		subi	%GPR1,%GPR30,$32	
326	0107	00000000		nop	; Automatically Added by addNops.pl
327	0108	00000000		nop	; Automatically Added by addNops.pl
328	0109	00000000		nop	; Automatically Added by addNops.pl
329	010a	8fc3ffd0		lw	%GPR3,-48(%GPR30)	
330	010b	00000000		nop	; Automatically Added by addNops.pl
331	010c	00000000		nop	; Automatically Added by addNops.pl
332	010d	00000000		nop	; Automatically Added by addNops.pl
333				; Automatically 16 NOPs removed by reduceNOPs.sh
334	010e	00230820		add	%GPR1,%GPR1,%GPR3	
335	010f	00000000		nop	; Automatically Added by addNops.pl
336	0110	00000000		nop	; Automatically Added by addNops.pl
337	0111	00000000		nop	; Automatically Added by addNops.pl
338	0112	3c020000		lhi	%GPR2,$0	
339	0113	00000000		nop	; Automatically Added by addNops.pl
340	0114	00000000		nop	; Automatically Added by addNops.pl
341	0115	00000000		nop	; Automatically Added by addNops.pl
342				; Automatically 16 NOPs removed by reduceNOPs.sh
343	0116	3442000a		ori	%GPR2,%GPR2,$10	
344	0117	00000000		nop	; Automatically Added by addNops.pl
345	0118	00000000		nop	; Automatically Added by addNops.pl
346	0119	00000000		nop	; Automatically Added by addNops.pl
347	011a	8fc3ffdc		lw	%GPR3,-36(%GPR30)	
348	011b	00000000		nop	; Automatically Added by addNops.pl
349	011c	00000000		nop	; Automatically Added by addNops.pl
350	011d	00000000		nop	; Automatically Added by addNops.pl
351				; Automatically 16 NOPs removed by reduceNOPs.sh
352	011e	0062101c		MOD	%GPR2,%GPR3,%GPR2	
353	011f	00000000		nop	; Automatically Added by addNops.pl
354	0120	00000000		nop	; Automatically Added by addNops.pl
355	0121	00000000		nop	; Automatically Added by addNops.pl
356				; Automatically 16 NOPs removed by reduceNOPs.sh
357	0122	20420030		addi	%GPR2,%GPR2,$48	
358	0123	00000000		nop	; Automatically Added by addNops.pl
359	0124	00000000		nop	; Automatically Added by addNops.pl
360	0125	00000000		nop	; Automatically Added by addNops.pl
361				; Automatically 16 NOPs removed by reduceNOPs.sh
362	0126	2bbd0008		subi	%GPR29,%GPR29,$8	
363	0127	00000000		nop	; Automatically Added by addNops.pl
364	0128	00000000		nop	; Automatically Added by addNops.pl
365	0129	00000000		nop	; Automatically Added by addNops.pl
366				; Automatically 16 NOPs removed by reduceNOPs.sh
367	012a	0c002869		jal	storeByte	
368	012b	00000000		nop	; Automatically Added by addNops.pl
369	012c	00000000		nop	; Automatically Added by addNops.pl
370	012d	00000000		nop	; Automatically Added by addNops.pl
371				; Automatically 16 NOPs removed by reduceNOPs.sh
372	012e	23bd0008		addi	%GPR29,%GPR29,$8	
373	012f	00000000		nop	; Automatically Added by addNops.pl
374	0130	00000000		nop	; Automatically Added by addNops.pl
375	0131	00000000		nop	; Automatically Added by addNops.pl
376				; Automatically 16 NOPs removed by reduceNOPs.sh
377	0132	8fc1ffd0		lw	%GPR1,-48(%GPR30)	
378	0133	00000000		nop	; Automatically Added by addNops.pl
379	0134	00000000		nop	; Automatically Added by addNops.pl
380	0135	00000000		nop	; Automatically Added by addNops.pl
381				; Automatically 8 NOPs removed by reduceNOPs.sh
382	0136	00000000		nop	; Automatically added by fix-stall-insns.pl
383	0137	8fc2ffdc		lw	%GPR2,-36(%GPR30)	
384	0138	00000000		nop	; Automatically Added by addNops.pl
385	0139	00000000		nop	; Automatically Added by addNops.pl
386	013a	00000000		nop	; Automatically Added by addNops.pl
387				; Automatically 8 NOPs removed by reduceNOPs.sh
388	013b	20210001		addi	%GPR1,%GPR1,$1	
389	013c	00000000		nop	; Automatically Added by addNops.pl
390	013d	00000000		nop	; Automatically Added by addNops.pl
391	013e	00000000		nop	; Automatically Added by addNops.pl
392				; Automatically 16 NOPs removed by reduceNOPs.sh
393	013f	afc1ffd0		sw	-48(%GPR30),%GPR1	
394	0140	00000000		nop	; Automatically Added by addNops.pl
395	0141	00000000		nop	; Automatically Added by addNops.pl
396	0142	00000000		nop	; Automatically Added by addNops.pl
397	0143	3c010000		lhi	%GPR1,$0	
398	0144	00000000		nop	; Automatically Added by addNops.pl
399	0145	00000000		nop	; Automatically Added by addNops.pl
400	0146	00000000		nop	; Automatically Added by addNops.pl
401				; Automatically 16 NOPs removed by reduceNOPs.sh
402	0147	3421000a		ori	%GPR1,%GPR1,$10	
403	0148	00000000		nop	; Automatically Added by addNops.pl
404	0149	00000000		nop	; Automatically Added by addNops.pl
405	014a	00000000		nop	; Automatically Added by addNops.pl
406				; Automatically 16 NOPs removed by reduceNOPs.sh
407	014b	0041081a		div	%GPR1,%GPR2,%GPR1	
408	014c	00000000		nop	; Automatically Added by addNops.pl
409	014d	00000000		nop	; Automatically Added by addNops.pl
410	014e	00000000		nop	; Automatically Added by addNops.pl
411				; Automatically 16 NOPs removed by reduceNOPs.sh
412	014f	afc1ffdc		sw	-36(%GPR30),%GPR1	
413	0150	00000000		nop	; Automatically Added by addNops.pl
414	0151	00000000		nop	; Automatically Added by addNops.pl
415	0152	00000000		nop	; Automatically Added by addNops.pl
416	0153	0bffff95		j	L_intToStr_5	
417	0154	00000000		nop	; Automatically Added by addNops.pl
418	0155	00000000		nop	; Automatically Added by addNops.pl
419	0156	00000000		nop	; Automatically Added by addNops.pl
420				; Automatically 12 NOPs removed by reduceNOPs.sh
421			L_intToStr_7:
422	0157	00000000		nop	; Automatically Added by addNops.pl
423	0158	00000000		nop	; Automatically Added by addNops.pl
424	0159	00000000		nop	; Automatically Added by addNops.pl
425	015a	8fc2ffd0		lw	%GPR2,-48(%GPR30)	
426	015b	00000000		nop	; Automatically Added by addNops.pl
427	015c	00000000		nop	; Automatically Added by addNops.pl
428	015d	00000000		nop	; Automatically Added by addNops.pl
429				; Automatically 12 NOPs removed by reduceNOPs.sh
430	015e	3c010000		lhi	%GPR1,$0	
431	015f	00000000		nop	; Automatically Added by addNops.pl
432	0160	00000000		nop	; Automatically Added by addNops.pl
433	0161	00000000		nop	; Automatically Added by addNops.pl
434				; Automatically 16 NOPs removed by reduceNOPs.sh
435	0162	34210000		ori	%GPR1,%GPR1,$0	
436	0163	00000000		nop	; Automatically Added by addNops.pl
437	0164	00000000		nop	; Automatically Added by addNops.pl
438	0165	00000000		nop	; Automatically Added by addNops.pl
439				; Automatically 16 NOPs removed by reduceNOPs.sh
440	0166	0041d82b		sgt	%GPR27,%GPR2,%GPR1	
441	0167	00000000		nop	; Automatically Added by addNops.pl
442	0168	00000000		nop	; Automatically Added by addNops.pl
443	0169	00000000		nop	; Automatically Added by addNops.pl
444	016a	17600008		bnez	%GPR27,L_intToStr_8	
445	016b	00000000		nop	; Automatically Added by addNops.pl
446	016c	00000000		nop	; Automatically Added by addNops.pl
447	016d	00000000		nop	; Automatically Added by addNops.pl
448				; Automatically 16 NOPs removed by reduceNOPs.sh
449	016e	08000054		j	L_intToStr_9	
450	016f	00000000		nop	; Automatically Added by addNops.pl
451	0170	00000000		nop	; Automatically Added by addNops.pl
452	0171	00000000		nop	; Automatically Added by addNops.pl
453				; Automatically 16 NOPs removed by reduceNOPs.sh
454			L_intToStr_8:
455	0172	00000000		nop	; Automatically Added by addNops.pl
456	0173	00000000		nop	; Automatically Added by addNops.pl
457	0174	00000000		nop	; Automatically Added by addNops.pl
458	0175	8fc2ffd0		lw	%GPR2,-48(%GPR30)	
459	0176	00000000		nop	; Automatically Added by addNops.pl
460	0177	00000000		nop	; Automatically Added by addNops.pl
461	0178	00000000		nop	; Automatically Added by addNops.pl
462	0179	2bc10020		subi	%GPR1,%GPR30,$32	
463	017a	00000000		nop	; Automatically Added by addNops.pl
464	017b	00000000		nop	; Automatically Added by addNops.pl
465	017c	00000000		nop	; Automatically Added by addNops.pl
466				; Automatically 12 NOPs removed by reduceNOPs.sh
467	017d	28420001		subi	%GPR2,%GPR2,$1	
468	017e	00000000		nop	; Automatically Added by addNops.pl
469	017f	00000000		nop	; Automatically Added by addNops.pl
470	0180	00000000		nop	; Automatically Added by addNops.pl
471				; Automatically 16 NOPs removed by reduceNOPs.sh
472	0181	00220820		add	%GPR1,%GPR1,%GPR2	
473	0182	00000000		nop	; Automatically Added by addNops.pl
474	0183	00000000		nop	; Automatically Added by addNops.pl
475	0184	00000000		nop	; Automatically Added by addNops.pl
476	0185	afc2ffd0		sw	-48(%GPR30),%GPR2	
477	0186	00000000		nop	; Automatically Added by addNops.pl
478	0187	00000000		nop	; Automatically Added by addNops.pl
479	0188	00000000		nop	; Automatically Added by addNops.pl
480				; Automatically 32 NOPs removed by reduceNOPs.sh
481	0189	2bbd0008		subi	%GPR29,%GPR29,$8	
482	018a	00000000		nop	; Automatically Added by addNops.pl
483	018b	00000000		nop	; Automatically Added by addNops.pl
484	018c	00000000		nop	; Automatically Added by addNops.pl
485				; Automatically 16 NOPs removed by reduceNOPs.sh
486	018d	0c002764		jal	loadByteUnsigned	
487	018e	00000000		nop	; Automatically Added by addNops.pl
488	018f	00000000		nop	; Automatically Added by addNops.pl
489	0190	00000000		nop	; Automatically Added by addNops.pl
490				; Automatically 16 NOPs removed by reduceNOPs.sh
491	0191	23bd0008		addi	%GPR29,%GPR29,$8	
492	0192	00000000		nop	; Automatically Added by addNops.pl
493	0193	00000000		nop	; Automatically Added by addNops.pl
494	0194	00000000		nop	; Automatically Added by addNops.pl
495				; Automatically 16 NOPs removed by reduceNOPs.sh
496	0195	8fc1ffd8		lw	%GPR1,-40(%GPR30)	
497	0196	00000000		nop	; Automatically Added by addNops.pl
498	0197	00000000		nop	; Automatically Added by addNops.pl
499	0198	00000000		nop	; Automatically Added by addNops.pl
500	0199	00000000		nop	; Automatically added by fix-stall-insns.pl
501	019a	8fc3ffd4		lw	%GPR3,-44(%GPR30)	
502	019b	00000000		nop	; Automatically Added by addNops.pl
503	019c	00000000		nop	; Automatically Added by addNops.pl
504	019d	00000000		nop	; Automatically Added by addNops.pl
505	019e	03801020		add	%GPR2,%GPR28,%GPR0	
506	019f	00000000		nop	; Automatically Added by addNops.pl
507	01a0	00000000		nop	; Automatically Added by addNops.pl
508	01a1	00000000		nop	; Automatically Added by addNops.pl
509				; Automatically 12 NOPs removed by reduceNOPs.sh
510	01a2	00230820		add	%GPR1,%GPR1,%GPR3	
511	01a3	00000000		nop	; Automatically Added by addNops.pl
512	01a4	00000000		nop	; Automatically Added by addNops.pl
513	01a5	00000000		nop	; Automatically Added by addNops.pl
514				; Automatically 16 NOPs removed by reduceNOPs.sh
515	01a6	2bbd0008		subi	%GPR29,%GPR29,$8	
516	01a7	00000000		nop	; Automatically Added by addNops.pl
517	01a8	00000000		nop	; Automatically Added by addNops.pl
518	01a9	00000000		nop	; Automatically Added by addNops.pl
519				; Automatically 16 NOPs removed by reduceNOPs.sh
520	01aa	0c0027e9		jal	storeByte	
521	01ab	00000000		nop	; Automatically Added by addNops.pl
522	01ac	00000000		nop	; Automatically Added by addNops.pl
523	01ad	00000000		nop	; Automatically Added by addNops.pl
524				; Automatically 16 NOPs removed by reduceNOPs.sh
525	01ae	23bd0008		addi	%GPR29,%GPR29,$8	
526	01af	00000000		nop	; Automatically Added by addNops.pl
527	01b0	00000000		nop	; Automatically Added by addNops.pl
528	01b1	00000000		nop	; Automatically Added by addNops.pl
529				; Automatically 16 NOPs removed by reduceNOPs.sh
530	01b2	8fc1ffd4		lw	%GPR1,-44(%GPR30)	
531	01b3	00000000		nop	; Automatically Added by addNops.pl
532	01b4	00000000		nop	; Automatically Added by addNops.pl
533	01b5	00000000		nop	; Automatically Added by addNops.pl
534				; Automatically 16 NOPs removed by reduceNOPs.sh
535	01b6	20210001		addi	%GPR1,%GPR1,$1	
536	01b7	00000000		nop	; Automatically Added by addNops.pl
537	01b8	00000000		nop	; Automatically Added by addNops.pl
538	01b9	00000000		nop	; Automatically Added by addNops.pl
539				; Automatically 16 NOPs removed by reduceNOPs.sh
540	01ba	afc1ffd4		sw	-44(%GPR30),%GPR1	
541	01bb	00000000		nop	; Automatically Added by addNops.pl
542	01bc	00000000		nop	; Automatically Added by addNops.pl
543	01bd	00000000		nop	; Automatically Added by addNops.pl
544	01be	0bffff99		j	L_intToStr_7	
545	01bf	00000000		nop	; Automatically Added by addNops.pl
546	01c0	00000000		nop	; Automatically Added by addNops.pl
547	01c1	00000000		nop	; Automatically Added by addNops.pl
548				; Automatically 12 NOPs removed by reduceNOPs.sh
549			L_intToStr_9:
550	01c2	00000000		nop	; Automatically Added by addNops.pl
551	01c3	00000000		nop	; Automatically Added by addNops.pl
552	01c4	00000000		nop	; Automatically Added by addNops.pl
553	01c5	8fc1ffd8		lw	%GPR1,-40(%GPR30)	
554	01c6	00000000		nop	; Automatically Added by addNops.pl
555	01c7	00000000		nop	; Automatically Added by addNops.pl
556	01c8	00000000		nop	; Automatically Added by addNops.pl
557	01c9	00000000		nop	; Automatically added by fix-stall-insns.pl
558	01ca	8fc2ffd4		lw	%GPR2,-44(%GPR30)	
559	01cb	00000000		nop	; Automatically Added by addNops.pl
560	01cc	00000000		nop	; Automatically Added by addNops.pl
561	01cd	00000000		nop	; Automatically Added by addNops.pl
562				; Automatically 16 NOPs removed by reduceNOPs.sh
563	01ce	00220820		add	%GPR1,%GPR1,%GPR2	
564	01cf	00000000		nop	; Automatically Added by addNops.pl
565	01d0	00000000		nop	; Automatically Added by addNops.pl
566	01d1	00000000		nop	; Automatically Added by addNops.pl
567	01d2	3c020000		lhi	%GPR2,$0	
568	01d3	00000000		nop	; Automatically Added by addNops.pl
569	01d4	00000000		nop	; Automatically Added by addNops.pl
570	01d5	00000000		nop	; Automatically Added by addNops.pl
571				; Automatically 16 NOPs removed by reduceNOPs.sh
572	01d6	34420000		ori	%GPR2,%GPR2,$0	
573	01d7	00000000		nop	; Automatically Added by addNops.pl
574	01d8	00000000		nop	; Automatically Added by addNops.pl
575	01d9	00000000		nop	; Automatically Added by addNops.pl
576				; Automatically 16 NOPs removed by reduceNOPs.sh
577	01da	2bbd0008		subi	%GPR29,%GPR29,$8	
578	01db	00000000		nop	; Automatically Added by addNops.pl
579	01dc	00000000		nop	; Automatically Added by addNops.pl
580	01dd	00000000		nop	; Automatically Added by addNops.pl
581				; Automatically 16 NOPs removed by reduceNOPs.sh
582	01de	0c0027b5		jal	storeByte	
583	01df	00000000		nop	; Automatically Added by addNops.pl
584	01e0	00000000		nop	; Automatically Added by addNops.pl
585	01e1	00000000		nop	; Automatically Added by addNops.pl
586				; Automatically 16 NOPs removed by reduceNOPs.sh
587	01e2	23bd0008		addi	%GPR29,%GPR29,$8	
588	01e3	00000000		nop	; Automatically Added by addNops.pl
589	01e4	00000000		nop	; Automatically Added by addNops.pl
590	01e5	00000000		nop	; Automatically Added by addNops.pl
591				; Automatically 36 NOPs removed by reduceNOPs.sh
592	01e6	3c1c0000		lhi	%GPR28,$0	
593	01e7	00000000		nop	; Automatically Added by addNops.pl
594	01e8	00000000		nop	; Automatically Added by addNops.pl
595	01e9	00000000		nop	; Automatically Added by addNops.pl
596				; Automatically 16 NOPs removed by reduceNOPs.sh
597	01ea	379c002a		ori	%GPR28,%GPR28,$42	
598	01eb	00000000		nop	; Automatically Added by addNops.pl
599	01ec	00000000		nop	; Automatically Added by addNops.pl
600	01ed	00000000		nop	; Automatically Added by addNops.pl
601				; Automatically 16 NOPs removed by reduceNOPs.sh
602	01ee	08000004		j	L_intToStr_10	
603	01ef	00000000		nop	; Automatically Added by addNops.pl
604	01f0	00000000		nop	; Automatically Added by addNops.pl
605	01f1	00000000		nop	; Automatically Added by addNops.pl
606				; Automatically 16 NOPs removed by reduceNOPs.sh
607			L_intToStr_10:
608	01f2	00000000		nop	; Automatically Added by addNops.pl
609	01f3	00000000		nop	; Automatically Added by addNops.pl
610	01f4	00000000		nop	; Automatically Added by addNops.pl
611				; Automatically 16 NOPs removed by reduceNOPs.sh
612	01f5	8fdf0004		lw	%GPR31,4(%GPR30)	
613	01f6	00000000		nop	; Automatically Added by addNops.pl
614	01f7	00000000		nop	; Automatically Added by addNops.pl
615	01f8	00000000		nop	; Automatically Added by addNops.pl
616	01f9	27dd0004		addui	%GPR29,%GPR30,$4	
617	01fa	00000000		nop	; Automatically Added by addNops.pl
618	01fb	00000000		nop	; Automatically Added by addNops.pl
619	01fc	00000000		nop	; Automatically Added by addNops.pl
620	01fd	8fde0000		lw	%GPR30,0(%GPR30)	
621	01fe	00000000		nop	; Automatically Added by addNops.pl
622	01ff	00000000		nop	; Automatically Added by addNops.pl
623	0200	00000000		nop	; Automatically Added by addNops.pl
624				; Automatically 8 NOPs removed by reduceNOPs.sh
625	0201	00000000		nop
626	0202	00000000		nop
627	0203	03e00008		jr	%GPR31	
628	0204	00000000		nop	; Automatically Added by addNops.pl
629	0205	00000000		nop	; Automatically Added by addNops.pl
630	0206	00000000		nop	; Automatically Added by addNops.pl
631				.section	.data
632				;.global	_threadStackStart
633				.align	4
634			_threadStackStart:
635	0000	00002dfc		.data.32	11772
636	0004	00001dfc		.data.32	7676
637	0008	00000dfc		.data.32	3580
638	000c	000007fc		.data.32	2044
639			L_larsix_1:
640	0010	4c		.data.8	76
641	0011	41		.data.8	65
642	0012	52		.data.8	82
643	0013	53		.data.8	83
644	0014	49		.data.8	73
645	0015	58		.data.8	88
646	0016	20		.data.8	32
647	0017	45		.data.8	69
648	0018	52		.data.8	82
649	0019	52		.data.8	82
650	001a	4f		.data.8	79
651	001b	52		.data.8	82
652	001c	20		.data.8	32
653	001d	31		.data.8	49
654	001e	3a		.data.8	58
655	001f	20		.data.8	32
656	0020	4e		.data.8	78
657	0021	6f		.data.8	111
658	0022	74		.data.8	116
659	0023	20		.data.8	32
660	0024	61		.data.8	97
661	0025	6c		.data.8	108
662	0026	6c		.data.8	108
663	0027	20		.data.8	32
664	0028	54		.data.8	84
665	0029	68		.data.8	104
666	002a	72		.data.8	114
667	002b	65		.data.8	101
668	002c	61		.data.8	97
669	002d	64		.data.8	100
670	002e	73		.data.8	115
671	002f	20		.data.8	32
672	0030	68		.data.8	104
673	0031	61		.data.8	97
674	0032	76		.data.8	118
675	0033	65		.data.8	101
676	0034	20		.data.8	32
677	0035	61		.data.8	97
678	0036	20		.data.8	32
679	0037	73		.data.8	115
680	0038	74		.data.8	116
681	0039	61		.data.8	97
682	003a	72		.data.8	114
683	003b	74		.data.8	116
684	003c	2d		.data.8	45
685	003d	61		.data.8	97
686	003e	64		.data.8	100
687	003f	64		.data.8	100
688	0040	72		.data.8	114
689	0041	65		.data.8	101
690	0042	73		.data.8	115
691	0043	73		.data.8	115
692	0044	21		.data.8	33
693	0045	0d		.data.8	13
694	0046	0a		.data.8	10
695	0047	00		.space	1
696			L_larsix_2:
697	0048	20		.data.8	32
698	0049	20		.data.8	32
699	004a	48		.data.8	72
700	004b	61		.data.8	97
701	004c	6c		.data.8	108
702	004d	74		.data.8	116
703	004e	69		.data.8	105
704	004f	6e		.data.8	110
705	0050	67		.data.8	103
706	0051	20		.data.8	32
707	0052	6e		.data.8	110
708	0053	6f		.data.8	111
709	0054	77		.data.8	119
710	0055	2e		.data.8	46
711	0056	0d		.data.8	13
712	0057	0a		.data.8	10
713	0058	00		.space	1
714				;.global	_threadRegisters
715				.align	4
716			_threadRegisters:
717	005c	0000000000000000000000000000000000000000000000000000000000000000000000000000000000000000000000000000000000000000000000000000000000000000000000000000000000000000000000000000000000000000000000000000000000000000000000000000000000000000000000000000000000000000000000000000000000000000000000000000000000000000000000000000000000000000000000000000000000000000000000000000000000000000000000000000000000000000000000000000000000000000000000000000000000000000000000000000000000000000000000000000000000000000000000000000000000000000000000000000000000000000000000000000000000000000000000000000000000000000000000000000000000000000000000000000000000000000000000000000000000000000000000000000000000000000000000000000000000000000000000000000000000000000000000000000000000000000000000000000000000000000000000000000000000000000000000000000000000000000000000000000000000000000000000000000000000000000000000000000000000000000000000000000000000000000		.space	464
718				;.global	_threadCurrent
719				.align	4
720			_threadCurrent:
721	022c	00000000		.space	4
722				;.global	_threadDummyRegisters
723				.align	4
724			_threadDummyRegisters:
725	0230	00000000000000000000000000000000000000000000000000000000000000000000000000000000000000000000000000000000000000000000000000000000000000000000000000000000000000000000000000000000000000000000000000000000000000000000000000000000000000000000000000000000		.space	124
726				.section	.text
727				.addressing	Word
728				;.addressing	Word
729			determineStartAddress:
730			L_larsix_3:
731	0207	00000000		nop	; Automatically Added by addNops.pl
732	0208	00000000		nop	; Automatically Added by addNops.pl
733	0209	00000000		nop	; Automatically Added by addNops.pl
734				; Automatically 16 NOPs removed by reduceNOPs.sh
735	020a	afbefffc		sw	-4(%GPR29),%GPR30	
736	020b	00000000		nop	; Automatically Added by addNops.pl
737	020c	00000000		nop	; Automatically Added by addNops.pl
738	020d	00000000		nop	; Automatically Added by addNops.pl
739	020e	00000000		nop	; Automatically added by fix-stall-insns.pl
740	020f	afbf0000		sw	0(%GPR29),%GPR31	
741	0210	00000000		nop	; Automatically Added by addNops.pl
742	0211	00000000		nop	; Automatically Added by addNops.pl
743	0212	00000000		nop	; Automatically Added by addNops.pl
744	0213	2fbe0004		subui	%GPR30,%GPR29,$4	
745	0214	00000000		nop	; Automatically Added by addNops.pl
746	0215	00000000		nop	; Automatically Added by addNops.pl
747	0216	00000000		nop	; Automatically Added by addNops.pl
748				; Automatically 4 NOPs removed by reduceNOPs.sh
749	0217	2bbd0008		subi	%GPR29,%GPR29,$8	
750	0218	00000000		nop	; Automatically Added by addNops.pl
751	0219	00000000		nop	; Automatically Added by addNops.pl
752	021a	00000000		nop	; Automatically Added by addNops.pl
753				; Automatically 56 NOPs removed by reduceNOPs.sh
754	021b	3c020000		lhi	%GPR2,$0	
755	021c	00000000		nop	; Automatically Added by addNops.pl
756	021d	00000000		nop	; Automatically Added by addNops.pl
757	021e	00000000		nop	; Automatically Added by addNops.pl
758				; Automatically 16 NOPs removed by reduceNOPs.sh
759	021f	34420000		ori	%GPR2,%GPR2,$0	
760	0220	00000000		nop	; Automatically Added by addNops.pl
761	0221	00000000		nop	; Automatically Added by addNops.pl
762	0222	00000000		nop	; Automatically Added by addNops.pl
763				; Automatically 16 NOPs removed by reduceNOPs.sh
764	0223	0022d82e		seq	%GPR27,%GPR1,%GPR2	
765	0224	00000000		nop	; Automatically Added by addNops.pl
766	0225	00000000		nop	; Automatically Added by addNops.pl
767	0226	00000000		nop	; Automatically Added by addNops.pl
768	0227	1760005c		bnez	%GPR27,L_larsix_8	
769	0228	00000000		nop	; Automatically Added by addNops.pl
770	0229	00000000		nop	; Automatically Added by addNops.pl
771	022a	00000000		nop	; Automatically Added by addNops.pl
772				; Automatically 16 NOPs removed by reduceNOPs.sh
773	022b	08000004		j	L_larsix_4	
774	022c	00000000		nop	; Automatically Added by addNops.pl
775	022d	00000000		nop	; Automatically Added by addNops.pl
776	022e	00000000		nop	; Automatically Added by addNops.pl
777				; Automatically 16 NOPs removed by reduceNOPs.sh
778			L_larsix_4:
779	022f	00000000		nop	; Automatically Added by addNops.pl
780	0230	00000000		nop	; Automatically Added by addNops.pl
781	0231	00000000		nop	; Automatically Added by addNops.pl
782				; Automatically 16 NOPs removed by reduceNOPs.sh
783	0232	3c020000		lhi	%GPR2,$0	
784	0233	00000000		nop	; Automatically Added by addNops.pl
785	0234	00000000		nop	; Automatically Added by addNops.pl
786	0235	00000000		nop	; Automatically Added by addNops.pl
787				; Automatically 16 NOPs removed by reduceNOPs.sh
788	0236	34420001		ori	%GPR2,%GPR2,$1	
789	0237	00000000		nop	; Automatically Added by addNops.pl
790	0238	00000000		nop	; Automatically Added by addNops.pl
791	0239	00000000		nop	; Automatically Added by addNops.pl
792				; Automatically 16 NOPs removed by reduceNOPs.sh
793	023a	0022d82e		seq	%GPR27,%GPR1,%GPR2	
794	023b	00000000		nop	; Automatically Added by addNops.pl
795	023c	00000000		nop	; Automatically Added by addNops.pl
796	023d	00000000		nop	; Automatically Added by addNops.pl
797	023e	1760005b		bnez	%GPR27,L_larsix_10	
798	023f	00000000		nop	; Automatically Added by addNops.pl
799	0240	00000000		nop	; Automatically Added by addNops.pl
800	0241	00000000		nop	; Automatically Added by addNops.pl
801				; Automatically 16 NOPs removed by reduceNOPs.sh
802	0242	08000004		j	L_larsix_5	
803	0243	00000000		nop	; Automatically Added by addNops.pl
804	0244	00000000		nop	; Automatically Added by addNops.pl
805	0245	00000000		nop	; Automatically Added by addNops.pl
806				; Automatically 16 NOPs removed by reduceNOPs.sh
807			L_larsix_5:
808	0246	00000000		nop	; Automatically Added by addNops.pl
809	0247	00000000		nop	; Automatically Added by addNops.pl
810	0248	00000000		nop	; Automatically Added by addNops.pl
811				; Automatically 16 NOPs removed by reduceNOPs.sh
812	0249	3c020000		lhi	%GPR2,$0	
813	024a	00000000		nop	; Automatically Added by addNops.pl
814	024b	00000000		nop	; Automatically Added by addNops.pl
815	024c	00000000		nop	; Automatically Added by addNops.pl
816				; Automatically 16 NOPs removed by reduceNOPs.sh
817	024d	34420002		ori	%GPR2,%GPR2,$2	
818	024e	00000000		nop	; Automatically Added by addNops.pl
819	024f	00000000		nop	; Automatically Added by addNops.pl
820	0250	00000000		nop	; Automatically Added by addNops.pl
821				; Automatically 16 NOPs removed by reduceNOPs.sh
822	0251	0022d82e		seq	%GPR27,%GPR1,%GPR2	
823	0252	00000000		nop	; Automatically Added by addNops.pl
824	0253	00000000		nop	; Automatically Added by addNops.pl
825	0254	00000000		nop	; Automatically Added by addNops.pl
826	0255	17600053		bnez	%GPR27,L_larsix_11	
827	0256	00000000		nop	; Automatically Added by addNops.pl
828	0257	00000000		nop	; Automatically Added by addNops.pl
829	0258	00000000		nop	; Automatically Added by addNops.pl
830				; Automatically 16 NOPs removed by reduceNOPs.sh
831	0259	08000004		j	L_larsix_6	
832	025a	00000000		nop	; Automatically Added by addNops.pl
833	025b	00000000		nop	; Automatically Added by addNops.pl
834	025c	00000000		nop	; Automatically Added by addNops.pl
835				; Automatically 16 NOPs removed by reduceNOPs.sh
836			L_larsix_6:
837	025d	00000000		nop	; Automatically Added by addNops.pl
838	025e	00000000		nop	; Automatically Added by addNops.pl
839	025f	00000000		nop	; Automatically Added by addNops.pl
840				; Automatically 16 NOPs removed by reduceNOPs.sh
841	0260	3c020000		lhi	%GPR2,$0	
842	0261	00000000		nop	; Automatically Added by addNops.pl
843	0262	00000000		nop	; Automatically Added by addNops.pl
844	0263	00000000		nop	; Automatically Added by addNops.pl
845				; Automatically 16 NOPs removed by reduceNOPs.sh
846	0264	34420003		ori	%GPR2,%GPR2,$3	
847	0265	00000000		nop	; Automatically Added by addNops.pl
848	0266	00000000		nop	; Automatically Added by addNops.pl
849	0267	00000000		nop	; Automatically Added by addNops.pl
850				; Automatically 16 NOPs removed by reduceNOPs.sh
851	0268	0022d82e		seq	%GPR27,%GPR1,%GPR2	
852	0269	00000000		nop	; Automatically Added by addNops.pl
853	026a	00000000		nop	; Automatically Added by addNops.pl
854	026b	00000000		nop	; Automatically Added by addNops.pl
855	026c	17600008		bnez	%GPR27,L_larsix_7	
856	026d	00000000		nop	; Automatically Added by addNops.pl
857	026e	00000000		nop	; Automatically Added by addNops.pl
858	026f	00000000		nop	; Automatically Added by addNops.pl
859				; Automatically 16 NOPs removed by reduceNOPs.sh
860	0270	08000047		j	L_larsix_12	
861	0271	00000000		nop	; Automatically Added by addNops.pl
862	0272	00000000		nop	; Automatically Added by addNops.pl
863	0273	00000000		nop	; Automatically Added by addNops.pl
864				; Automatically 16 NOPs removed by reduceNOPs.sh
865			L_larsix_7:
866	0274	00000000		nop	; Automatically Added by addNops.pl
867	0275	00000000		nop	; Automatically Added by addNops.pl
868	0276	00000000		nop	; Automatically Added by addNops.pl
869	0277	3c010000		lhi	%GPR1,$( thread3 	/0x10000)
870	0278	00000000		nop
871	0279	00000000		nop
872	027a	00000000		nop
873	027b	34210651		ori	%GPR1,%GPR1,$( thread3 	%0x10000)
874	027c	00000000		nop	; Automatically Added by addNops.pl
875	027d	00000000		nop	; Automatically Added by addNops.pl
876	027e	00000000		nop	; Automatically Added by addNops.pl
877	027f	0800000f		j	L_larsix_9	
878	0280	00000000		nop	; Automatically Added by addNops.pl
879	0281	00000000		nop	; Automatically Added by addNops.pl
880	0282	00000000		nop	; Automatically Added by addNops.pl
881				; Automatically 12 NOPs removed by reduceNOPs.sh
882			L_larsix_8:
883	0283	00000000		nop	; Automatically Added by addNops.pl
884	0284	00000000		nop	; Automatically Added by addNops.pl
885	0285	00000000		nop	; Automatically Added by addNops.pl
886	0286	3c010000		lhi	%GPR1,$( thread0 	/0x10000)
887	0287	00000000		nop
888	0288	00000000		nop
889	0289	00000000		nop
890	028a	34210563		ori	%GPR1,%GPR1,$( thread0 	%0x10000)
891	028b	00000000		nop	; Automatically Added by addNops.pl
892	028c	00000000		nop	; Automatically Added by addNops.pl
893	028d	00000000		nop	; Automatically Added by addNops.pl
894				; Automatically 12 NOPs removed by reduceNOPs.sh
895			L_larsix_9:
896	028e	00000000		nop	; Automatically Added by addNops.pl
897	028f	00000000		nop	; Automatically Added by addNops.pl
898	0290	00000000		nop	; Automatically Added by addNops.pl
899	0291	0020e020		add	%GPR28,%GPR1,%GPR0	
900	0292	00000000		nop	; Automatically Added by addNops.pl
901	0293	00000000		nop	; Automatically Added by addNops.pl
902	0294	00000000		nop	; Automatically Added by addNops.pl
903				; Automatically 16 NOPs removed by reduceNOPs.sh
904	0295	08000054		j	L_larsix_14	
905	0296	00000000		nop	; Automatically Added by addNops.pl
906	0297	00000000		nop	; Automatically Added by addNops.pl
907	0298	00000000		nop	; Automatically Added by addNops.pl
908				; Automatically 16 NOPs removed by reduceNOPs.sh
909			L_larsix_10:
910	0299	00000000		nop	; Automatically Added by addNops.pl
911	029a	00000000		nop	; Automatically Added by addNops.pl
912	029b	00000000		nop	; Automatically Added by addNops.pl
913	029c	3c010000		lhi	%GPR1,$( thread1 	/0x10000)
914	029d	00000000		nop
915	029e	00000000		nop
916	029f	00000000		nop
917	02a0	342105e7		ori	%GPR1,%GPR1,$( thread1 	%0x10000)
918	02a1	00000000		nop	; Automatically Added by addNops.pl
919	02a2	00000000		nop	; Automatically Added by addNops.pl
920	02a3	00000000		nop	; Automatically Added by addNops.pl
921	02a4	0bffffea		j	L_larsix_9	
922	02a5	00000000		nop	; Automatically Added by addNops.pl
923	02a6	00000000		nop	; Automatically Added by addNops.pl
924	02a7	00000000		nop	; Automatically Added by addNops.pl
925				; Automatically 12 NOPs removed by reduceNOPs.sh
926			L_larsix_11:
927	02a8	00000000		nop	; Automatically Added by addNops.pl
928	02a9	00000000		nop	; Automatically Added by addNops.pl
929	02aa	00000000		nop	; Automatically Added by addNops.pl
930	02ab	3c010000		lhi	%GPR1,$( thread2 	/0x10000)
931	02ac	00000000		nop
932	02ad	00000000		nop
933	02ae	00000000		nop
934	02af	3421061c		ori	%GPR1,%GPR1,$( thread2 	%0x10000)
935	02b0	00000000		nop	; Automatically Added by addNops.pl
936	02b1	00000000		nop	; Automatically Added by addNops.pl
937	02b2	00000000		nop	; Automatically Added by addNops.pl
938	02b3	0bffffdb		j	L_larsix_9	
939	02b4	00000000		nop	; Automatically Added by addNops.pl
940	02b5	00000000		nop	; Automatically Added by addNops.pl
941	02b6	00000000		nop	; Automatically Added by addNops.pl
942				; Automatically 12 NOPs removed by reduceNOPs.sh
943			L_larsix_12:
944	02b7	00000000		nop	; Automatically Added by addNops.pl
945	02b8	00000000		nop	; Automatically Added by addNops.pl
946	02b9	00000000		nop	; Automatically Added by addNops.pl
947	02ba	3c010000		lhi	%GPR1,$( L_larsix_1	/0x10000)
948	02bb	00000000		nop
949	02bc	00000000		nop
950	02bd	00000000		nop
951	02be	34210010		ori	%GPR1,%GPR1,$( L_larsix_1	%0x10000)
952	02bf	00000000		nop	; Automatically Added by addNops.pl
953	02c0	00000000		nop	; Automatically Added by addNops.pl
954	02c1	00000000		nop	; Automatically Added by addNops.pl
955				; Automatically 36 NOPs removed by reduceNOPs.sh
956	02c2	2bbd0008		subi	%GPR29,%GPR29,$8	
957	02c3	00000000		nop	; Automatically Added by addNops.pl
958	02c4	00000000		nop	; Automatically Added by addNops.pl
959	02c5	00000000		nop	; Automatically Added by addNops.pl
960				; Automatically 16 NOPs removed by reduceNOPs.sh
961	02c6	0c001e73		jal	t_print	
962	02c7	00000000		nop	; Automatically Added by addNops.pl
963	02c8	00000000		nop	; Automatically Added by addNops.pl
964	02c9	00000000		nop	; Automatically Added by addNops.pl
965				; Automatically 16 NOPs removed by reduceNOPs.sh
966	02ca	23bd0008		addi	%GPR29,%GPR29,$8	
967	02cb	00000000		nop	; Automatically Added by addNops.pl
968	02cc	00000000		nop	; Automatically Added by addNops.pl
969	02cd	00000000		nop	; Automatically Added by addNops.pl
970				; Automatically 16 NOPs removed by reduceNOPs.sh
971	02ce	3c010000		lhi	%GPR1,$( L_larsix_2	/0x10000)
972	02cf	00000000		nop
973	02d0	00000000		nop
974	02d1	00000000		nop
975	02d2	34210048		ori	%GPR1,%GPR1,$( L_larsix_2	%0x10000)
976	02d3	00000000		nop	; Automatically Added by addNops.pl
977	02d4	00000000		nop	; Automatically Added by addNops.pl
978	02d5	00000000		nop	; Automatically Added by addNops.pl
979				; Automatically 36 NOPs removed by reduceNOPs.sh
980	02d6	2bbd0008		subi	%GPR29,%GPR29,$8	
981	02d7	00000000		nop	; Automatically Added by addNops.pl
982	02d8	00000000		nop	; Automatically Added by addNops.pl
983	02d9	00000000		nop	; Automatically Added by addNops.pl
984				; Automatically 16 NOPs removed by reduceNOPs.sh
985	02da	0c001e5f		jal	t_print	
986	02db	00000000		nop	; Automatically Added by addNops.pl
987	02dc	00000000		nop	; Automatically Added by addNops.pl
988	02dd	00000000		nop	; Automatically Added by addNops.pl
989				; Automatically 16 NOPs removed by reduceNOPs.sh
990	02de	23bd0008		addi	%GPR29,%GPR29,$8	
991	02df	00000000		nop	; Automatically Added by addNops.pl
992	02e0	00000000		nop	; Automatically Added by addNops.pl
993	02e1	00000000		nop	; Automatically Added by addNops.pl
994				; Automatically 28 NOPs removed by reduceNOPs.sh
995			L_larsix_13:
996	02e2	00000000		nop	; Automatically Added by addNops.pl
997	02e3	00000000		nop	; Automatically Added by addNops.pl
998	02e4	00000000		nop	; Automatically Added by addNops.pl
999	02e5	0bfffffd		j	L_larsix_13	
1000	02e6	00000000		nop	; Automatically Added by addNops.pl
1001	02e7	00000000		nop	; Automatically Added by addNops.pl
1002	02e8	00000000		nop	; Automatically Added by addNops.pl
1003				; Automatically 12 NOPs removed by reduceNOPs.sh
1004			L_larsix_14:
1005	02e9	00000000		nop	; Automatically Added by addNops.pl
1006	02ea	00000000		nop	; Automatically Added by addNops.pl
1007	02eb	00000000		nop	; Automatically Added by addNops.pl
1008				; Automatically 16 NOPs removed by reduceNOPs.sh
1009	02ec	8fdf0004		lw	%GPR31,4(%GPR30)	
1010	02ed	00000000		nop	; Automatically Added by addNops.pl
1011	02ee	00000000		nop	; Automatically Added by addNops.pl
1012	02ef	00000000		nop	; Automatically Added by addNops.pl
1013	02f0	27dd0004		addui	%GPR29,%GPR30,$4	
1014	02f1	00000000		nop	; Automatically Added by addNops.pl
1015	02f2	00000000		nop	; Automatically Added by addNops.pl
1016	02f3	00000000		nop	; Automatically Added by addNops.pl
1017	02f4	8fde0000		lw	%GPR30,0(%GPR30)	
1018	02f5	00000000		nop	; Automatically Added by addNops.pl
1019	02f6	00000000		nop	; Automatically Added by addNops.pl
1020	02f7	00000000		nop	; Automatically Added by addNops.pl
1021				; Automatically 8 NOPs removed by reduceNOPs.sh
1022	02f8	00000000		nop
1023	02f9	00000000		nop
1024	02fa	03e00008		jr	%GPR31	
1025	02fb	00000000		nop	; Automatically Added by addNops.pl
1026	02fc	00000000		nop	; Automatically Added by addNops.pl
1027	02fd	00000000		nop	; Automatically Added by addNops.pl
1028				; Automatically 16 NOPs removed by reduceNOPs.sh
1029			getNextThread:
1030			L_larsix_15:
1031	02fe	00000000		nop	; Automatically Added by addNops.pl
1032	02ff	00000000		nop	; Automatically Added by addNops.pl
1033	0300	00000000		nop	; Automatically Added by addNops.pl
1034				; Automatically 16 NOPs removed by reduceNOPs.sh
1035	0301	afbefffc		sw	-4(%GPR29),%GPR30	
1036	0302	00000000		nop	; Automatically Added by addNops.pl
1037	0303	00000000		nop	; Automatically Added by addNops.pl
1038	0304	00000000		nop	; Automatically Added by addNops.pl
1039	0305	00000000		nop	; Automatically added by fix-stall-insns.pl
1040	0306	afbf0000		sw	0(%GPR29),%GPR31	
1041	0307	00000000		nop	; Automatically Added by addNops.pl
1042	0308	00000000		nop	; Automatically Added by addNops.pl
1043	0309	00000000		nop	; Automatically Added by addNops.pl
1044	030a	2fbe0004		subui	%GPR30,%GPR29,$4	
1045	030b	00000000		nop	; Automatically Added by addNops.pl
1046	030c	00000000		nop	; Automatically Added by addNops.pl
1047	030d	00000000		nop	; Automatically Added by addNops.pl
1048				; Automatically 4 NOPs removed by reduceNOPs.sh
1049	030e	2bbd0008		subi	%GPR29,%GPR29,$8	
1050	030f	00000000		nop	; Automatically Added by addNops.pl
1051	0310	00000000		nop	; Automatically Added by addNops.pl
1052	0311	00000000		nop	; Automatically Added by addNops.pl
1053				; Automatically 28 NOPs removed by reduceNOPs.sh
1054	0312	3c010000		lhi	%GPR1,$( _threadCurrent	/0x10000)
1055	0313	00000000		nop
1056	0314	00000000		nop
1057	0315	00000000		nop
1058	0316	3421022c		ori	%GPR1,%GPR1,$( _threadCurrent	%0x10000)
1059	0317	00000000		nop	; Automatically Added by addNops.pl
1060	0318	00000000		nop	; Automatically Added by addNops.pl
1061	0319	00000000		nop	; Automatically Added by addNops.pl
1062				; Automatically 16 NOPs removed by reduceNOPs.sh
1063	031a	8c210000		lw	%GPR1,0(%GPR1)	
1064	031b	00000000		nop	; Automatically Added by addNops.pl
1065	031c	00000000		nop	; Automatically Added by addNops.pl
1066	031d	00000000		nop	; Automatically Added by addNops.pl
1067	031e	3c020000		lhi	%GPR2,$0	
1068	031f	00000000		nop	; Automatically Added by addNops.pl
1069	0320	00000000		nop	; Automatically Added by addNops.pl
1070	0321	00000000		nop	; Automatically Added by addNops.pl
1071				; Automatically 16 NOPs removed by reduceNOPs.sh
1072	0322	34420004		ori	%GPR2,%GPR2,$4	
1073	0323	00000000		nop	; Automatically Added by addNops.pl
1074	0324	00000000		nop	; Automatically Added by addNops.pl
1075	0325	00000000		nop	; Automatically Added by addNops.pl
1076				; Automatically 12 NOPs removed by reduceNOPs.sh
1077	0326	203c0001		addi	%GPR28,%GPR1,$1	
1078	0327	00000000		nop	; Automatically Added by addNops.pl
1079	0328	00000000		nop	; Automatically Added by addNops.pl
1080	0329	00000000		nop	; Automatically Added by addNops.pl
1081				; Automatically 16 NOPs removed by reduceNOPs.sh
1082	032a	0382d82d		sge	%GPR27,%GPR28,%GPR2	
1083	032b	00000000		nop	; Automatically Added by addNops.pl
1084	032c	00000000		nop	; Automatically Added by addNops.pl
1085	032d	00000000		nop	; Automatically Added by addNops.pl
1086	032e	17600008		bnez	%GPR27,L_larsix_16	
1087	032f	00000000		nop	; Automatically Added by addNops.pl
1088	0330	00000000		nop	; Automatically Added by addNops.pl
1089	0331	00000000		nop	; Automatically Added by addNops.pl
1090				; Automatically 16 NOPs removed by reduceNOPs.sh
1091	0332	0800000f		j	L_larsix_17	
1092	0333	00000000		nop	; Automatically Added by addNops.pl
1093	0334	00000000		nop	; Automatically Added by addNops.pl
1094	0335	00000000		nop	; Automatically Added by addNops.pl
1095				; Automatically 16 NOPs removed by reduceNOPs.sh
1096			L_larsix_16:
1097	0336	00000000		nop	; Automatically Added by addNops.pl
1098	0337	00000000		nop	; Automatically Added by addNops.pl
1099	0338	00000000		nop	; Automatically Added by addNops.pl
1100				; Automatically 16 NOPs removed by reduceNOPs.sh
1101	0339	3c1c0000		lhi	%GPR28,$0	
1102	033a	00000000		nop	; Automatically Added by addNops.pl
1103	033b	00000000		nop	; Automatically Added by addNops.pl
1104	033c	00000000		nop	; Automatically Added by addNops.pl
1105				; Automatically 16 NOPs removed by reduceNOPs.sh
1106	033d	379c0000		ori	%GPR28,%GPR28,$0	
1107	033e	00000000		nop	; Automatically Added by addNops.pl
1108	033f	00000000		nop	; Automatically Added by addNops.pl
1109	0340	00000000		nop	; Automatically Added by addNops.pl
1110				; Automatically 12 NOPs removed by reduceNOPs.sh
1111			L_larsix_17:
1112	0341	00000000		nop	; Automatically Added by addNops.pl
1113	0342	00000000		nop	; Automatically Added by addNops.pl
1114	0343	00000000		nop	; Automatically Added by addNops.pl
1115	0344	08000004		j	L_larsix_18	
1116	0345	00000000		nop	; Automatically Added by addNops.pl
1117	0346	00000000		nop	; Automatically Added by addNops.pl
1118	0347	00000000		nop	; Automatically Added by addNops.pl
1119				; Automatically 16 NOPs removed by reduceNOPs.sh
1120			L_larsix_18:
1121	0348	00000000		nop	; Automatically Added by addNops.pl
1122	0349	00000000		nop	; Automatically Added by addNops.pl
1123	034a	00000000		nop	; Automatically Added by addNops.pl
1124				; Automatically 16 NOPs removed by reduceNOPs.sh
1125	034b	8fdf0004		lw	%GPR31,4(%GPR30)	
1126	034c	00000000		nop	; Automatically Added by addNops.pl
1127	034d	00000000		nop	; Automatically Added by addNops.pl
1128	034e	00000000		nop	; Automatically Added by addNops.pl
1129	034f	27dd0004		addui	%GPR29,%GPR30,$4	
1130	0350	00000000		nop	; Automatically Added by addNops.pl
1131	0351	00000000		nop	; Automatically Added by addNops.pl
1132	0352	00000000		nop	; Automatically Added by addNops.pl
1133	0353	8fde0000		lw	%GPR30,0(%GPR30)	
1134	0354	00000000		nop	; Automatically Added by addNops.pl
1135	0355	00000000		nop	; Automatically Added by addNops.pl
1136	0356	00000000		nop	; Automatically Added by addNops.pl
1137				; Automatically 8 NOPs removed by reduceNOPs.sh
1138	0357	00000000		nop
1139	0358	00000000		nop
1140	0359	03e00008		jr	%GPR31	
1141	035a	00000000		nop	; Automatically Added by addNops.pl
1142	035b	00000000		nop	; Automatically Added by addNops.pl
1143	035c	00000000		nop	; Automatically Added by addNops.pl
1144				; Automatically 16 NOPs removed by reduceNOPs.sh
1145			switchThread:
1146			L_larsix_19:
1147	035d	00000000		nop	; Automatically Added by addNops.pl
1148	035e	00000000		nop	; Automatically Added by addNops.pl
1149	035f	00000000		nop	; Automatically Added by addNops.pl
1150				; Automatically 16 NOPs removed by reduceNOPs.sh
1151	0360	afbefffc		sw	-4(%GPR29),%GPR30	
1152	0361	00000000		nop	; Automatically Added by addNops.pl
1153	0362	00000000		nop	; Automatically Added by addNops.pl
1154	0363	00000000		nop	; Automatically Added by addNops.pl
1155	0364	00000000		nop	; Automatically added by fix-stall-insns.pl
1156	0365	afbf0000		sw	0(%GPR29),%GPR31	
1157	0366	00000000		nop	; Automatically Added by addNops.pl
1158	0367	00000000		nop	; Automatically Added by addNops.pl
1159	0368	00000000		nop	; Automatically Added by addNops.pl
1160	0369	2fbe0004		subui	%GPR30,%GPR29,$4	
1161	036a	00000000		nop	; Automatically Added by addNops.pl
1162	036b	00000000		nop	; Automatically Added by addNops.pl
1163	036c	00000000		nop	; Automatically Added by addNops.pl
1164				; Automatically 4 NOPs removed by reduceNOPs.sh
1165	036d	2bbd0010		subi	%GPR29,%GPR29,$16	
1166	036e	00000000		nop	; Automatically Added by addNops.pl
1167	036f	00000000		nop	; Automatically Added by addNops.pl
1168	0370	00000000		nop	; Automatically Added by addNops.pl
1169				; Automatically 28 NOPs removed by reduceNOPs.sh
1170	0371	3c010000		lhi	%GPR1,$( _threadCurrent	/0x10000)
1171	0372	00000000		nop
1172	0373	00000000		nop
1173	0374	00000000		nop
1174	0375	3421022c		ori	%GPR1,%GPR1,$( _threadCurrent	%0x10000)
1175	0376	00000000		nop	; Automatically Added by addNops.pl
1176	0377	00000000		nop	; Automatically Added by addNops.pl
1177	0378	00000000		nop	; Automatically Added by addNops.pl
1178				; Automatically 16 NOPs removed by reduceNOPs.sh
1179	0379	8c210000		lw	%GPR1,0(%GPR1)	
1180	037a	00000000		nop	; Automatically Added by addNops.pl
1181	037b	00000000		nop	; Automatically Added by addNops.pl
1182	037c	00000000		nop	; Automatically Added by addNops.pl
1183	037d	3c020000		lhi	%GPR2,$0	
1184	037e	00000000		nop	; Automatically Added by addNops.pl
1185	037f	00000000		nop	; Automatically Added by addNops.pl
1186	0380	00000000		nop	; Automatically Added by addNops.pl
1187				; Automatically 16 NOPs removed by reduceNOPs.sh
1188	0381	34420004		ori	%GPR2,%GPR2,$4	
1189	0382	00000000		nop	; Automatically Added by addNops.pl
1190	0383	00000000		nop	; Automatically Added by addNops.pl
1191	0384	00000000		nop	; Automatically Added by addNops.pl
1192				; Automatically 16 NOPs removed by reduceNOPs.sh
1193	0385	0022d82e		seq	%GPR27,%GPR1,%GPR2	
1194	0386	00000000		nop	; Automatically Added by addNops.pl
1195	0387	00000000		nop	; Automatically Added by addNops.pl
1196	0388	00000000		nop	; Automatically Added by addNops.pl
1197	0389	17600008		bnez	%GPR27,L_larsix_20	
1198	038a	00000000		nop	; Automatically Added by addNops.pl
1199	038b	00000000		nop	; Automatically Added by addNops.pl
1200	038c	00000000		nop	; Automatically Added by addNops.pl
1201				; Automatically 16 NOPs removed by reduceNOPs.sh
1202	038d	08000017		j	L_larsix_21	
1203	038e	00000000		nop	; Automatically Added by addNops.pl
1204	038f	00000000		nop	; Automatically Added by addNops.pl
1205	0390	00000000		nop	; Automatically Added by addNops.pl
1206				; Automatically 16 NOPs removed by reduceNOPs.sh
1207			L_larsix_20:
1208	0391	00000000		nop	; Automatically Added by addNops.pl
1209	0392	00000000		nop	; Automatically Added by addNops.pl
1210	0393	00000000		nop	; Automatically Added by addNops.pl
1211	0394	3c010000		lhi	%GPR1,$( _threadDummyRegisters	/0x10000)
1212	0395	00000000		nop
1213	0396	00000000		nop
1214	0397	00000000		nop
1215	0398	34210230		ori	%GPR1,%GPR1,$( _threadDummyRegisters	%0x10000)
1216	0399	00000000		nop	; Automatically Added by addNops.pl
1217	039a	00000000		nop	; Automatically Added by addNops.pl
1218	039b	00000000		nop	; Automatically Added by addNops.pl
1219				; Automatically 16 NOPs removed by reduceNOPs.sh
1220	039c	afc1fffc		sw	-4(%GPR30),%GPR1	
1221	039d	00000000		nop	; Automatically Added by addNops.pl
1222	039e	00000000		nop	; Automatically Added by addNops.pl
1223	039f	00000000		nop	; Automatically Added by addNops.pl
1224	03a0	0800002f		j	L_larsix_22	
1225	03a1	00000000		nop	; Automatically Added by addNops.pl
1226	03a2	00000000		nop	; Automatically Added by addNops.pl
1227	03a3	00000000		nop	; Automatically Added by addNops.pl
1228				; Automatically 12 NOPs removed by reduceNOPs.sh
1229			L_larsix_21:
1230	03a4	00000000		nop	; Automatically Added by addNops.pl
1231	03a5	00000000		nop	; Automatically Added by addNops.pl
1232	03a6	00000000		nop	; Automatically Added by addNops.pl
1233	03a7	3c010000		lhi	%GPR1,$( _threadCurrent	/0x10000)
1234	03a8	00000000		nop
1235	03a9	00000000		nop
1236	03aa	00000000		nop
1237	03ab	3421022c		ori	%GPR1,%GPR1,$( _threadCurrent	%0x10000)
1238	03ac	00000000		nop	; Automatically Added by addNops.pl
1239	03ad	00000000		nop	; Automatically Added by addNops.pl
1240	03ae	00000000		nop	; Automatically Added by addNops.pl
1241				; Automatically 8 NOPs removed by reduceNOPs.sh
1242	03af	3c020000		lhi	%GPR2,$( _threadRegisters	/0x10000)
1243	03b0	00000000		nop
1244	03b1	00000000		nop
1245	03b2	00000000		nop
1246	03b3	3442005c		ori	%GPR2,%GPR2,$( _threadRegisters	%0x10000)
1247	03b4	00000000		nop	; Automatically Added by addNops.pl
1248	03b5	00000000		nop	; Automatically Added by addNops.pl
1249	03b6	00000000		nop	; Automatically Added by addNops.pl
1250				; Automatically 8 NOPs removed by reduceNOPs.sh
1251	03b7	8c210000		lw	%GPR1,0(%GPR1)	
1252	03b8	00000000		nop	; Automatically Added by addNops.pl
1253	03b9	00000000		nop	; Automatically Added by addNops.pl
1254	03ba	00000000		nop	; Automatically Added by addNops.pl
1255	03bb	3c030000		lhi	%GPR3,$0	
1256	03bc	00000000		nop	; Automatically Added by addNops.pl
1257	03bd	00000000		nop	; Automatically Added by addNops.pl
1258	03be	00000000		nop	; Automatically Added by addNops.pl
1259				; Automatically 16 NOPs removed by reduceNOPs.sh
1260	03bf	34630074		ori	%GPR3,%GPR3,$116	
1261	03c0	00000000		nop	; Automatically Added by addNops.pl
1262	03c1	00000000		nop	; Automatically Added by addNops.pl
1263	03c2	00000000		nop	; Automatically Added by addNops.pl
1264				; Automatically 16 NOPs removed by reduceNOPs.sh
1265	03c3	00230818		mult	%GPR1,%GPR1,%GPR3	
1266	03c4	00000000		nop	; Automatically Added by addNops.pl
1267	03c5	00000000		nop	; Automatically Added by addNops.pl
1268	03c6	00000000		nop	; Automatically Added by addNops.pl
1269				; Automatically 16 NOPs removed by reduceNOPs.sh
1270	03c7	00410820		add	%GPR1,%GPR2,%GPR1	
1271	03c8	00000000		nop	; Automatically Added by addNops.pl
1272	03c9	00000000		nop	; Automatically Added by addNops.pl
1273	03ca	00000000		nop	; Automatically Added by addNops.pl
1274				; Automatically 16 NOPs removed by reduceNOPs.sh
1275	03cb	afc1fffc		sw	-4(%GPR30),%GPR1	
1276	03cc	00000000		nop	; Automatically Added by addNops.pl
1277	03cd	00000000		nop	; Automatically Added by addNops.pl
1278	03ce	00000000		nop	; Automatically Added by addNops.pl
1279				; Automatically 12 NOPs removed by reduceNOPs.sh
1280			L_larsix_22:
1281	03cf	00000000		nop	; Automatically Added by addNops.pl
1282	03d0	00000000		nop	; Automatically Added by addNops.pl
1283	03d1	00000000		nop	; Automatically Added by addNops.pl
1284	03d2	3c010000		lhi	%GPR1,$( _threadCurrent	/0x10000)
1285	03d3	00000000		nop
1286	03d4	00000000		nop
1287	03d5	00000000		nop
1288	03d6	3421022c		ori	%GPR1,%GPR1,$( _threadCurrent	%0x10000)
1289	03d7	00000000		nop	; Automatically Added by addNops.pl
1290	03d8	00000000		nop	; Automatically Added by addNops.pl
1291	03d9	00000000		nop	; Automatically Added by addNops.pl
1292				; Automatically 16 NOPs removed by reduceNOPs.sh
1293	03da	afc1fff8		sw	-8(%GPR30),%GPR1	
1294	03db	00000000		nop	; Automatically Added by addNops.pl
1295	03dc	00000000		nop	; Automatically Added by addNops.pl
1296	03dd	00000000		nop	; Automatically Added by addNops.pl
1297				; Automatically 16 NOPs removed by reduceNOPs.sh
1298	03de	2bbd0008		subi	%GPR29,%GPR29,$8	
1299	03df	00000000		nop	; Automatically Added by addNops.pl
1300	03e0	00000000		nop	; Automatically Added by addNops.pl
1301	03e1	00000000		nop	; Automatically Added by addNops.pl
1302				; Automatically 16 NOPs removed by reduceNOPs.sh
1303	03e2	0fffff1c		jal	getNextThread	
1304	03e3	00000000		nop	; Automatically Added by addNops.pl
1305	03e4	00000000		nop	; Automatically Added by addNops.pl
1306	03e5	00000000		nop	; Automatically Added by addNops.pl
1307				; Automatically 16 NOPs removed by reduceNOPs.sh
1308	03e6	23bd0008		addi	%GPR29,%GPR29,$8	
1309	03e7	00000000		nop	; Automatically Added by addNops.pl
1310	03e8	00000000		nop	; Automatically Added by addNops.pl
1311	03e9	00000000		nop	; Automatically Added by addNops.pl
1312				; Automatically 16 NOPs removed by reduceNOPs.sh
1313	03ea	8fc3fff8		lw	%GPR3,-8(%GPR30)	
1314	03eb	00000000		nop	; Automatically Added by addNops.pl
1315	03ec	00000000		nop	; Automatically Added by addNops.pl
1316	03ed	00000000		nop	; Automatically Added by addNops.pl
1317	03ee	3c010000		lhi	%GPR1,$( _threadCurrent	/0x10000)
1318	03ef	00000000		nop
1319	03f0	00000000		nop
1320	03f1	00000000		nop
1321	03f2	3421022c		ori	%GPR1,%GPR1,$( _threadCurrent	%0x10000)
1322	03f3	00000000		nop	; Automatically Added by addNops.pl
1323	03f4	00000000		nop	; Automatically Added by addNops.pl
1324	03f5	00000000		nop	; Automatically Added by addNops.pl
1325				; Automatically 8 NOPs removed by reduceNOPs.sh
1326	03f6	3c020000		lhi	%GPR2,$( _threadRegisters	/0x10000)
1327	03f7	00000000		nop
1328	03f8	00000000		nop
1329	03f9	00000000		nop
1330	03fa	3442005c		ori	%GPR2,%GPR2,$( _threadRegisters	%0x10000)
1331	03fb	00000000		nop	; Automatically Added by addNops.pl
1332	03fc	00000000		nop	; Automatically Added by addNops.pl
1333	03fd	00000000		nop	; Automatically Added by addNops.pl
1334	03fe	ac7c0000		sw	0(%GPR3),%GPR28	
1335	03ff	00000000		nop	; Automatically Added by addNops.pl
1336	0400	00000000		nop	; Automatically Added by addNops.pl
1337	0401	00000000		nop	; Automatically Added by addNops.pl
1338				; Automatically 8 NOPs removed by reduceNOPs.sh
1339	0402	3c030000		lhi	%GPR3,$0	
1340	0403	00000000		nop	; Automatically Added by addNops.pl
1341	0404	00000000		nop	; Automatically Added by addNops.pl
1342	0405	00000000		nop	; Automatically Added by addNops.pl
1343				; Automatically 16 NOPs removed by reduceNOPs.sh
1344	0406	34630074		ori	%GPR3,%GPR3,$116	
1345	0407	00000000		nop	; Automatically Added by addNops.pl
1346	0408	00000000		nop	; Automatically Added by addNops.pl
1347	0409	00000000		nop	; Automatically Added by addNops.pl
1348				; Automatically 8 NOPs removed by reduceNOPs.sh
1349	040a	8c210000		lw	%GPR1,0(%GPR1)	
1350	040b	00000000		nop	; Automatically Added by addNops.pl
1351	040c	00000000		nop	; Automatically Added by addNops.pl
1352	040d	00000000		nop	; Automatically Added by addNops.pl
1353				; Automatically 16 NOPs removed by reduceNOPs.sh
1354	040e	00000000		nop	; Automatically added by fix-stall-insns.pl
1355	040f	00230818		mult	%GPR1,%GPR1,%GPR3	
1356	0410	00000000		nop	; Automatically Added by addNops.pl
1357	0411	00000000		nop	; Automatically Added by addNops.pl
1358	0412	00000000		nop	; Automatically Added by addNops.pl
1359				; Automatically 16 NOPs removed by reduceNOPs.sh
1360	0413	00411020		add	%GPR2,%GPR2,%GPR1	
1361	0414	00000000		nop	; Automatically Added by addNops.pl
1362	0415	00000000		nop	; Automatically Added by addNops.pl
1363	0416	00000000		nop	; Automatically Added by addNops.pl
1364	0417	8fc1fffc		lw	%GPR1,-4(%GPR30)	
1365	0418	00000000		nop	; Automatically Added by addNops.pl
1366	0419	00000000		nop	; Automatically Added by addNops.pl
1367	041a	00000000		nop	; Automatically Added by addNops.pl
1368				; Automatically 13 NOPs removed by reduceNOPs.sh
1369			
1370			
1371				;; asm void switchThread_asm(int* addressSave:reg<R1>, int* addressLoad:reg<R2>) {...}
1372	041b	00000000		nop	; Automatically Added by addNops.pl
1373	041c	00000000		nop	; Automatically Added by addNops.pl
1374	041d	00000000		nop	; Automatically Added by addNops.pl
1375				; Automatically 12 NOPs removed by reduceNOPs.sh
1376	041e	ac230000		sw	0(%GPR1), %GPR3
1377	041f	00000000		nop	; Automatically Added by addNops.pl
1378	0420	00000000		nop	; Automatically Added by addNops.pl
1379	0421	00000000		nop	; Automatically Added by addNops.pl
1380	0422	00000000		nop	; Automatically added by fix-stall-insns.pl
1381	0423	ac240004		sw	4(%GPR1), %GPR4
1382	0424	00000000		nop	; Automatically Added by addNops.pl
1383	0425	00000000		nop	; Automatically Added by addNops.pl
1384	0426	00000000		nop	; Automatically Added by addNops.pl
1385	0427	00000000		nop	; Automatically added by fix-stall-insns.pl
1386	0428	ac250008		sw	8(%GPR1), %GPR5
1387	0429	00000000		nop	; Automatically Added by addNops.pl
1388	042a	00000000		nop	; Automatically Added by addNops.pl
1389	042b	00000000		nop	; Automatically Added by addNops.pl
1390	042c	00000000		nop	; Automatically added by fix-stall-insns.pl
1391	042d	ac26000c		sw	12(%GPR1), %GPR6
1392	042e	00000000		nop	; Automatically Added by addNops.pl
1393	042f	00000000		nop	; Automatically Added by addNops.pl
1394	0430	00000000		nop	; Automatically Added by addNops.pl
1395	0431	00000000		nop	; Automatically added by fix-stall-insns.pl
1396	0432	ac270010		sw	16(%GPR1), %GPR7
1397	0433	00000000		nop	; Automatically Added by addNops.pl
1398	0434	00000000		nop	; Automatically Added by addNops.pl
1399	0435	00000000		nop	; Automatically Added by addNops.pl
1400	0436	00000000		nop	; Automatically added by fix-stall-insns.pl
1401	0437	ac280014		sw	20(%GPR1), %GPR8
1402	0438	00000000		nop	; Automatically Added by addNops.pl
1403	0439	00000000		nop	; Automatically Added by addNops.pl
1404	043a	00000000		nop	; Automatically Added by addNops.pl
1405	043b	00000000		nop	; Automatically added by fix-stall-insns.pl
1406	043c	ac290018		sw	24(%GPR1), %GPR9
1407	043d	00000000		nop	; Automatically Added by addNops.pl
1408	043e	00000000		nop	; Automatically Added by addNops.pl
1409	043f	00000000		nop	; Automatically Added by addNops.pl
1410	0440	00000000		nop	; Automatically added by fix-stall-insns.pl
1411	0441	ac2a001c		sw	28(%GPR1), %GPR10
1412	0442	00000000		nop	; Automatically Added by addNops.pl
1413	0443	00000000		nop	; Automatically Added by addNops.pl
1414	0444	00000000		nop	; Automatically Added by addNops.pl
1415	0445	00000000		nop	; Automatically added by fix-stall-insns.pl
1416	0446	ac2b0020		sw	32(%GPR1), %GPR11
1417	0447	00000000		nop	; Automatically Added by addNops.pl
1418	0448	00000000		nop	; Automatically Added by addNops.pl
1419	0449	00000000		nop	; Automatically Added by addNops.pl
1420	044a	00000000		nop	; Automatically added by fix-stall-insns.pl
1421	044b	ac2c0024		sw	36(%GPR1), %GPR12
1422	044c	00000000		nop	; Automatically Added by addNops.pl
1423	044d	00000000		nop	; Automatically Added by addNops.pl
1424	044e	00000000		nop	; Automatically Added by addNops.pl
1425	044f	00000000		nop	; Automatically added by fix-stall-insns.pl
1426	0450	ac2d0028		sw	40(%GPR1), %GPR13
1427	0451	00000000		nop	; Automatically Added by addNops.pl
1428	0452	00000000		nop	; Automatically Added by addNops.pl
1429	0453	00000000		nop	; Automatically Added by addNops.pl
1430	0454	00000000		nop	; Automatically added by fix-stall-insns.pl
1431	0455	ac2e002c		sw	44(%GPR1), %GPR14
1432	0456	00000000		nop	; Automatically Added by addNops.pl
1433	0457	00000000		nop	; Automatically Added by addNops.pl
1434	0458	00000000		nop	; Automatically Added by addNops.pl
1435	0459	00000000		nop	; Automatically added by fix-stall-insns.pl
1436	045a	ac2f0030		sw	48(%GPR1), %GPR15
1437	045b	00000000		nop	; Automatically Added by addNops.pl
1438	045c	00000000		nop	; Automatically Added by addNops.pl
1439	045d	00000000		nop	; Automatically Added by addNops.pl
1440	045e	00000000		nop	; Automatically added by fix-stall-insns.pl
1441	045f	ac300034		sw	52(%GPR1), %GPR16
1442	0460	00000000		nop	; Automatically Added by addNops.pl
1443	0461	00000000		nop	; Automatically Added by addNops.pl
1444	0462	00000000		nop	; Automatically Added by addNops.pl
1445	0463	00000000		nop	; Automatically added by fix-stall-insns.pl
1446	0464	ac310038		sw	56(%GPR1), %GPR17
1447	0465	00000000		nop	; Automatically Added by addNops.pl
1448	0466	00000000		nop	; Automatically Added by addNops.pl
1449	0467	00000000		nop	; Automatically Added by addNops.pl
1450	0468	00000000		nop	; Automatically added by fix-stall-insns.pl
1451	0469	ac32003c		sw	60(%GPR1), %GPR18
1452	046a	00000000		nop	; Automatically Added by addNops.pl
1453	046b	00000000		nop	; Automatically Added by addNops.pl
1454	046c	00000000		nop	; Automatically Added by addNops.pl
1455	046d	00000000		nop	; Automatically added by fix-stall-insns.pl
1456	046e	ac330040		sw	64(%GPR1), %GPR19
1457	046f	00000000		nop	; Automatically Added by addNops.pl
1458	0470	00000000		nop	; Automatically Added by addNops.pl
1459	0471	00000000		nop	; Automatically Added by addNops.pl
1460	0472	00000000		nop	; Automatically added by fix-stall-insns.pl
1461	0473	ac340044		sw	68(%GPR1), %GPR20
1462	0474	00000000		nop	; Automatically Added by addNops.pl
1463	0475	00000000		nop	; Automatically Added by addNops.pl
1464	0476	00000000		nop	; Automatically Added by addNops.pl
1465	0477	00000000		nop	; Automatically added by fix-stall-insns.pl
1466	0478	ac350048		sw	72(%GPR1), %GPR21
1467	0479	00000000		nop	; Automatically Added by addNops.pl
1468	047a	00000000		nop	; Automatically Added by addNops.pl
1469	047b	00000000		nop	; Automatically Added by addNops.pl
1470	047c	00000000		nop	; Automatically added by fix-stall-insns.pl
1471	047d	ac36004c		sw	76(%GPR1), %GPR22
1472	047e	00000000		nop	; Automatically Added by addNops.pl
1473	047f	00000000		nop	; Automatically Added by addNops.pl
1474	0480	00000000		nop	; Automatically Added by addNops.pl
1475	0481	00000000		nop	; Automatically added by fix-stall-insns.pl
1476	0482	ac370050		sw	80(%GPR1), %GPR23
1477	0483	00000000		nop	; Automatically Added by addNops.pl
1478	0484	00000000		nop	; Automatically Added by addNops.pl
1479	0485	00000000		nop	; Automatically Added by addNops.pl
1480	0486	00000000		nop	; Automatically added by fix-stall-insns.pl
1481	0487	ac380054		sw	84(%GPR1), %GPR24
1482	0488	00000000		nop	; Automatically Added by addNops.pl
1483	0489	00000000		nop	; Automatically Added by addNops.pl
1484	048a	00000000		nop	; Automatically Added by addNops.pl
1485	048b	00000000		nop	; Automatically added by fix-stall-insns.pl
1486	048c	ac390058		sw	88(%GPR1), %GPR25
1487	048d	00000000		nop	; Automatically Added by addNops.pl
1488	048e	00000000		nop	; Automatically Added by addNops.pl
1489	048f	00000000		nop	; Automatically Added by addNops.pl
1490	0490	00000000		nop	; Automatically added by fix-stall-insns.pl
1491	0491	ac3a005c		sw	92(%GPR1), %GPR26
1492	0492	00000000		nop	; Automatically Added by addNops.pl
1493	0493	00000000		nop	; Automatically Added by addNops.pl
1494	0494	00000000		nop	; Automatically Added by addNops.pl
1495	0495	00000000		nop	; Automatically added by fix-stall-insns.pl
1496	0496	ac3b0060		sw	96(%GPR1), %GPR27
1497	0497	00000000		nop	; Automatically Added by addNops.pl
1498	0498	00000000		nop	; Automatically Added by addNops.pl
1499	0499	00000000		nop	; Automatically Added by addNops.pl
1500	049a	00000000		nop	; Automatically added by fix-stall-insns.pl
1501	049b	ac3c0064		sw	100(%GPR1), %GPR28
1502	049c	00000000		nop	; Automatically Added by addNops.pl
1503	049d	00000000		nop	; Automatically Added by addNops.pl
1504	049e	00000000		nop	; Automatically Added by addNops.pl
1505	049f	00000000		nop	; Automatically added by fix-stall-insns.pl
1506	04a0	ac3d0068		sw	104(%GPR1), %GPR29
1507	04a1	00000000		nop	; Automatically Added by addNops.pl
1508	04a2	00000000		nop	; Automatically Added by addNops.pl
1509	04a3	00000000		nop	; Automatically Added by addNops.pl
1510	04a4	00000000		nop	; Automatically added by fix-stall-insns.pl
1511	04a5	ac3e006c		sw	108(%GPR1), %GPR30
1512	04a6	00000000		nop	; Automatically Added by addNops.pl
1513	04a7	00000000		nop	; Automatically Added by addNops.pl
1514	04a8	00000000		nop	; Automatically Added by addNops.pl
1515	04a9	00000000		nop	; Automatically added by fix-stall-insns.pl
1516	04aa	ac3f0070		sw	112(%GPR1), %GPR31
1517	04ab	00000000		nop	; Automatically Added by addNops.pl
1518	04ac	00000000		nop	; Automatically Added by addNops.pl
1519	04ad	00000000		nop	; Automatically Added by addNops.pl
1520				; Automatically 4 NOPs removed by reduceNOPs.sh
1521	04ae	00000000		nop	; Automatically added by fix-stall-insns.pl
1522	04af	8c430000		lw	%GPR3,    0(%GPR2)
1523	04b0	00000000		nop	; Automatically Added by addNops.pl
1524	04b1	00000000		nop	; Automatically Added by addNops.pl
1525	04b2	00000000		nop	; Automatically Added by addNops.pl
1526	04b3	00000000		nop	; Automatically added by fix-stall-insns.pl
1527	04b4	8c440004		lw	%GPR4,    4(%GPR2)
1528	04b5	00000000		nop	; Automatically Added by addNops.pl
1529	04b6	00000000		nop	; Automatically Added by addNops.pl
1530	04b7	00000000		nop	; Automatically Added by addNops.pl
1531	04b8	00000000		nop	; Automatically added by fix-stall-insns.pl
1532	04b9	8c450008		lw	%GPR5,    8(%GPR2)
1533	04ba	00000000		nop	; Automatically Added by addNops.pl
1534	04bb	00000000		nop	; Automatically Added by addNops.pl
1535	04bc	00000000		nop	; Automatically Added by addNops.pl
1536	04bd	00000000		nop	; Automatically added by fix-stall-insns.pl
1537	04be	8c46000c		lw	%GPR6,   12(%GPR2)
1538	04bf	00000000		nop	; Automatically Added by addNops.pl
1539	04c0	00000000		nop	; Automatically Added by addNops.pl
1540	04c1	00000000		nop	; Automatically Added by addNops.pl
1541	04c2	00000000		nop	; Automatically added by fix-stall-insns.pl
1542	04c3	8c470010		lw	%GPR7,   16(%GPR2)
1543	04c4	00000000		nop	; Automatically Added by addNops.pl
1544	04c5	00000000		nop	; Automatically Added by addNops.pl
1545	04c6	00000000		nop	; Automatically Added by addNops.pl
1546	04c7	00000000		nop	; Automatically added by fix-stall-insns.pl
1547	04c8	8c480014		lw	%GPR8,   20(%GPR2)
1548	04c9	00000000		nop	; Automatically Added by addNops.pl
1549	04ca	00000000		nop	; Automatically Added by addNops.pl
1550	04cb	00000000		nop	; Automatically Added by addNops.pl
1551	04cc	00000000		nop	; Automatically added by fix-stall-insns.pl
1552	04cd	8c490018		lw	%GPR9,   24(%GPR2)
1553	04ce	00000000		nop	; Automatically Added by addNops.pl
1554	04cf	00000000		nop	; Automatically Added by addNops.pl
1555	04d0	00000000		nop	; Automatically Added by addNops.pl
1556	04d1	00000000		nop	; Automatically added by fix-stall-insns.pl
1557	04d2	8c4a001c		lw	%GPR10,  28(%GPR2)
1558	04d3	00000000		nop	; Automatically Added by addNops.pl
1559	04d4	00000000		nop	; Automatically Added by addNops.pl
1560	04d5	00000000		nop	; Automatically Added by addNops.pl
1561	04d6	00000000		nop	; Automatically added by fix-stall-insns.pl
1562	04d7	8c4b0020		lw	%GPR11,  32(%GPR2)
1563	04d8	00000000		nop	; Automatically Added by addNops.pl
1564	04d9	00000000		nop	; Automatically Added by addNops.pl
1565	04da	00000000		nop	; Automatically Added by addNops.pl
1566	04db	00000000		nop	; Automatically added by fix-stall-insns.pl
1567	04dc	8c4c0024		lw	%GPR12,  36(%GPR2)
1568	04dd	00000000		nop	; Automatically Added by addNops.pl
1569	04de	00000000		nop	; Automatically Added by addNops.pl
1570	04df	00000000		nop	; Automatically Added by addNops.pl
1571	04e0	00000000		nop	; Automatically added by fix-stall-insns.pl
1572	04e1	8c4d0028		lw	%GPR13,  40(%GPR2)
1573	04e2	00000000		nop	; Automatically Added by addNops.pl
1574	04e3	00000000		nop	; Automatically Added by addNops.pl
1575	04e4	00000000		nop	; Automatically Added by addNops.pl
1576	04e5	00000000		nop	; Automatically added by fix-stall-insns.pl
1577	04e6	8c4e002c		lw	%GPR14,  44(%GPR2)
1578	04e7	00000000		nop	; Automatically Added by addNops.pl
1579	04e8	00000000		nop	; Automatically Added by addNops.pl
1580	04e9	00000000		nop	; Automatically Added by addNops.pl
1581	04ea	00000000		nop	; Automatically added by fix-stall-insns.pl
1582	04eb	8c4f0030		lw	%GPR15,  48(%GPR2)
1583	04ec	00000000		nop	; Automatically Added by addNops.pl
1584	04ed	00000000		nop	; Automatically Added by addNops.pl
1585	04ee	00000000		nop	; Automatically Added by addNops.pl
1586	04ef	00000000		nop	; Automatically added by fix-stall-insns.pl
1587	04f0	8c500034		lw	%GPR16,  52(%GPR2)
1588	04f1	00000000		nop	; Automatically Added by addNops.pl
1589	04f2	00000000		nop	; Automatically Added by addNops.pl
1590	04f3	00000000		nop	; Automatically Added by addNops.pl
1591	04f4	00000000		nop	; Automatically added by fix-stall-insns.pl
1592	04f5	8c510038		lw	%GPR17,  56(%GPR2)
1593	04f6	00000000		nop	; Automatically Added by addNops.pl
1594	04f7	00000000		nop	; Automatically Added by addNops.pl
1595	04f8	00000000		nop	; Automatically Added by addNops.pl
1596	04f9	00000000		nop	; Automatically added by fix-stall-insns.pl
1597	04fa	8c52003c		lw	%GPR18,  60(%GPR2)
1598	04fb	00000000		nop	; Automatically Added by addNops.pl
1599	04fc	00000000		nop	; Automatically Added by addNops.pl
1600	04fd	00000000		nop	; Automatically Added by addNops.pl
1601	04fe	00000000		nop	; Automatically added by fix-stall-insns.pl
1602	04ff	8c530040		lw	%GPR19,  64(%GPR2)
1603	0500	00000000		nop	; Automatically Added by addNops.pl
1604	0501	00000000		nop	; Automatically Added by addNops.pl
1605	0502	00000000		nop	; Automatically Added by addNops.pl
1606	0503	00000000		nop	; Automatically added by fix-stall-insns.pl
1607	0504	8c540044		lw	%GPR20,  68(%GPR2)
1608	0505	00000000		nop	; Automatically Added by addNops.pl
1609	0506	00000000		nop	; Automatically Added by addNops.pl
1610	0507	00000000		nop	; Automatically Added by addNops.pl
1611	0508	00000000		nop	; Automatically added by fix-stall-insns.pl
1612	0509	8c550048		lw	%GPR21,  72(%GPR2)
1613	050a	00000000		nop	; Automatically Added by addNops.pl
1614	050b	00000000		nop	; Automatically Added by addNops.pl
1615	050c	00000000		nop	; Automatically Added by addNops.pl
1616	050d	00000000		nop	; Automatically added by fix-stall-insns.pl
1617	050e	8c56004c		lw	%GPR22,  76(%GPR2)
1618	050f	00000000		nop	; Automatically Added by addNops.pl
1619	0510	00000000		nop	; Automatically Added by addNops.pl
1620	0511	00000000		nop	; Automatically Added by addNops.pl
1621	0512	00000000		nop	; Automatically added by fix-stall-insns.pl
1622	0513	8c570050		lw	%GPR23,  80(%GPR2)
1623	0514	00000000		nop	; Automatically Added by addNops.pl
1624	0515	00000000		nop	; Automatically Added by addNops.pl
1625	0516	00000000		nop	; Automatically Added by addNops.pl
1626	0517	00000000		nop	; Automatically added by fix-stall-insns.pl
1627	0518	8c580054		lw	%GPR24,  84(%GPR2)
1628	0519	00000000		nop	; Automatically Added by addNops.pl
1629	051a	00000000		nop	; Automatically Added by addNops.pl
1630	051b	00000000		nop	; Automatically Added by addNops.pl
1631	051c	00000000		nop	; Automatically added by fix-stall-insns.pl
1632	051d	8c590058		lw	%GPR25,  88(%GPR2)
1633	051e	00000000		nop	; Automatically Added by addNops.pl
1634	051f	00000000		nop	; Automatically Added by addNops.pl
1635	0520	00000000		nop	; Automatically Added by addNops.pl
1636	0521	00000000		nop	; Automatically added by fix-stall-insns.pl
1637	0522	8c5a005c		lw	%GPR26,  92(%GPR2)
1638	0523	00000000		nop	; Automatically Added by addNops.pl
1639	0524	00000000		nop	; Automatically Added by addNops.pl
1640	0525	00000000		nop	; Automatically Added by addNops.pl
1641	0526	00000000		nop	; Automatically added by fix-stall-insns.pl
1642	0527	8c5b0060		lw	%GPR27,  96(%GPR2)
1643	0528	00000000		nop	; Automatically Added by addNops.pl
1644	0529	00000000		nop	; Automatically Added by addNops.pl
1645	052a	00000000		nop	; Automatically Added by addNops.pl
1646	052b	00000000		nop	; Automatically added by fix-stall-insns.pl
1647	052c	8c5c0064		lw	%GPR28, 100(%GPR2)
1648	052d	00000000		nop	; Automatically Added by addNops.pl
1649	052e	00000000		nop	; Automatically Added by addNops.pl
1650	052f	00000000		nop	; Automatically Added by addNops.pl
1651	0530	00000000		nop	; Automatically added by fix-stall-insns.pl
1652	0531	8c5d0068		lw	%GPR29, 104(%GPR2)
1653	0532	00000000		nop	; Automatically Added by addNops.pl
1654	0533	00000000		nop	; Automatically Added by addNops.pl
1655	0534	00000000		nop	; Automatically Added by addNops.pl
1656	0535	00000000		nop	; Automatically added by fix-stall-insns.pl
1657	0536	8c5e006c		lw	%GPR30, 108(%GPR2)
1658	0537	00000000		nop	; Automatically Added by addNops.pl
1659	0538	00000000		nop	; Automatically Added by addNops.pl
1660	0539	00000000		nop	; Automatically Added by addNops.pl
1661	053a	00000000		nop	; Automatically added by fix-stall-insns.pl
1662	053b	8c5f0070		lw	%GPR31, 112(%GPR2)
1663	053c	00000000		nop	; Automatically Added by addNops.pl
1664	053d	00000000		nop	; Automatically Added by addNops.pl
1665	053e	00000000		nop	; Automatically Added by addNops.pl
1666				; Automatically 9 NOPs removed by reduceNOPs.sh
1667			
1668	053f	00000000		nop	; Automatically Added by addNops.pl
1669	0540	00000000		nop	; Automatically Added by addNops.pl
1670	0541	00000000		nop	; Automatically Added by addNops.pl
1671				; Automatically 20 NOPs removed by reduceNOPs.sh
1672	0542	3c1c0000		lhi	%GPR28,$0	
1673	0543	00000000		nop	; Automatically Added by addNops.pl
1674	0544	00000000		nop	; Automatically Added by addNops.pl
1675	0545	00000000		nop	; Automatically Added by addNops.pl
1676				; Automatically 16 NOPs removed by reduceNOPs.sh
1677	0546	379c0000		ori	%GPR28,%GPR28,$0	
1678	0547	00000000		nop	; Automatically Added by addNops.pl
1679	0548	00000000		nop	; Automatically Added by addNops.pl
1680	0549	00000000		nop	; Automatically Added by addNops.pl
1681				; Automatically 16 NOPs removed by reduceNOPs.sh
1682	054a	08000004		j	L_larsix_23	
1683	054b	00000000		nop	; Automatically Added by addNops.pl
1684	054c	00000000		nop	; Automatically Added by addNops.pl
1685	054d	00000000		nop	; Automatically Added by addNops.pl
1686				; Automatically 16 NOPs removed by reduceNOPs.sh
1687			L_larsix_23:
1688	054e	00000000		nop	; Automatically Added by addNops.pl
1689	054f	00000000		nop	; Automatically Added by addNops.pl
1690	0550	00000000		nop	; Automatically Added by addNops.pl
1691				; Automatically 16 NOPs removed by reduceNOPs.sh
1692	0551	8fdf0004		lw	%GPR31,4(%GPR30)	
1693	0552	00000000		nop	; Automatically Added by addNops.pl
1694	0553	00000000		nop	; Automatically Added by addNops.pl
1695	0554	00000000		nop	; Automatically Added by addNops.pl
1696	0555	27dd0004		addui	%GPR29,%GPR30,$4	
1697	0556	00000000		nop	; Automatically Added by addNops.pl
1698	0557	00000000		nop	; Automatically Added by addNops.pl
1699	0558	00000000		nop	; Automatically Added by addNops.pl
1700	0559	8fde0000		lw	%GPR30,0(%GPR30)	
1701	055a	00000000		nop	; Automatically Added by addNops.pl
1702	055b	00000000		nop	; Automatically Added by addNops.pl
1703	055c	00000000		nop	; Automatically Added by addNops.pl
1704				; Automatically 8 NOPs removed by reduceNOPs.sh
1705	055d	00000000		nop
1706	055e	00000000		nop
1707	055f	03e00008		jr	%GPR31	
1708	0560	00000000		nop	; Automatically Added by addNops.pl
1709	0561	00000000		nop	; Automatically Added by addNops.pl
1710	0562	00000000		nop	; Automatically Added by addNops.pl
1711				; Automatically 16 NOPs removed by reduceNOPs.sh
1712			thread0:
1713			L_larsix_24:
1714	0563	00000000		nop	; Automatically Added by addNops.pl
1715	0564	00000000		nop	; Automatically Added by addNops.pl
1716	0565	00000000		nop	; Automatically Added by addNops.pl
1717				; Automatically 16 NOPs removed by reduceNOPs.sh
1718	0566	afbefffc		sw	-4(%GPR29),%GPR30	
1719	0567	00000000		nop	; Automatically Added by addNops.pl
1720	0568	00000000		nop	; Automatically Added by addNops.pl
1721	0569	00000000		nop	; Automatically Added by addNops.pl
1722	056a	00000000		nop	; Automatically added by fix-stall-insns.pl
1723	056b	afbf0000		sw	0(%GPR29),%GPR31	
1724	056c	00000000		nop	; Automatically Added by addNops.pl
1725	056d	00000000		nop	; Automatically Added by addNops.pl
1726	056e	00000000		nop	; Automatically Added by addNops.pl
1727	056f	2fbe0004		subui	%GPR30,%GPR29,$4	
1728	0570	00000000		nop	; Automatically Added by addNops.pl
1729	0571	00000000		nop	; Automatically Added by addNops.pl
1730	0572	00000000		nop	; Automatically Added by addNops.pl
1731				; Automatically 4 NOPs removed by reduceNOPs.sh
1732	0573	2bbd0018		subi	%GPR29,%GPR29,$24	
1733	0574	00000000		nop	; Automatically Added by addNops.pl
1734	0575	00000000		nop	; Automatically Added by addNops.pl
1735	0576	00000000		nop	; Automatically Added by addNops.pl
1736				; Automatically 44 NOPs removed by reduceNOPs.sh
1737	0577	2bbd0008		subi	%GPR29,%GPR29,$8	
1738	0578	00000000		nop	; Automatically Added by addNops.pl
1739	0579	00000000		nop	; Automatically Added by addNops.pl
1740	057a	00000000		nop	; Automatically Added by addNops.pl
1741				; Automatically 16 NOPs removed by reduceNOPs.sh
1742	057b	0c000284		jal	poll_display	
1743	057c	00000000		nop	; Automatically Added by addNops.pl
1744	057d	00000000		nop	; Automatically Added by addNops.pl
1745	057e	00000000		nop	; Automatically Added by addNops.pl
1746				; Automatically 16 NOPs removed by reduceNOPs.sh
1747	057f	23bd0008		addi	%GPR29,%GPR29,$8	
1748	0580	00000000		nop	; Automatically Added by addNops.pl
1749	0581	00000000		nop	; Automatically Added by addNops.pl
1750	0582	00000000		nop	; Automatically Added by addNops.pl
1751				; Automatically 24 NOPs removed by reduceNOPs.sh
1752	0583	afdcfff0		sw	-16(%GPR30),%GPR28	
1753	0584	00000000		nop	; Automatically Added by addNops.pl
1754	0585	00000000		nop	; Automatically Added by addNops.pl
1755	0586	00000000		nop	; Automatically Added by addNops.pl
1756				; Automatically 12 NOPs removed by reduceNOPs.sh
1757	0587	3c010040		lhi	%GPR1,$64	
1758	0588	00000000		nop	; Automatically Added by addNops.pl
1759	0589	00000000		nop	; Automatically Added by addNops.pl
1760	058a	00000000		nop	; Automatically Added by addNops.pl
1761				; Automatically 16 NOPs removed by reduceNOPs.sh
1762	058b	34211640		ori	%GPR1,%GPR1,$4200000	
1763	058c	00000000		nop	; Automatically Added by addNops.pl
1764	058d	00000000		nop	; Automatically Added by addNops.pl
1765	058e	00000000		nop	; Automatically Added by addNops.pl
1766				; Automatically 16 NOPs removed by reduceNOPs.sh
1767	058f	2bbd0008		subi	%GPR29,%GPR29,$8	
1768	0590	00000000		nop	; Automatically Added by addNops.pl
1769	0591	00000000		nop	; Automatically Added by addNops.pl
1770	0592	00000000		nop	; Automatically Added by addNops.pl
1771				; Automatically 16 NOPs removed by reduceNOPs.sh
1772	0593	0c001479		jal	wait	
1773	0594	00000000		nop	; Automatically Added by addNops.pl
1774	0595	00000000		nop	; Automatically Added by addNops.pl
1775	0596	00000000		nop	; Automatically Added by addNops.pl
1776				; Automatically 16 NOPs removed by reduceNOPs.sh
1777	0597	23bd0008		addi	%GPR29,%GPR29,$8	
1778	0598	00000000		nop	; Automatically Added by addNops.pl
1779	0599	00000000		nop	; Automatically Added by addNops.pl
1780	059a	00000000		nop	; Automatically Added by addNops.pl
1781				; Automatically 16 NOPs removed by reduceNOPs.sh
1782	059b	8fc1fff0		lw	%GPR1,-16(%GPR30)	
1783	059c	00000000		nop	; Automatically Added by addNops.pl
1784	059d	00000000		nop	; Automatically Added by addNops.pl
1785	059e	00000000		nop	; Automatically Added by addNops.pl
1786	059f	2bc2000c		subi	%GPR2,%GPR30,$12	
1787	05a0	00000000		nop	; Automatically Added by addNops.pl
1788	05a1	00000000		nop	; Automatically Added by addNops.pl
1789	05a2	00000000		nop	; Automatically Added by addNops.pl
1790				; Automatically 16 NOPs removed by reduceNOPs.sh
1791	05a3	2bbd0008		subi	%GPR29,%GPR29,$8	
1792	05a4	00000000		nop	; Automatically Added by addNops.pl
1793	05a5	00000000		nop	; Automatically Added by addNops.pl
1794	05a6	00000000		nop	; Automatically Added by addNops.pl
1795				; Automatically 16 NOPs removed by reduceNOPs.sh
1796	05a7	0ffffa79		jal	intToStr	
1797	05a8	00000000		nop	; Automatically Added by addNops.pl
1798	05a9	00000000		nop	; Automatically Added by addNops.pl
1799	05aa	00000000		nop	; Automatically Added by addNops.pl
1800				; Automatically 16 NOPs removed by reduceNOPs.sh
1801	05ab	23bd0008		addi	%GPR29,%GPR29,$8	
1802	05ac	00000000		nop	; Automatically Added by addNops.pl
1803	05ad	00000000		nop	; Automatically Added by addNops.pl
1804	05ae	00000000		nop	; Automatically Added by addNops.pl
1805				; Automatically 16 NOPs removed by reduceNOPs.sh
1806	05af	2bc1000c		subi	%GPR1,%GPR30,$12	
1807	05b0	00000000		nop	; Automatically Added by addNops.pl
1808	05b1	00000000		nop	; Automatically Added by addNops.pl
1809	05b2	00000000		nop	; Automatically Added by addNops.pl
1810				; Automatically 16 NOPs removed by reduceNOPs.sh
1811	05b3	2bbd0008		subi	%GPR29,%GPR29,$8	
1812	05b4	00000000		nop	; Automatically Added by addNops.pl
1813	05b5	00000000		nop	; Automatically Added by addNops.pl
1814	05b6	00000000		nop	; Automatically Added by addNops.pl
1815				; Automatically 16 NOPs removed by reduceNOPs.sh
1816	05b7	0c001b82		jal	t_print	
1817	05b8	00000000		nop	; Automatically Added by addNops.pl
1818	05b9	00000000		nop	; Automatically Added by addNops.pl
1819	05ba	00000000		nop	; Automatically Added by addNops.pl
1820				; Automatically 16 NOPs removed by reduceNOPs.sh
1821	05bb	23bd0008		addi	%GPR29,%GPR29,$8	
1822	05bc	00000000		nop	; Automatically Added by addNops.pl
1823	05bd	00000000		nop	; Automatically Added by addNops.pl
1824	05be	00000000		nop	; Automatically Added by addNops.pl
1825				; Automatically 28 NOPs removed by reduceNOPs.sh
1826			L_larsix_25:
1827	05bf	00000000		nop	; Automatically Added by addNops.pl
1828	05c0	00000000		nop	; Automatically Added by addNops.pl
1829	05c1	00000000		nop	; Automatically Added by addNops.pl
1830				; Automatically 16 NOPs removed by reduceNOPs.sh
1831	05c2	2bbd0008		subi	%GPR29,%GPR29,$8	
1832	05c3	00000000		nop	; Automatically Added by addNops.pl
1833	05c4	00000000		nop	; Automatically Added by addNops.pl
1834	05c5	00000000		nop	; Automatically Added by addNops.pl
1835				; Automatically 16 NOPs removed by reduceNOPs.sh
1836	05c6	0ffffd97		jal	switchThread	
1837	05c7	00000000		nop	; Automatically Added by addNops.pl
1838	05c8	00000000		nop	; Automatically Added by addNops.pl
1839	05c9	00000000		nop	; Automatically Added by addNops.pl
1840				; Automatically 16 NOPs removed by reduceNOPs.sh
1841	05ca	23bd0008		addi	%GPR29,%GPR29,$8	
1842	05cb	00000000		nop	; Automatically Added by addNops.pl
1843	05cc	00000000		nop	; Automatically Added by addNops.pl
1844	05cd	00000000		nop	; Automatically Added by addNops.pl
1845				; Automatically 16 NOPs removed by reduceNOPs.sh
1846	05ce	0bfffff1		j	L_larsix_25	
1847	05cf	00000000		nop	; Automatically Added by addNops.pl
1848	05d0	00000000		nop	; Automatically Added by addNops.pl
1849	05d1	00000000		nop	; Automatically Added by addNops.pl
1850				; Automatically 12 NOPs removed by reduceNOPs.sh
1851			L_larsix_26:
1852	05d2	00000000		nop	; Automatically Added by addNops.pl
1853	05d3	00000000		nop	; Automatically Added by addNops.pl
1854	05d4	00000000		nop	; Automatically Added by addNops.pl
1855				; Automatically 16 NOPs removed by reduceNOPs.sh
1856	05d5	8fdf0004		lw	%GPR31,4(%GPR30)	
1857	05d6	00000000		nop	; Automatically Added by addNops.pl
1858	05d7	00000000		nop	; Automatically Added by addNops.pl
1859	05d8	00000000		nop	; Automatically Added by addNops.pl
1860	05d9	27dd0004		addui	%GPR29,%GPR30,$4	
1861	05da	00000000		nop	; Automatically Added by addNops.pl
1862	05db	00000000		nop	; Automatically Added by addNops.pl
1863	05dc	00000000		nop	; Automatically Added by addNops.pl
1864	05dd	8fde0000		lw	%GPR30,0(%GPR30)	
1865	05de	00000000		nop	; Automatically Added by addNops.pl
1866	05df	00000000		nop	; Automatically Added by addNops.pl
1867	05e0	00000000		nop	; Automatically Added by addNops.pl
1868				; Automatically 8 NOPs removed by reduceNOPs.sh
1869	05e1	00000000		nop
1870	05e2	00000000		nop
1871	05e3	03e00008		jr	%GPR31	
1872	05e4	00000000		nop	; Automatically Added by addNops.pl
1873	05e5	00000000		nop	; Automatically Added by addNops.pl
1874	05e6	00000000		nop	; Automatically Added by addNops.pl
1875				; Automatically 16 NOPs removed by reduceNOPs.sh
1876			thread1:
1877			L_larsix_27:
1878	05e7	00000000		nop	; Automatically Added by addNops.pl
1879	05e8	00000000		nop	; Automatically Added by addNops.pl
1880	05e9	00000000		nop	; Automatically Added by addNops.pl
1881				; Automatically 16 NOPs removed by reduceNOPs.sh
1882	05ea	afbefffc		sw	-4(%GPR29),%GPR30	
1883	05eb	00000000		nop	; Automatically Added by addNops.pl
1884	05ec	00000000		nop	; Automatically Added by addNops.pl
1885	05ed	00000000		nop	; Automatically Added by addNops.pl
1886	05ee	00000000		nop	; Automatically added by fix-stall-insns.pl
1887	05ef	afbf0000		sw	0(%GPR29),%GPR31	
1888	05f0	00000000		nop	; Automatically Added by addNops.pl
1889	05f1	00000000		nop	; Automatically Added by addNops.pl
1890	05f2	00000000		nop	; Automatically Added by addNops.pl
1891	05f3	2fbe0004		subui	%GPR30,%GPR29,$4	
1892	05f4	00000000		nop	; Automatically Added by addNops.pl
1893	05f5	00000000		nop	; Automatically Added by addNops.pl
1894	05f6	00000000		nop	; Automatically Added by addNops.pl
1895				; Automatically 4 NOPs removed by reduceNOPs.sh
1896	05f7	2bbd0008		subi	%GPR29,%GPR29,$8	
1897	05f8	00000000		nop	; Automatically Added by addNops.pl
1898	05f9	00000000		nop	; Automatically Added by addNops.pl
1899	05fa	00000000		nop	; Automatically Added by addNops.pl
1900				; Automatically 44 NOPs removed by reduceNOPs.sh
1901	05fb	2bbd0008		subi	%GPR29,%GPR29,$8	
1902	05fc	00000000		nop	; Automatically Added by addNops.pl
1903	05fd	00000000		nop	; Automatically Added by addNops.pl
1904	05fe	00000000		nop	; Automatically Added by addNops.pl
1905				; Automatically 16 NOPs removed by reduceNOPs.sh
1906	05ff	0c000968		jal	test_poll	
1907	0600	00000000		nop	; Automatically Added by addNops.pl
1908	0601	00000000		nop	; Automatically Added by addNops.pl
1909	0602	00000000		nop	; Automatically Added by addNops.pl
1910				; Automatically 16 NOPs removed by reduceNOPs.sh
1911	0603	23bd0008		addi	%GPR29,%GPR29,$8	
1912	0604	00000000		nop	; Automatically Added by addNops.pl
1913	0605	00000000		nop	; Automatically Added by addNops.pl
1914	0606	00000000		nop	; Automatically Added by addNops.pl
1915				; Automatically 28 NOPs removed by reduceNOPs.sh
1916			L_larsix_28:
1917	0607	00000000		nop	; Automatically Added by addNops.pl
1918	0608	00000000		nop	; Automatically Added by addNops.pl
1919	0609	00000000		nop	; Automatically Added by addNops.pl
1920				; Automatically 16 NOPs removed by reduceNOPs.sh
1921	060a	8fdf0004		lw	%GPR31,4(%GPR30)	
1922	060b	00000000		nop	; Automatically Added by addNops.pl
1923	060c	00000000		nop	; Automatically Added by addNops.pl
1924	060d	00000000		nop	; Automatically Added by addNops.pl
1925	060e	27dd0004		addui	%GPR29,%GPR30,$4	
1926	060f	00000000		nop	; Automatically Added by addNops.pl
1927	0610	00000000		nop	; Automatically Added by addNops.pl
1928	0611	00000000		nop	; Automatically Added by addNops.pl
1929	0612	8fde0000		lw	%GPR30,0(%GPR30)	
1930	0613	00000000		nop	; Automatically Added by addNops.pl
1931	0614	00000000		nop	; Automatically Added by addNops.pl
1932	0615	00000000		nop	; Automatically Added by addNops.pl
1933				; Automatically 8 NOPs removed by reduceNOPs.sh
1934	0616	00000000		nop
1935	0617	00000000		nop
1936	0618	03e00008		jr	%GPR31	
1937	0619	00000000		nop	; Automatically Added by addNops.pl
1938	061a	00000000		nop	; Automatically Added by addNops.pl
1939	061b	00000000		nop	; Automatically Added by addNops.pl
1940				; Automatically 16 NOPs removed by reduceNOPs.sh
1941			thread2:
1942			L_larsix_29:
1943	061c	00000000		nop	; Automatically Added by addNops.pl
1944	061d	00000000		nop	; Automatically Added by addNops.pl
1945	061e	00000000		nop	; Automatically Added by addNops.pl
1946				; Automatically 16 NOPs removed by reduceNOPs.sh
1947	061f	afbefffc		sw	-4(%GPR29),%GPR30	
1948	0620	00000000		nop	; Automatically Added by addNops.pl
1949	0621	00000000		nop	; Automatically Added by addNops.pl
1950	0622	00000000		nop	; Automatically Added by addNops.pl
1951	0623	00000000		nop	; Automatically added by fix-stall-insns.pl
1952	0624	afbf0000		sw	0(%GPR29),%GPR31	
1953	0625	00000000		nop	; Automatically Added by addNops.pl
1954	0626	00000000		nop	; Automatically Added by addNops.pl
1955	0627	00000000		nop	; Automatically Added by addNops.pl
1956	0628	2fbe0004		subui	%GPR30,%GPR29,$4	
1957	0629	00000000		nop	; Automatically Added by addNops.pl
1958	062a	00000000		nop	; Automatically Added by addNops.pl
1959	062b	00000000		nop	; Automatically Added by addNops.pl
1960				; Automatically 4 NOPs removed by reduceNOPs.sh
1961	062c	2bbd0008		subi	%GPR29,%GPR29,$8	
1962	062d	00000000		nop	; Automatically Added by addNops.pl
1963	062e	00000000		nop	; Automatically Added by addNops.pl
1964	062f	00000000		nop	; Automatically Added by addNops.pl
1965				; Automatically 44 NOPs removed by reduceNOPs.sh
1966	0630	2bbd0008		subi	%GPR29,%GPR29,$8	
1967	0631	00000000		nop	; Automatically Added by addNops.pl
1968	0632	00000000		nop	; Automatically Added by addNops.pl
1969	0633	00000000		nop	; Automatically Added by addNops.pl
1970				; Automatically 16 NOPs removed by reduceNOPs.sh
1971	0634	0c0023dc		jal	soundtest	
1972	0635	00000000		nop	; Automatically Added by addNops.pl
1973	0636	00000000		nop	; Automatically Added by addNops.pl
1974	0637	00000000		nop	; Automatically Added by addNops.pl
1975				; Automatically 16 NOPs removed by reduceNOPs.sh
1976	0638	23bd0008		addi	%GPR29,%GPR29,$8	
1977	0639	00000000		nop	; Automatically Added by addNops.pl
1978	063a	00000000		nop	; Automatically Added by addNops.pl
1979	063b	00000000		nop	; Automatically Added by addNops.pl
1980				; Automatically 28 NOPs removed by reduceNOPs.sh
1981			L_larsix_30:
1982	063c	00000000		nop	; Automatically Added by addNops.pl
1983	063d	00000000		nop	; Automatically Added by addNops.pl
1984	063e	00000000		nop	; Automatically Added by addNops.pl
1985				; Automatically 16 NOPs removed by reduceNOPs.sh
1986	063f	8fdf0004		lw	%GPR31,4(%GPR30)	
1987	0640	00000000		nop	; Automatically Added by addNops.pl
1988	0641	00000000		nop	; Automatically Added by addNops.pl
1989	0642	00000000		nop	; Automatically Added by addNops.pl
1990	0643	27dd0004		addui	%GPR29,%GPR30,$4	
1991	0644	00000000		nop	; Automatically Added by addNops.pl
1992	0645	00000000		nop	; Automatically Added by addNops.pl
1993	0646	00000000		nop	; Automatically Added by addNops.pl
1994	0647	8fde0000		lw	%GPR30,0(%GPR30)	
1995	0648	00000000		nop	; Automatically Added by addNops.pl
1996	0649	00000000		nop	; Automatically Added by addNops.pl
1997	064a	00000000		nop	; Automatically Added by addNops.pl
1998				; Automatically 8 NOPs removed by reduceNOPs.sh
1999	064b	00000000		nop
2000	064c	00000000		nop
2001	064d	03e00008		jr	%GPR31	
2002	064e	00000000		nop	; Automatically Added by addNops.pl
2003	064f	00000000		nop	; Automatically Added by addNops.pl
2004	0650	00000000		nop	; Automatically Added by addNops.pl
2005				; Automatically 16 NOPs removed by reduceNOPs.sh
2006			thread3:
2007			L_larsix_31:
2008	0651	00000000		nop	; Automatically Added by addNops.pl
2009	0652	00000000		nop	; Automatically Added by addNops.pl
2010	0653	00000000		nop	; Automatically Added by addNops.pl
2011				; Automatically 16 NOPs removed by reduceNOPs.sh
2012	0654	afbefffc		sw	-4(%GPR29),%GPR30	
2013	0655	00000000		nop	; Automatically Added by addNops.pl
2014	0656	00000000		nop	; Automatically Added by addNops.pl
2015	0657	00000000		nop	; Automatically Added by addNops.pl
2016	0658	00000000		nop	; Automatically added by fix-stall-insns.pl
2017	0659	afbf0000		sw	0(%GPR29),%GPR31	
2018	065a	00000000		nop	; Automatically Added by addNops.pl
2019	065b	00000000		nop	; Automatically Added by addNops.pl
2020	065c	00000000		nop	; Automatically Added by addNops.pl
2021	065d	2fbe0004		subui	%GPR30,%GPR29,$4	
2022	065e	00000000		nop	; Automatically Added by addNops.pl
2023	065f	00000000		nop	; Automatically Added by addNops.pl
2024	0660	00000000		nop	; Automatically Added by addNops.pl
2025				; Automatically 4 NOPs removed by reduceNOPs.sh
2026	0661	2bbd0008		subi	%GPR29,%GPR29,$8	
2027	0662	00000000		nop	; Automatically Added by addNops.pl
2028	0663	00000000		nop	; Automatically Added by addNops.pl
2029	0664	00000000		nop	; Automatically Added by addNops.pl
2030				; Automatically 40 NOPs removed by reduceNOPs.sh
2031			L_larsix_32:
2032	0665	00000000		nop	; Automatically Added by addNops.pl
2033	0666	00000000		nop	; Automatically Added by addNops.pl
2034	0667	00000000		nop	; Automatically Added by addNops.pl
2035				; Automatically 16 NOPs removed by reduceNOPs.sh
2036	0668	2bbd0008		subi	%GPR29,%GPR29,$8	
2037	0669	00000000		nop	; Automatically Added by addNops.pl
2038	066a	00000000		nop	; Automatically Added by addNops.pl
2039	066b	00000000		nop	; Automatically Added by addNops.pl
2040				; Automatically 16 NOPs removed by reduceNOPs.sh
2041	066c	0ffffcf1		jal	switchThread	
2042	066d	00000000		nop	; Automatically Added by addNops.pl
2043	066e	00000000		nop	; Automatically Added by addNops.pl
2044	066f	00000000		nop	; Automatically Added by addNops.pl
2045				; Automatically 16 NOPs removed by reduceNOPs.sh
2046	0670	23bd0008		addi	%GPR29,%GPR29,$8	
2047	0671	00000000		nop	; Automatically Added by addNops.pl
2048	0672	00000000		nop	; Automatically Added by addNops.pl
2049	0673	00000000		nop	; Automatically Added by addNops.pl
2050				; Automatically 16 NOPs removed by reduceNOPs.sh
2051	0674	0bfffff1		j	L_larsix_32	
2052	0675	00000000		nop	; Automatically Added by addNops.pl
2053	0676	00000000		nop	; Automatically Added by addNops.pl
2054	0677	00000000		nop	; Automatically Added by addNops.pl
2055				; Automatically 12 NOPs removed by reduceNOPs.sh
2056			L_larsix_33:
2057	0678	00000000		nop	; Automatically Added by addNops.pl
2058	0679	00000000		nop	; Automatically Added by addNops.pl
2059	067a	00000000		nop	; Automatically Added by addNops.pl
2060				; Automatically 16 NOPs removed by reduceNOPs.sh
2061	067b	8fdf0004		lw	%GPR31,4(%GPR30)	
2062	067c	00000000		nop	; Automatically Added by addNops.pl
2063	067d	00000000		nop	; Automatically Added by addNops.pl
2064	067e	00000000		nop	; Automatically Added by addNops.pl
2065	067f	27dd0004		addui	%GPR29,%GPR30,$4	
2066	0680	00000000		nop	; Automatically Added by addNops.pl
2067	0681	00000000		nop	; Automatically Added by addNops.pl
2068	0682	00000000		nop	; Automatically Added by addNops.pl
2069	0683	8fde0000		lw	%GPR30,0(%GPR30)	
2070	0684	00000000		nop	; Automatically Added by addNops.pl
2071	0685	00000000		nop	; Automatically Added by addNops.pl
2072	0686	00000000		nop	; Automatically Added by addNops.pl
2073				; Automatically 8 NOPs removed by reduceNOPs.sh
2074	0687	00000000		nop
2075	0688	00000000		nop
2076	0689	03e00008		jr	%GPR31	
2077	068a	00000000		nop	; Automatically Added by addNops.pl
2078	068b	00000000		nop	; Automatically Added by addNops.pl
2079	068c	00000000		nop	; Automatically Added by addNops.pl
2080				; Automatically 16 NOPs removed by reduceNOPs.sh
2081			initialize:
2082			L_larsix_34:
2083	068d	00000000		nop	; Automatically Added by addNops.pl
2084	068e	00000000		nop	; Automatically Added by addNops.pl
2085	068f	00000000		nop	; Automatically Added by addNops.pl
2086				; Automatically 16 NOPs removed by reduceNOPs.sh
2087	0690	afbefffc		sw	-4(%GPR29),%GPR30	
2088	0691	00000000		nop	; Automatically Added by addNops.pl
2089	0692	00000000		nop	; Automatically Added by addNops.pl
2090	0693	00000000		nop	; Automatically Added by addNops.pl
2091	0694	00000000		nop	; Automatically added by fix-stall-insns.pl
2092	0695	afbf0000		sw	0(%GPR29),%GPR31	
2093	0696	00000000		nop	; Automatically Added by addNops.pl
2094	0697	00000000		nop	; Automatically Added by addNops.pl
2095	0698	00000000		nop	; Automatically Added by addNops.pl
2096	0699	2fbe0004		subui	%GPR30,%GPR29,$4	
2097	069a	00000000		nop	; Automatically Added by addNops.pl
2098	069b	00000000		nop	; Automatically Added by addNops.pl
2099	069c	00000000		nop	; Automatically Added by addNops.pl
2100				; Automatically 4 NOPs removed by reduceNOPs.sh
2101	069d	2bbd0014		subi	%GPR29,%GPR29,$20	
2102	069e	00000000		nop	; Automatically Added by addNops.pl
2103	069f	00000000		nop	; Automatically Added by addNops.pl
2104	06a0	00000000		nop	; Automatically Added by addNops.pl
2105				; Automatically 48 NOPs removed by reduceNOPs.sh
2106	06a1	3c010000		lhi	%GPR1,$0	
2107	06a2	00000000		nop	; Automatically Added by addNops.pl
2108	06a3	00000000		nop	; Automatically Added by addNops.pl
2109	06a4	00000000		nop	; Automatically Added by addNops.pl
2110				; Automatically 16 NOPs removed by reduceNOPs.sh
2111	06a5	34210000		ori	%GPR1,%GPR1,$0	
2112	06a6	00000000		nop	; Automatically Added by addNops.pl
2113	06a7	00000000		nop	; Automatically Added by addNops.pl
2114	06a8	00000000		nop	; Automatically Added by addNops.pl
2115				; Automatically 16 NOPs removed by reduceNOPs.sh
2116	06a9	afc1fffc		sw	-4(%GPR30),%GPR1	
2117	06aa	00000000		nop	; Automatically Added by addNops.pl
2118	06ab	00000000		nop	; Automatically Added by addNops.pl
2119	06ac	00000000		nop	; Automatically Added by addNops.pl
2120				; Automatically 12 NOPs removed by reduceNOPs.sh
2121			L_larsix_35:
2122	06ad	00000000		nop	; Automatically Added by addNops.pl
2123	06ae	00000000		nop	; Automatically Added by addNops.pl
2124	06af	00000000		nop	; Automatically Added by addNops.pl
2125	06b0	8fc5fffc		lw	%GPR5,-4(%GPR30)	
2126	06b1	00000000		nop	; Automatically Added by addNops.pl
2127	06b2	00000000		nop	; Automatically Added by addNops.pl
2128	06b3	00000000		nop	; Automatically Added by addNops.pl
2129				; Automatically 8 NOPs removed by reduceNOPs.sh
2130	06b4	3c010000		lhi	%GPR1,$( _threadStackStart	/0x10000)
2131	06b5	00000000		nop
2132	06b6	00000000		nop
2133	06b7	00000000		nop
2134	06b8	34210000		ori	%GPR1,%GPR1,$( _threadStackStart	%0x10000)
2135	06b9	00000000		nop	; Automatically Added by addNops.pl
2136	06ba	00000000		nop	; Automatically Added by addNops.pl
2137	06bb	00000000		nop	; Automatically Added by addNops.pl
2138	06bc	3c030000		lhi	%GPR3,$0	
2139	06bd	00000000		nop	; Automatically Added by addNops.pl
2140	06be	00000000		nop	; Automatically Added by addNops.pl
2141	06bf	00000000		nop	; Automatically Added by addNops.pl
2142				; Automatically 16 NOPs removed by reduceNOPs.sh
2143	06c0	34630004		ori	%GPR3,%GPR3,$4	
2144	06c1	00000000		nop	; Automatically Added by addNops.pl
2145	06c2	00000000		nop	; Automatically Added by addNops.pl
2146	06c3	00000000		nop	; Automatically Added by addNops.pl
2147	06c4	3c020000		lhi	%GPR2,$( _threadRegisters	/0x10000)
2148	06c5	00000000		nop
2149	06c6	00000000		nop
2150	06c7	00000000		nop
2151	06c8	3442005c		ori	%GPR2,%GPR2,$( _threadRegisters	%0x10000)
2152	06c9	00000000		nop	; Automatically Added by addNops.pl
2153	06ca	00000000		nop	; Automatically Added by addNops.pl
2154	06cb	00000000		nop	; Automatically Added by addNops.pl
2155	06cc	3c040000		lhi	%GPR4,$0	
2156	06cd	00000000		nop	; Automatically Added by addNops.pl
2157	06ce	00000000		nop	; Automatically Added by addNops.pl
2158	06cf	00000000		nop	; Automatically Added by addNops.pl
2159				; Automatically 16 NOPs removed by reduceNOPs.sh
2160	06d0	34840074		ori	%GPR4,%GPR4,$116	
2161	06d1	00000000		nop	; Automatically Added by addNops.pl
2162	06d2	00000000		nop	; Automatically Added by addNops.pl
2163	06d3	00000000		nop	; Automatically Added by addNops.pl
2164				; Automatically 8 NOPs removed by reduceNOPs.sh
2165	06d4	00a31818		mult	%GPR3,%GPR5,%GPR3	
2166	06d5	00000000		nop	; Automatically Added by addNops.pl
2167	06d6	00000000		nop	; Automatically Added by addNops.pl
2168	06d7	00000000		nop	; Automatically Added by addNops.pl
2169				; Automatically 8 NOPs removed by reduceNOPs.sh
2170	06d8	00a42018		mult	%GPR4,%GPR5,%GPR4	
2171	06d9	00000000		nop	; Automatically Added by addNops.pl
2172	06da	00000000		nop	; Automatically Added by addNops.pl
2173	06db	00000000		nop	; Automatically Added by addNops.pl
2174				; Automatically 8 NOPs removed by reduceNOPs.sh
2175	06dc	00230820		add	%GPR1,%GPR1,%GPR3	
2176	06dd	00000000		nop	; Automatically Added by addNops.pl
2177	06de	00000000		nop	; Automatically Added by addNops.pl
2178	06df	00000000		nop	; Automatically Added by addNops.pl
2179				; Automatically 8 NOPs removed by reduceNOPs.sh
2180	06e0	00441020		add	%GPR2,%GPR2,%GPR4	
2181	06e1	00000000		nop	; Automatically Added by addNops.pl
2182	06e2	00000000		nop	; Automatically Added by addNops.pl
2183	06e3	00000000		nop	; Automatically Added by addNops.pl
2184	06e4	3c050000		lhi	%GPR5,$0	
2185	06e5	00000000		nop	; Automatically Added by addNops.pl
2186	06e6	00000000		nop	; Automatically Added by addNops.pl
2187	06e7	00000000		nop	; Automatically Added by addNops.pl
2188				; Automatically 16 NOPs removed by reduceNOPs.sh
2189	06e8	34a5006c		ori	%GPR5,%GPR5,$108	
2190	06e9	00000000		nop	; Automatically Added by addNops.pl
2191	06ea	00000000		nop	; Automatically Added by addNops.pl
2192	06eb	00000000		nop	; Automatically Added by addNops.pl
2193	06ec	8c210000		lw	%GPR1,0(%GPR1)	
2194	06ed	00000000		nop	; Automatically Added by addNops.pl
2195	06ee	00000000		nop	; Automatically Added by addNops.pl
2196	06ef	00000000		nop	; Automatically Added by addNops.pl
2197				; Automatically 16 NOPs removed by reduceNOPs.sh
2198	06f0	00000000		nop	; Automatically added by fix-stall-insns.pl
2199	06f1	afc1fff8		sw	-8(%GPR30),%GPR1	
2200	06f2	00000000		nop	; Automatically Added by addNops.pl
2201	06f3	00000000		nop	; Automatically Added by addNops.pl
2202	06f4	00000000		nop	; Automatically Added by addNops.pl
2203	06f5	00000000		nop	; Automatically added by fix-stall-insns.pl
2204	06f6	afc1fff4		sw	-12(%GPR30),%GPR1	
2205	06f7	00000000		nop	; Automatically Added by addNops.pl
2206	06f8	00000000		nop	; Automatically Added by addNops.pl
2207	06f9	00000000		nop	; Automatically Added by addNops.pl
2208	06fa	00450820		add	%GPR1,%GPR2,%GPR5	
2209	06fb	00000000		nop	; Automatically Added by addNops.pl
2210	06fc	00000000		nop	; Automatically Added by addNops.pl
2211	06fd	00000000		nop	; Automatically Added by addNops.pl
2212				; Automatically 8 NOPs removed by reduceNOPs.sh
2213	06fe	8fc2fff8		lw	%GPR2,-8(%GPR30)	
2214	06ff	00000000		nop	; Automatically Added by addNops.pl
2215	0700	00000000		nop	; Automatically Added by addNops.pl
2216	0701	00000000		nop	; Automatically Added by addNops.pl
2217				; Automatically 16 NOPs removed by reduceNOPs.sh
2218	0702	28420004		subi	%GPR2,%GPR2,$4	
2219	0703	00000000		nop	; Automatically Added by addNops.pl
2220	0704	00000000		nop	; Automatically Added by addNops.pl
2221	0705	00000000		nop	; Automatically Added by addNops.pl
2222				; Automatically 16 NOPs removed by reduceNOPs.sh
2223	0706	ac220000		sw	0(%GPR1),%GPR2	
2224	0707	00000000		nop	; Automatically Added by addNops.pl
2225	0708	00000000		nop	; Automatically Added by addNops.pl
2226	0709	00000000		nop	; Automatically Added by addNops.pl
2227	070a	00000000		nop	; Automatically added by fix-stall-insns.pl
2228	070b	8fc1fffc		lw	%GPR1,-4(%GPR30)	
2229	070c	00000000		nop	; Automatically Added by addNops.pl
2230	070d	00000000		nop	; Automatically Added by addNops.pl
2231	070e	00000000		nop	; Automatically Added by addNops.pl
2232				; Automatically 16 NOPs removed by reduceNOPs.sh
2233	070f	2bbd0008		subi	%GPR29,%GPR29,$8	
2234	0710	00000000		nop	; Automatically Added by addNops.pl
2235	0711	00000000		nop	; Automatically Added by addNops.pl
2236	0712	00000000		nop	; Automatically Added by addNops.pl
2237				; Automatically 16 NOPs removed by reduceNOPs.sh
2238	0713	0ffffaf4		jal	determineStartAddress	
2239	0714	00000000		nop	; Automatically Added by addNops.pl
2240	0715	00000000		nop	; Automatically Added by addNops.pl
2241	0716	00000000		nop	; Automatically Added by addNops.pl
2242				; Automatically 16 NOPs removed by reduceNOPs.sh
2243	0717	23bd0008		addi	%GPR29,%GPR29,$8	
2244	0718	00000000		nop	; Automatically Added by addNops.pl
2245	0719	00000000		nop	; Automatically Added by addNops.pl
2246	071a	00000000		nop	; Automatically Added by addNops.pl
2247				; Automatically 16 NOPs removed by reduceNOPs.sh
2248	071b	8fc1fffc		lw	%GPR1,-4(%GPR30)	
2249	071c	00000000		nop	; Automatically Added by addNops.pl
2250	071d	00000000		nop	; Automatically Added by addNops.pl
2251	071e	00000000		nop	; Automatically Added by addNops.pl
2252	071f	03801020		add	%GPR2,%GPR28,%GPR0	
2253	0720	00000000		nop	; Automatically Added by addNops.pl
2254	0721	00000000		nop	; Automatically Added by addNops.pl
2255	0722	00000000		nop	; Automatically Added by addNops.pl
2256				; Automatically 12 NOPs removed by reduceNOPs.sh
2257	0723	20210001		addi	%GPR1,%GPR1,$1	
2258	0724	00000000		nop	; Automatically Added by addNops.pl
2259	0725	00000000		nop	; Automatically Added by addNops.pl
2260	0726	00000000		nop	; Automatically Added by addNops.pl
2261				; Automatically 16 NOPs removed by reduceNOPs.sh
2262	0727	afc1fffc		sw	-4(%GPR30),%GPR1	
2263	0728	00000000		nop	; Automatically Added by addNops.pl
2264	0729	00000000		nop	; Automatically Added by addNops.pl
2265	072a	00000000		nop	; Automatically Added by addNops.pl
2266	072b	00000000		nop	; Automatically added by fix-stall-insns.pl
2267	072c	8fc1fff4		lw	%GPR1,-12(%GPR30)	
2268	072d	00000000		nop	; Automatically Added by addNops.pl
2269	072e	00000000		nop	; Automatically Added by addNops.pl
2270	072f	00000000		nop	; Automatically Added by addNops.pl
2271				; Automatically 16 NOPs removed by reduceNOPs.sh
2272	0730	00201820		add	%GPR3,%GPR1,%GPR0	
2273	0731	00000000		nop	; Automatically Added by addNops.pl
2274	0732	00000000		nop	; Automatically Added by addNops.pl
2275	0733	00000000		nop	; Automatically Added by addNops.pl
2276	0734	ac220000		sw	0(%GPR1),%GPR2	
2277	0735	00000000		nop	; Automatically Added by addNops.pl
2278	0736	00000000		nop	; Automatically Added by addNops.pl
2279	0737	00000000		nop	; Automatically Added by addNops.pl
2280	0738	3c01ffff		lhi	%GPR1,$65535	
2281	0739	00000000		nop	; Automatically Added by addNops.pl
2282	073a	00000000		nop	; Automatically Added by addNops.pl
2283	073b	00000000		nop	; Automatically Added by addNops.pl
2284				; Automatically 16 NOPs removed by reduceNOPs.sh
2285	073c	3421fff0		ori	%GPR1,%GPR1,$-16	
2286	073d	00000000		nop	; Automatically Added by addNops.pl
2287	073e	00000000		nop	; Automatically Added by addNops.pl
2288	073f	00000000		nop	; Automatically Added by addNops.pl
2289	0740	3c020000		lhi	%GPR2,$0	
2290	0741	00000000		nop	; Automatically Added by addNops.pl
2291	0742	00000000		nop	; Automatically Added by addNops.pl
2292	0743	00000000		nop	; Automatically Added by addNops.pl
2293				; Automatically 16 NOPs removed by reduceNOPs.sh
2294	0744	34420004		ori	%GPR2,%GPR2,$4	
2295	0745	00000000		nop	; Automatically Added by addNops.pl
2296	0746	00000000		nop	; Automatically Added by addNops.pl
2297	0747	00000000		nop	; Automatically Added by addNops.pl
2298				; Automatically 12 NOPs removed by reduceNOPs.sh
2299	0748	00610820		add	%GPR1,%GPR3,%GPR1	
2300	0749	00000000		nop	; Automatically Added by addNops.pl
2301	074a	00000000		nop	; Automatically Added by addNops.pl
2302	074b	00000000		nop	; Automatically Added by addNops.pl
2303	074c	8fc3fff8		lw	%GPR3,-8(%GPR30)	
2304	074d	00000000		nop	; Automatically Added by addNops.pl
2305	074e	00000000		nop	; Automatically Added by addNops.pl
2306	074f	00000000		nop	; Automatically Added by addNops.pl
2307				; Automatically 16 NOPs removed by reduceNOPs.sh
2308	0750	00000000		nop	; Automatically added by fix-stall-insns.pl
2309	0751	ac230000		sw	0(%GPR1),%GPR3	
2310	0752	00000000		nop	; Automatically Added by addNops.pl
2311	0753	00000000		nop	; Automatically Added by addNops.pl
2312	0754	00000000		nop	; Automatically Added by addNops.pl
2313	0755	00000000		nop	; Automatically added by fix-stall-insns.pl
2314	0756	8fc1fffc		lw	%GPR1,-4(%GPR30)	
2315	0757	00000000		nop	; Automatically Added by addNops.pl
2316	0758	00000000		nop	; Automatically Added by addNops.pl
2317	0759	00000000		nop	; Automatically Added by addNops.pl
2318				; Automatically 16 NOPs removed by reduceNOPs.sh
2319	075a	0022d82a		slt	%GPR27,%GPR1,%GPR2	
2320	075b	00000000		nop	; Automatically Added by addNops.pl
2321	075c	00000000		nop	; Automatically Added by addNops.pl
2322	075d	00000000		nop	; Automatically Added by addNops.pl
2323	075e	1760ff4f		bnez	%GPR27,L_larsix_35	
2324	075f	00000000		nop	; Automatically Added by addNops.pl
2325	0760	00000000		nop	; Automatically Added by addNops.pl
2326	0761	00000000		nop	; Automatically Added by addNops.pl
2327				; Automatically 16 NOPs removed by reduceNOPs.sh
2328	0762	08000004		j	L_larsix_36	
2329	0763	00000000		nop	; Automatically Added by addNops.pl
2330	0764	00000000		nop	; Automatically Added by addNops.pl
2331	0765	00000000		nop	; Automatically Added by addNops.pl
2332				; Automatically 16 NOPs removed by reduceNOPs.sh
2333			L_larsix_36:
2334	0766	00000000		nop	; Automatically Added by addNops.pl
2335	0767	00000000		nop	; Automatically Added by addNops.pl
2336	0768	00000000		nop	; Automatically Added by addNops.pl
2337				; Automatically 16 NOPs removed by reduceNOPs.sh
2338	0769	3c1c0000		lhi	%GPR28,$0	
2339	076a	00000000		nop	; Automatically Added by addNops.pl
2340	076b	00000000		nop	; Automatically Added by addNops.pl
2341	076c	00000000		nop	; Automatically Added by addNops.pl
2342				; Automatically 16 NOPs removed by reduceNOPs.sh
2343	076d	379c0000		ori	%GPR28,%GPR28,$0	
2344	076e	00000000		nop	; Automatically Added by addNops.pl
2345	076f	00000000		nop	; Automatically Added by addNops.pl
2346	0770	00000000		nop	; Automatically Added by addNops.pl
2347				; Automatically 16 NOPs removed by reduceNOPs.sh
2348	0771	08000004		j	L_larsix_37	
2349	0772	00000000		nop	; Automatically Added by addNops.pl
2350	0773	00000000		nop	; Automatically Added by addNops.pl
2351	0774	00000000		nop	; Automatically Added by addNops.pl
2352				; Automatically 16 NOPs removed by reduceNOPs.sh
2353			L_larsix_37:
2354	0775	00000000		nop	; Automatically Added by addNops.pl
2355	0776	00000000		nop	; Automatically Added by addNops.pl
2356	0777	00000000		nop	; Automatically Added by addNops.pl
2357				; Automatically 16 NOPs removed by reduceNOPs.sh
2358	0778	8fdf0004		lw	%GPR31,4(%GPR30)	
2359	0779	00000000		nop	; Automatically Added by addNops.pl
2360	077a	00000000		nop	; Automatically Added by addNops.pl
2361	077b	00000000		nop	; Automatically Added by addNops.pl
2362	077c	27dd0004		addui	%GPR29,%GPR30,$4	
2363	077d	00000000		nop	; Automatically Added by addNops.pl
2364	077e	00000000		nop	; Automatically Added by addNops.pl
2365	077f	00000000		nop	; Automatically Added by addNops.pl
2366	0780	8fde0000		lw	%GPR30,0(%GPR30)	
2367	0781	00000000		nop	; Automatically Added by addNops.pl
2368	0782	00000000		nop	; Automatically Added by addNops.pl
2369	0783	00000000		nop	; Automatically Added by addNops.pl
2370				; Automatically 8 NOPs removed by reduceNOPs.sh
2371	0784	00000000		nop
2372	0785	00000000		nop
2373	0786	03e00008		jr	%GPR31	
2374	0787	00000000		nop	; Automatically Added by addNops.pl
2375	0788	00000000		nop	; Automatically Added by addNops.pl
2376	0789	00000000		nop	; Automatically Added by addNops.pl
2377				; Automatically 16 NOPs removed by reduceNOPs.sh
2378			main:
2379			L_larsix_38:
2380	078a	00000000		nop	; Automatically Added by addNops.pl
2381	078b	00000000		nop	; Automatically Added by addNops.pl
2382	078c	00000000		nop	; Automatically Added by addNops.pl
2383				; Automatically 16 NOPs removed by reduceNOPs.sh
2384	078d	afbefffc		sw	-4(%GPR29),%GPR30	
2385	078e	00000000		nop	; Automatically Added by addNops.pl
2386	078f	00000000		nop	; Automatically Added by addNops.pl
2387	0790	00000000		nop	; Automatically Added by addNops.pl
2388	0791	00000000		nop	; Automatically added by fix-stall-insns.pl
2389	0792	afbf0000		sw	0(%GPR29),%GPR31	
2390	0793	00000000		nop	; Automatically Added by addNops.pl
2391	0794	00000000		nop	; Automatically Added by addNops.pl
2392	0795	00000000		nop	; Automatically Added by addNops.pl
2393	0796	2fbe0004		subui	%GPR30,%GPR29,$4	
2394	0797	00000000		nop	; Automatically Added by addNops.pl
2395	0798	00000000		nop	; Automatically Added by addNops.pl
2396	0799	00000000		nop	; Automatically Added by addNops.pl
2397				; Automatically 4 NOPs removed by reduceNOPs.sh
2398	079a	2bbd0008		subi	%GPR29,%GPR29,$8	
2399	079b	00000000		nop	; Automatically Added by addNops.pl
2400	079c	00000000		nop	; Automatically Added by addNops.pl
2401	079d	00000000		nop	; Automatically Added by addNops.pl
2402				; Automatically 44 NOPs removed by reduceNOPs.sh
2403	079e	2bbd0008		subi	%GPR29,%GPR29,$8	
2404	079f	00000000		nop	; Automatically Added by addNops.pl
2405	07a0	00000000		nop	; Automatically Added by addNops.pl
2406	07a1	00000000		nop	; Automatically Added by addNops.pl
2407				; Automatically 16 NOPs removed by reduceNOPs.sh
2408	07a2	0ffffeeb		jal	initialize	
2409	07a3	00000000		nop	; Automatically Added by addNops.pl
2410	07a4	00000000		nop	; Automatically Added by addNops.pl
2411	07a5	00000000		nop	; Automatically Added by addNops.pl
2412				; Automatically 16 NOPs removed by reduceNOPs.sh
2413	07a6	23bd0008		addi	%GPR29,%GPR29,$8	
2414	07a7	00000000		nop	; Automatically Added by addNops.pl
2415	07a8	00000000		nop	; Automatically Added by addNops.pl
2416	07a9	00000000		nop	; Automatically Added by addNops.pl
2417				; Automatically 24 NOPs removed by reduceNOPs.sh
2418	07aa	3c020000		lhi	%GPR2,$( _threadCurrent	/0x10000)
2419	07ab	00000000		nop
2420	07ac	00000000		nop
2421	07ad	00000000		nop
2422	07ae	3442022c		ori	%GPR2,%GPR2,$( _threadCurrent	%0x10000)
2423	07af	00000000		nop	; Automatically Added by addNops.pl
2424	07b0	00000000		nop	; Automatically Added by addNops.pl
2425	07b1	00000000		nop	; Automatically Added by addNops.pl
2426				; Automatically 12 NOPs removed by reduceNOPs.sh
2427	07b2	3c030000		lhi	%GPR3,$0	
2428	07b3	00000000		nop	; Automatically Added by addNops.pl
2429	07b4	00000000		nop	; Automatically Added by addNops.pl
2430	07b5	00000000		nop	; Automatically Added by addNops.pl
2431				; Automatically 16 NOPs removed by reduceNOPs.sh
2432	07b6	34630004		ori	%GPR3,%GPR3,$4	
2433	07b7	00000000		nop	; Automatically Added by addNops.pl
2434	07b8	00000000		nop	; Automatically Added by addNops.pl
2435	07b9	00000000		nop	; Automatically Added by addNops.pl
2436				; Automatically 8 NOPs removed by reduceNOPs.sh
2437	07ba	3c010000		lhi	%GPR1,$0	
2438	07bb	00000000		nop	; Automatically Added by addNops.pl
2439	07bc	00000000		nop	; Automatically Added by addNops.pl
2440	07bd	00000000		nop	; Automatically Added by addNops.pl
2441				; Automatically 16 NOPs removed by reduceNOPs.sh
2442	07be	34210000		ori	%GPR1,%GPR1,$0	
2443	07bf	00000000		nop	; Automatically Added by addNops.pl
2444	07c0	00000000		nop	; Automatically Added by addNops.pl
2445	07c1	00000000		nop	; Automatically Added by addNops.pl
2446				; Automatically 8 NOPs removed by reduceNOPs.sh
2447	07c2	ac430000		sw	0(%GPR2),%GPR3	
2448	07c3	00000000		nop	; Automatically Added by addNops.pl
2449	07c4	00000000		nop	; Automatically Added by addNops.pl
2450	07c5	00000000		nop	; Automatically Added by addNops.pl
2451				; Automatically 16 NOPs removed by reduceNOPs.sh
2452	07c6	2bbd0008		subi	%GPR29,%GPR29,$8	
2453	07c7	00000000		nop	; Automatically Added by addNops.pl
2454	07c8	00000000		nop	; Automatically Added by addNops.pl
2455	07c9	00000000		nop	; Automatically Added by addNops.pl
2456				; Automatically 16 NOPs removed by reduceNOPs.sh
2457	07ca	0c0019f0		jal	t_cursor	
2458	07cb	00000000		nop	; Automatically Added by addNops.pl
2459	07cc	00000000		nop	; Automatically Added by addNops.pl
2460	07cd	00000000		nop	; Automatically Added by addNops.pl
2461				; Automatically 16 NOPs removed by reduceNOPs.sh
2462	07ce	23bd0008		addi	%GPR29,%GPR29,$8	
2463	07cf	00000000		nop	; Automatically Added by addNops.pl
2464	07d0	00000000		nop	; Automatically Added by addNops.pl
2465	07d1	00000000		nop	; Automatically Added by addNops.pl
2466				; Automatically 32 NOPs removed by reduceNOPs.sh
2467	07d2	2bbd0008		subi	%GPR29,%GPR29,$8	
2468	07d3	00000000		nop	; Automatically Added by addNops.pl
2469	07d4	00000000		nop	; Automatically Added by addNops.pl
2470	07d5	00000000		nop	; Automatically Added by addNops.pl
2471				; Automatically 16 NOPs removed by reduceNOPs.sh
2472	07d6	0ffffb87		jal	switchThread	
2473	07d7	00000000		nop	; Automatically Added by addNops.pl
2474	07d8	00000000		nop	; Automatically Added by addNops.pl
2475	07d9	00000000		nop	; Automatically Added by addNops.pl
2476				; Automatically 16 NOPs removed by reduceNOPs.sh
2477	07da	23bd0008		addi	%GPR29,%GPR29,$8	
2478	07db	00000000		nop	; Automatically Added by addNops.pl
2479	07dc	00000000		nop	; Automatically Added by addNops.pl
2480	07dd	00000000		nop	; Automatically Added by addNops.pl
2481				; Automatically 36 NOPs removed by reduceNOPs.sh
2482	07de	3c1c0000		lhi	%GPR28,$0	
2483	07df	00000000		nop	; Automatically Added by addNops.pl
2484	07e0	00000000		nop	; Automatically Added by addNops.pl
2485	07e1	00000000		nop	; Automatically Added by addNops.pl
2486				; Automatically 16 NOPs removed by reduceNOPs.sh
2487	07e2	379c0000		ori	%GPR28,%GPR28,$0	
2488	07e3	00000000		nop	; Automatically Added by addNops.pl
2489	07e4	00000000		nop	; Automatically Added by addNops.pl
2490	07e5	00000000		nop	; Automatically Added by addNops.pl
2491				; Automatically 16 NOPs removed by reduceNOPs.sh
2492	07e6	08000004		j	L_larsix_39	
2493	07e7	00000000		nop	; Automatically Added by addNops.pl
2494	07e8	00000000		nop	; Automatically Added by addNops.pl
2495	07e9	00000000		nop	; Automatically Added by addNops.pl
2496				; Automatically 16 NOPs removed by reduceNOPs.sh
2497			L_larsix_39:
2498	07ea	00000000		nop	; Automatically Added by addNops.pl
2499	07eb	00000000		nop	; Automatically Added by addNops.pl
2500	07ec	00000000		nop	; Automatically Added by addNops.pl
2501				; Automatically 16 NOPs removed by reduceNOPs.sh
2502	07ed	8fdf0004		lw	%GPR31,4(%GPR30)	
2503	07ee	00000000		nop	; Automatically Added by addNops.pl
2504	07ef	00000000		nop	; Automatically Added by addNops.pl
2505	07f0	00000000		nop	; Automatically Added by addNops.pl
2506	07f1	27dd0004		addui	%GPR29,%GPR30,$4	
2507	07f2	00000000		nop	; Automatically Added by addNops.pl
2508	07f3	00000000		nop	; Automatically Added by addNops.pl
2509	07f4	00000000		nop	; Automatically Added by addNops.pl
2510	07f5	8fde0000		lw	%GPR30,0(%GPR30)	
2511	07f6	00000000		nop	; Automatically Added by addNops.pl
2512	07f7	00000000		nop	; Automatically Added by addNops.pl
2513	07f8	00000000		nop	; Automatically Added by addNops.pl
2514				; Automatically 8 NOPs removed by reduceNOPs.sh
2515	07f9	00000000		nop
2516	07fa	00000000		nop
2517	07fb	03e00008		jr	%GPR31	
2518	07fc	00000000		nop	; Automatically Added by addNops.pl
2519	07fd	00000000		nop	; Automatically Added by addNops.pl
2520	07fe	00000000		nop	; Automatically Added by addNops.pl
2521				.section	.data
2522				;.global	_switches
2523				.align	4
2524			_switches:
2525	02ac	00000000		.space	1024
	02b0	00000000
	02b4	00000000
	02b8	00000000
	02bc	00000000
	02c0	00000000
	02c4	00000000
	02c8	00000000
	02cc	00000000
	02d0	00000000
	02d4	00000000
	02d8	00000000
	02dc	00000000
	02e0	00000000
	02e4	00000000
	02e8	00000000
	02ec	00000000
	02f0	00000000
	02f4	00000000
	02f8	00000000
	02fc	00000000
	0300	00000000
	0304	00000000
	0308	00000000
	030c	00000000
	0310	00000000
	0314	00000000
	0318	00000000
	031c	00000000
	0320	00000000
	0324	00000000
	0328	00000000
	032c	00000000
	0330	00000000
	0334	00000000
	0338	00000000
	033c	00000000
	0340	00000000
	0344	00000000
	0348	00000000
	034c	00000000
	0350	00000000
	0354	00000000
	0358	00000000
	035c	00000000
	0360	00000000
	0364	00000000
	0368	00000000
	036c	00000000
	0370	00000000
	0374	00000000
	0378	00000000
	037c	00000000
	0380	00000000
	0384	00000000
	0388	00000000
	038c	00000000
	0390	00000000
	0394	00000000
	0398	00000000
	039c	00000000
	03a0	00000000
	03a4	00000000
	03a8	00000000
	03ac	00000000
	03b0	00000000
	03b4	00000000
	03b8	00000000
	03bc	00000000
	03c0	00000000
	03c4	00000000
	03c8	00000000
	03cc	00000000
	03d0	00000000
	03d4	00000000
	03d8	00000000
	03dc	00000000
	03e0	00000000
	03e4	00000000
	03e8	00000000
	03ec	00000000
	03f0	00000000
	03f4	00000000
	03f8	00000000
	03fc	00000000
	0400	00000000
	0404	00000000
	0408	00000000
	040c	00000000
	0410	00000000
	0414	00000000
	0418	00000000
	041c	00000000
	0420	00000000
	0424	00000000
	0428	00000000
	042c	00000000
	0430	00000000
	0434	00000000
	0438	00000000
	043c	00000000
	0440	00000000
	0444	00000000
	0448	00000000
	044c	00000000
	0450	00000000
	0454	00000000
	0458	00000000
	045c	00000000
	0460	00000000
	0464	00000000
	0468	00000000
	046c	00000000
	0470	00000000
	0474	00000000
	0478	00000000
	047c	00000000
	0480	00000000
	0484	00000000
	0488	00000000
	048c	00000000
	0490	00000000
	0494	00000000
	0498	00000000
	049c	00000000
	04a0	00000000
	04a4	00000000
	04a8	00000000
	04ac	00000000
	04b0	00000000
	04b4	00000000
	04b8	00000000
	04bc	00000000
	04c0	00000000
	04c4	00000000
	04c8	00000000
	04cc	00000000
	04d0	00000000
	04d4	00000000
	04d8	00000000
	04dc	00000000
	04e0	00000000
	04e4	00000000
	04e8	00000000
	04ec	00000000
	04f0	00000000
	04f4	00000000
	04f8	00000000
	04fc	00000000
	0500	00000000
	0504	00000000
	0508	00000000
	050c	00000000
	0510	00000000
	0514	00000000
	0518	00000000
	051c	00000000
	0520	00000000
	0524	00000000
	0528	00000000
	052c	00000000
	0530	00000000
	0534	00000000
	0538	00000000
	053c	00000000
	0540	00000000
	0544	00000000
	0548	00000000
	054c	00000000
	0550	00000000
	0554	00000000
	0558	00000000
	055c	00000000
	0560	00000000
	0564	00000000
	0568	00000000
	056c	00000000
	0570	00000000
	0574	00000000
	0578	00000000
	057c	00000000
	0580	00000000
	0584	00000000
	0588	00000000
	058c	00000000
	0590	00000000
	0594	00000000
	0598	00000000
	059c	00000000
	05a0	00000000
	05a4	00000000
	05a8	00000000
	05ac	00000000
	05b0	00000000
	05b4	00000000
	05b8	00000000
	05bc	00000000
	05c0	00000000
	05c4	00000000
	05c8	00000000
	05cc	00000000
	05d0	00000000
	05d4	00000000
	05d8	00000000
	05dc	00000000
	05e0	00000000
	05e4	00000000
	05e8	00000000
	05ec	00000000
	05f0	00000000
	05f4	00000000
	05f8	00000000
	05fc	00000000
	0600	00000000
	0604	00000000
	0608	00000000
	060c	00000000
	0610	00000000
	0614	00000000
	0618	00000000
	061c	00000000
	0620	00000000
	0624	00000000
	0628	00000000
	062c	00000000
	0630	00000000
	0634	00000000
	0638	00000000
	063c	00000000
	0640	00000000
	0644	00000000
	0648	00000000
	064c	00000000
	0650	00000000
	0654	00000000
	0658	00000000
	065c	00000000
	0660	00000000
	0664	00000000
	0668	00000000
	066c	00000000
	0670	00000000
	0674	00000000
	0678	00000000
	067c	00000000
	0680	00000000
	0684	00000000
	0688	00000000
	068c	00000000
	0690	00000000
	0694	00000000
	0698	00000000
	069c	00000000
	06a0	00000000
	06a4	00000000
	06a8	00000000
2526				;.global	_bars
2527				.align	4
2528			_bars:
2529	06ac	0000000000000000000000000000000000000000000000000000000000000000000000000000000000000000000000000000000000000000000000000000000000000000000000000000000000000000000000000000000000000000000000000000000000000000000000000000000000000000000000000000000000000000		.space	128
2530				;.global	_activebars
2531				.align	4
2532			_activebars:
2533	072c	00000000		.space	4
2534				;.global	_activeswitches
2535				.align	4
2536			_activeswitches:
2537	0730	00000000		.space	4
2538			L_lcd_thread_1:
2539	0734	20		.data.8	32
2540	0735	20		.data.8	32
2541	0736	20		.data.8	32
2542	0737	00		.space	1
2543	0738	00		.space	1
2544			L_lcd_thread_2:
2545	0739	41		.data.8	65
2546	073a	00		.space	1
2547			L_lcd_thread_3:
2548	073b	4e		.data.8	78
2549	073c	00		.space	1
2550			L_lcd_thread_4:
2551	073d	42		.data.8	66
2552	073e	00		.space	1
2553			L_lcd_thread_5:
2554	073f	55		.data.8	85
2555	0740	43		.data.8	67
2556	0741	4d		.data.8	77
2557	0742	65		.data.8	101
2558	0743	6e		.data.8	110
2559	0744	75		.data.8	117
2560	0745	31		.data.8	49
2561	0746	7c		.data.8	124
2562	0747	20		.data.8	32
2563	0748	54		.data.8	84
2564	0749	65		.data.8	101
2565	074a	73		.data.8	115
2566	074b	74		.data.8	116
2567	074c	20		.data.8	32
2568	074d	31		.data.8	49
2569	074e	20		.data.8	32
2570	074f	7c		.data.8	124
2571	0750	20		.data.8	32
2572	0751	54		.data.8	84
2573	0752	65		.data.8	101
2574	0753	73		.data.8	115
2575	0754	74		.data.8	116
2576	0755	20		.data.8	32
2577	0756	32		.data.8	50
2578	0757	20		.data.8	32
2579	0758	7c		.data.8	124
2580	0759	20		.data.8	32
2581	075a	54		.data.8	84
2582	075b	65		.data.8	101
2583	075c	73		.data.8	115
2584	075d	74		.data.8	116
2585	075e	20		.data.8	32
2586	075f	33		.data.8	51
2587	0760	20		.data.8	32
2588	0761	00		.space	1
2589	0762	00		.space	1
2590			L_lcd_thread_6:
2591	0763	55		.data.8	85
2592	0764	43		.data.8	67
2593	0765	4d		.data.8	77
2594	0766	65		.data.8	101
2595	0767	6e		.data.8	110
2596	0768	75		.data.8	117
2597	0769	32		.data.8	50
2598	076a	7c		.data.8	124
2599	076b	20		.data.8	32
2600	076c	54		.data.8	84
2601	076d	65		.data.8	101
2602	076e	73		.data.8	115
2603	076f	74		.data.8	116
2604	0770	20		.data.8	32
2605	0771	34		.data.8	52
2606	0772	20		.data.8	32
2607	0773	7c		.data.8	124
2608	0774	20		.data.8	32
2609	0775	54		.data.8	84
2610	0776	65		.data.8	101
2611	0777	73		.data.8	115
2612	0778	74		.data.8	116
2613	0779	20		.data.8	32
2614	077a	35		.data.8	53
2615	077b	20		.data.8	32
2616	077c	7c		.data.8	124
2617	077d	20		.data.8	32
2618	077e	54		.data.8	84
2619	077f	65		.data.8	101
2620	0780	73		.data.8	115
2621	0781	74		.data.8	116
2622	0782	20		.data.8	32
2623	0783	36		.data.8	54
2624	0784	20		.data.8	32
2625	0785	00		.space	1
2626	0786	00		.space	1
2627			L_lcd_thread_7:
2628	0787	20		.data.8	32
2629	0788	20		.data.8	32
2630	0789	20		.data.8	32
2631	078a	00		.space	1
2632	078b	00		.space	1
2633			L_lcd_thread_8:
2634	078c	54		.data.8	84
2635	078d	65		.data.8	101
2636	078e	73		.data.8	115
2637	078f	74		.data.8	116
2638	0790	20		.data.8	32
2639	0791	00		.space	1
2640			L_lcd_thread_9:
2641	0792	54		.data.8	84
2642	0793	65		.data.8	101
2643	0794	73		.data.8	115
2644	0795	74		.data.8	116
2645	0796	20		.data.8	32
2646	0797	00		.space	1
2647				.section	.text
2648				.addressing	Word
2649				;.addressing	Word
2650			poll_display:
2651			L_lcd_thread_10:
2652	07ff	00000000		nop	; Automatically Added by addNops.pl
2653	0800	00000000		nop	; Automatically Added by addNops.pl
2654	0801	00000000		nop	; Automatically Added by addNops.pl
2655				; Automatically 16 NOPs removed by reduceNOPs.sh
2656	0802	afbefffc		sw	-4(%GPR29),%GPR30	
2657	0803	00000000		nop	; Automatically Added by addNops.pl
2658	0804	00000000		nop	; Automatically Added by addNops.pl
2659	0805	00000000		nop	; Automatically Added by addNops.pl
2660	0806	00000000		nop	; Automatically added by fix-stall-insns.pl
2661	0807	afbf0000		sw	0(%GPR29),%GPR31	
2662	0808	00000000		nop	; Automatically Added by addNops.pl
2663	0809	00000000		nop	; Automatically Added by addNops.pl
2664	080a	00000000		nop	; Automatically Added by addNops.pl
2665	080b	2fbe0004		subui	%GPR30,%GPR29,$4	
2666	080c	00000000		nop	; Automatically Added by addNops.pl
2667	080d	00000000		nop	; Automatically Added by addNops.pl
2668	080e	00000000		nop	; Automatically Added by addNops.pl
2669				; Automatically 4 NOPs removed by reduceNOPs.sh
2670	080f	2bbd0024		subi	%GPR29,%GPR29,$36	
2671	0810	00000000		nop	; Automatically Added by addNops.pl
2672	0811	00000000		nop	; Automatically Added by addNops.pl
2673	0812	00000000		nop	; Automatically Added by addNops.pl
2674				; Automatically 48 NOPs removed by reduceNOPs.sh
2675	0813	3c010000		lhi	%GPR1,$0	
2676	0814	00000000		nop	; Automatically Added by addNops.pl
2677	0815	00000000		nop	; Automatically Added by addNops.pl
2678	0816	00000000		nop	; Automatically Added by addNops.pl
2679				; Automatically 16 NOPs removed by reduceNOPs.sh
2680	0817	34210000		ori	%GPR1,%GPR1,$0	
2681	0818	00000000		nop	; Automatically Added by addNops.pl
2682	0819	00000000		nop	; Automatically Added by addNops.pl
2683	081a	00000000		nop	; Automatically Added by addNops.pl
2684				; Automatically 16 NOPs removed by reduceNOPs.sh
2685	081b	afc1fff0		sw	-16(%GPR30),%GPR1	
2686	081c	00000000		nop	; Automatically Added by addNops.pl
2687	081d	00000000		nop	; Automatically Added by addNops.pl
2688	081e	00000000		nop	; Automatically Added by addNops.pl
2689				; Automatically 12 NOPs removed by reduceNOPs.sh
2690			L_lcd_thread_11:
2691	081f	00000000		nop	; Automatically Added by addNops.pl
2692	0820	00000000		nop	; Automatically Added by addNops.pl
2693	0821	00000000		nop	; Automatically Added by addNops.pl
2694				; Automatically 16 NOPs removed by reduceNOPs.sh
2695	0822	2bbd0008		subi	%GPR29,%GPR29,$8	
2696	0823	00000000		nop	; Automatically Added by addNops.pl
2697	0824	00000000		nop	; Automatically Added by addNops.pl
2698	0825	00000000		nop	; Automatically Added by addNops.pl
2699				; Automatically 16 NOPs removed by reduceNOPs.sh
2700	0826	0c0012c4		jal	checkbuffer	
2701	0827	00000000		nop	; Automatically Added by addNops.pl
2702	0828	00000000		nop	; Automatically Added by addNops.pl
2703	0829	00000000		nop	; Automatically Added by addNops.pl
2704				; Automatically 16 NOPs removed by reduceNOPs.sh
2705	082a	23bd0008		addi	%GPR29,%GPR29,$8	
2706	082b	00000000		nop	; Automatically Added by addNops.pl
2707	082c	00000000		nop	; Automatically Added by addNops.pl
2708	082d	00000000		nop	; Automatically Added by addNops.pl
2709				; Automatically 24 NOPs removed by reduceNOPs.sh
2710	082e	03801020		add	%GPR2,%GPR28,%GPR0	
2711	082f	00000000		nop	; Automatically Added by addNops.pl
2712	0830	00000000		nop	; Automatically Added by addNops.pl
2713	0831	00000000		nop	; Automatically Added by addNops.pl
2714	0832	afdcffec		sw	-20(%GPR30),%GPR28	
2715	0833	00000000		nop	; Automatically Added by addNops.pl
2716	0834	00000000		nop	; Automatically Added by addNops.pl
2717	0835	00000000		nop	; Automatically Added by addNops.pl
2718				; Automatically 8 NOPs removed by reduceNOPs.sh
2719	0836	3c010000		lhi	%GPR1,$0	
2720	0837	00000000		nop	; Automatically Added by addNops.pl
2721	0838	00000000		nop	; Automatically Added by addNops.pl
2722	0839	00000000		nop	; Automatically Added by addNops.pl
2723				; Automatically 16 NOPs removed by reduceNOPs.sh
2724	083a	34210003		ori	%GPR1,%GPR1,$3	
2725	083b	00000000		nop	; Automatically Added by addNops.pl
2726	083c	00000000		nop	; Automatically Added by addNops.pl
2727	083d	00000000		nop	; Automatically Added by addNops.pl
2728				; Automatically 16 NOPs removed by reduceNOPs.sh
2729	083e	0041d82b		sgt	%GPR27,%GPR2,%GPR1	
2730	083f	00000000		nop	; Automatically Added by addNops.pl
2731	0840	00000000		nop	; Automatically Added by addNops.pl
2732	0841	00000000		nop	; Automatically Added by addNops.pl
2733	0842	17600008		bnez	%GPR27,L_lcd_thread_12	
2734	0843	00000000		nop	; Automatically Added by addNops.pl
2735	0844	00000000		nop	; Automatically Added by addNops.pl
2736	0845	00000000		nop	; Automatically Added by addNops.pl
2737				; Automatically 16 NOPs removed by reduceNOPs.sh
2738	0846	080006f9		j	L_lcd_thread_47	
2739	0847	00000000		nop	; Automatically Added by addNops.pl
2740	0848	00000000		nop	; Automatically Added by addNops.pl
2741	0849	00000000		nop	; Automatically Added by addNops.pl
2742				; Automatically 16 NOPs removed by reduceNOPs.sh
2743			L_lcd_thread_12:
2744	084a	00000000		nop	; Automatically Added by addNops.pl
2745	084b	00000000		nop	; Automatically Added by addNops.pl
2746	084c	00000000		nop	; Automatically Added by addNops.pl
2747	084d	2bc2000c		subi	%GPR2,%GPR30,$12	
2748	084e	00000000		nop	; Automatically Added by addNops.pl
2749	084f	00000000		nop	; Automatically Added by addNops.pl
2750	0850	00000000		nop	; Automatically Added by addNops.pl
2751	0851	8fc1ffec		lw	%GPR1,-20(%GPR30)	
2752	0852	00000000		nop	; Automatically Added by addNops.pl
2753	0853	00000000		nop	; Automatically Added by addNops.pl
2754	0854	00000000		nop	; Automatically Added by addNops.pl
2755				; Automatically 16 NOPs removed by reduceNOPs.sh
2756	0855	2bbd0008		subi	%GPR29,%GPR29,$8	
2757	0856	00000000		nop	; Automatically Added by addNops.pl
2758	0857	00000000		nop	; Automatically Added by addNops.pl
2759	0858	00000000		nop	; Automatically Added by addNops.pl
2760				; Automatically 16 NOPs removed by reduceNOPs.sh
2761	0859	0ffff7c7		jal	intToStr	
2762	085a	00000000		nop	; Automatically Added by addNops.pl
2763	085b	00000000		nop	; Automatically Added by addNops.pl
2764	085c	00000000		nop	; Automatically Added by addNops.pl
2765				; Automatically 16 NOPs removed by reduceNOPs.sh
2766	085d	23bd0008		addi	%GPR29,%GPR29,$8	
2767	085e	00000000		nop	; Automatically Added by addNops.pl
2768	085f	00000000		nop	; Automatically Added by addNops.pl
2769	0860	00000000		nop	; Automatically Added by addNops.pl
2770				; Automatically 16 NOPs removed by reduceNOPs.sh
2771	0861	3c010000		lhi	%GPR1,$( L_lcd_thread_1	/0x10000)
2772	0862	00000000		nop
2773	0863	00000000		nop
2774	0864	00000000		nop
2775	0865	34210734		ori	%GPR1,%GPR1,$( L_lcd_thread_1	%0x10000)
2776	0866	00000000		nop	; Automatically Added by addNops.pl
2777	0867	00000000		nop	; Automatically Added by addNops.pl
2778	0868	00000000		nop	; Automatically Added by addNops.pl
2779				; Automatically 20 NOPs removed by reduceNOPs.sh
2780	0869	3c030000		lhi	%GPR3,$0	
2781	086a	00000000		nop	; Automatically Added by addNops.pl
2782	086b	00000000		nop	; Automatically Added by addNops.pl
2783	086c	00000000		nop	; Automatically Added by addNops.pl
2784				; Automatically 16 NOPs removed by reduceNOPs.sh
2785	086d	34630078		ori	%GPR3,%GPR3,$120	
2786	086e	00000000		nop	; Automatically Added by addNops.pl
2787	086f	00000000		nop	; Automatically Added by addNops.pl
2788	0870	00000000		nop	; Automatically Added by addNops.pl
2789	0871	3c020000		lhi	%GPR2,$0	
2790	0872	00000000		nop	; Automatically Added by addNops.pl
2791	0873	00000000		nop	; Automatically Added by addNops.pl
2792	0874	00000000		nop	; Automatically Added by addNops.pl
2793				; Automatically 16 NOPs removed by reduceNOPs.sh
2794	0875	34420008		ori	%GPR2,%GPR2,$8	
2795	0876	00000000		nop	; Automatically Added by addNops.pl
2796	0877	00000000		nop	; Automatically Added by addNops.pl
2797	0878	00000000		nop	; Automatically Added by addNops.pl
2798				; Automatically 16 NOPs removed by reduceNOPs.sh
2799	0879	2bbd0008		subi	%GPR29,%GPR29,$8	
2800	087a	00000000		nop	; Automatically Added by addNops.pl
2801	087b	00000000		nop	; Automatically Added by addNops.pl
2802	087c	00000000		nop	; Automatically Added by addNops.pl
2803				; Automatically 16 NOPs removed by reduceNOPs.sh
2804	087d	0c0019b6		jal	g_print	
2805	087e	00000000		nop	; Automatically Added by addNops.pl
2806	087f	00000000		nop	; Automatically Added by addNops.pl
2807	0880	00000000		nop	; Automatically Added by addNops.pl
2808				; Automatically 16 NOPs removed by reduceNOPs.sh
2809	0881	23bd0008		addi	%GPR29,%GPR29,$8	
2810	0882	00000000		nop	; Automatically Added by addNops.pl
2811	0883	00000000		nop	; Automatically Added by addNops.pl
2812	0884	00000000		nop	; Automatically Added by addNops.pl
2813				; Automatically 28 NOPs removed by reduceNOPs.sh
2814	0885	2bc1000c		subi	%GPR1,%GPR30,$12	
2815	0886	00000000		nop	; Automatically Added by addNops.pl
2816	0887	00000000		nop	; Automatically Added by addNops.pl
2817	0888	00000000		nop	; Automatically Added by addNops.pl
2818				; Automatically 8 NOPs removed by reduceNOPs.sh
2819	0889	3c030000		lhi	%GPR3,$0	
2820	088a	00000000		nop	; Automatically Added by addNops.pl
2821	088b	00000000		nop	; Automatically Added by addNops.pl
2822	088c	00000000		nop	; Automatically Added by addNops.pl
2823				; Automatically 16 NOPs removed by reduceNOPs.sh
2824	088d	34630078		ori	%GPR3,%GPR3,$120	
2825	088e	00000000		nop	; Automatically Added by addNops.pl
2826	088f	00000000		nop	; Automatically Added by addNops.pl
2827	0890	00000000		nop	; Automatically Added by addNops.pl
2828	0891	3c020000		lhi	%GPR2,$0	
2829	0892	00000000		nop	; Automatically Added by addNops.pl
2830	0893	00000000		nop	; Automatically Added by addNops.pl
2831	0894	00000000		nop	; Automatically Added by addNops.pl
2832				; Automatically 16 NOPs removed by reduceNOPs.sh
2833	0895	34420008		ori	%GPR2,%GPR2,$8	
2834	0896	00000000		nop	; Automatically Added by addNops.pl
2835	0897	00000000		nop	; Automatically Added by addNops.pl
2836	0898	00000000		nop	; Automatically Added by addNops.pl
2837				; Automatically 16 NOPs removed by reduceNOPs.sh
2838	0899	2bbd0008		subi	%GPR29,%GPR29,$8	
2839	089a	00000000		nop	; Automatically Added by addNops.pl
2840	089b	00000000		nop	; Automatically Added by addNops.pl
2841	089c	00000000		nop	; Automatically Added by addNops.pl
2842				; Automatically 16 NOPs removed by reduceNOPs.sh
2843	089d	0c001996		jal	g_print	
2844	089e	00000000		nop	; Automatically Added by addNops.pl
2845	089f	00000000		nop	; Automatically Added by addNops.pl
2846	08a0	00000000		nop	; Automatically Added by addNops.pl
2847				; Automatically 16 NOPs removed by reduceNOPs.sh
2848	08a1	23bd0008		addi	%GPR29,%GPR29,$8	
2849	08a2	00000000		nop	; Automatically Added by addNops.pl
2850	08a3	00000000		nop	; Automatically Added by addNops.pl
2851	08a4	00000000		nop	; Automatically Added by addNops.pl
2852				; Automatically 16 NOPs removed by reduceNOPs.sh
2853	08a5	8fc2ffec		lw	%GPR2,-20(%GPR30)	
2854	08a6	00000000		nop	; Automatically Added by addNops.pl
2855	08a7	00000000		nop	; Automatically Added by addNops.pl
2856	08a8	00000000		nop	; Automatically Added by addNops.pl
2857	08a9	2bc1000c		subi	%GPR1,%GPR30,$12	
2858	08aa	00000000		nop	; Automatically Added by addNops.pl
2859	08ab	00000000		nop	; Automatically Added by addNops.pl
2860	08ac	00000000		nop	; Automatically Added by addNops.pl
2861				; Automatically 16 NOPs removed by reduceNOPs.sh
2862	08ad	2bbd0008		subi	%GPR29,%GPR29,$8	
2863	08ae	00000000		nop	; Automatically Added by addNops.pl
2864	08af	00000000		nop	; Automatically Added by addNops.pl
2865	08b0	00000000		nop	; Automatically Added by addNops.pl
2866				; Automatically 16 NOPs removed by reduceNOPs.sh
2867	08b1	0c0013cd		jal	getbytes	
2868	08b2	00000000		nop	; Automatically Added by addNops.pl
2869	08b3	00000000		nop	; Automatically Added by addNops.pl
2870	08b4	00000000		nop	; Automatically Added by addNops.pl
2871				; Automatically 16 NOPs removed by reduceNOPs.sh
2872	08b5	23bd0008		addi	%GPR29,%GPR29,$8	
2873	08b6	00000000		nop	; Automatically Added by addNops.pl
2874	08b7	00000000		nop	; Automatically Added by addNops.pl
2875	08b8	00000000		nop	; Automatically Added by addNops.pl
2876				; Automatically 16 NOPs removed by reduceNOPs.sh
2877	08b9	8fc1ffec		lw	%GPR1,-20(%GPR30)	
2878	08ba	00000000		nop	; Automatically Added by addNops.pl
2879	08bb	00000000		nop	; Automatically Added by addNops.pl
2880	08bc	00000000		nop	; Automatically Added by addNops.pl
2881	08bd	03801020		add	%GPR2,%GPR28,%GPR0	
2882	08be	00000000		nop	; Automatically Added by addNops.pl
2883	08bf	00000000		nop	; Automatically Added by addNops.pl
2884	08c0	00000000		nop	; Automatically Added by addNops.pl
2885	08c1	afdcffe8		sw	-24(%GPR30),%GPR28	
2886	08c2	00000000		nop	; Automatically Added by addNops.pl
2887	08c3	00000000		nop	; Automatically Added by addNops.pl
2888	08c4	00000000		nop	; Automatically Added by addNops.pl
2889				; Automatically 12 NOPs removed by reduceNOPs.sh
2890	08c5	0041d82f		sne	%GPR27,%GPR2,%GPR1	
2891	08c6	00000000		nop	; Automatically Added by addNops.pl
2892	08c7	00000000		nop	; Automatically Added by addNops.pl
2893	08c8	00000000		nop	; Automatically Added by addNops.pl
2894	08c9	17600008		bnez	%GPR27,L_lcd_thread_13	
2895	08ca	00000000		nop	; Automatically Added by addNops.pl
2896	08cb	00000000		nop	; Automatically Added by addNops.pl
2897	08cc	00000000		nop	; Automatically Added by addNops.pl
2898				; Automatically 16 NOPs removed by reduceNOPs.sh
2899	08cd	0800000f		j	L_lcd_thread_14	
2900	08ce	00000000		nop	; Automatically Added by addNops.pl
2901	08cf	00000000		nop	; Automatically Added by addNops.pl
2902	08d0	00000000		nop	; Automatically Added by addNops.pl
2903				; Automatically 16 NOPs removed by reduceNOPs.sh
2904			L_lcd_thread_13:
2905	08d1	00000000		nop	; Automatically Added by addNops.pl
2906	08d2	00000000		nop	; Automatically Added by addNops.pl
2907	08d3	00000000		nop	; Automatically Added by addNops.pl
2908	08d4	8fdcffe8		lw	%GPR28,-24(%GPR30)	
2909	08d5	00000000		nop	; Automatically Added by addNops.pl
2910	08d6	00000000		nop	; Automatically Added by addNops.pl
2911	08d7	00000000		nop	; Automatically Added by addNops.pl
2912				; Automatically 16 NOPs removed by reduceNOPs.sh
2913	08d8	0800067a		j	L_lcd_thread_48	
2914	08d9	00000000		nop	; Automatically Added by addNops.pl
2915	08da	00000000		nop	; Automatically Added by addNops.pl
2916	08db	00000000		nop	; Automatically Added by addNops.pl
2917				; Automatically 16 NOPs removed by reduceNOPs.sh
2918			L_lcd_thread_14:
2919	08dc	00000000		nop	; Automatically Added by addNops.pl
2920	08dd	00000000		nop	; Automatically Added by addNops.pl
2921	08de	00000000		nop	; Automatically Added by addNops.pl
2922	08df	8fc1fff0		lw	%GPR1,-16(%GPR30)	
2923	08e0	00000000		nop	; Automatically Added by addNops.pl
2924	08e1	00000000		nop	; Automatically Added by addNops.pl
2925	08e2	00000000		nop	; Automatically Added by addNops.pl
2926	08e3	00000000		nop	; Automatically added by fix-stall-insns.pl
2927	08e4	8fc2ffec		lw	%GPR2,-20(%GPR30)	
2928	08e5	00000000		nop	; Automatically Added by addNops.pl
2929	08e6	00000000		nop	; Automatically Added by addNops.pl
2930	08e7	00000000		nop	; Automatically Added by addNops.pl
2931				; Automatically 16 NOPs removed by reduceNOPs.sh
2932	08e8	0022d82a		slt	%GPR27,%GPR1,%GPR2	
2933	08e9	00000000		nop	; Automatically Added by addNops.pl
2934	08ea	00000000		nop	; Automatically Added by addNops.pl
2935	08eb	00000000		nop	; Automatically Added by addNops.pl
2936	08ec	17600008		bnez	%GPR27,L_lcd_thread_15	
2937	08ed	00000000		nop	; Automatically Added by addNops.pl
2938	08ee	00000000		nop	; Automatically Added by addNops.pl
2939	08ef	00000000		nop	; Automatically Added by addNops.pl
2940				; Automatically 16 NOPs removed by reduceNOPs.sh
2941	08f0	08000640		j	L_lcd_thread_46	
2942	08f1	00000000		nop	; Automatically Added by addNops.pl
2943	08f2	00000000		nop	; Automatically Added by addNops.pl
2944	08f3	00000000		nop	; Automatically Added by addNops.pl
2945				; Automatically 16 NOPs removed by reduceNOPs.sh
2946			L_lcd_thread_15:
2947	08f4	00000000		nop	; Automatically Added by addNops.pl
2948	08f5	00000000		nop	; Automatically Added by addNops.pl
2949	08f6	00000000		nop	; Automatically Added by addNops.pl
2950	08f7	2bc1000c		subi	%GPR1,%GPR30,$12	
2951	08f8	00000000		nop	; Automatically Added by addNops.pl
2952	08f9	00000000		nop	; Automatically Added by addNops.pl
2953	08fa	00000000		nop	; Automatically Added by addNops.pl
2954	08fb	8fc2fff0		lw	%GPR2,-16(%GPR30)	
2955	08fc	00000000		nop	; Automatically Added by addNops.pl
2956	08fd	00000000		nop	; Automatically Added by addNops.pl
2957	08fe	00000000		nop	; Automatically Added by addNops.pl
2958				; Automatically 16 NOPs removed by reduceNOPs.sh
2959	08ff	00220820		add	%GPR1,%GPR1,%GPR2	
2960	0900	00000000		nop	; Automatically Added by addNops.pl
2961	0901	00000000		nop	; Automatically Added by addNops.pl
2962	0902	00000000		nop	; Automatically Added by addNops.pl
2963				; Automatically 36 NOPs removed by reduceNOPs.sh
2964	0903	2bbd0008		subi	%GPR29,%GPR29,$8	
2965	0904	00000000		nop	; Automatically Added by addNops.pl
2966	0905	00000000		nop	; Automatically Added by addNops.pl
2967	0906	00000000		nop	; Automatically Added by addNops.pl
2968				; Automatically 16 NOPs removed by reduceNOPs.sh
2969	0907	0c001fea		jal	loadByteUnsigned	
2970	0908	00000000		nop	; Automatically Added by addNops.pl
2971	0909	00000000		nop	; Automatically Added by addNops.pl
2972	090a	00000000		nop	; Automatically Added by addNops.pl
2973				; Automatically 16 NOPs removed by reduceNOPs.sh
2974	090b	23bd0008		addi	%GPR29,%GPR29,$8	
2975	090c	00000000		nop	; Automatically Added by addNops.pl
2976	090d	00000000		nop	; Automatically Added by addNops.pl
2977	090e	00000000		nop	; Automatically Added by addNops.pl
2978				; Automatically 16 NOPs removed by reduceNOPs.sh
2979	090f	8fc1fff0		lw	%GPR1,-16(%GPR30)	
2980	0910	00000000		nop	; Automatically Added by addNops.pl
2981	0911	00000000		nop	; Automatically Added by addNops.pl
2982	0912	00000000		nop	; Automatically Added by addNops.pl
2983				; Automatically 8 NOPs removed by reduceNOPs.sh
2984	0913	03801020		add	%GPR2,%GPR28,%GPR0	
2985	0914	00000000		nop	; Automatically Added by addNops.pl
2986	0915	00000000		nop	; Automatically Added by addNops.pl
2987	0916	00000000		nop	; Automatically Added by addNops.pl
2988				; Automatically 8 NOPs removed by reduceNOPs.sh
2989	0917	20210001		addi	%GPR1,%GPR1,$1	
2990	0918	00000000		nop	; Automatically Added by addNops.pl
2991	0919	00000000		nop	; Automatically Added by addNops.pl
2992	091a	00000000		nop	; Automatically Added by addNops.pl
2993				; Automatically 16 NOPs removed by reduceNOPs.sh
2994	091b	afc1fff0		sw	-16(%GPR30),%GPR1	
2995	091c	00000000		nop	; Automatically Added by addNops.pl
2996	091d	00000000		nop	; Automatically Added by addNops.pl
2997	091e	00000000		nop	; Automatically Added by addNops.pl
2998	091f	3c010000		lhi	%GPR1,$0	
2999	0920	00000000		nop	; Automatically Added by addNops.pl
3000	0921	00000000		nop	; Automatically Added by addNops.pl
3001	0922	00000000		nop	; Automatically Added by addNops.pl
3002				; Automatically 16 NOPs removed by reduceNOPs.sh
3003	0923	3421001b		ori	%GPR1,%GPR1,$27	
3004	0924	00000000		nop	; Automatically Added by addNops.pl
3005	0925	00000000		nop	; Automatically Added by addNops.pl
3006	0926	00000000		nop	; Automatically Added by addNops.pl
3007				; Automatically 16 NOPs removed by reduceNOPs.sh
3008	0927	0041d82f		sne	%GPR27,%GPR2,%GPR1	
3009	0928	00000000		nop	; Automatically Added by addNops.pl
3010	0929	00000000		nop	; Automatically Added by addNops.pl
3011	092a	00000000		nop	; Automatically Added by addNops.pl
3012	092b	17600008		bnez	%GPR27,L_lcd_thread_16	
3013	092c	00000000		nop	; Automatically Added by addNops.pl
3014	092d	00000000		nop	; Automatically Added by addNops.pl
3015	092e	00000000		nop	; Automatically Added by addNops.pl
3016				; Automatically 16 NOPs removed by reduceNOPs.sh
3017	092f	08000557		j	L_lcd_thread_40	
3018	0930	00000000		nop	; Automatically Added by addNops.pl
3019	0931	00000000		nop	; Automatically Added by addNops.pl
3020	0932	00000000		nop	; Automatically Added by addNops.pl
3021				; Automatically 16 NOPs removed by reduceNOPs.sh
3022			L_lcd_thread_16:
3023	0933	00000000		nop	; Automatically Added by addNops.pl
3024	0934	00000000		nop	; Automatically Added by addNops.pl
3025	0935	00000000		nop	; Automatically Added by addNops.pl
3026				; Automatically 16 NOPs removed by reduceNOPs.sh
3027	0936	3c1c0000		lhi	%GPR28,$0	
3028	0937	00000000		nop	; Automatically Added by addNops.pl
3029	0938	00000000		nop	; Automatically Added by addNops.pl
3030	0939	00000000		nop	; Automatically Added by addNops.pl
3031				; Automatically 16 NOPs removed by reduceNOPs.sh
3032	093a	379c0001		ori	%GPR28,%GPR28,$1	
3033	093b	00000000		nop	; Automatically Added by addNops.pl
3034	093c	00000000		nop	; Automatically Added by addNops.pl
3035	093d	00000000		nop	; Automatically Added by addNops.pl
3036				; Automatically 16 NOPs removed by reduceNOPs.sh
3037	093e	08000614		j	L_lcd_thread_48	
3038	093f	00000000		nop	; Automatically Added by addNops.pl
3039	0940	00000000		nop	; Automatically Added by addNops.pl
3040	0941	00000000		nop	; Automatically Added by addNops.pl
3041				; Automatically 16 NOPs removed by reduceNOPs.sh
3042			L_lcd_thread_17:
3043	0942	00000000		nop	; Automatically Added by addNops.pl
3044	0943	00000000		nop	; Automatically Added by addNops.pl
3045	0944	00000000		nop	; Automatically Added by addNops.pl
3046	0945	3c010000		lhi	%GPR1,$( L_lcd_thread_2	/0x10000)
3047	0946	00000000		nop
3048	0947	00000000		nop
3049	0948	00000000		nop
3050	0949	34210739		ori	%GPR1,%GPR1,$( L_lcd_thread_2	%0x10000)
3051	094a	00000000		nop	; Automatically Added by addNops.pl
3052	094b	00000000		nop	; Automatically Added by addNops.pl
3053	094c	00000000		nop	; Automatically Added by addNops.pl
3054				; Automatically 20 NOPs removed by reduceNOPs.sh
3055	094d	3c030000		lhi	%GPR3,$0	
3056	094e	00000000		nop	; Automatically Added by addNops.pl
3057	094f	00000000		nop	; Automatically Added by addNops.pl
3058	0950	00000000		nop	; Automatically Added by addNops.pl
3059				; Automatically 16 NOPs removed by reduceNOPs.sh
3060	0951	34630078		ori	%GPR3,%GPR3,$120	
3061	0952	00000000		nop	; Automatically Added by addNops.pl
3062	0953	00000000		nop	; Automatically Added by addNops.pl
3063	0954	00000000		nop	; Automatically Added by addNops.pl
3064	0955	3c020000		lhi	%GPR2,$0	
3065	0956	00000000		nop	; Automatically Added by addNops.pl
3066	0957	00000000		nop	; Automatically Added by addNops.pl
3067	0958	00000000		nop	; Automatically Added by addNops.pl
3068				; Automatically 16 NOPs removed by reduceNOPs.sh
3069	0959	34420000		ori	%GPR2,%GPR2,$0	
3070	095a	00000000		nop	; Automatically Added by addNops.pl
3071	095b	00000000		nop	; Automatically Added by addNops.pl
3072	095c	00000000		nop	; Automatically Added by addNops.pl
3073				; Automatically 16 NOPs removed by reduceNOPs.sh
3074	095d	2bbd0008		subi	%GPR29,%GPR29,$8	
3075	095e	00000000		nop	; Automatically Added by addNops.pl
3076	095f	00000000		nop	; Automatically Added by addNops.pl
3077	0960	00000000		nop	; Automatically Added by addNops.pl
3078				; Automatically 16 NOPs removed by reduceNOPs.sh
3079	0961	0c0018d2		jal	g_print	
3080	0962	00000000		nop	; Automatically Added by addNops.pl
3081	0963	00000000		nop	; Automatically Added by addNops.pl
3082	0964	00000000		nop	; Automatically Added by addNops.pl
3083				; Automatically 16 NOPs removed by reduceNOPs.sh
3084	0965	23bd0008		addi	%GPR29,%GPR29,$8	
3085	0966	00000000		nop	; Automatically Added by addNops.pl
3086	0967	00000000		nop	; Automatically Added by addNops.pl
3087	0968	00000000		nop	; Automatically Added by addNops.pl
3088				; Automatically 16 NOPs removed by reduceNOPs.sh
3089	0969	2bc1000c		subi	%GPR1,%GPR30,$12	
3090	096a	00000000		nop	; Automatically Added by addNops.pl
3091	096b	00000000		nop	; Automatically Added by addNops.pl
3092	096c	00000000		nop	; Automatically Added by addNops.pl
3093	096d	8fc2fff0		lw	%GPR2,-16(%GPR30)	
3094	096e	00000000		nop	; Automatically Added by addNops.pl
3095	096f	00000000		nop	; Automatically Added by addNops.pl
3096	0970	00000000		nop	; Automatically Added by addNops.pl
3097				; Automatically 16 NOPs removed by reduceNOPs.sh
3098	0971	00220820		add	%GPR1,%GPR1,%GPR2	
3099	0972	00000000		nop	; Automatically Added by addNops.pl
3100	0973	00000000		nop	; Automatically Added by addNops.pl
3101	0974	00000000		nop	; Automatically Added by addNops.pl
3102				; Automatically 36 NOPs removed by reduceNOPs.sh
3103	0975	2bbd0008		subi	%GPR29,%GPR29,$8	
3104	0976	00000000		nop	; Automatically Added by addNops.pl
3105	0977	00000000		nop	; Automatically Added by addNops.pl
3106	0978	00000000		nop	; Automatically Added by addNops.pl
3107				; Automatically 16 NOPs removed by reduceNOPs.sh
3108	0979	0c001f78		jal	loadByteUnsigned	
3109	097a	00000000		nop	; Automatically Added by addNops.pl
3110	097b	00000000		nop	; Automatically Added by addNops.pl
3111	097c	00000000		nop	; Automatically Added by addNops.pl
3112				; Automatically 16 NOPs removed by reduceNOPs.sh
3113	097d	23bd0008		addi	%GPR29,%GPR29,$8	
3114	097e	00000000		nop	; Automatically Added by addNops.pl
3115	097f	00000000		nop	; Automatically Added by addNops.pl
3116	0980	00000000		nop	; Automatically Added by addNops.pl
3117				; Automatically 16 NOPs removed by reduceNOPs.sh
3118	0981	8fc1fff0		lw	%GPR1,-16(%GPR30)	
3119	0982	00000000		nop	; Automatically Added by addNops.pl
3120	0983	00000000		nop	; Automatically Added by addNops.pl
3121	0984	00000000		nop	; Automatically Added by addNops.pl
3122				; Automatically 8 NOPs removed by reduceNOPs.sh
3123	0985	03801020		add	%GPR2,%GPR28,%GPR0	
3124	0986	00000000		nop	; Automatically Added by addNops.pl
3125	0987	00000000		nop	; Automatically Added by addNops.pl
3126	0988	00000000		nop	; Automatically Added by addNops.pl
3127				; Automatically 8 NOPs removed by reduceNOPs.sh
3128	0989	20210001		addi	%GPR1,%GPR1,$1	
3129	098a	00000000		nop	; Automatically Added by addNops.pl
3130	098b	00000000		nop	; Automatically Added by addNops.pl
3131	098c	00000000		nop	; Automatically Added by addNops.pl
3132				; Automatically 16 NOPs removed by reduceNOPs.sh
3133	098d	afc1fff0		sw	-16(%GPR30),%GPR1	
3134	098e	00000000		nop	; Automatically Added by addNops.pl
3135	098f	00000000		nop	; Automatically Added by addNops.pl
3136	0990	00000000		nop	; Automatically Added by addNops.pl
3137	0991	3c010000		lhi	%GPR1,$0	
3138	0992	00000000		nop	; Automatically Added by addNops.pl
3139	0993	00000000		nop	; Automatically Added by addNops.pl
3140	0994	00000000		nop	; Automatically Added by addNops.pl
3141				; Automatically 16 NOPs removed by reduceNOPs.sh
3142	0995	34210001		ori	%GPR1,%GPR1,$1	
3143	0996	00000000		nop	; Automatically Added by addNops.pl
3144	0997	00000000		nop	; Automatically Added by addNops.pl
3145	0998	00000000		nop	; Automatically Added by addNops.pl
3146				; Automatically 16 NOPs removed by reduceNOPs.sh
3147	0999	0041d82f		sne	%GPR27,%GPR2,%GPR1	
3148	099a	00000000		nop	; Automatically Added by addNops.pl
3149	099b	00000000		nop	; Automatically Added by addNops.pl
3150	099c	00000000		nop	; Automatically Added by addNops.pl
3151	099d	17600008		bnez	%GPR27,L_lcd_thread_18	
3152	099e	00000000		nop	; Automatically Added by addNops.pl
3153	099f	00000000		nop	; Automatically Added by addNops.pl
3154	09a0	00000000		nop	; Automatically Added by addNops.pl
3155				; Automatically 16 NOPs removed by reduceNOPs.sh
3156	09a1	08000013		j	L_lcd_thread_19	
3157	09a2	00000000		nop	; Automatically Added by addNops.pl
3158	09a3	00000000		nop	; Automatically Added by addNops.pl
3159	09a4	00000000		nop	; Automatically Added by addNops.pl
3160				; Automatically 16 NOPs removed by reduceNOPs.sh
3161			L_lcd_thread_18:
3162	09a5	00000000		nop	; Automatically Added by addNops.pl
3163	09a6	00000000		nop	; Automatically Added by addNops.pl
3164	09a7	00000000		nop	; Automatically Added by addNops.pl
3165				; Automatically 16 NOPs removed by reduceNOPs.sh
3166	09a8	3c1c0000		lhi	%GPR28,$0	
3167	09a9	00000000		nop	; Automatically Added by addNops.pl
3168	09aa	00000000		nop	; Automatically Added by addNops.pl
3169	09ab	00000000		nop	; Automatically Added by addNops.pl
3170				; Automatically 16 NOPs removed by reduceNOPs.sh
3171	09ac	379c0003		ori	%GPR28,%GPR28,$3	
3172	09ad	00000000		nop	; Automatically Added by addNops.pl
3173	09ae	00000000		nop	; Automatically Added by addNops.pl
3174	09af	00000000		nop	; Automatically Added by addNops.pl
3175				; Automatically 16 NOPs removed by reduceNOPs.sh
3176	09b0	080005a2		j	L_lcd_thread_48	
3177	09b1	00000000		nop	; Automatically Added by addNops.pl
3178	09b2	00000000		nop	; Automatically Added by addNops.pl
3179	09b3	00000000		nop	; Automatically Added by addNops.pl
3180				; Automatically 16 NOPs removed by reduceNOPs.sh
3181			L_lcd_thread_19:
3182	09b4	00000000		nop	; Automatically Added by addNops.pl
3183	09b5	00000000		nop	; Automatically Added by addNops.pl
3184	09b6	00000000		nop	; Automatically Added by addNops.pl
3185	09b7	2bc1000c		subi	%GPR1,%GPR30,$12	
3186	09b8	00000000		nop	; Automatically Added by addNops.pl
3187	09b9	00000000		nop	; Automatically Added by addNops.pl
3188	09ba	00000000		nop	; Automatically Added by addNops.pl
3189	09bb	8fc2fff0		lw	%GPR2,-16(%GPR30)	
3190	09bc	00000000		nop	; Automatically Added by addNops.pl
3191	09bd	00000000		nop	; Automatically Added by addNops.pl
3192	09be	00000000		nop	; Automatically Added by addNops.pl
3193				; Automatically 16 NOPs removed by reduceNOPs.sh
3194	09bf	00220820		add	%GPR1,%GPR1,%GPR2	
3195	09c0	00000000		nop	; Automatically Added by addNops.pl
3196	09c1	00000000		nop	; Automatically Added by addNops.pl
3197	09c2	00000000		nop	; Automatically Added by addNops.pl
3198				; Automatically 36 NOPs removed by reduceNOPs.sh
3199	09c3	2bbd0008		subi	%GPR29,%GPR29,$8	
3200	09c4	00000000		nop	; Automatically Added by addNops.pl
3201	09c5	00000000		nop	; Automatically Added by addNops.pl
3202	09c6	00000000		nop	; Automatically Added by addNops.pl
3203				; Automatically 16 NOPs removed by reduceNOPs.sh
3204	09c7	0c001f2a		jal	loadByteUnsigned	
3205	09c8	00000000		nop	; Automatically Added by addNops.pl
3206	09c9	00000000		nop	; Automatically Added by addNops.pl
3207	09ca	00000000		nop	; Automatically Added by addNops.pl
3208				; Automatically 16 NOPs removed by reduceNOPs.sh
3209	09cb	23bd0008		addi	%GPR29,%GPR29,$8	
3210	09cc	00000000		nop	; Automatically Added by addNops.pl
3211	09cd	00000000		nop	; Automatically Added by addNops.pl
3212	09ce	00000000		nop	; Automatically Added by addNops.pl
3213				; Automatically 16 NOPs removed by reduceNOPs.sh
3214	09cf	03801020		add	%GPR2,%GPR28,%GPR0	
3215	09d0	00000000		nop	; Automatically Added by addNops.pl
3216	09d1	00000000		nop	; Automatically Added by addNops.pl
3217	09d2	00000000		nop	; Automatically Added by addNops.pl
3218				; Automatically 8 NOPs removed by reduceNOPs.sh
3219	09d3	8fc3fff0		lw	%GPR3,-16(%GPR30)	
3220	09d4	00000000		nop	; Automatically Added by addNops.pl
3221	09d5	00000000		nop	; Automatically Added by addNops.pl
3222	09d6	00000000		nop	; Automatically Added by addNops.pl
3223	09d7	00000000		nop	; Automatically added by fix-stall-insns.pl
3224	09d8	3c010000		lhi	%GPR1,$( _switches	/0x10000)
3225	09d9	00000000		nop
3226	09da	00000000		nop
3227	09db	00000000		nop
3228	09dc	342102ac		ori	%GPR1,%GPR1,$( _switches	%0x10000)
3229	09dd	00000000		nop	; Automatically Added by addNops.pl
3230	09de	00000000		nop	; Automatically Added by addNops.pl
3231	09df	00000000		nop	; Automatically Added by addNops.pl
3232	09e0	28420001		subi	%GPR2,%GPR2,$1	
3233	09e1	00000000		nop	; Automatically Added by addNops.pl
3234	09e2	00000000		nop	; Automatically Added by addNops.pl
3235	09e3	00000000		nop	; Automatically Added by addNops.pl
3236				; Automatically 8 NOPs removed by reduceNOPs.sh
3237	09e4	20630001		addi	%GPR3,%GPR3,$1	
3238	09e5	00000000		nop	; Automatically Added by addNops.pl
3239	09e6	00000000		nop	; Automatically Added by addNops.pl
3240	09e7	00000000		nop	; Automatically Added by addNops.pl
3241				; Automatically 8 NOPs removed by reduceNOPs.sh
3242	09e8	00402020		add	%GPR4,%GPR2,%GPR0	
3243	09e9	00000000		nop	; Automatically Added by addNops.pl
3244	09ea	00000000		nop	; Automatically Added by addNops.pl
3245	09eb	00000000		nop	; Automatically Added by addNops.pl
3246	09ec	afc2ffe8		sw	-24(%GPR30),%GPR2	
3247	09ed	00000000		nop	; Automatically Added by addNops.pl
3248	09ee	00000000		nop	; Automatically Added by addNops.pl
3249	09ef	00000000		nop	; Automatically Added by addNops.pl
3250	09f0	3c020000		lhi	%GPR2,$0	
3251	09f1	00000000		nop	; Automatically Added by addNops.pl
3252	09f2	00000000		nop	; Automatically Added by addNops.pl
3253	09f3	00000000		nop	; Automatically Added by addNops.pl
3254				; Automatically 16 NOPs removed by reduceNOPs.sh
3255	09f4	34420010		ori	%GPR2,%GPR2,$16	
3256	09f5	00000000		nop	; Automatically Added by addNops.pl
3257	09f6	00000000		nop	; Automatically Added by addNops.pl
3258	09f7	00000000		nop	; Automatically Added by addNops.pl
3259	09f8	afc3fff0		sw	-16(%GPR30),%GPR3	
3260	09f9	00000000		nop	; Automatically Added by addNops.pl
3261	09fa	00000000		nop	; Automatically Added by addNops.pl
3262	09fb	00000000		nop	; Automatically Added by addNops.pl
3263	09fc	3c030000		lhi	%GPR3,$0	
3264	09fd	00000000		nop	; Automatically Added by addNops.pl
3265	09fe	00000000		nop	; Automatically Added by addNops.pl
3266	09ff	00000000		nop	; Automatically Added by addNops.pl
3267				; Automatically 16 NOPs removed by reduceNOPs.sh
3268	0a00	34630001		ori	%GPR3,%GPR3,$1	
3269	0a01	00000000		nop	; Automatically Added by addNops.pl
3270	0a02	00000000		nop	; Automatically Added by addNops.pl
3271	0a03	00000000		nop	; Automatically Added by addNops.pl
3272				; Automatically 8 NOPs removed by reduceNOPs.sh
3273	0a04	00821018		mult	%GPR2,%GPR4,%GPR2	
3274	0a05	00000000		nop	; Automatically Added by addNops.pl
3275	0a06	00000000		nop	; Automatically Added by addNops.pl
3276	0a07	00000000		nop	; Automatically Added by addNops.pl
3277				; Automatically 16 NOPs removed by reduceNOPs.sh
3278	0a08	00220820		add	%GPR1,%GPR1,%GPR2	
3279	0a09	00000000		nop	; Automatically Added by addNops.pl
3280	0a0a	00000000		nop	; Automatically Added by addNops.pl
3281	0a0b	00000000		nop	; Automatically Added by addNops.pl
3282				; Automatically 16 NOPs removed by reduceNOPs.sh
3283	0a0c	8c210000		lw	%GPR1,0(%GPR1)	
3284	0a0d	00000000		nop	; Automatically Added by addNops.pl
3285	0a0e	00000000		nop	; Automatically Added by addNops.pl
3286	0a0f	00000000		nop	; Automatically Added by addNops.pl
3287				; Automatically 16 NOPs removed by reduceNOPs.sh
3288	0a10	0023d82e		seq	%GPR27,%GPR1,%GPR3	
3289	0a11	00000000		nop	; Automatically Added by addNops.pl
3290	0a12	00000000		nop	; Automatically Added by addNops.pl
3291	0a13	00000000		nop	; Automatically Added by addNops.pl
3292	0a14	17600008		bnez	%GPR27,L_lcd_thread_20	
3293	0a15	00000000		nop	; Automatically Added by addNops.pl
3294	0a16	00000000		nop	; Automatically Added by addNops.pl
3295	0a17	00000000		nop	; Automatically Added by addNops.pl
3296				; Automatically 16 NOPs removed by reduceNOPs.sh
3297	0a18	080000a0		j	L_lcd_thread_24	
3298	0a19	00000000		nop	; Automatically Added by addNops.pl
3299	0a1a	00000000		nop	; Automatically Added by addNops.pl
3300	0a1b	00000000		nop	; Automatically Added by addNops.pl
3301				; Automatically 16 NOPs removed by reduceNOPs.sh
3302			L_lcd_thread_20:
3303	0a1c	00000000		nop	; Automatically Added by addNops.pl
3304	0a1d	00000000		nop	; Automatically Added by addNops.pl
3305	0a1e	00000000		nop	; Automatically Added by addNops.pl
3306	0a1f	8fc4ffe8		lw	%GPR4,-24(%GPR30)	
3307	0a20	00000000		nop	; Automatically Added by addNops.pl
3308	0a21	00000000		nop	; Automatically Added by addNops.pl
3309	0a22	00000000		nop	; Automatically Added by addNops.pl
3310	0a23	00000000		nop	; Automatically added by fix-stall-insns.pl
3311	0a24	3c010000		lhi	%GPR1,$( _switches	/0x10000)
3312	0a25	00000000		nop
3313	0a26	00000000		nop
3314	0a27	00000000		nop
3315	0a28	342102ac		ori	%GPR1,%GPR1,$( _switches	%0x10000)
3316	0a29	00000000		nop	; Automatically Added by addNops.pl
3317	0a2a	00000000		nop	; Automatically Added by addNops.pl
3318	0a2b	00000000		nop	; Automatically Added by addNops.pl
3319				; Automatically 8 NOPs removed by reduceNOPs.sh
3320	0a2c	3c020000		lhi	%GPR2,$0	
3321	0a2d	00000000		nop	; Automatically Added by addNops.pl
3322	0a2e	00000000		nop	; Automatically Added by addNops.pl
3323	0a2f	00000000		nop	; Automatically Added by addNops.pl
3324				; Automatically 16 NOPs removed by reduceNOPs.sh
3325	0a30	34420010		ori	%GPR2,%GPR2,$16	
3326	0a31	00000000		nop	; Automatically Added by addNops.pl
3327	0a32	00000000		nop	; Automatically Added by addNops.pl
3328	0a33	00000000		nop	; Automatically Added by addNops.pl
3329				; Automatically 12 NOPs removed by reduceNOPs.sh
3330	0a34	3c030000		lhi	%GPR3,$0	
3331	0a35	00000000		nop	; Automatically Added by addNops.pl
3332	0a36	00000000		nop	; Automatically Added by addNops.pl
3333	0a37	00000000		nop	; Automatically Added by addNops.pl
3334				; Automatically 16 NOPs removed by reduceNOPs.sh
3335	0a38	34630000		ori	%GPR3,%GPR3,$0	
3336	0a39	00000000		nop	; Automatically Added by addNops.pl
3337	0a3a	00000000		nop	; Automatically Added by addNops.pl
3338	0a3b	00000000		nop	; Automatically Added by addNops.pl
3339	0a3c	00821018		mult	%GPR2,%GPR4,%GPR2	
3340	0a3d	00000000		nop	; Automatically Added by addNops.pl
3341	0a3e	00000000		nop	; Automatically Added by addNops.pl
3342	0a3f	00000000		nop	; Automatically Added by addNops.pl
3343				; Automatically 16 NOPs removed by reduceNOPs.sh
3344	0a40	00220820		add	%GPR1,%GPR1,%GPR2	
3345	0a41	00000000		nop	; Automatically Added by addNops.pl
3346	0a42	00000000		nop	; Automatically Added by addNops.pl
3347	0a43	00000000		nop	; Automatically Added by addNops.pl
3348				; Automatically 16 NOPs removed by reduceNOPs.sh
3349	0a44	ac230000		sw	0(%GPR1),%GPR3	
3350	0a45	00000000		nop	; Automatically Added by addNops.pl
3351	0a46	00000000		nop	; Automatically Added by addNops.pl
3352	0a47	00000000		nop	; Automatically Added by addNops.pl
3353				; Automatically 12 NOPs removed by reduceNOPs.sh
3354			L_lcd_thread_21:
3355	0a48	00000000		nop	; Automatically Added by addNops.pl
3356	0a49	00000000		nop	; Automatically Added by addNops.pl
3357	0a4a	00000000		nop	; Automatically Added by addNops.pl
3358	0a4b	8fc3fff0		lw	%GPR3,-16(%GPR30)	
3359	0a4c	00000000		nop	; Automatically Added by addNops.pl
3360	0a4d	00000000		nop	; Automatically Added by addNops.pl
3361	0a4e	00000000		nop	; Automatically Added by addNops.pl
3362	0a4f	00000000		nop	; Automatically added by fix-stall-insns.pl
3363	0a50	8fc5ffe8		lw	%GPR5,-24(%GPR30)	
3364	0a51	00000000		nop	; Automatically Added by addNops.pl
3365	0a52	00000000		nop	; Automatically Added by addNops.pl
3366	0a53	00000000		nop	; Automatically Added by addNops.pl
3367	0a54	00000000		nop	; Automatically added by fix-stall-insns.pl
3368	0a55	3c010000		lhi	%GPR1,$( _switches	/0x10000)
3369	0a56	00000000		nop
3370	0a57	00000000		nop
3371	0a58	00000000		nop
3372	0a59	342102ac		ori	%GPR1,%GPR1,$( _switches	%0x10000)
3373	0a5a	00000000		nop	; Automatically Added by addNops.pl
3374	0a5b	00000000		nop	; Automatically Added by addNops.pl
3375	0a5c	00000000		nop	; Automatically Added by addNops.pl
3376	0a5d	3c020000		lhi	%GPR2,$0	
3377	0a5e	00000000		nop	; Automatically Added by addNops.pl
3378	0a5f	00000000		nop	; Automatically Added by addNops.pl
3379	0a60	00000000		nop	; Automatically Added by addNops.pl
3380				; Automatically 16 NOPs removed by reduceNOPs.sh
3381	0a61	34420010		ori	%GPR2,%GPR2,$16	
3382	0a62	00000000		nop	; Automatically Added by addNops.pl
3383	0a63	00000000		nop	; Automatically Added by addNops.pl
3384	0a64	00000000		nop	; Automatically Added by addNops.pl
3385	0a65	20630001		addi	%GPR3,%GPR3,$1	
3386	0a66	00000000		nop	; Automatically Added by addNops.pl
3387	0a67	00000000		nop	; Automatically Added by addNops.pl
3388	0a68	00000000		nop	; Automatically Added by addNops.pl
3389				; Automatically 12 NOPs removed by reduceNOPs.sh
3390	0a69	00a21018		mult	%GPR2,%GPR5,%GPR2	
3391	0a6a	00000000		nop	; Automatically Added by addNops.pl
3392	0a6b	00000000		nop	; Automatically Added by addNops.pl
3393	0a6c	00000000		nop	; Automatically Added by addNops.pl
3394	0a6d	afc3fff0		sw	-16(%GPR30),%GPR3	
3395	0a6e	00000000		nop	; Automatically Added by addNops.pl
3396	0a6f	00000000		nop	; Automatically Added by addNops.pl
3397	0a70	00000000		nop	; Automatically Added by addNops.pl
3398	0a71	3c030000		lhi	%GPR3,$0	
3399	0a72	00000000		nop	; Automatically Added by addNops.pl
3400	0a73	00000000		nop	; Automatically Added by addNops.pl
3401	0a74	00000000		nop	; Automatically Added by addNops.pl
3402				; Automatically 16 NOPs removed by reduceNOPs.sh
3403	0a75	34630008		ori	%GPR3,%GPR3,$8	
3404	0a76	00000000		nop	; Automatically Added by addNops.pl
3405	0a77	00000000		nop	; Automatically Added by addNops.pl
3406	0a78	00000000		nop	; Automatically Added by addNops.pl
3407	0a79	3c040000		lhi	%GPR4,$0	
3408	0a7a	00000000		nop	; Automatically Added by addNops.pl
3409	0a7b	00000000		nop	; Automatically Added by addNops.pl
3410	0a7c	00000000		nop	; Automatically Added by addNops.pl
3411				; Automatically 16 NOPs removed by reduceNOPs.sh
3412	0a7d	34840001		ori	%GPR4,%GPR4,$1	
3413	0a7e	00000000		nop	; Automatically Added by addNops.pl
3414	0a7f	00000000		nop	; Automatically Added by addNops.pl
3415	0a80	00000000		nop	; Automatically Added by addNops.pl
3416	0a81	00220820		add	%GPR1,%GPR1,%GPR2	
3417	0a82	00000000		nop	; Automatically Added by addNops.pl
3418	0a83	00000000		nop	; Automatically Added by addNops.pl
3419	0a84	00000000		nop	; Automatically Added by addNops.pl
3420				; Automatically 16 NOPs removed by reduceNOPs.sh
3421	0a85	00230820		add	%GPR1,%GPR1,%GPR3	
3422	0a86	00000000		nop	; Automatically Added by addNops.pl
3423	0a87	00000000		nop	; Automatically Added by addNops.pl
3424	0a88	00000000		nop	; Automatically Added by addNops.pl
3425				; Automatically 16 NOPs removed by reduceNOPs.sh
3426	0a89	ac240000		sw	0(%GPR1),%GPR4	
3427	0a8a	00000000		nop	; Automatically Added by addNops.pl
3428	0a8b	00000000		nop	; Automatically Added by addNops.pl
3429	0a8c	00000000		nop	; Automatically Added by addNops.pl
3430				; Automatically 12 NOPs removed by reduceNOPs.sh
3431			L_lcd_thread_22:
3432	0a8d	00000000		nop	; Automatically Added by addNops.pl
3433	0a8e	00000000		nop	; Automatically Added by addNops.pl
3434	0a8f	00000000		nop	; Automatically Added by addNops.pl
3435	0a90	8fc1ffec		lw	%GPR1,-20(%GPR30)	
3436	0a91	00000000		nop	; Automatically Added by addNops.pl
3437	0a92	00000000		nop	; Automatically Added by addNops.pl
3438	0a93	00000000		nop	; Automatically Added by addNops.pl
3439	0a94	00000000		nop	; Automatically added by fix-stall-insns.pl
3440	0a95	8fc2fff0		lw	%GPR2,-16(%GPR30)	
3441	0a96	00000000		nop	; Automatically Added by addNops.pl
3442	0a97	00000000		nop	; Automatically Added by addNops.pl
3443	0a98	00000000		nop	; Automatically Added by addNops.pl
3444				; Automatically 12 NOPs removed by reduceNOPs.sh
3445	0a99	20210001		addi	%GPR1,%GPR1,$1	
3446	0a9a	00000000		nop	; Automatically Added by addNops.pl
3447	0a9b	00000000		nop	; Automatically Added by addNops.pl
3448	0a9c	00000000		nop	; Automatically Added by addNops.pl
3449				; Automatically 16 NOPs removed by reduceNOPs.sh
3450	0a9d	0041d82b		sgt	%GPR27,%GPR2,%GPR1	
3451	0a9e	00000000		nop	; Automatically Added by addNops.pl
3452	0a9f	00000000		nop	; Automatically Added by addNops.pl
3453	0aa0	00000000		nop	; Automatically Added by addNops.pl
3454	0aa1	17600008		bnez	%GPR27,L_lcd_thread_23	
3455	0aa2	00000000		nop	; Automatically Added by addNops.pl
3456	0aa3	00000000		nop	; Automatically Added by addNops.pl
3457	0aa4	00000000		nop	; Automatically Added by addNops.pl
3458				; Automatically 16 NOPs removed by reduceNOPs.sh
3459	0aa5	0bfffe37		j	L_lcd_thread_14	
3460	0aa6	00000000		nop	; Automatically Added by addNops.pl
3461	0aa7	00000000		nop	; Automatically Added by addNops.pl
3462	0aa8	00000000		nop	; Automatically Added by addNops.pl
3463				; Automatically 16 NOPs removed by reduceNOPs.sh
3464			L_lcd_thread_23:
3465	0aa9	00000000		nop	; Automatically Added by addNops.pl
3466	0aaa	00000000		nop	; Automatically Added by addNops.pl
3467	0aab	00000000		nop	; Automatically Added by addNops.pl
3468				; Automatically 16 NOPs removed by reduceNOPs.sh
3469	0aac	3c1c0000		lhi	%GPR28,$0	
3470	0aad	00000000		nop	; Automatically Added by addNops.pl
3471	0aae	00000000		nop	; Automatically Added by addNops.pl
3472	0aaf	00000000		nop	; Automatically Added by addNops.pl
3473				; Automatically 16 NOPs removed by reduceNOPs.sh
3474	0ab0	379c0005		ori	%GPR28,%GPR28,$5	
3475	0ab1	00000000		nop	; Automatically Added by addNops.pl
3476	0ab2	00000000		nop	; Automatically Added by addNops.pl
3477	0ab3	00000000		nop	; Automatically Added by addNops.pl
3478				; Automatically 16 NOPs removed by reduceNOPs.sh
3479	0ab4	0800049e		j	L_lcd_thread_48	
3480	0ab5	00000000		nop	; Automatically Added by addNops.pl
3481	0ab6	00000000		nop	; Automatically Added by addNops.pl
3482	0ab7	00000000		nop	; Automatically Added by addNops.pl
3483				; Automatically 16 NOPs removed by reduceNOPs.sh
3484			L_lcd_thread_24:
3485	0ab8	00000000		nop	; Automatically Added by addNops.pl
3486	0ab9	00000000		nop	; Automatically Added by addNops.pl
3487	0aba	00000000		nop	; Automatically Added by addNops.pl
3488	0abb	8fc4ffe8		lw	%GPR4,-24(%GPR30)	
3489	0abc	00000000		nop	; Automatically Added by addNops.pl
3490	0abd	00000000		nop	; Automatically Added by addNops.pl
3491	0abe	00000000		nop	; Automatically Added by addNops.pl
3492	0abf	00000000		nop	; Automatically added by fix-stall-insns.pl
3493	0ac0	3c010000		lhi	%GPR1,$( _switches	/0x10000)
3494	0ac1	00000000		nop
3495	0ac2	00000000		nop
3496	0ac3	00000000		nop
3497	0ac4	342102ac		ori	%GPR1,%GPR1,$( _switches	%0x10000)
3498	0ac5	00000000		nop	; Automatically Added by addNops.pl
3499	0ac6	00000000		nop	; Automatically Added by addNops.pl
3500	0ac7	00000000		nop	; Automatically Added by addNops.pl
3501				; Automatically 8 NOPs removed by reduceNOPs.sh
3502	0ac8	3c020000		lhi	%GPR2,$0	
3503	0ac9	00000000		nop	; Automatically Added by addNops.pl
3504	0aca	00000000		nop	; Automatically Added by addNops.pl
3505	0acb	00000000		nop	; Automatically Added by addNops.pl
3506				; Automatically 16 NOPs removed by reduceNOPs.sh
3507	0acc	34420010		ori	%GPR2,%GPR2,$16	
3508	0acd	00000000		nop	; Automatically Added by addNops.pl
3509	0ace	00000000		nop	; Automatically Added by addNops.pl
3510	0acf	00000000		nop	; Automatically Added by addNops.pl
3511				; Automatically 12 NOPs removed by reduceNOPs.sh
3512	0ad0	3c030000		lhi	%GPR3,$0	
3513	0ad1	00000000		nop	; Automatically Added by addNops.pl
3514	0ad2	00000000		nop	; Automatically Added by addNops.pl
3515	0ad3	00000000		nop	; Automatically Added by addNops.pl
3516				; Automatically 16 NOPs removed by reduceNOPs.sh
3517	0ad4	34630000		ori	%GPR3,%GPR3,$0	
3518	0ad5	00000000		nop	; Automatically Added by addNops.pl
3519	0ad6	00000000		nop	; Automatically Added by addNops.pl
3520	0ad7	00000000		nop	; Automatically Added by addNops.pl
3521	0ad8	00821018		mult	%GPR2,%GPR4,%GPR2	
3522	0ad9	00000000		nop	; Automatically Added by addNops.pl
3523	0ada	00000000		nop	; Automatically Added by addNops.pl
3524	0adb	00000000		nop	; Automatically Added by addNops.pl
3525				; Automatically 16 NOPs removed by reduceNOPs.sh
3526	0adc	00220820		add	%GPR1,%GPR1,%GPR2	
3527	0add	00000000		nop	; Automatically Added by addNops.pl
3528	0ade	00000000		nop	; Automatically Added by addNops.pl
3529	0adf	00000000		nop	; Automatically Added by addNops.pl
3530				; Automatically 16 NOPs removed by reduceNOPs.sh
3531	0ae0	8c210000		lw	%GPR1,0(%GPR1)	
3532	0ae1	00000000		nop	; Automatically Added by addNops.pl
3533	0ae2	00000000		nop	; Automatically Added by addNops.pl
3534	0ae3	00000000		nop	; Automatically Added by addNops.pl
3535				; Automatically 16 NOPs removed by reduceNOPs.sh
3536	0ae4	0023d82e		seq	%GPR27,%GPR1,%GPR3	
3537	0ae5	00000000		nop	; Automatically Added by addNops.pl
3538	0ae6	00000000		nop	; Automatically Added by addNops.pl
3539	0ae7	00000000		nop	; Automatically Added by addNops.pl
3540	0ae8	17600008		bnez	%GPR27,L_lcd_thread_25	
3541	0ae9	00000000		nop	; Automatically Added by addNops.pl
3542	0aea	00000000		nop	; Automatically Added by addNops.pl
3543	0aeb	00000000		nop	; Automatically Added by addNops.pl
3544				; Automatically 16 NOPs removed by reduceNOPs.sh
3545	0aec	08000034		j	L_lcd_thread_26	
3546	0aed	00000000		nop	; Automatically Added by addNops.pl
3547	0aee	00000000		nop	; Automatically Added by addNops.pl
3548	0aef	00000000		nop	; Automatically Added by addNops.pl
3549				; Automatically 16 NOPs removed by reduceNOPs.sh
3550			L_lcd_thread_25:
3551	0af0	00000000		nop	; Automatically Added by addNops.pl
3552	0af1	00000000		nop	; Automatically Added by addNops.pl
3553	0af2	00000000		nop	; Automatically Added by addNops.pl
3554	0af3	8fc4ffe8		lw	%GPR4,-24(%GPR30)	
3555	0af4	00000000		nop	; Automatically Added by addNops.pl
3556	0af5	00000000		nop	; Automatically Added by addNops.pl
3557	0af6	00000000		nop	; Automatically Added by addNops.pl
3558	0af7	00000000		nop	; Automatically added by fix-stall-insns.pl
3559	0af8	3c010000		lhi	%GPR1,$( _switches	/0x10000)
3560	0af9	00000000		nop
3561	0afa	00000000		nop
3562	0afb	00000000		nop
3563	0afc	342102ac		ori	%GPR1,%GPR1,$( _switches	%0x10000)
3564	0afd	00000000		nop	; Automatically Added by addNops.pl
3565	0afe	00000000		nop	; Automatically Added by addNops.pl
3566	0aff	00000000		nop	; Automatically Added by addNops.pl
3567				; Automatically 8 NOPs removed by reduceNOPs.sh
3568	0b00	3c020000		lhi	%GPR2,$0	
3569	0b01	00000000		nop	; Automatically Added by addNops.pl
3570	0b02	00000000		nop	; Automatically Added by addNops.pl
3571	0b03	00000000		nop	; Automatically Added by addNops.pl
3572				; Automatically 16 NOPs removed by reduceNOPs.sh
3573	0b04	34420010		ori	%GPR2,%GPR2,$16	
3574	0b05	00000000		nop	; Automatically Added by addNops.pl
3575	0b06	00000000		nop	; Automatically Added by addNops.pl
3576	0b07	00000000		nop	; Automatically Added by addNops.pl
3577				; Automatically 12 NOPs removed by reduceNOPs.sh
3578	0b08	3c030000		lhi	%GPR3,$0	
3579	0b09	00000000		nop	; Automatically Added by addNops.pl
3580	0b0a	00000000		nop	; Automatically Added by addNops.pl
3581	0b0b	00000000		nop	; Automatically Added by addNops.pl
3582				; Automatically 16 NOPs removed by reduceNOPs.sh
3583	0b0c	34630001		ori	%GPR3,%GPR3,$1	
3584	0b0d	00000000		nop	; Automatically Added by addNops.pl
3585	0b0e	00000000		nop	; Automatically Added by addNops.pl
3586	0b0f	00000000		nop	; Automatically Added by addNops.pl
3587	0b10	00821018		mult	%GPR2,%GPR4,%GPR2	
3588	0b11	00000000		nop	; Automatically Added by addNops.pl
3589	0b12	00000000		nop	; Automatically Added by addNops.pl
3590	0b13	00000000		nop	; Automatically Added by addNops.pl
3591				; Automatically 16 NOPs removed by reduceNOPs.sh
3592	0b14	00220820		add	%GPR1,%GPR1,%GPR2	
3593	0b15	00000000		nop	; Automatically Added by addNops.pl
3594	0b16	00000000		nop	; Automatically Added by addNops.pl
3595	0b17	00000000		nop	; Automatically Added by addNops.pl
3596				; Automatically 16 NOPs removed by reduceNOPs.sh
3597	0b18	ac230000		sw	0(%GPR1),%GPR3	
3598	0b19	00000000		nop	; Automatically Added by addNops.pl
3599	0b1a	00000000		nop	; Automatically Added by addNops.pl
3600	0b1b	00000000		nop	; Automatically Added by addNops.pl
3601	0b1c	0bffff2c		j	L_lcd_thread_21	
3602	0b1d	00000000		nop	; Automatically Added by addNops.pl
3603	0b1e	00000000		nop	; Automatically Added by addNops.pl
3604	0b1f	00000000		nop	; Automatically Added by addNops.pl
3605				; Automatically 12 NOPs removed by reduceNOPs.sh
3606			L_lcd_thread_26:
3607	0b20	00000000		nop	; Automatically Added by addNops.pl
3608	0b21	00000000		nop	; Automatically Added by addNops.pl
3609	0b22	00000000		nop	; Automatically Added by addNops.pl
3610				; Automatically 16 NOPs removed by reduceNOPs.sh
3611	0b23	3c1c0000		lhi	%GPR28,$0	
3612	0b24	00000000		nop	; Automatically Added by addNops.pl
3613	0b25	00000000		nop	; Automatically Added by addNops.pl
3614	0b26	00000000		nop	; Automatically Added by addNops.pl
3615				; Automatically 16 NOPs removed by reduceNOPs.sh
3616	0b27	379c0004		ori	%GPR28,%GPR28,$4	
3617	0b28	00000000		nop	; Automatically Added by addNops.pl
3618	0b29	00000000		nop	; Automatically Added by addNops.pl
3619	0b2a	00000000		nop	; Automatically Added by addNops.pl
3620				; Automatically 16 NOPs removed by reduceNOPs.sh
3621	0b2b	08000427		j	L_lcd_thread_48	
3622	0b2c	00000000		nop	; Automatically Added by addNops.pl
3623	0b2d	00000000		nop	; Automatically Added by addNops.pl
3624	0b2e	00000000		nop	; Automatically Added by addNops.pl
3625				; Automatically 16 NOPs removed by reduceNOPs.sh
3626			L_lcd_thread_27:
3627	0b2f	00000000		nop	; Automatically Added by addNops.pl
3628	0b30	00000000		nop	; Automatically Added by addNops.pl
3629	0b31	00000000		nop	; Automatically Added by addNops.pl
3630	0b32	3c010000		lhi	%GPR1,$( L_lcd_thread_3	/0x10000)
3631	0b33	00000000		nop
3632	0b34	00000000		nop
3633	0b35	00000000		nop
3634	0b36	3421073b		ori	%GPR1,%GPR1,$( L_lcd_thread_3	%0x10000)
3635	0b37	00000000		nop	; Automatically Added by addNops.pl
3636	0b38	00000000		nop	; Automatically Added by addNops.pl
3637	0b39	00000000		nop	; Automatically Added by addNops.pl
3638				; Automatically 20 NOPs removed by reduceNOPs.sh
3639	0b3a	3c030000		lhi	%GPR3,$0	
3640	0b3b	00000000		nop	; Automatically Added by addNops.pl
3641	0b3c	00000000		nop	; Automatically Added by addNops.pl
3642	0b3d	00000000		nop	; Automatically Added by addNops.pl
3643				; Automatically 16 NOPs removed by reduceNOPs.sh
3644	0b3e	34630078		ori	%GPR3,%GPR3,$120	
3645	0b3f	00000000		nop	; Automatically Added by addNops.pl
3646	0b40	00000000		nop	; Automatically Added by addNops.pl
3647	0b41	00000000		nop	; Automatically Added by addNops.pl
3648	0b42	3c020000		lhi	%GPR2,$0	
3649	0b43	00000000		nop	; Automatically Added by addNops.pl
3650	0b44	00000000		nop	; Automatically Added by addNops.pl
3651	0b45	00000000		nop	; Automatically Added by addNops.pl
3652				; Automatically 16 NOPs removed by reduceNOPs.sh
3653	0b46	34420000		ori	%GPR2,%GPR2,$0	
3654	0b47	00000000		nop	; Automatically Added by addNops.pl
3655	0b48	00000000		nop	; Automatically Added by addNops.pl
3656	0b49	00000000		nop	; Automatically Added by addNops.pl
3657				; Automatically 16 NOPs removed by reduceNOPs.sh
3658	0b4a	2bbd0008		subi	%GPR29,%GPR29,$8	
3659	0b4b	00000000		nop	; Automatically Added by addNops.pl
3660	0b4c	00000000		nop	; Automatically Added by addNops.pl
3661	0b4d	00000000		nop	; Automatically Added by addNops.pl
3662				; Automatically 16 NOPs removed by reduceNOPs.sh
3663	0b4e	0c0016e5		jal	g_print	
3664	0b4f	00000000		nop	; Automatically Added by addNops.pl
3665	0b50	00000000		nop	; Automatically Added by addNops.pl
3666	0b51	00000000		nop	; Automatically Added by addNops.pl
3667				; Automatically 16 NOPs removed by reduceNOPs.sh
3668	0b52	23bd0008		addi	%GPR29,%GPR29,$8	
3669	0b53	00000000		nop	; Automatically Added by addNops.pl
3670	0b54	00000000		nop	; Automatically Added by addNops.pl
3671	0b55	00000000		nop	; Automatically Added by addNops.pl
3672				; Automatically 16 NOPs removed by reduceNOPs.sh
3673	0b56	2bc1000c		subi	%GPR1,%GPR30,$12	
3674	0b57	00000000		nop	; Automatically Added by addNops.pl
3675	0b58	00000000		nop	; Automatically Added by addNops.pl
3676	0b59	00000000		nop	; Automatically Added by addNops.pl
3677	0b5a	8fc2fff0		lw	%GPR2,-16(%GPR30)	
3678	0b5b	00000000		nop	; Automatically Added by addNops.pl
3679	0b5c	00000000		nop	; Automatically Added by addNops.pl
3680	0b5d	00000000		nop	; Automatically Added by addNops.pl
3681				; Automatically 16 NOPs removed by reduceNOPs.sh
3682	0b5e	00220820		add	%GPR1,%GPR1,%GPR2	
3683	0b5f	00000000		nop	; Automatically Added by addNops.pl
3684	0b60	00000000		nop	; Automatically Added by addNops.pl
3685	0b61	00000000		nop	; Automatically Added by addNops.pl
3686				; Automatically 36 NOPs removed by reduceNOPs.sh
3687	0b62	2bbd0008		subi	%GPR29,%GPR29,$8	
3688	0b63	00000000		nop	; Automatically Added by addNops.pl
3689	0b64	00000000		nop	; Automatically Added by addNops.pl
3690	0b65	00000000		nop	; Automatically Added by addNops.pl
3691				; Automatically 16 NOPs removed by reduceNOPs.sh
3692	0b66	0c001d8b		jal	loadByteUnsigned	
3693	0b67	00000000		nop	; Automatically Added by addNops.pl
3694	0b68	00000000		nop	; Automatically Added by addNops.pl
3695	0b69	00000000		nop	; Automatically Added by addNops.pl
3696				; Automatically 16 NOPs removed by reduceNOPs.sh
3697	0b6a	23bd0008		addi	%GPR29,%GPR29,$8	
3698	0b6b	00000000		nop	; Automatically Added by addNops.pl
3699	0b6c	00000000		nop	; Automatically Added by addNops.pl
3700	0b6d	00000000		nop	; Automatically Added by addNops.pl
3701				; Automatically 16 NOPs removed by reduceNOPs.sh
3702	0b6e	8fc1fff0		lw	%GPR1,-16(%GPR30)	
3703	0b6f	00000000		nop	; Automatically Added by addNops.pl
3704	0b70	00000000		nop	; Automatically Added by addNops.pl
3705	0b71	00000000		nop	; Automatically Added by addNops.pl
3706				; Automatically 8 NOPs removed by reduceNOPs.sh
3707	0b72	03801020		add	%GPR2,%GPR28,%GPR0	
3708	0b73	00000000		nop	; Automatically Added by addNops.pl
3709	0b74	00000000		nop	; Automatically Added by addNops.pl
3710	0b75	00000000		nop	; Automatically Added by addNops.pl
3711				; Automatically 8 NOPs removed by reduceNOPs.sh
3712	0b76	20210001		addi	%GPR1,%GPR1,$1	
3713	0b77	00000000		nop	; Automatically Added by addNops.pl
3714	0b78	00000000		nop	; Automatically Added by addNops.pl
3715	0b79	00000000		nop	; Automatically Added by addNops.pl
3716				; Automatically 16 NOPs removed by reduceNOPs.sh
3717	0b7a	afc1fff0		sw	-16(%GPR30),%GPR1	
3718	0b7b	00000000		nop	; Automatically Added by addNops.pl
3719	0b7c	00000000		nop	; Automatically Added by addNops.pl
3720	0b7d	00000000		nop	; Automatically Added by addNops.pl
3721	0b7e	3c010000		lhi	%GPR1,$0	
3722	0b7f	00000000		nop	; Automatically Added by addNops.pl
3723	0b80	00000000		nop	; Automatically Added by addNops.pl
3724	0b81	00000000		nop	; Automatically Added by addNops.pl
3725				; Automatically 16 NOPs removed by reduceNOPs.sh
3726	0b82	34210001		ori	%GPR1,%GPR1,$1	
3727	0b83	00000000		nop	; Automatically Added by addNops.pl
3728	0b84	00000000		nop	; Automatically Added by addNops.pl
3729	0b85	00000000		nop	; Automatically Added by addNops.pl
3730				; Automatically 16 NOPs removed by reduceNOPs.sh
3731	0b86	0041d82f		sne	%GPR27,%GPR2,%GPR1	
3732	0b87	00000000		nop	; Automatically Added by addNops.pl
3733	0b88	00000000		nop	; Automatically Added by addNops.pl
3734	0b89	00000000		nop	; Automatically Added by addNops.pl
3735	0b8a	17600008		bnez	%GPR27,L_lcd_thread_28	
3736	0b8b	00000000		nop	; Automatically Added by addNops.pl
3737	0b8c	00000000		nop	; Automatically Added by addNops.pl
3738	0b8d	00000000		nop	; Automatically Added by addNops.pl
3739				; Automatically 16 NOPs removed by reduceNOPs.sh
3740	0b8e	08000013		j	L_lcd_thread_29	
3741	0b8f	00000000		nop	; Automatically Added by addNops.pl
3742	0b90	00000000		nop	; Automatically Added by addNops.pl
3743	0b91	00000000		nop	; Automatically Added by addNops.pl
3744				; Automatically 16 NOPs removed by reduceNOPs.sh
3745			L_lcd_thread_28:
3746	0b92	00000000		nop	; Automatically Added by addNops.pl
3747	0b93	00000000		nop	; Automatically Added by addNops.pl
3748	0b94	00000000		nop	; Automatically Added by addNops.pl
3749				; Automatically 16 NOPs removed by reduceNOPs.sh
3750	0b95	3c1c0000		lhi	%GPR28,$0	
3751	0b96	00000000		nop	; Automatically Added by addNops.pl
3752	0b97	00000000		nop	; Automatically Added by addNops.pl
3753	0b98	00000000		nop	; Automatically Added by addNops.pl
3754				; Automatically 16 NOPs removed by reduceNOPs.sh
3755	0b99	379c0003		ori	%GPR28,%GPR28,$3	
3756	0b9a	00000000		nop	; Automatically Added by addNops.pl
3757	0b9b	00000000		nop	; Automatically Added by addNops.pl
3758	0b9c	00000000		nop	; Automatically Added by addNops.pl
3759				; Automatically 16 NOPs removed by reduceNOPs.sh
3760	0b9d	080003b5		j	L_lcd_thread_48	
3761	0b9e	00000000		nop	; Automatically Added by addNops.pl
3762	0b9f	00000000		nop	; Automatically Added by addNops.pl
3763	0ba0	00000000		nop	; Automatically Added by addNops.pl
3764				; Automatically 16 NOPs removed by reduceNOPs.sh
3765			L_lcd_thread_29:
3766	0ba1	00000000		nop	; Automatically Added by addNops.pl
3767	0ba2	00000000		nop	; Automatically Added by addNops.pl
3768	0ba3	00000000		nop	; Automatically Added by addNops.pl
3769	0ba4	2bc1000c		subi	%GPR1,%GPR30,$12	
3770	0ba5	00000000		nop	; Automatically Added by addNops.pl
3771	0ba6	00000000		nop	; Automatically Added by addNops.pl
3772	0ba7	00000000		nop	; Automatically Added by addNops.pl
3773	0ba8	8fc2fff0		lw	%GPR2,-16(%GPR30)	
3774	0ba9	00000000		nop	; Automatically Added by addNops.pl
3775	0baa	00000000		nop	; Automatically Added by addNops.pl
3776	0bab	00000000		nop	; Automatically Added by addNops.pl
3777				; Automatically 16 NOPs removed by reduceNOPs.sh
3778	0bac	00220820		add	%GPR1,%GPR1,%GPR2	
3779	0bad	00000000		nop	; Automatically Added by addNops.pl
3780	0bae	00000000		nop	; Automatically Added by addNops.pl
3781	0baf	00000000		nop	; Automatically Added by addNops.pl
3782				; Automatically 36 NOPs removed by reduceNOPs.sh
3783	0bb0	2bbd0008		subi	%GPR29,%GPR29,$8	
3784	0bb1	00000000		nop	; Automatically Added by addNops.pl
3785	0bb2	00000000		nop	; Automatically Added by addNops.pl
3786	0bb3	00000000		nop	; Automatically Added by addNops.pl
3787				; Automatically 16 NOPs removed by reduceNOPs.sh
3788	0bb4	0c001d3d		jal	loadByteUnsigned	
3789	0bb5	00000000		nop	; Automatically Added by addNops.pl
3790	0bb6	00000000		nop	; Automatically Added by addNops.pl
3791	0bb7	00000000		nop	; Automatically Added by addNops.pl
3792				; Automatically 16 NOPs removed by reduceNOPs.sh
3793	0bb8	23bd0008		addi	%GPR29,%GPR29,$8	
3794	0bb9	00000000		nop	; Automatically Added by addNops.pl
3795	0bba	00000000		nop	; Automatically Added by addNops.pl
3796	0bbb	00000000		nop	; Automatically Added by addNops.pl
3797				; Automatically 16 NOPs removed by reduceNOPs.sh
3798	0bbc	03800820		add	%GPR1,%GPR28,%GPR0	
3799	0bbd	00000000		nop	; Automatically Added by addNops.pl
3800	0bbe	00000000		nop	; Automatically Added by addNops.pl
3801	0bbf	00000000		nop	; Automatically Added by addNops.pl
3802	0bc0	8fc4fff0		lw	%GPR4,-16(%GPR30)	
3803	0bc1	00000000		nop	; Automatically Added by addNops.pl
3804	0bc2	00000000		nop	; Automatically Added by addNops.pl
3805	0bc3	00000000		nop	; Automatically Added by addNops.pl
3806				; Automatically 8 NOPs removed by reduceNOPs.sh
3807	0bc4	00000000		nop	; Automatically added by fix-stall-insns.pl
3808	0bc5	3c020000		lhi	%GPR2,$( _switches	/0x10000)
3809	0bc6	00000000		nop
3810	0bc7	00000000		nop
3811	0bc8	00000000		nop
3812	0bc9	344202ac		ori	%GPR2,%GPR2,$( _switches	%0x10000)
3813	0bca	00000000		nop	; Automatically Added by addNops.pl
3814	0bcb	00000000		nop	; Automatically Added by addNops.pl
3815	0bcc	00000000		nop	; Automatically Added by addNops.pl
3816	0bcd	28210001		subi	%GPR1,%GPR1,$1	
3817	0bce	00000000		nop	; Automatically Added by addNops.pl
3818	0bcf	00000000		nop	; Automatically Added by addNops.pl
3819	0bd0	00000000		nop	; Automatically Added by addNops.pl
3820	0bd1	20840001		addi	%GPR4,%GPR4,$1	
3821	0bd2	00000000		nop	; Automatically Added by addNops.pl
3822	0bd3	00000000		nop	; Automatically Added by addNops.pl
3823	0bd4	00000000		nop	; Automatically Added by addNops.pl
3824				; Automatically 12 NOPs removed by reduceNOPs.sh
3825	0bd5	afc1ffe8		sw	-24(%GPR30),%GPR1	
3826	0bd6	00000000		nop	; Automatically Added by addNops.pl
3827	0bd7	00000000		nop	; Automatically Added by addNops.pl
3828	0bd8	00000000		nop	; Automatically Added by addNops.pl
3829	0bd9	00000000		nop	; Automatically added by fix-stall-insns.pl
3830	0bda	afc4fff0		sw	-16(%GPR30),%GPR4	
3831	0bdb	00000000		nop	; Automatically Added by addNops.pl
3832	0bdc	00000000		nop	; Automatically Added by addNops.pl
3833	0bdd	00000000		nop	; Automatically Added by addNops.pl
3834	0bde	3c010000		lhi	%GPR1,$0	
3835	0bdf	00000000		nop	; Automatically Added by addNops.pl
3836	0be0	00000000		nop	; Automatically Added by addNops.pl
3837	0be1	00000000		nop	; Automatically Added by addNops.pl
3838				; Automatically 16 NOPs removed by reduceNOPs.sh
3839	0be2	34210010		ori	%GPR1,%GPR1,$16	
3840	0be3	00000000		nop	; Automatically Added by addNops.pl
3841	0be4	00000000		nop	; Automatically Added by addNops.pl
3842	0be5	00000000		nop	; Automatically Added by addNops.pl
3843	0be6	3c030000		lhi	%GPR3,$0	
3844	0be7	00000000		nop	; Automatically Added by addNops.pl
3845	0be8	00000000		nop	; Automatically Added by addNops.pl
3846	0be9	00000000		nop	; Automatically Added by addNops.pl
3847				; Automatically 16 NOPs removed by reduceNOPs.sh
3848	0bea	34630001		ori	%GPR3,%GPR3,$1	
3849	0beb	00000000		nop	; Automatically Added by addNops.pl
3850	0bec	00000000		nop	; Automatically Added by addNops.pl
3851	0bed	00000000		nop	; Automatically Added by addNops.pl
3852	0bee	8fc4ffe8		lw	%GPR4,-24(%GPR30)	
3853	0bef	00000000		nop	; Automatically Added by addNops.pl
3854	0bf0	00000000		nop	; Automatically Added by addNops.pl
3855	0bf1	00000000		nop	; Automatically Added by addNops.pl
3856				; Automatically 16 NOPs removed by reduceNOPs.sh
3857	0bf2	00000000		nop	; Automatically added by fix-stall-insns.pl
3858	0bf3	00812018		mult	%GPR4,%GPR4,%GPR1	
3859	0bf4	00000000		nop	; Automatically Added by addNops.pl
3860	0bf5	00000000		nop	; Automatically Added by addNops.pl
3861	0bf6	00000000		nop	; Automatically Added by addNops.pl
3862				; Automatically 16 NOPs removed by reduceNOPs.sh
3863	0bf7	00441020		add	%GPR2,%GPR2,%GPR4	
3864	0bf8	00000000		nop	; Automatically Added by addNops.pl
3865	0bf9	00000000		nop	; Automatically Added by addNops.pl
3866	0bfa	00000000		nop	; Automatically Added by addNops.pl
3867	0bfb	3c010000		lhi	%GPR1,$0	
3868	0bfc	00000000		nop	; Automatically Added by addNops.pl
3869	0bfd	00000000		nop	; Automatically Added by addNops.pl
3870	0bfe	00000000		nop	; Automatically Added by addNops.pl
3871				; Automatically 16 NOPs removed by reduceNOPs.sh
3872	0bff	34210000		ori	%GPR1,%GPR1,$0	
3873	0c00	00000000		nop	; Automatically Added by addNops.pl
3874	0c01	00000000		nop	; Automatically Added by addNops.pl
3875	0c02	00000000		nop	; Automatically Added by addNops.pl
3876				; Automatically 12 NOPs removed by reduceNOPs.sh
3877	0c03	ac430000		sw	0(%GPR2),%GPR3	
3878	0c04	00000000		nop	; Automatically Added by addNops.pl
3879	0c05	00000000		nop	; Automatically Added by addNops.pl
3880	0c06	00000000		nop	; Automatically Added by addNops.pl
3881				; Automatically 12 NOPs removed by reduceNOPs.sh
3882			L_lcd_thread_30:
3883	0c07	00000000		nop	; Automatically Added by addNops.pl
3884	0c08	00000000		nop	; Automatically Added by addNops.pl
3885	0c09	00000000		nop	; Automatically Added by addNops.pl
3886	0c0a	3c020000		lhi	%GPR2,$( _activeswitches	/0x10000)
3887	0c0b	00000000		nop
3888	0c0c	00000000		nop
3889	0c0d	00000000		nop
3890	0c0e	34420730		ori	%GPR2,%GPR2,$( _activeswitches	%0x10000)
3891	0c0f	00000000		nop	; Automatically Added by addNops.pl
3892	0c10	00000000		nop	; Automatically Added by addNops.pl
3893	0c11	00000000		nop	; Automatically Added by addNops.pl
3894				; Automatically 16 NOPs removed by reduceNOPs.sh
3895	0c12	8c420000		lw	%GPR2,0(%GPR2)	
3896	0c13	00000000		nop	; Automatically Added by addNops.pl
3897	0c14	00000000		nop	; Automatically Added by addNops.pl
3898	0c15	00000000		nop	; Automatically Added by addNops.pl
3899				; Automatically 16 NOPs removed by reduceNOPs.sh
3900	0c16	0022d82c		sle	%GPR27,%GPR1,%GPR2	
3901	0c17	00000000		nop	; Automatically Added by addNops.pl
3902	0c18	00000000		nop	; Automatically Added by addNops.pl
3903	0c19	00000000		nop	; Automatically Added by addNops.pl
3904	0c1a	17600008		bnez	%GPR27,L_lcd_thread_31	
3905	0c1b	00000000		nop	; Automatically Added by addNops.pl
3906	0c1c	00000000		nop	; Automatically Added by addNops.pl
3907	0c1d	00000000		nop	; Automatically Added by addNops.pl
3908				; Automatically 16 NOPs removed by reduceNOPs.sh
3909	0c1e	080000f5		j	L_lcd_thread_36	
3910	0c1f	00000000		nop	; Automatically Added by addNops.pl
3911	0c20	00000000		nop	; Automatically Added by addNops.pl
3912	0c21	00000000		nop	; Automatically Added by addNops.pl
3913				; Automatically 16 NOPs removed by reduceNOPs.sh
3914			L_lcd_thread_31:
3915	0c22	00000000		nop	; Automatically Added by addNops.pl
3916	0c23	00000000		nop	; Automatically Added by addNops.pl
3917	0c24	00000000		nop	; Automatically Added by addNops.pl
3918				; Automatically 8 NOPs removed by reduceNOPs.sh
3919	0c25	8fc6ffe8		lw	%GPR6,-24(%GPR30)	
3920	0c26	00000000		nop	; Automatically Added by addNops.pl
3921	0c27	00000000		nop	; Automatically Added by addNops.pl
3922	0c28	00000000		nop	; Automatically Added by addNops.pl
3923	0c29	00000000		nop	; Automatically added by fix-stall-insns.pl
3924	0c2a	3c020000		lhi	%GPR2,$( _switches	/0x10000)
3925	0c2b	00000000		nop
3926	0c2c	00000000		nop
3927	0c2d	00000000		nop
3928	0c2e	344202ac		ori	%GPR2,%GPR2,$( _switches	%0x10000)
3929	0c2f	00000000		nop	; Automatically Added by addNops.pl
3930	0c30	00000000		nop	; Automatically Added by addNops.pl
3931	0c31	00000000		nop	; Automatically Added by addNops.pl
3932	0c32	3c030000		lhi	%GPR3,$0	
3933	0c33	00000000		nop	; Automatically Added by addNops.pl
3934	0c34	00000000		nop	; Automatically Added by addNops.pl
3935	0c35	00000000		nop	; Automatically Added by addNops.pl
3936				; Automatically 16 NOPs removed by reduceNOPs.sh
3937	0c36	34630010		ori	%GPR3,%GPR3,$16	
3938	0c37	00000000		nop	; Automatically Added by addNops.pl
3939	0c38	00000000		nop	; Automatically Added by addNops.pl
3940	0c39	00000000		nop	; Automatically Added by addNops.pl
3941	0c3a	3c040000		lhi	%GPR4,$0	
3942	0c3b	00000000		nop	; Automatically Added by addNops.pl
3943	0c3c	00000000		nop	; Automatically Added by addNops.pl
3944	0c3d	00000000		nop	; Automatically Added by addNops.pl
3945				; Automatically 16 NOPs removed by reduceNOPs.sh
3946	0c3e	34840010		ori	%GPR4,%GPR4,$16	
3947	0c3f	00000000		nop	; Automatically Added by addNops.pl
3948	0c40	00000000		nop	; Automatically Added by addNops.pl
3949	0c41	00000000		nop	; Automatically Added by addNops.pl
3950				; Automatically 8 NOPs removed by reduceNOPs.sh
3951	0c42	3c050000		lhi	%GPR5,$( _switches	/0x10000)
3952	0c43	00000000		nop
3953	0c44	00000000		nop
3954	0c45	00000000		nop
3955	0c46	34a502ac		ori	%GPR5,%GPR5,$( _switches	%0x10000)
3956	0c47	00000000		nop	; Automatically Added by addNops.pl
3957	0c48	00000000		nop	; Automatically Added by addNops.pl
3958	0c49	00000000		nop	; Automatically Added by addNops.pl
3959	0c4a	00231818		mult	%GPR3,%GPR1,%GPR3	
3960	0c4b	00000000		nop	; Automatically Added by addNops.pl
3961	0c4c	00000000		nop	; Automatically Added by addNops.pl
3962	0c4d	00000000		nop	; Automatically Added by addNops.pl
3963	0c4e	00c42018		mult	%GPR4,%GPR6,%GPR4	
3964	0c4f	00000000		nop	; Automatically Added by addNops.pl
3965	0c50	00000000		nop	; Automatically Added by addNops.pl
3966	0c51	00000000		nop	; Automatically Added by addNops.pl
3967				; Automatically 12 NOPs removed by reduceNOPs.sh
3968	0c52	00431020		add	%GPR2,%GPR2,%GPR3	
3969	0c53	00000000		nop	; Automatically Added by addNops.pl
3970	0c54	00000000		nop	; Automatically Added by addNops.pl
3971	0c55	00000000		nop	; Automatically Added by addNops.pl
3972	0c56	00a41820		add	%GPR3,%GPR5,%GPR4	
3973	0c57	00000000		nop	; Automatically Added by addNops.pl
3974	0c58	00000000		nop	; Automatically Added by addNops.pl
3975	0c59	00000000		nop	; Automatically Added by addNops.pl
3976	0c5a	3c060000		lhi	%GPR6,$0	
3977	0c5b	00000000		nop	; Automatically Added by addNops.pl
3978	0c5c	00000000		nop	; Automatically Added by addNops.pl
3979	0c5d	00000000		nop	; Automatically Added by addNops.pl
3980				; Automatically 16 NOPs removed by reduceNOPs.sh
3981	0c5e	34c6000c		ori	%GPR6,%GPR6,$12	
3982	0c5f	00000000		nop	; Automatically Added by addNops.pl
3983	0c60	00000000		nop	; Automatically Added by addNops.pl
3984	0c61	00000000		nop	; Automatically Added by addNops.pl
3985	0c62	3c070000		lhi	%GPR7,$0	
3986	0c63	00000000		nop	; Automatically Added by addNops.pl
3987	0c64	00000000		nop	; Automatically Added by addNops.pl
3988	0c65	00000000		nop	; Automatically Added by addNops.pl
3989				; Automatically 16 NOPs removed by reduceNOPs.sh
3990	0c66	34e7000c		ori	%GPR7,%GPR7,$12	
3991	0c67	00000000		nop	; Automatically Added by addNops.pl
3992	0c68	00000000		nop	; Automatically Added by addNops.pl
3993	0c69	00000000		nop	; Automatically Added by addNops.pl
3994				; Automatically 12 NOPs removed by reduceNOPs.sh
3995	0c6a	00461020		add	%GPR2,%GPR2,%GPR6	
3996	0c6b	00000000		nop	; Automatically Added by addNops.pl
3997	0c6c	00000000		nop	; Automatically Added by addNops.pl
3998	0c6d	00000000		nop	; Automatically Added by addNops.pl
3999	0c6e	00671820		add	%GPR3,%GPR3,%GPR7	
4000	0c6f	00000000		nop	; Automatically Added by addNops.pl
4001	0c70	00000000		nop	; Automatically Added by addNops.pl
4002	0c71	00000000		nop	; Automatically Added by addNops.pl
4003				; Automatically 12 NOPs removed by reduceNOPs.sh
4004	0c72	8c420000		lw	%GPR2,0(%GPR2)	
4005	0c73	00000000		nop	; Automatically Added by addNops.pl
4006	0c74	00000000		nop	; Automatically Added by addNops.pl
4007	0c75	00000000		nop	; Automatically Added by addNops.pl
4008	0c76	00000000		nop	; Automatically added by fix-stall-insns.pl
4009	0c77	8c630000		lw	%GPR3,0(%GPR3)	
4010	0c78	00000000		nop	; Automatically Added by addNops.pl
4011	0c79	00000000		nop	; Automatically Added by addNops.pl
4012	0c7a	00000000		nop	; Automatically Added by addNops.pl
4013				; Automatically 16 NOPs removed by reduceNOPs.sh
4014	0c7b	0043d82e		seq	%GPR27,%GPR2,%GPR3	
4015	0c7c	00000000		nop	; Automatically Added by addNops.pl
4016	0c7d	00000000		nop	; Automatically Added by addNops.pl
4017	0c7e	00000000		nop	; Automatically Added by addNops.pl
4018	0c7f	17600008		bnez	%GPR27,L_lcd_thread_32	
4019	0c80	00000000		nop	; Automatically Added by addNops.pl
4020	0c81	00000000		nop	; Automatically Added by addNops.pl
4021	0c82	00000000		nop	; Automatically Added by addNops.pl
4022				; Automatically 16 NOPs removed by reduceNOPs.sh
4023	0c83	0800007a		j	L_lcd_thread_34	
4024	0c84	00000000		nop	; Automatically Added by addNops.pl
4025	0c85	00000000		nop	; Automatically Added by addNops.pl
4026	0c86	00000000		nop	; Automatically Added by addNops.pl
4027				; Automatically 16 NOPs removed by reduceNOPs.sh
4028			L_lcd_thread_32:
4029	0c87	00000000		nop	; Automatically Added by addNops.pl
4030	0c88	00000000		nop	; Automatically Added by addNops.pl
4031	0c89	00000000		nop	; Automatically Added by addNops.pl
4032	0c8a	8fc2ffe8		lw	%GPR2,-24(%GPR30)	
4033	0c8b	00000000		nop	; Automatically Added by addNops.pl
4034	0c8c	00000000		nop	; Automatically Added by addNops.pl
4035	0c8d	00000000		nop	; Automatically Added by addNops.pl
4036				; Automatically 16 NOPs removed by reduceNOPs.sh
4037	0c8e	0022d82f		sne	%GPR27,%GPR1,%GPR2	
4038	0c8f	00000000		nop	; Automatically Added by addNops.pl
4039	0c90	00000000		nop	; Automatically Added by addNops.pl
4040	0c91	00000000		nop	; Automatically Added by addNops.pl
4041	0c92	17600008		bnez	%GPR27,L_lcd_thread_33	
4042	0c93	00000000		nop	; Automatically Added by addNops.pl
4043	0c94	00000000		nop	; Automatically Added by addNops.pl
4044	0c95	00000000		nop	; Automatically Added by addNops.pl
4045				; Automatically 16 NOPs removed by reduceNOPs.sh
4046	0c96	08000067		j	L_lcd_thread_34	
4047	0c97	00000000		nop	; Automatically Added by addNops.pl
4048	0c98	00000000		nop	; Automatically Added by addNops.pl
4049	0c99	00000000		nop	; Automatically Added by addNops.pl
4050				; Automatically 16 NOPs removed by reduceNOPs.sh
4051			L_lcd_thread_33:
4052	0c9a	00000000		nop	; Automatically Added by addNops.pl
4053	0c9b	00000000		nop	; Automatically Added by addNops.pl
4054	0c9c	00000000		nop	; Automatically Added by addNops.pl
4055				; Automatically 8 NOPs removed by reduceNOPs.sh
4056	0c9d	3c020000		lhi	%GPR2,$( _switches	/0x10000)
4057	0c9e	00000000		nop
4058	0c9f	00000000		nop
4059	0ca0	00000000		nop
4060	0ca1	344202ac		ori	%GPR2,%GPR2,$( _switches	%0x10000)
4061	0ca2	00000000		nop	; Automatically Added by addNops.pl
4062	0ca3	00000000		nop	; Automatically Added by addNops.pl
4063	0ca4	00000000		nop	; Automatically Added by addNops.pl
4064				; Automatically 8 NOPs removed by reduceNOPs.sh
4065	0ca5	3c030000		lhi	%GPR3,$0	
4066	0ca6	00000000		nop	; Automatically Added by addNops.pl
4067	0ca7	00000000		nop	; Automatically Added by addNops.pl
4068	0ca8	00000000		nop	; Automatically Added by addNops.pl
4069				; Automatically 16 NOPs removed by reduceNOPs.sh
4070	0ca9	34630010		ori	%GPR3,%GPR3,$16	
4071	0caa	00000000		nop	; Automatically Added by addNops.pl
4072	0cab	00000000		nop	; Automatically Added by addNops.pl
4073	0cac	00000000		nop	; Automatically Added by addNops.pl
4074	0cad	3c040000		lhi	%GPR4,$0	
4075	0cae	00000000		nop	; Automatically Added by addNops.pl
4076	0caf	00000000		nop	; Automatically Added by addNops.pl
4077	0cb0	00000000		nop	; Automatically Added by addNops.pl
4078				; Automatically 16 NOPs removed by reduceNOPs.sh
4079	0cb1	34840010		ori	%GPR4,%GPR4,$16	
4080	0cb2	00000000		nop	; Automatically Added by addNops.pl
4081	0cb3	00000000		nop	; Automatically Added by addNops.pl
4082	0cb4	00000000		nop	; Automatically Added by addNops.pl
4083	0cb5	3c050000		lhi	%GPR5,$( _switches	/0x10000)
4084	0cb6	00000000		nop
4085	0cb7	00000000		nop
4086	0cb8	00000000		nop
4087	0cb9	34a502ac		ori	%GPR5,%GPR5,$( _switches	%0x10000)
4088	0cba	00000000		nop	; Automatically Added by addNops.pl
4089	0cbb	00000000		nop	; Automatically Added by addNops.pl
4090	0cbc	00000000		nop	; Automatically Added by addNops.pl
4091				; Automatically 8 NOPs removed by reduceNOPs.sh
4092	0cbd	00231818		mult	%GPR3,%GPR1,%GPR3	
4093	0cbe	00000000		nop	; Automatically Added by addNops.pl
4094	0cbf	00000000		nop	; Automatically Added by addNops.pl
4095	0cc0	00000000		nop	; Automatically Added by addNops.pl
4096	0cc1	00242018		mult	%GPR4,%GPR1,%GPR4	
4097	0cc2	00000000		nop	; Automatically Added by addNops.pl
4098	0cc3	00000000		nop	; Automatically Added by addNops.pl
4099	0cc4	00000000		nop	; Automatically Added by addNops.pl
4100				; Automatically 8 NOPs removed by reduceNOPs.sh
4101	0cc5	3c060000		lhi	%GPR6,$0	
4102	0cc6	00000000		nop	; Automatically Added by addNops.pl
4103	0cc7	00000000		nop	; Automatically Added by addNops.pl
4104	0cc8	00000000		nop	; Automatically Added by addNops.pl
4105				; Automatically 16 NOPs removed by reduceNOPs.sh
4106	0cc9	34c60000		ori	%GPR6,%GPR6,$0	
4107	0cca	00000000		nop	; Automatically Added by addNops.pl
4108	0ccb	00000000		nop	; Automatically Added by addNops.pl
4109	0ccc	00000000		nop	; Automatically Added by addNops.pl
4110	0ccd	00431020		add	%GPR2,%GPR2,%GPR3	
4111	0cce	00000000		nop	; Automatically Added by addNops.pl
4112	0ccf	00000000		nop	; Automatically Added by addNops.pl
4113	0cd0	00000000		nop	; Automatically Added by addNops.pl
4114	0cd1	00a41820		add	%GPR3,%GPR5,%GPR4	
4115	0cd2	00000000		nop	; Automatically Added by addNops.pl
4116	0cd3	00000000		nop	; Automatically Added by addNops.pl
4117	0cd4	00000000		nop	; Automatically Added by addNops.pl
4118	0cd5	3c070000		lhi	%GPR7,$0	
4119	0cd6	00000000		nop	; Automatically Added by addNops.pl
4120	0cd7	00000000		nop	; Automatically Added by addNops.pl
4121	0cd8	00000000		nop	; Automatically Added by addNops.pl
4122				; Automatically 16 NOPs removed by reduceNOPs.sh
4123	0cd9	34e70008		ori	%GPR7,%GPR7,$8	
4124	0cda	00000000		nop	; Automatically Added by addNops.pl
4125	0cdb	00000000		nop	; Automatically Added by addNops.pl
4126	0cdc	00000000		nop	; Automatically Added by addNops.pl
4127				; Automatically 8 NOPs removed by reduceNOPs.sh
4128	0cdd	ac460000		sw	0(%GPR2),%GPR6	
4129	0cde	00000000		nop	; Automatically Added by addNops.pl
4130	0cdf	00000000		nop	; Automatically Added by addNops.pl
4131	0ce0	00000000		nop	; Automatically Added by addNops.pl
4132	0ce1	3c040000		lhi	%GPR4,$0	
4133	0ce2	00000000		nop	; Automatically Added by addNops.pl
4134	0ce3	00000000		nop	; Automatically Added by addNops.pl
4135	0ce4	00000000		nop	; Automatically Added by addNops.pl
4136				; Automatically 16 NOPs removed by reduceNOPs.sh
4137	0ce5	34840001		ori	%GPR4,%GPR4,$1	
4138	0ce6	00000000		nop	; Automatically Added by addNops.pl
4139	0ce7	00000000		nop	; Automatically Added by addNops.pl
4140	0ce8	00000000		nop	; Automatically Added by addNops.pl
4141	0ce9	00671820		add	%GPR3,%GPR3,%GPR7	
4142	0cea	00000000		nop	; Automatically Added by addNops.pl
4143	0ceb	00000000		nop	; Automatically Added by addNops.pl
4144	0cec	00000000		nop	; Automatically Added by addNops.pl
4145	0ced	3c020000		lhi	%GPR2,$0	
4146	0cee	00000000		nop	; Automatically Added by addNops.pl
4147	0cef	00000000		nop	; Automatically Added by addNops.pl
4148	0cf0	00000000		nop	; Automatically Added by addNops.pl
4149				; Automatically 16 NOPs removed by reduceNOPs.sh
4150	0cf1	34420001		ori	%GPR2,%GPR2,$1	
4151	0cf2	00000000		nop	; Automatically Added by addNops.pl
4152	0cf3	00000000		nop	; Automatically Added by addNops.pl
4153	0cf4	00000000		nop	; Automatically Added by addNops.pl
4154				; Automatically 12 NOPs removed by reduceNOPs.sh
4155	0cf5	ac640000		sw	0(%GPR3),%GPR4	
4156	0cf6	00000000		nop	; Automatically Added by addNops.pl
4157	0cf7	00000000		nop	; Automatically Added by addNops.pl
4158	0cf8	00000000		nop	; Automatically Added by addNops.pl
4159	0cf9	0800000f		j	L_lcd_thread_35	
4160	0cfa	00000000		nop	; Automatically Added by addNops.pl
4161	0cfb	00000000		nop	; Automatically Added by addNops.pl
4162	0cfc	00000000		nop	; Automatically Added by addNops.pl
4163				; Automatically 12 NOPs removed by reduceNOPs.sh
4164			L_lcd_thread_34:
4165	0cfd	00000000		nop	; Automatically Added by addNops.pl
4166	0cfe	00000000		nop	; Automatically Added by addNops.pl
4167	0cff	00000000		nop	; Automatically Added by addNops.pl
4168				; Automatically 16 NOPs removed by reduceNOPs.sh
4169	0d00	3c020000		lhi	%GPR2,$0	
4170	0d01	00000000		nop	; Automatically Added by addNops.pl
4171	0d02	00000000		nop	; Automatically Added by addNops.pl
4172	0d03	00000000		nop	; Automatically Added by addNops.pl
4173				; Automatically 16 NOPs removed by reduceNOPs.sh
4174	0d04	34420000		ori	%GPR2,%GPR2,$0	
4175	0d05	00000000		nop	; Automatically Added by addNops.pl
4176	0d06	00000000		nop	; Automatically Added by addNops.pl
4177	0d07	00000000		nop	; Automatically Added by addNops.pl
4178				; Automatically 12 NOPs removed by reduceNOPs.sh
4179			L_lcd_thread_35:
4180	0d08	00000000		nop	; Automatically Added by addNops.pl
4181	0d09	00000000		nop	; Automatically Added by addNops.pl
4182	0d0a	00000000		nop	; Automatically Added by addNops.pl
4183	0d0b	20210001		addi	%GPR1,%GPR1,$1	
4184	0d0c	00000000		nop	; Automatically Added by addNops.pl
4185	0d0d	00000000		nop	; Automatically Added by addNops.pl
4186	0d0e	00000000		nop	; Automatically Added by addNops.pl
4187	0d0f	0bfffef8		j	L_lcd_thread_30	
4188	0d10	00000000		nop	; Automatically Added by addNops.pl
4189	0d11	00000000		nop	; Automatically Added by addNops.pl
4190	0d12	00000000		nop	; Automatically Added by addNops.pl
4191				; Automatically 12 NOPs removed by reduceNOPs.sh
4192			L_lcd_thread_36:
4193	0d13	00000000		nop	; Automatically Added by addNops.pl
4194	0d14	00000000		nop	; Automatically Added by addNops.pl
4195	0d15	00000000		nop	; Automatically Added by addNops.pl
4196	0d16	8fc3fff0		lw	%GPR3,-16(%GPR30)	
4197	0d17	00000000		nop	; Automatically Added by addNops.pl
4198	0d18	00000000		nop	; Automatically Added by addNops.pl
4199	0d19	00000000		nop	; Automatically Added by addNops.pl
4200	0d1a	00000000		nop	; Automatically added by fix-stall-insns.pl
4201	0d1b	8fc5ffe8		lw	%GPR5,-24(%GPR30)	
4202	0d1c	00000000		nop	; Automatically Added by addNops.pl
4203	0d1d	00000000		nop	; Automatically Added by addNops.pl
4204	0d1e	00000000		nop	; Automatically Added by addNops.pl
4205	0d1f	00000000		nop	; Automatically added by fix-stall-insns.pl
4206	0d20	3c010000		lhi	%GPR1,$( _switches	/0x10000)
4207	0d21	00000000		nop
4208	0d22	00000000		nop
4209	0d23	00000000		nop
4210	0d24	342102ac		ori	%GPR1,%GPR1,$( _switches	%0x10000)
4211	0d25	00000000		nop	; Automatically Added by addNops.pl
4212	0d26	00000000		nop	; Automatically Added by addNops.pl
4213	0d27	00000000		nop	; Automatically Added by addNops.pl
4214	0d28	3c020000		lhi	%GPR2,$0	
4215	0d29	00000000		nop	; Automatically Added by addNops.pl
4216	0d2a	00000000		nop	; Automatically Added by addNops.pl
4217	0d2b	00000000		nop	; Automatically Added by addNops.pl
4218				; Automatically 16 NOPs removed by reduceNOPs.sh
4219	0d2c	34420010		ori	%GPR2,%GPR2,$16	
4220	0d2d	00000000		nop	; Automatically Added by addNops.pl
4221	0d2e	00000000		nop	; Automatically Added by addNops.pl
4222	0d2f	00000000		nop	; Automatically Added by addNops.pl
4223	0d30	20630001		addi	%GPR3,%GPR3,$1	
4224	0d31	00000000		nop	; Automatically Added by addNops.pl
4225	0d32	00000000		nop	; Automatically Added by addNops.pl
4226	0d33	00000000		nop	; Automatically Added by addNops.pl
4227				; Automatically 12 NOPs removed by reduceNOPs.sh
4228	0d34	00a21018		mult	%GPR2,%GPR5,%GPR2	
4229	0d35	00000000		nop	; Automatically Added by addNops.pl
4230	0d36	00000000		nop	; Automatically Added by addNops.pl
4231	0d37	00000000		nop	; Automatically Added by addNops.pl
4232	0d38	afc3fff0		sw	-16(%GPR30),%GPR3	
4233	0d39	00000000		nop	; Automatically Added by addNops.pl
4234	0d3a	00000000		nop	; Automatically Added by addNops.pl
4235	0d3b	00000000		nop	; Automatically Added by addNops.pl
4236	0d3c	3c030000		lhi	%GPR3,$0	
4237	0d3d	00000000		nop	; Automatically Added by addNops.pl
4238	0d3e	00000000		nop	; Automatically Added by addNops.pl
4239	0d3f	00000000		nop	; Automatically Added by addNops.pl
4240				; Automatically 16 NOPs removed by reduceNOPs.sh
4241	0d40	34630008		ori	%GPR3,%GPR3,$8	
4242	0d41	00000000		nop	; Automatically Added by addNops.pl
4243	0d42	00000000		nop	; Automatically Added by addNops.pl
4244	0d43	00000000		nop	; Automatically Added by addNops.pl
4245	0d44	3c040000		lhi	%GPR4,$0	
4246	0d45	00000000		nop	; Automatically Added by addNops.pl
4247	0d46	00000000		nop	; Automatically Added by addNops.pl
4248	0d47	00000000		nop	; Automatically Added by addNops.pl
4249				; Automatically 16 NOPs removed by reduceNOPs.sh
4250	0d48	34840001		ori	%GPR4,%GPR4,$1	
4251	0d49	00000000		nop	; Automatically Added by addNops.pl
4252	0d4a	00000000		nop	; Automatically Added by addNops.pl
4253	0d4b	00000000		nop	; Automatically Added by addNops.pl
4254	0d4c	00220820		add	%GPR1,%GPR1,%GPR2	
4255	0d4d	00000000		nop	; Automatically Added by addNops.pl
4256	0d4e	00000000		nop	; Automatically Added by addNops.pl
4257	0d4f	00000000		nop	; Automatically Added by addNops.pl
4258				; Automatically 16 NOPs removed by reduceNOPs.sh
4259	0d50	00230820		add	%GPR1,%GPR1,%GPR3	
4260	0d51	00000000		nop	; Automatically Added by addNops.pl
4261	0d52	00000000		nop	; Automatically Added by addNops.pl
4262	0d53	00000000		nop	; Automatically Added by addNops.pl
4263				; Automatically 16 NOPs removed by reduceNOPs.sh
4264	0d54	ac240000		sw	0(%GPR1),%GPR4	
4265	0d55	00000000		nop	; Automatically Added by addNops.pl
4266	0d56	00000000		nop	; Automatically Added by addNops.pl
4267	0d57	00000000		nop	; Automatically Added by addNops.pl
4268	0d58	0bfffd35		j	L_lcd_thread_22	
4269	0d59	00000000		nop	; Automatically Added by addNops.pl
4270	0d5a	00000000		nop	; Automatically Added by addNops.pl
4271	0d5b	00000000		nop	; Automatically Added by addNops.pl
4272				; Automatically 12 NOPs removed by reduceNOPs.sh
4273			L_lcd_thread_37:
4274	0d5c	00000000		nop	; Automatically Added by addNops.pl
4275	0d5d	00000000		nop	; Automatically Added by addNops.pl
4276	0d5e	00000000		nop	; Automatically Added by addNops.pl
4277	0d5f	3c010000		lhi	%GPR1,$( L_lcd_thread_4	/0x10000)
4278	0d60	00000000		nop
4279	0d61	00000000		nop
4280	0d62	00000000		nop
4281	0d63	3421073d		ori	%GPR1,%GPR1,$( L_lcd_thread_4	%0x10000)
4282	0d64	00000000		nop	; Automatically Added by addNops.pl
4283	0d65	00000000		nop	; Automatically Added by addNops.pl
4284	0d66	00000000		nop	; Automatically Added by addNops.pl
4285				; Automatically 20 NOPs removed by reduceNOPs.sh
4286	0d67	3c030000		lhi	%GPR3,$0	
4287	0d68	00000000		nop	; Automatically Added by addNops.pl
4288	0d69	00000000		nop	; Automatically Added by addNops.pl
4289	0d6a	00000000		nop	; Automatically Added by addNops.pl
4290				; Automatically 16 NOPs removed by reduceNOPs.sh
4291	0d6b	34630078		ori	%GPR3,%GPR3,$120	
4292	0d6c	00000000		nop	; Automatically Added by addNops.pl
4293	0d6d	00000000		nop	; Automatically Added by addNops.pl
4294	0d6e	00000000		nop	; Automatically Added by addNops.pl
4295	0d6f	3c020000		lhi	%GPR2,$0	
4296	0d70	00000000		nop	; Automatically Added by addNops.pl
4297	0d71	00000000		nop	; Automatically Added by addNops.pl
4298	0d72	00000000		nop	; Automatically Added by addNops.pl
4299				; Automatically 16 NOPs removed by reduceNOPs.sh
4300	0d73	34420000		ori	%GPR2,%GPR2,$0	
4301	0d74	00000000		nop	; Automatically Added by addNops.pl
4302	0d75	00000000		nop	; Automatically Added by addNops.pl
4303	0d76	00000000		nop	; Automatically Added by addNops.pl
4304				; Automatically 16 NOPs removed by reduceNOPs.sh
4305	0d77	2bbd0008		subi	%GPR29,%GPR29,$8	
4306	0d78	00000000		nop	; Automatically Added by addNops.pl
4307	0d79	00000000		nop	; Automatically Added by addNops.pl
4308	0d7a	00000000		nop	; Automatically Added by addNops.pl
4309				; Automatically 16 NOPs removed by reduceNOPs.sh
4310	0d7b	0c0014b8		jal	g_print	
4311	0d7c	00000000		nop	; Automatically Added by addNops.pl
4312	0d7d	00000000		nop	; Automatically Added by addNops.pl
4313	0d7e	00000000		nop	; Automatically Added by addNops.pl
4314				; Automatically 16 NOPs removed by reduceNOPs.sh
4315	0d7f	23bd0008		addi	%GPR29,%GPR29,$8	
4316	0d80	00000000		nop	; Automatically Added by addNops.pl
4317	0d81	00000000		nop	; Automatically Added by addNops.pl
4318	0d82	00000000		nop	; Automatically Added by addNops.pl
4319				; Automatically 16 NOPs removed by reduceNOPs.sh
4320	0d83	2bc1000c		subi	%GPR1,%GPR30,$12	
4321	0d84	00000000		nop	; Automatically Added by addNops.pl
4322	0d85	00000000		nop	; Automatically Added by addNops.pl
4323	0d86	00000000		nop	; Automatically Added by addNops.pl
4324	0d87	8fc2fff0		lw	%GPR2,-16(%GPR30)	
4325	0d88	00000000		nop	; Automatically Added by addNops.pl
4326	0d89	00000000		nop	; Automatically Added by addNops.pl
4327	0d8a	00000000		nop	; Automatically Added by addNops.pl
4328				; Automatically 16 NOPs removed by reduceNOPs.sh
4329	0d8b	00220820		add	%GPR1,%GPR1,%GPR2	
4330	0d8c	00000000		nop	; Automatically Added by addNops.pl
4331	0d8d	00000000		nop	; Automatically Added by addNops.pl
4332	0d8e	00000000		nop	; Automatically Added by addNops.pl
4333				; Automatically 36 NOPs removed by reduceNOPs.sh
4334	0d8f	2bbd0008		subi	%GPR29,%GPR29,$8	
4335	0d90	00000000		nop	; Automatically Added by addNops.pl
4336	0d91	00000000		nop	; Automatically Added by addNops.pl
4337	0d92	00000000		nop	; Automatically Added by addNops.pl
4338				; Automatically 16 NOPs removed by reduceNOPs.sh
4339	0d93	0c001b5e		jal	loadByteUnsigned	
4340	0d94	00000000		nop	; Automatically Added by addNops.pl
4341	0d95	00000000		nop	; Automatically Added by addNops.pl
4342	0d96	00000000		nop	; Automatically Added by addNops.pl
4343				; Automatically 16 NOPs removed by reduceNOPs.sh
4344	0d97	23bd0008		addi	%GPR29,%GPR29,$8	
4345	0d98	00000000		nop	; Automatically Added by addNops.pl
4346	0d99	00000000		nop	; Automatically Added by addNops.pl
4347	0d9a	00000000		nop	; Automatically Added by addNops.pl
4348				; Automatically 16 NOPs removed by reduceNOPs.sh
4349	0d9b	8fc1fff0		lw	%GPR1,-16(%GPR30)	
4350	0d9c	00000000		nop	; Automatically Added by addNops.pl
4351	0d9d	00000000		nop	; Automatically Added by addNops.pl
4352	0d9e	00000000		nop	; Automatically Added by addNops.pl
4353				; Automatically 8 NOPs removed by reduceNOPs.sh
4354	0d9f	03801020		add	%GPR2,%GPR28,%GPR0	
4355	0da0	00000000		nop	; Automatically Added by addNops.pl
4356	0da1	00000000		nop	; Automatically Added by addNops.pl
4357	0da2	00000000		nop	; Automatically Added by addNops.pl
4358				; Automatically 8 NOPs removed by reduceNOPs.sh
4359	0da3	20210001		addi	%GPR1,%GPR1,$1	
4360	0da4	00000000		nop	; Automatically Added by addNops.pl
4361	0da5	00000000		nop	; Automatically Added by addNops.pl
4362	0da6	00000000		nop	; Automatically Added by addNops.pl
4363				; Automatically 16 NOPs removed by reduceNOPs.sh
4364	0da7	afc1fff0		sw	-16(%GPR30),%GPR1	
4365	0da8	00000000		nop	; Automatically Added by addNops.pl
4366	0da9	00000000		nop	; Automatically Added by addNops.pl
4367	0daa	00000000		nop	; Automatically Added by addNops.pl
4368	0dab	3c010000		lhi	%GPR1,$0	
4369	0dac	00000000		nop	; Automatically Added by addNops.pl
4370	0dad	00000000		nop	; Automatically Added by addNops.pl
4371	0dae	00000000		nop	; Automatically Added by addNops.pl
4372				; Automatically 16 NOPs removed by reduceNOPs.sh
4373	0daf	34210002		ori	%GPR1,%GPR1,$2	
4374	0db0	00000000		nop	; Automatically Added by addNops.pl
4375	0db1	00000000		nop	; Automatically Added by addNops.pl
4376	0db2	00000000		nop	; Automatically Added by addNops.pl
4377				; Automatically 16 NOPs removed by reduceNOPs.sh
4378	0db3	0041d82f		sne	%GPR27,%GPR2,%GPR1	
4379	0db4	00000000		nop	; Automatically Added by addNops.pl
4380	0db5	00000000		nop	; Automatically Added by addNops.pl
4381	0db6	00000000		nop	; Automatically Added by addNops.pl
4382	0db7	17600008		bnez	%GPR27,L_lcd_thread_38	
4383	0db8	00000000		nop	; Automatically Added by addNops.pl
4384	0db9	00000000		nop	; Automatically Added by addNops.pl
4385	0dba	00000000		nop	; Automatically Added by addNops.pl
4386				; Automatically 16 NOPs removed by reduceNOPs.sh
4387	0dbb	08000013		j	L_lcd_thread_39	
4388	0dbc	00000000		nop	; Automatically Added by addNops.pl
4389	0dbd	00000000		nop	; Automatically Added by addNops.pl
4390	0dbe	00000000		nop	; Automatically Added by addNops.pl
4391				; Automatically 16 NOPs removed by reduceNOPs.sh
4392			L_lcd_thread_38:
4393	0dbf	00000000		nop	; Automatically Added by addNops.pl
4394	0dc0	00000000		nop	; Automatically Added by addNops.pl
4395	0dc1	00000000		nop	; Automatically Added by addNops.pl
4396				; Automatically 16 NOPs removed by reduceNOPs.sh
4397	0dc2	3c1c0000		lhi	%GPR28,$0	
4398	0dc3	00000000		nop	; Automatically Added by addNops.pl
4399	0dc4	00000000		nop	; Automatically Added by addNops.pl
4400	0dc5	00000000		nop	; Automatically Added by addNops.pl
4401				; Automatically 16 NOPs removed by reduceNOPs.sh
4402	0dc6	379c0003		ori	%GPR28,%GPR28,$3	
4403	0dc7	00000000		nop	; Automatically Added by addNops.pl
4404	0dc8	00000000		nop	; Automatically Added by addNops.pl
4405	0dc9	00000000		nop	; Automatically Added by addNops.pl
4406				; Automatically 16 NOPs removed by reduceNOPs.sh
4407	0dca	08000188		j	L_lcd_thread_48	
4408	0dcb	00000000		nop	; Automatically Added by addNops.pl
4409	0dcc	00000000		nop	; Automatically Added by addNops.pl
4410	0dcd	00000000		nop	; Automatically Added by addNops.pl
4411				; Automatically 16 NOPs removed by reduceNOPs.sh
4412			L_lcd_thread_39:
4413	0dce	00000000		nop	; Automatically Added by addNops.pl
4414	0dcf	00000000		nop	; Automatically Added by addNops.pl
4415	0dd0	00000000		nop	; Automatically Added by addNops.pl
4416	0dd1	2bc1000c		subi	%GPR1,%GPR30,$12	
4417	0dd2	00000000		nop	; Automatically Added by addNops.pl
4418	0dd3	00000000		nop	; Automatically Added by addNops.pl
4419	0dd4	00000000		nop	; Automatically Added by addNops.pl
4420	0dd5	8fc2fff0		lw	%GPR2,-16(%GPR30)	
4421	0dd6	00000000		nop	; Automatically Added by addNops.pl
4422	0dd7	00000000		nop	; Automatically Added by addNops.pl
4423	0dd8	00000000		nop	; Automatically Added by addNops.pl
4424				; Automatically 16 NOPs removed by reduceNOPs.sh
4425	0dd9	00220820		add	%GPR1,%GPR1,%GPR2	
4426	0dda	00000000		nop	; Automatically Added by addNops.pl
4427	0ddb	00000000		nop	; Automatically Added by addNops.pl
4428	0ddc	00000000		nop	; Automatically Added by addNops.pl
4429				; Automatically 36 NOPs removed by reduceNOPs.sh
4430	0ddd	2bbd0008		subi	%GPR29,%GPR29,$8	
4431	0dde	00000000		nop	; Automatically Added by addNops.pl
4432	0ddf	00000000		nop	; Automatically Added by addNops.pl
4433	0de0	00000000		nop	; Automatically Added by addNops.pl
4434				; Automatically 16 NOPs removed by reduceNOPs.sh
4435	0de1	0c001b10		jal	loadByteUnsigned	
4436	0de2	00000000		nop	; Automatically Added by addNops.pl
4437	0de3	00000000		nop	; Automatically Added by addNops.pl
4438	0de4	00000000		nop	; Automatically Added by addNops.pl
4439				; Automatically 16 NOPs removed by reduceNOPs.sh
4440	0de5	23bd0008		addi	%GPR29,%GPR29,$8	
4441	0de6	00000000		nop	; Automatically Added by addNops.pl
4442	0de7	00000000		nop	; Automatically Added by addNops.pl
4443	0de8	00000000		nop	; Automatically Added by addNops.pl
4444				; Automatically 16 NOPs removed by reduceNOPs.sh
4445	0de9	8fc2fff0		lw	%GPR2,-16(%GPR30)	
4446	0dea	00000000		nop	; Automatically Added by addNops.pl
4447	0deb	00000000		nop	; Automatically Added by addNops.pl
4448	0dec	00000000		nop	; Automatically Added by addNops.pl
4449	0ded	2bc1000c		subi	%GPR1,%GPR30,$12	
4450	0dee	00000000		nop	; Automatically Added by addNops.pl
4451	0def	00000000		nop	; Automatically Added by addNops.pl
4452	0df0	00000000		nop	; Automatically Added by addNops.pl
4453	0df1	03802020		add	%GPR4,%GPR28,%GPR0	
4454	0df2	00000000		nop	; Automatically Added by addNops.pl
4455	0df3	00000000		nop	; Automatically Added by addNops.pl
4456	0df4	00000000		nop	; Automatically Added by addNops.pl
4457				; Automatically 8 NOPs removed by reduceNOPs.sh
4458	0df5	20420001		addi	%GPR2,%GPR2,$1	
4459	0df6	00000000		nop	; Automatically Added by addNops.pl
4460	0df7	00000000		nop	; Automatically Added by addNops.pl
4461	0df8	00000000		nop	; Automatically Added by addNops.pl
4462				; Automatically 8 NOPs removed by reduceNOPs.sh
4463	0df9	28840001		subi	%GPR4,%GPR4,$1	
4464	0dfa	00000000		nop	; Automatically Added by addNops.pl
4465	0dfb	00000000		nop	; Automatically Added by addNops.pl
4466	0dfc	00000000		nop	; Automatically Added by addNops.pl
4467				; Automatically 8 NOPs removed by reduceNOPs.sh
4468	0dfd	00401820		add	%GPR3,%GPR2,%GPR0	
4469	0dfe	00000000		nop	; Automatically Added by addNops.pl
4470	0dff	00000000		nop	; Automatically Added by addNops.pl
4471	0e00	00000000		nop	; Automatically Added by addNops.pl
4472	0e01	afc2fff0		sw	-16(%GPR30),%GPR2	
4473	0e02	00000000		nop	; Automatically Added by addNops.pl
4474	0e03	00000000		nop	; Automatically Added by addNops.pl
4475	0e04	00000000		nop	; Automatically Added by addNops.pl
4476	0e05	3c020000		lhi	%GPR2,$( _bars	/0x10000)
4477	0e06	00000000		nop
4478	0e07	00000000		nop
4479	0e08	00000000		nop
4480	0e09	344206ac		ori	%GPR2,%GPR2,$( _bars	%0x10000)
4481	0e0a	00000000		nop	; Automatically Added by addNops.pl
4482	0e0b	00000000		nop	; Automatically Added by addNops.pl
4483	0e0c	00000000		nop	; Automatically Added by addNops.pl
4484	0e0d	afc4ffe8		sw	-24(%GPR30),%GPR4	
4485	0e0e	00000000		nop	; Automatically Added by addNops.pl
4486	0e0f	00000000		nop	; Automatically Added by addNops.pl
4487	0e10	00000000		nop	; Automatically Added by addNops.pl
4488	0e11	00230820		add	%GPR1,%GPR1,%GPR3	
4489	0e12	00000000		nop	; Automatically Added by addNops.pl
4490	0e13	00000000		nop	; Automatically Added by addNops.pl
4491	0e14	00000000		nop	; Automatically Added by addNops.pl
4492	0e15	3c030000		lhi	%GPR3,$0	
4493	0e16	00000000		nop	; Automatically Added by addNops.pl
4494	0e17	00000000		nop	; Automatically Added by addNops.pl
4495	0e18	00000000		nop	; Automatically Added by addNops.pl
4496				; Automatically 16 NOPs removed by reduceNOPs.sh
4497	0e19	34630008		ori	%GPR3,%GPR3,$8	
4498	0e1a	00000000		nop	; Automatically Added by addNops.pl
4499	0e1b	00000000		nop	; Automatically Added by addNops.pl
4500	0e1c	00000000		nop	; Automatically Added by addNops.pl
4501				; Automatically 16 NOPs removed by reduceNOPs.sh
4502	0e1d	00831818		mult	%GPR3,%GPR4,%GPR3	
4503	0e1e	00000000		nop	; Automatically Added by addNops.pl
4504	0e1f	00000000		nop	; Automatically Added by addNops.pl
4505	0e20	00000000		nop	; Automatically Added by addNops.pl
4506				; Automatically 16 NOPs removed by reduceNOPs.sh
4507	0e21	00431020		add	%GPR2,%GPR2,%GPR3	
4508	0e22	00000000		nop	; Automatically Added by addNops.pl
4509	0e23	00000000		nop	; Automatically Added by addNops.pl
4510	0e24	00000000		nop	; Automatically Added by addNops.pl
4511				; Automatically 16 NOPs removed by reduceNOPs.sh
4512	0e25	afc2ffe4		sw	-28(%GPR30),%GPR2	
4513	0e26	00000000		nop	; Automatically Added by addNops.pl
4514	0e27	00000000		nop	; Automatically Added by addNops.pl
4515	0e28	00000000		nop	; Automatically Added by addNops.pl
4516				; Automatically 16 NOPs removed by reduceNOPs.sh
4517	0e29	2bbd0008		subi	%GPR29,%GPR29,$8	
4518	0e2a	00000000		nop	; Automatically Added by addNops.pl
4519	0e2b	00000000		nop	; Automatically Added by addNops.pl
4520	0e2c	00000000		nop	; Automatically Added by addNops.pl
4521				; Automatically 16 NOPs removed by reduceNOPs.sh
4522	0e2d	0c001ac4		jal	loadByteUnsigned	
4523	0e2e	00000000		nop	; Automatically Added by addNops.pl
4524	0e2f	00000000		nop	; Automatically Added by addNops.pl
4525	0e30	00000000		nop	; Automatically Added by addNops.pl
4526				; Automatically 16 NOPs removed by reduceNOPs.sh
4527	0e31	23bd0008		addi	%GPR29,%GPR29,$8	
4528	0e32	00000000		nop	; Automatically Added by addNops.pl
4529	0e33	00000000		nop	; Automatically Added by addNops.pl
4530	0e34	00000000		nop	; Automatically Added by addNops.pl
4531				; Automatically 16 NOPs removed by reduceNOPs.sh
4532	0e35	8fc4ffe4		lw	%GPR4,-28(%GPR30)	
4533	0e36	00000000		nop	; Automatically Added by addNops.pl
4534	0e37	00000000		nop	; Automatically Added by addNops.pl
4535	0e38	00000000		nop	; Automatically Added by addNops.pl
4536	0e39	03802820		add	%GPR5,%GPR28,%GPR0	
4537	0e3a	00000000		nop	; Automatically Added by addNops.pl
4538	0e3b	00000000		nop	; Automatically Added by addNops.pl
4539	0e3c	00000000		nop	; Automatically Added by addNops.pl
4540				; Automatically 8 NOPs removed by reduceNOPs.sh
4541	0e3d	3c010000		lhi	%GPR1,$( _bars	/0x10000)
4542	0e3e	00000000		nop
4543	0e3f	00000000		nop
4544	0e40	00000000		nop
4545	0e41	342106ac		ori	%GPR1,%GPR1,$( _bars	%0x10000)
4546	0e42	00000000		nop	; Automatically Added by addNops.pl
4547	0e43	00000000		nop	; Automatically Added by addNops.pl
4548	0e44	00000000		nop	; Automatically Added by addNops.pl
4549				; Automatically 8 NOPs removed by reduceNOPs.sh
4550	0e45	ac850000		sw	0(%GPR4),%GPR5	
4551	0e46	00000000		nop	; Automatically Added by addNops.pl
4552	0e47	00000000		nop	; Automatically Added by addNops.pl
4553	0e48	00000000		nop	; Automatically Added by addNops.pl
4554	0e49	3c020000		lhi	%GPR2,$0	
4555	0e4a	00000000		nop	; Automatically Added by addNops.pl
4556	0e4b	00000000		nop	; Automatically Added by addNops.pl
4557	0e4c	00000000		nop	; Automatically Added by addNops.pl
4558				; Automatically 16 NOPs removed by reduceNOPs.sh
4559	0e4d	34420008		ori	%GPR2,%GPR2,$8	
4560	0e4e	00000000		nop	; Automatically Added by addNops.pl
4561	0e4f	00000000		nop	; Automatically Added by addNops.pl
4562	0e50	00000000		nop	; Automatically Added by addNops.pl
4563	0e51	8fc5ffe8		lw	%GPR5,-24(%GPR30)	
4564	0e52	00000000		nop	; Automatically Added by addNops.pl
4565	0e53	00000000		nop	; Automatically Added by addNops.pl
4566	0e54	00000000		nop	; Automatically Added by addNops.pl
4567				; Automatically 8 NOPs removed by reduceNOPs.sh
4568	0e55	3c030000		lhi	%GPR3,$0	
4569	0e56	00000000		nop	; Automatically Added by addNops.pl
4570	0e57	00000000		nop	; Automatically Added by addNops.pl
4571	0e58	00000000		nop	; Automatically Added by addNops.pl
4572				; Automatically 16 NOPs removed by reduceNOPs.sh
4573	0e59	34630004		ori	%GPR3,%GPR3,$4	
4574	0e5a	00000000		nop	; Automatically Added by addNops.pl
4575	0e5b	00000000		nop	; Automatically Added by addNops.pl
4576	0e5c	00000000		nop	; Automatically Added by addNops.pl
4577				; Automatically 8 NOPs removed by reduceNOPs.sh
4578	0e5d	00a21018		mult	%GPR2,%GPR5,%GPR2	
4579	0e5e	00000000		nop	; Automatically Added by addNops.pl
4580	0e5f	00000000		nop	; Automatically Added by addNops.pl
4581	0e60	00000000		nop	; Automatically Added by addNops.pl
4582	0e61	3c040000		lhi	%GPR4,$0	
4583	0e62	00000000		nop	; Automatically Added by addNops.pl
4584	0e63	00000000		nop	; Automatically Added by addNops.pl
4585	0e64	00000000		nop	; Automatically Added by addNops.pl
4586				; Automatically 16 NOPs removed by reduceNOPs.sh
4587	0e65	34840001		ori	%GPR4,%GPR4,$1	
4588	0e66	00000000		nop	; Automatically Added by addNops.pl
4589	0e67	00000000		nop	; Automatically Added by addNops.pl
4590	0e68	00000000		nop	; Automatically Added by addNops.pl
4591				; Automatically 12 NOPs removed by reduceNOPs.sh
4592	0e69	8fc5fff0		lw	%GPR5,-16(%GPR30)	
4593	0e6a	00000000		nop	; Automatically Added by addNops.pl
4594	0e6b	00000000		nop	; Automatically Added by addNops.pl
4595	0e6c	00000000		nop	; Automatically Added by addNops.pl
4596	0e6d	00220820		add	%GPR1,%GPR1,%GPR2	
4597	0e6e	00000000		nop	; Automatically Added by addNops.pl
4598	0e6f	00000000		nop	; Automatically Added by addNops.pl
4599	0e70	00000000		nop	; Automatically Added by addNops.pl
4600				; Automatically 12 NOPs removed by reduceNOPs.sh
4601	0e71	20a50001		addi	%GPR5,%GPR5,$1	
4602	0e72	00000000		nop	; Automatically Added by addNops.pl
4603	0e73	00000000		nop	; Automatically Added by addNops.pl
4604	0e74	00000000		nop	; Automatically Added by addNops.pl
4605	0e75	00230820		add	%GPR1,%GPR1,%GPR3	
4606	0e76	00000000		nop	; Automatically Added by addNops.pl
4607	0e77	00000000		nop	; Automatically Added by addNops.pl
4608	0e78	00000000		nop	; Automatically Added by addNops.pl
4609				; Automatically 12 NOPs removed by reduceNOPs.sh
4610	0e79	afc5fff0		sw	-16(%GPR30),%GPR5	
4611	0e7a	00000000		nop	; Automatically Added by addNops.pl
4612	0e7b	00000000		nop	; Automatically Added by addNops.pl
4613	0e7c	00000000		nop	; Automatically Added by addNops.pl
4614	0e7d	00000000		nop	; Automatically added by fix-stall-insns.pl
4615	0e7e	ac240000		sw	0(%GPR1),%GPR4	
4616	0e7f	00000000		nop	; Automatically Added by addNops.pl
4617	0e80	00000000		nop	; Automatically Added by addNops.pl
4618	0e81	00000000		nop	; Automatically Added by addNops.pl
4619	0e82	0bfffc0b		j	L_lcd_thread_22	
4620	0e83	00000000		nop	; Automatically Added by addNops.pl
4621	0e84	00000000		nop	; Automatically Added by addNops.pl
4622	0e85	00000000		nop	; Automatically Added by addNops.pl
4623				; Automatically 12 NOPs removed by reduceNOPs.sh
4624			L_lcd_thread_40:
4625	0e86	00000000		nop	; Automatically Added by addNops.pl
4626	0e87	00000000		nop	; Automatically Added by addNops.pl
4627	0e88	00000000		nop	; Automatically Added by addNops.pl
4628	0e89	2bc1000c		subi	%GPR1,%GPR30,$12	
4629	0e8a	00000000		nop	; Automatically Added by addNops.pl
4630	0e8b	00000000		nop	; Automatically Added by addNops.pl
4631	0e8c	00000000		nop	; Automatically Added by addNops.pl
4632	0e8d	8fc2fff0		lw	%GPR2,-16(%GPR30)	
4633	0e8e	00000000		nop	; Automatically Added by addNops.pl
4634	0e8f	00000000		nop	; Automatically Added by addNops.pl
4635	0e90	00000000		nop	; Automatically Added by addNops.pl
4636				; Automatically 16 NOPs removed by reduceNOPs.sh
4637	0e91	00220820		add	%GPR1,%GPR1,%GPR2	
4638	0e92	00000000		nop	; Automatically Added by addNops.pl
4639	0e93	00000000		nop	; Automatically Added by addNops.pl
4640	0e94	00000000		nop	; Automatically Added by addNops.pl
4641				; Automatically 36 NOPs removed by reduceNOPs.sh
4642	0e95	2bbd0008		subi	%GPR29,%GPR29,$8	
4643	0e96	00000000		nop	; Automatically Added by addNops.pl
4644	0e97	00000000		nop	; Automatically Added by addNops.pl
4645	0e98	00000000		nop	; Automatically Added by addNops.pl
4646				; Automatically 16 NOPs removed by reduceNOPs.sh
4647	0e99	0c001a58		jal	loadByteUnsigned	
4648	0e9a	00000000		nop	; Automatically Added by addNops.pl
4649	0e9b	00000000		nop	; Automatically Added by addNops.pl
4650	0e9c	00000000		nop	; Automatically Added by addNops.pl
4651				; Automatically 16 NOPs removed by reduceNOPs.sh
4652	0e9d	23bd0008		addi	%GPR29,%GPR29,$8	
4653	0e9e	00000000		nop	; Automatically Added by addNops.pl
4654	0e9f	00000000		nop	; Automatically Added by addNops.pl
4655	0ea0	00000000		nop	; Automatically Added by addNops.pl
4656				; Automatically 16 NOPs removed by reduceNOPs.sh
4657	0ea1	8fc2fff0		lw	%GPR2,-16(%GPR30)	
4658	0ea2	00000000		nop	; Automatically Added by addNops.pl
4659	0ea3	00000000		nop	; Automatically Added by addNops.pl
4660	0ea4	00000000		nop	; Automatically Added by addNops.pl
4661				; Automatically 8 NOPs removed by reduceNOPs.sh
4662	0ea5	03800820		add	%GPR1,%GPR28,%GPR0	
4663	0ea6	00000000		nop	; Automatically Added by addNops.pl
4664	0ea7	00000000		nop	; Automatically Added by addNops.pl
4665	0ea8	00000000		nop	; Automatically Added by addNops.pl
4666				; Automatically 8 NOPs removed by reduceNOPs.sh
4667	0ea9	20420001		addi	%GPR2,%GPR2,$1	
4668	0eaa	00000000		nop	; Automatically Added by addNops.pl
4669	0eab	00000000		nop	; Automatically Added by addNops.pl
4670	0eac	00000000		nop	; Automatically Added by addNops.pl
4671				; Automatically 16 NOPs removed by reduceNOPs.sh
4672	0ead	afc2fff0		sw	-16(%GPR30),%GPR2	
4673	0eae	00000000		nop	; Automatically Added by addNops.pl
4674	0eaf	00000000		nop	; Automatically Added by addNops.pl
4675	0eb0	00000000		nop	; Automatically Added by addNops.pl
4676	0eb1	3c020000		lhi	%GPR2,$0	
4677	0eb2	00000000		nop	; Automatically Added by addNops.pl
4678	0eb3	00000000		nop	; Automatically Added by addNops.pl
4679	0eb4	00000000		nop	; Automatically Added by addNops.pl
4680				; Automatically 16 NOPs removed by reduceNOPs.sh
4681	0eb5	34420041		ori	%GPR2,%GPR2,$65	
4682	0eb6	00000000		nop	; Automatically Added by addNops.pl
4683	0eb7	00000000		nop	; Automatically Added by addNops.pl
4684	0eb8	00000000		nop	; Automatically Added by addNops.pl
4685				; Automatically 16 NOPs removed by reduceNOPs.sh
4686	0eb9	0022d82e		seq	%GPR27,%GPR1,%GPR2	
4687	0eba	00000000		nop	; Automatically Added by addNops.pl
4688	0ebb	00000000		nop	; Automatically Added by addNops.pl
4689	0ebc	00000000		nop	; Automatically Added by addNops.pl
4690	0ebd	1760fa85		bnez	%GPR27,L_lcd_thread_17	
4691	0ebe	00000000		nop	; Automatically Added by addNops.pl
4692	0ebf	00000000		nop	; Automatically Added by addNops.pl
4693	0ec0	00000000		nop	; Automatically Added by addNops.pl
4694				; Automatically 16 NOPs removed by reduceNOPs.sh
4695	0ec1	08000004		j	L_lcd_thread_41	
4696	0ec2	00000000		nop	; Automatically Added by addNops.pl
4697	0ec3	00000000		nop	; Automatically Added by addNops.pl
4698	0ec4	00000000		nop	; Automatically Added by addNops.pl
4699				; Automatically 16 NOPs removed by reduceNOPs.sh
4700			L_lcd_thread_41:
4701	0ec5	00000000		nop	; Automatically Added by addNops.pl
4702	0ec6	00000000		nop	; Automatically Added by addNops.pl
4703	0ec7	00000000		nop	; Automatically Added by addNops.pl
4704				; Automatically 16 NOPs removed by reduceNOPs.sh
4705	0ec8	3c020000		lhi	%GPR2,$0	
4706	0ec9	00000000		nop	; Automatically Added by addNops.pl
4707	0eca	00000000		nop	; Automatically Added by addNops.pl
4708	0ecb	00000000		nop	; Automatically Added by addNops.pl
4709				; Automatically 16 NOPs removed by reduceNOPs.sh
4710	0ecc	34420042		ori	%GPR2,%GPR2,$66	
4711	0ecd	00000000		nop	; Automatically Added by addNops.pl
4712	0ece	00000000		nop	; Automatically Added by addNops.pl
4713	0ecf	00000000		nop	; Automatically Added by addNops.pl
4714				; Automatically 16 NOPs removed by reduceNOPs.sh
4715	0ed0	0022d82e		seq	%GPR27,%GPR1,%GPR2	
4716	0ed1	00000000		nop	; Automatically Added by addNops.pl
4717	0ed2	00000000		nop	; Automatically Added by addNops.pl
4718	0ed3	00000000		nop	; Automatically Added by addNops.pl
4719	0ed4	1760fe88		bnez	%GPR27,L_lcd_thread_37	
4720	0ed5	00000000		nop	; Automatically Added by addNops.pl
4721	0ed6	00000000		nop	; Automatically Added by addNops.pl
4722	0ed7	00000000		nop	; Automatically Added by addNops.pl
4723				; Automatically 16 NOPs removed by reduceNOPs.sh
4724	0ed8	08000004		j	L_lcd_thread_42	
4725	0ed9	00000000		nop	; Automatically Added by addNops.pl
4726	0eda	00000000		nop	; Automatically Added by addNops.pl
4727	0edb	00000000		nop	; Automatically Added by addNops.pl
4728				; Automatically 16 NOPs removed by reduceNOPs.sh
4729			L_lcd_thread_42:
4730	0edc	00000000		nop	; Automatically Added by addNops.pl
4731	0edd	00000000		nop	; Automatically Added by addNops.pl
4732	0ede	00000000		nop	; Automatically Added by addNops.pl
4733				; Automatically 16 NOPs removed by reduceNOPs.sh
4734	0edf	3c020000		lhi	%GPR2,$0	
4735	0ee0	00000000		nop	; Automatically Added by addNops.pl
4736	0ee1	00000000		nop	; Automatically Added by addNops.pl
4737	0ee2	00000000		nop	; Automatically Added by addNops.pl
4738				; Automatically 16 NOPs removed by reduceNOPs.sh
4739	0ee3	34420048		ori	%GPR2,%GPR2,$72	
4740	0ee4	00000000		nop	; Automatically Added by addNops.pl
4741	0ee5	00000000		nop	; Automatically Added by addNops.pl
4742	0ee6	00000000		nop	; Automatically Added by addNops.pl
4743				; Automatically 16 NOPs removed by reduceNOPs.sh
4744	0ee7	0022d82e		seq	%GPR27,%GPR1,%GPR2	
4745	0ee8	00000000		nop	; Automatically Added by addNops.pl
4746	0ee9	00000000		nop	; Automatically Added by addNops.pl
4747	0eea	00000000		nop	; Automatically Added by addNops.pl
4748	0eeb	1760fba2		bnez	%GPR27,L_lcd_thread_22	
4749	0eec	00000000		nop	; Automatically Added by addNops.pl
4750	0eed	00000000		nop	; Automatically Added by addNops.pl
4751	0eee	00000000		nop	; Automatically Added by addNops.pl
4752				; Automatically 16 NOPs removed by reduceNOPs.sh
4753	0eef	08000004		j	L_lcd_thread_43	
4754	0ef0	00000000		nop	; Automatically Added by addNops.pl
4755	0ef1	00000000		nop	; Automatically Added by addNops.pl
4756	0ef2	00000000		nop	; Automatically Added by addNops.pl
4757				; Automatically 16 NOPs removed by reduceNOPs.sh
4758			L_lcd_thread_43:
4759	0ef3	00000000		nop	; Automatically Added by addNops.pl
4760	0ef4	00000000		nop	; Automatically Added by addNops.pl
4761	0ef5	00000000		nop	; Automatically Added by addNops.pl
4762				; Automatically 16 NOPs removed by reduceNOPs.sh
4763	0ef6	3c020000		lhi	%GPR2,$0	
4764	0ef7	00000000		nop	; Automatically Added by addNops.pl
4765	0ef8	00000000		nop	; Automatically Added by addNops.pl
4766	0ef9	00000000		nop	; Automatically Added by addNops.pl
4767				; Automatically 16 NOPs removed by reduceNOPs.sh
4768	0efa	3442004e		ori	%GPR2,%GPR2,$78	
4769	0efb	00000000		nop	; Automatically Added by addNops.pl
4770	0efc	00000000		nop	; Automatically Added by addNops.pl
4771	0efd	00000000		nop	; Automatically Added by addNops.pl
4772				; Automatically 16 NOPs removed by reduceNOPs.sh
4773	0efe	0022d82e		seq	%GPR27,%GPR1,%GPR2	
4774	0eff	00000000		nop	; Automatically Added by addNops.pl
4775	0f00	00000000		nop	; Automatically Added by addNops.pl
4776	0f01	00000000		nop	; Automatically Added by addNops.pl
4777	0f02	1760fc2d		bnez	%GPR27,L_lcd_thread_27	
4778	0f03	00000000		nop	; Automatically Added by addNops.pl
4779	0f04	00000000		nop	; Automatically Added by addNops.pl
4780	0f05	00000000		nop	; Automatically Added by addNops.pl
4781				; Automatically 16 NOPs removed by reduceNOPs.sh
4782	0f06	08000004		j	L_lcd_thread_44	
4783	0f07	00000000		nop	; Automatically Added by addNops.pl
4784	0f08	00000000		nop	; Automatically Added by addNops.pl
4785	0f09	00000000		nop	; Automatically Added by addNops.pl
4786				; Automatically 16 NOPs removed by reduceNOPs.sh
4787			L_lcd_thread_44:
4788	0f0a	00000000		nop	; Automatically Added by addNops.pl
4789	0f0b	00000000		nop	; Automatically Added by addNops.pl
4790	0f0c	00000000		nop	; Automatically Added by addNops.pl
4791				; Automatically 16 NOPs removed by reduceNOPs.sh
4792	0f0d	3c020000		lhi	%GPR2,$0	
4793	0f0e	00000000		nop	; Automatically Added by addNops.pl
4794	0f0f	00000000		nop	; Automatically Added by addNops.pl
4795	0f10	00000000		nop	; Automatically Added by addNops.pl
4796				; Automatically 16 NOPs removed by reduceNOPs.sh
4797	0f11	34420054		ori	%GPR2,%GPR2,$84	
4798	0f12	00000000		nop	; Automatically Added by addNops.pl
4799	0f13	00000000		nop	; Automatically Added by addNops.pl
4800	0f14	00000000		nop	; Automatically Added by addNops.pl
4801				; Automatically 16 NOPs removed by reduceNOPs.sh
4802	0f15	0022d82e		seq	%GPR27,%GPR1,%GPR2	
4803	0f16	00000000		nop	; Automatically Added by addNops.pl
4804	0f17	00000000		nop	; Automatically Added by addNops.pl
4805	0f18	00000000		nop	; Automatically Added by addNops.pl
4806	0f19	1760fb74		bnez	%GPR27,L_lcd_thread_22	
4807	0f1a	00000000		nop	; Automatically Added by addNops.pl
4808	0f1b	00000000		nop	; Automatically Added by addNops.pl
4809	0f1c	00000000		nop	; Automatically Added by addNops.pl
4810				; Automatically 16 NOPs removed by reduceNOPs.sh
4811	0f1d	08000004		j	L_lcd_thread_45	
4812	0f1e	00000000		nop	; Automatically Added by addNops.pl
4813	0f1f	00000000		nop	; Automatically Added by addNops.pl
4814	0f20	00000000		nop	; Automatically Added by addNops.pl
4815				; Automatically 16 NOPs removed by reduceNOPs.sh
4816			L_lcd_thread_45:
4817	0f21	00000000		nop	; Automatically Added by addNops.pl
4818	0f22	00000000		nop	; Automatically Added by addNops.pl
4819	0f23	00000000		nop	; Automatically Added by addNops.pl
4820				; Automatically 16 NOPs removed by reduceNOPs.sh
4821	0f24	3c1c0000		lhi	%GPR28,$0	
4822	0f25	00000000		nop	; Automatically Added by addNops.pl
4823	0f26	00000000		nop	; Automatically Added by addNops.pl
4824	0f27	00000000		nop	; Automatically Added by addNops.pl
4825				; Automatically 16 NOPs removed by reduceNOPs.sh
4826	0f28	379c0002		ori	%GPR28,%GPR28,$2	
4827	0f29	00000000		nop	; Automatically Added by addNops.pl
4828	0f2a	00000000		nop	; Automatically Added by addNops.pl
4829	0f2b	00000000		nop	; Automatically Added by addNops.pl
4830				; Automatically 16 NOPs removed by reduceNOPs.sh
4831	0f2c	08000026		j	L_lcd_thread_48	
4832	0f2d	00000000		nop	; Automatically Added by addNops.pl
4833	0f2e	00000000		nop	; Automatically Added by addNops.pl
4834	0f2f	00000000		nop	; Automatically Added by addNops.pl
4835				; Automatically 16 NOPs removed by reduceNOPs.sh
4836			L_lcd_thread_46:
4837	0f30	00000000		nop	; Automatically Added by addNops.pl
4838	0f31	00000000		nop	; Automatically Added by addNops.pl
4839	0f32	00000000		nop	; Automatically Added by addNops.pl
4840				; Automatically 16 NOPs removed by reduceNOPs.sh
4841	0f33	3c010000		lhi	%GPR1,$0	
4842	0f34	00000000		nop	; Automatically Added by addNops.pl
4843	0f35	00000000		nop	; Automatically Added by addNops.pl
4844	0f36	00000000		nop	; Automatically Added by addNops.pl
4845				; Automatically 16 NOPs removed by reduceNOPs.sh
4846	0f37	34210000		ori	%GPR1,%GPR1,$0	
4847	0f38	00000000		nop	; Automatically Added by addNops.pl
4848	0f39	00000000		nop	; Automatically Added by addNops.pl
4849	0f3a	00000000		nop	; Automatically Added by addNops.pl
4850				; Automatically 16 NOPs removed by reduceNOPs.sh
4851	0f3b	afc1fff0		sw	-16(%GPR30),%GPR1	
4852	0f3c	00000000		nop	; Automatically Added by addNops.pl
4853	0f3d	00000000		nop	; Automatically Added by addNops.pl
4854	0f3e	00000000		nop	; Automatically Added by addNops.pl
4855				; Automatically 12 NOPs removed by reduceNOPs.sh
4856			L_lcd_thread_47:
4857	0f3f	00000000		nop	; Automatically Added by addNops.pl
4858	0f40	00000000		nop	; Automatically Added by addNops.pl
4859	0f41	00000000		nop	; Automatically Added by addNops.pl
4860				; Automatically 16 NOPs removed by reduceNOPs.sh
4861	0f42	2bbd0008		subi	%GPR29,%GPR29,$8	
4862	0f43	00000000		nop	; Automatically Added by addNops.pl
4863	0f44	00000000		nop	; Automatically Added by addNops.pl
4864	0f45	00000000		nop	; Automatically Added by addNops.pl
4865				; Automatically 16 NOPs removed by reduceNOPs.sh
4866	0f46	0ffff417		jal	switchThread	
4867	0f47	00000000		nop	; Automatically Added by addNops.pl
4868	0f48	00000000		nop	; Automatically Added by addNops.pl
4869	0f49	00000000		nop	; Automatically Added by addNops.pl
4870				; Automatically 16 NOPs removed by reduceNOPs.sh
4871	0f4a	23bd0008		addi	%GPR29,%GPR29,$8	
4872	0f4b	00000000		nop	; Automatically Added by addNops.pl
4873	0f4c	00000000		nop	; Automatically Added by addNops.pl
4874	0f4d	00000000		nop	; Automatically Added by addNops.pl
4875				; Automatically 16 NOPs removed by reduceNOPs.sh
4876	0f4e	0bfff8d1		j	L_lcd_thread_11	
4877	0f4f	00000000		nop	; Automatically Added by addNops.pl
4878	0f50	00000000		nop	; Automatically Added by addNops.pl
4879	0f51	00000000		nop	; Automatically Added by addNops.pl
4880				; Automatically 12 NOPs removed by reduceNOPs.sh
4881			L_lcd_thread_48:
4882	0f52	00000000		nop	; Automatically Added by addNops.pl
4883	0f53	00000000		nop	; Automatically Added by addNops.pl
4884	0f54	00000000		nop	; Automatically Added by addNops.pl
4885				; Automatically 16 NOPs removed by reduceNOPs.sh
4886	0f55	8fdf0004		lw	%GPR31,4(%GPR30)	
4887	0f56	00000000		nop	; Automatically Added by addNops.pl
4888	0f57	00000000		nop	; Automatically Added by addNops.pl
4889	0f58	00000000		nop	; Automatically Added by addNops.pl
4890	0f59	27dd0004		addui	%GPR29,%GPR30,$4	
4891	0f5a	00000000		nop	; Automatically Added by addNops.pl
4892	0f5b	00000000		nop	; Automatically Added by addNops.pl
4893	0f5c	00000000		nop	; Automatically Added by addNops.pl
4894	0f5d	8fde0000		lw	%GPR30,0(%GPR30)	
4895	0f5e	00000000		nop	; Automatically Added by addNops.pl
4896	0f5f	00000000		nop	; Automatically Added by addNops.pl
4897	0f60	00000000		nop	; Automatically Added by addNops.pl
4898				; Automatically 8 NOPs removed by reduceNOPs.sh
4899	0f61	00000000		nop
4900	0f62	00000000		nop
4901	0f63	03e00008		jr	%GPR31	
4902	0f64	00000000		nop	; Automatically Added by addNops.pl
4903	0f65	00000000		nop	; Automatically Added by addNops.pl
4904	0f66	00000000		nop	; Automatically Added by addNops.pl
4905				; Automatically 16 NOPs removed by reduceNOPs.sh
4906			test_poll:
4907			L_lcd_thread_49:
4908	0f67	00000000		nop	; Automatically Added by addNops.pl
4909	0f68	00000000		nop	; Automatically Added by addNops.pl
4910	0f69	00000000		nop	; Automatically Added by addNops.pl
4911				; Automatically 16 NOPs removed by reduceNOPs.sh
4912	0f6a	afbefffc		sw	-4(%GPR29),%GPR30	
4913	0f6b	00000000		nop	; Automatically Added by addNops.pl
4914	0f6c	00000000		nop	; Automatically Added by addNops.pl
4915	0f6d	00000000		nop	; Automatically Added by addNops.pl
4916	0f6e	00000000		nop	; Automatically added by fix-stall-insns.pl
4917	0f6f	afbf0000		sw	0(%GPR29),%GPR31	
4918	0f70	00000000		nop	; Automatically Added by addNops.pl
4919	0f71	00000000		nop	; Automatically Added by addNops.pl
4920	0f72	00000000		nop	; Automatically Added by addNops.pl
4921	0f73	2fbe0004		subui	%GPR30,%GPR29,$4	
4922	0f74	00000000		nop	; Automatically Added by addNops.pl
4923	0f75	00000000		nop	; Automatically Added by addNops.pl
4924	0f76	00000000		nop	; Automatically Added by addNops.pl
4925				; Automatically 4 NOPs removed by reduceNOPs.sh
4926	0f77	2bbd0018		subi	%GPR29,%GPR29,$24	
4927	0f78	00000000		nop	; Automatically Added by addNops.pl
4928	0f79	00000000		nop	; Automatically Added by addNops.pl
4929	0f7a	00000000		nop	; Automatically Added by addNops.pl
4930				; Automatically 28 NOPs removed by reduceNOPs.sh
4931	0f7b	3c010000		lhi	%GPR1,$( L_lcd_thread_5	/0x10000)
4932	0f7c	00000000		nop
4933	0f7d	00000000		nop
4934	0f7e	00000000		nop
4935	0f7f	3421073f		ori	%GPR1,%GPR1,$( L_lcd_thread_5	%0x10000)
4936	0f80	00000000		nop	; Automatically Added by addNops.pl
4937	0f81	00000000		nop	; Automatically Added by addNops.pl
4938	0f82	00000000		nop	; Automatically Added by addNops.pl
4939				; Automatically 24 NOPs removed by reduceNOPs.sh
4940	0f83	3c050000		lhi	%GPR5,$0	
4941	0f84	00000000		nop	; Automatically Added by addNops.pl
4942	0f85	00000000		nop	; Automatically Added by addNops.pl
4943	0f86	00000000		nop	; Automatically Added by addNops.pl
4944				; Automatically 16 NOPs removed by reduceNOPs.sh
4945	0f87	34a50028		ori	%GPR5,%GPR5,$40	
4946	0f88	00000000		nop	; Automatically Added by addNops.pl
4947	0f89	00000000		nop	; Automatically Added by addNops.pl
4948	0f8a	00000000		nop	; Automatically Added by addNops.pl
4949	0f8b	3c040000		lhi	%GPR4,$0	
4950	0f8c	00000000		nop	; Automatically Added by addNops.pl
4951	0f8d	00000000		nop	; Automatically Added by addNops.pl
4952	0f8e	00000000		nop	; Automatically Added by addNops.pl
4953				; Automatically 16 NOPs removed by reduceNOPs.sh
4954	0f8f	3484008c		ori	%GPR4,%GPR4,$140	
4955	0f90	00000000		nop	; Automatically Added by addNops.pl
4956	0f91	00000000		nop	; Automatically Added by addNops.pl
4957	0f92	00000000		nop	; Automatically Added by addNops.pl
4958	0f93	3c030000		lhi	%GPR3,$0	
4959	0f94	00000000		nop	; Automatically Added by addNops.pl
4960	0f95	00000000		nop	; Automatically Added by addNops.pl
4961	0f96	00000000		nop	; Automatically Added by addNops.pl
4962				; Automatically 16 NOPs removed by reduceNOPs.sh
4963	0f97	34630014		ori	%GPR3,%GPR3,$20	
4964	0f98	00000000		nop	; Automatically Added by addNops.pl
4965	0f99	00000000		nop	; Automatically Added by addNops.pl
4966	0f9a	00000000		nop	; Automatically Added by addNops.pl
4967	0f9b	3c020000		lhi	%GPR2,$0	
4968	0f9c	00000000		nop	; Automatically Added by addNops.pl
4969	0f9d	00000000		nop	; Automatically Added by addNops.pl
4970	0f9e	00000000		nop	; Automatically Added by addNops.pl
4971				; Automatically 16 NOPs removed by reduceNOPs.sh
4972	0f9f	3442005a		ori	%GPR2,%GPR2,$90	
4973	0fa0	00000000		nop	; Automatically Added by addNops.pl
4974	0fa1	00000000		nop	; Automatically Added by addNops.pl
4975	0fa2	00000000		nop	; Automatically Added by addNops.pl
4976				; Automatically 16 NOPs removed by reduceNOPs.sh
4977	0fa3	2bbd0008		subi	%GPR29,%GPR29,$8	
4978	0fa4	00000000		nop	; Automatically Added by addNops.pl
4979	0fa5	00000000		nop	; Automatically Added by addNops.pl
4980	0fa6	00000000		nop	; Automatically Added by addNops.pl
4981				; Automatically 16 NOPs removed by reduceNOPs.sh
4982	0fa7	0c0006ba		jal	create_menu_switch	
4983	0fa8	00000000		nop	; Automatically Added by addNops.pl
4984	0fa9	00000000		nop	; Automatically Added by addNops.pl
4985	0faa	00000000		nop	; Automatically Added by addNops.pl
4986				; Automatically 16 NOPs removed by reduceNOPs.sh
4987	0fab	23bd0008		addi	%GPR29,%GPR29,$8	
4988	0fac	00000000		nop	; Automatically Added by addNops.pl
4989	0fad	00000000		nop	; Automatically Added by addNops.pl
4990	0fae	00000000		nop	; Automatically Added by addNops.pl
4991				; Automatically 16 NOPs removed by reduceNOPs.sh
4992	0faf	3c010000		lhi	%GPR1,$( L_lcd_thread_6	/0x10000)
4993	0fb0	00000000		nop
4994	0fb1	00000000		nop
4995	0fb2	00000000		nop
4996	0fb3	34210763		ori	%GPR1,%GPR1,$( L_lcd_thread_6	%0x10000)
4997	0fb4	00000000		nop	; Automatically Added by addNops.pl
4998	0fb5	00000000		nop	; Automatically Added by addNops.pl
4999	0fb6	00000000		nop	; Automatically Added by addNops.pl
5000				; Automatically 24 NOPs removed by reduceNOPs.sh
5001	0fb7	3c050000		lhi	%GPR5,$0	
5002	0fb8	00000000		nop	; Automatically Added by addNops.pl
5003	0fb9	00000000		nop	; Automatically Added by addNops.pl
5004	0fba	00000000		nop	; Automatically Added by addNops.pl
5005				; Automatically 16 NOPs removed by reduceNOPs.sh
5006	0fbb	34a50028		ori	%GPR5,%GPR5,$40	
5007	0fbc	00000000		nop	; Automatically Added by addNops.pl
5008	0fbd	00000000		nop	; Automatically Added by addNops.pl
5009	0fbe	00000000		nop	; Automatically Added by addNops.pl
5010	0fbf	3c040000		lhi	%GPR4,$0	
5011	0fc0	00000000		nop	; Automatically Added by addNops.pl
5012	0fc1	00000000		nop	; Automatically Added by addNops.pl
5013	0fc2	00000000		nop	; Automatically Added by addNops.pl
5014				; Automatically 16 NOPs removed by reduceNOPs.sh
5015	0fc3	348400d2		ori	%GPR4,%GPR4,$210	
5016	0fc4	00000000		nop	; Automatically Added by addNops.pl
5017	0fc5	00000000		nop	; Automatically Added by addNops.pl
5018	0fc6	00000000		nop	; Automatically Added by addNops.pl
5019	0fc7	3c030000		lhi	%GPR3,$0	
5020	0fc8	00000000		nop	; Automatically Added by addNops.pl
5021	0fc9	00000000		nop	; Automatically Added by addNops.pl
5022	0fca	00000000		nop	; Automatically Added by addNops.pl
5023				; Automatically 16 NOPs removed by reduceNOPs.sh
5024	0fcb	34630014		ori	%GPR3,%GPR3,$20	
5025	0fcc	00000000		nop	; Automatically Added by addNops.pl
5026	0fcd	00000000		nop	; Automatically Added by addNops.pl
5027	0fce	00000000		nop	; Automatically Added by addNops.pl
5028	0fcf	3c020000		lhi	%GPR2,$0	
5029	0fd0	00000000		nop	; Automatically Added by addNops.pl
5030	0fd1	00000000		nop	; Automatically Added by addNops.pl
5031	0fd2	00000000		nop	; Automatically Added by addNops.pl
5032				; Automatically 16 NOPs removed by reduceNOPs.sh
5033	0fd3	344200a0		ori	%GPR2,%GPR2,$160	
5034	0fd4	00000000		nop	; Automatically Added by addNops.pl
5035	0fd5	00000000		nop	; Automatically Added by addNops.pl
5036	0fd6	00000000		nop	; Automatically Added by addNops.pl
5037				; Automatically 16 NOPs removed by reduceNOPs.sh
5038	0fd7	2bbd0008		subi	%GPR29,%GPR29,$8	
5039	0fd8	00000000		nop	; Automatically Added by addNops.pl
5040	0fd9	00000000		nop	; Automatically Added by addNops.pl
5041	0fda	00000000		nop	; Automatically Added by addNops.pl
5042				; Automatically 16 NOPs removed by reduceNOPs.sh
5043	0fdb	0c000686		jal	create_menu_switch	
5044	0fdc	00000000		nop	; Automatically Added by addNops.pl
5045	0fdd	00000000		nop	; Automatically Added by addNops.pl
5046	0fde	00000000		nop	; Automatically Added by addNops.pl
5047				; Automatically 16 NOPs removed by reduceNOPs.sh
5048	0fdf	23bd0008		addi	%GPR29,%GPR29,$8	
5049	0fe0	00000000		nop	; Automatically Added by addNops.pl
5050	0fe1	00000000		nop	; Automatically Added by addNops.pl
5051	0fe2	00000000		nop	; Automatically Added by addNops.pl
5052				; Automatically 28 NOPs removed by reduceNOPs.sh
5053			L_lcd_thread_50:
5054	0fe3	00000000		nop	; Automatically Added by addNops.pl
5055	0fe4	00000000		nop	; Automatically Added by addNops.pl
5056	0fe5	00000000		nop	; Automatically Added by addNops.pl
5057	0fe6	3c010000		lhi	%GPR1,$( _switches	/0x10000)
5058	0fe7	00000000		nop
5059	0fe8	00000000		nop
5060	0fe9	00000000		nop
5061	0fea	342102ac		ori	%GPR1,%GPR1,$( _switches	%0x10000)
5062	0feb	00000000		nop	; Automatically Added by addNops.pl
5063	0fec	00000000		nop	; Automatically Added by addNops.pl
5064	0fed	00000000		nop	; Automatically Added by addNops.pl
5065				; Automatically 12 NOPs removed by reduceNOPs.sh
5066	0fee	3c020000		lhi	%GPR2,$0	
5067	0fef	00000000		nop	; Automatically Added by addNops.pl
5068	0ff0	00000000		nop	; Automatically Added by addNops.pl
5069	0ff1	00000000		nop	; Automatically Added by addNops.pl
5070				; Automatically 16 NOPs removed by reduceNOPs.sh
5071	0ff2	34420078		ori	%GPR2,%GPR2,$120	
5072	0ff3	00000000		nop	; Automatically Added by addNops.pl
5073	0ff4	00000000		nop	; Automatically Added by addNops.pl
5074	0ff5	00000000		nop	; Automatically Added by addNops.pl
5075				; Automatically 8 NOPs removed by reduceNOPs.sh
5076	0ff6	3c030000		lhi	%GPR3,$0	
5077	0ff7	00000000		nop	; Automatically Added by addNops.pl
5078	0ff8	00000000		nop	; Automatically Added by addNops.pl
5079	0ff9	00000000		nop	; Automatically Added by addNops.pl
5080				; Automatically 16 NOPs removed by reduceNOPs.sh
5081	0ffa	34630001		ori	%GPR3,%GPR3,$1	
5082	0ffb	00000000		nop	; Automatically Added by addNops.pl
5083	0ffc	00000000		nop	; Automatically Added by addNops.pl
5084	0ffd	00000000		nop	; Automatically Added by addNops.pl
5085				; Automatically 8 NOPs removed by reduceNOPs.sh
5086	0ffe	00220820		add	%GPR1,%GPR1,%GPR2	
5087	0fff	00000000		nop	; Automatically Added by addNops.pl
5088	1000	00000000		nop	; Automatically Added by addNops.pl
5089	1001	00000000		nop	; Automatically Added by addNops.pl
5090				; Automatically 16 NOPs removed by reduceNOPs.sh
5091	1002	8c210000		lw	%GPR1,0(%GPR1)	
5092	1003	00000000		nop	; Automatically Added by addNops.pl
5093	1004	00000000		nop	; Automatically Added by addNops.pl
5094	1005	00000000		nop	; Automatically Added by addNops.pl
5095				; Automatically 16 NOPs removed by reduceNOPs.sh
5096	1006	0023d82e		seq	%GPR27,%GPR1,%GPR3	
5097	1007	00000000		nop	; Automatically Added by addNops.pl
5098	1008	00000000		nop	; Automatically Added by addNops.pl
5099	1009	00000000		nop	; Automatically Added by addNops.pl
5100	100a	17600008		bnez	%GPR27,L_lcd_thread_51	
5101	100b	00000000		nop	; Automatically Added by addNops.pl
5102	100c	00000000		nop	; Automatically Added by addNops.pl
5103	100d	00000000		nop	; Automatically Added by addNops.pl
5104				; Automatically 16 NOPs removed by reduceNOPs.sh
5105	100e	08000093		j	L_lcd_thread_52	
5106	100f	00000000		nop	; Automatically Added by addNops.pl
5107	1010	00000000		nop	; Automatically Added by addNops.pl
5108	1011	00000000		nop	; Automatically Added by addNops.pl
5109				; Automatically 16 NOPs removed by reduceNOPs.sh
5110			L_lcd_thread_51:
5111	1012	00000000		nop	; Automatically Added by addNops.pl
5112	1013	00000000		nop	; Automatically Added by addNops.pl
5113	1014	00000000		nop	; Automatically Added by addNops.pl
5114	1015	3c010000		lhi	%GPR1,$( _switches	/0x10000)
5115	1016	00000000		nop
5116	1017	00000000		nop
5117	1018	00000000		nop
5118	1019	342102ac		ori	%GPR1,%GPR1,$( _switches	%0x10000)
5119	101a	00000000		nop	; Automatically Added by addNops.pl
5120	101b	00000000		nop	; Automatically Added by addNops.pl
5121	101c	00000000		nop	; Automatically Added by addNops.pl
5122	101d	2bc2000c		subi	%GPR2,%GPR30,$12	
5123	101e	00000000		nop	; Automatically Added by addNops.pl
5124	101f	00000000		nop	; Automatically Added by addNops.pl
5125	1020	00000000		nop	; Automatically Added by addNops.pl
5126				; Automatically 8 NOPs removed by reduceNOPs.sh
5127	1021	3c030000		lhi	%GPR3,$0	
5128	1022	00000000		nop	; Automatically Added by addNops.pl
5129	1023	00000000		nop	; Automatically Added by addNops.pl
5130	1024	00000000		nop	; Automatically Added by addNops.pl
5131				; Automatically 16 NOPs removed by reduceNOPs.sh
5132	1025	34630030		ori	%GPR3,%GPR3,$48	
5133	1026	00000000		nop	; Automatically Added by addNops.pl
5134	1027	00000000		nop	; Automatically Added by addNops.pl
5135	1028	00000000		nop	; Automatically Added by addNops.pl
5136				; Automatically 16 NOPs removed by reduceNOPs.sh
5137	1029	00230820		add	%GPR1,%GPR1,%GPR3	
5138	102a	00000000		nop	; Automatically Added by addNops.pl
5139	102b	00000000		nop	; Automatically Added by addNops.pl
5140	102c	00000000		nop	; Automatically Added by addNops.pl
5141				; Automatically 16 NOPs removed by reduceNOPs.sh
5142	102d	8c210000		lw	%GPR1,0(%GPR1)	
5143	102e	00000000		nop	; Automatically Added by addNops.pl
5144	102f	00000000		nop	; Automatically Added by addNops.pl
5145	1030	00000000		nop	; Automatically Added by addNops.pl
5146				; Automatically 16 NOPs removed by reduceNOPs.sh
5147	1031	2bbd0008		subi	%GPR29,%GPR29,$8	
5148	1032	00000000		nop	; Automatically Added by addNops.pl
5149	1033	00000000		nop	; Automatically Added by addNops.pl
5150	1034	00000000		nop	; Automatically Added by addNops.pl
5151				; Automatically 16 NOPs removed by reduceNOPs.sh
5152	1035	0fffefeb		jal	intToStr	
5153	1036	00000000		nop	; Automatically Added by addNops.pl
5154	1037	00000000		nop	; Automatically Added by addNops.pl
5155	1038	00000000		nop	; Automatically Added by addNops.pl
5156				; Automatically 16 NOPs removed by reduceNOPs.sh
5157	1039	23bd0008		addi	%GPR29,%GPR29,$8	
5158	103a	00000000		nop	; Automatically Added by addNops.pl
5159	103b	00000000		nop	; Automatically Added by addNops.pl
5160	103c	00000000		nop	; Automatically Added by addNops.pl
5161				; Automatically 16 NOPs removed by reduceNOPs.sh
5162	103d	3c010000		lhi	%GPR1,$( L_lcd_thread_7	/0x10000)
5163	103e	00000000		nop
5164	103f	00000000		nop
5165	1040	00000000		nop
5166	1041	34210787		ori	%GPR1,%GPR1,$( L_lcd_thread_7	%0x10000)
5167	1042	00000000		nop	; Automatically Added by addNops.pl
5168	1043	00000000		nop	; Automatically Added by addNops.pl
5169	1044	00000000		nop	; Automatically Added by addNops.pl
5170				; Automatically 20 NOPs removed by reduceNOPs.sh
5171	1045	3c030000		lhi	%GPR3,$0	
5172	1046	00000000		nop	; Automatically Added by addNops.pl
5173	1047	00000000		nop	; Automatically Added by addNops.pl
5174	1048	00000000		nop	; Automatically Added by addNops.pl
5175				; Automatically 16 NOPs removed by reduceNOPs.sh
5176	1049	3463003c		ori	%GPR3,%GPR3,$60	
5177	104a	00000000		nop	; Automatically Added by addNops.pl
5178	104b	00000000		nop	; Automatically Added by addNops.pl
5179	104c	00000000		nop	; Automatically Added by addNops.pl
5180	104d	3c020000		lhi	%GPR2,$0	
5181	104e	00000000		nop	; Automatically Added by addNops.pl
5182	104f	00000000		nop	; Automatically Added by addNops.pl
5183	1050	00000000		nop	; Automatically Added by addNops.pl
5184				; Automatically 16 NOPs removed by reduceNOPs.sh
5185	1051	3442002a		ori	%GPR2,%GPR2,$42	
5186	1052	00000000		nop	; Automatically Added by addNops.pl
5187	1053	00000000		nop	; Automatically Added by addNops.pl
5188	1054	00000000		nop	; Automatically Added by addNops.pl
5189				; Automatically 16 NOPs removed by reduceNOPs.sh
5190	1055	2bbd0008		subi	%GPR29,%GPR29,$8	
5191	1056	00000000		nop	; Automatically Added by addNops.pl
5192	1057	00000000		nop	; Automatically Added by addNops.pl
5193	1058	00000000		nop	; Automatically Added by addNops.pl
5194				; Automatically 16 NOPs removed by reduceNOPs.sh
5195	1059	0c0011da		jal	g_print	
5196	105a	00000000		nop	; Automatically Added by addNops.pl
5197	105b	00000000		nop	; Automatically Added by addNops.pl
5198	105c	00000000		nop	; Automatically Added by addNops.pl
5199				; Automatically 16 NOPs removed by reduceNOPs.sh
5200	105d	23bd0008		addi	%GPR29,%GPR29,$8	
5201	105e	00000000		nop	; Automatically Added by addNops.pl
5202	105f	00000000		nop	; Automatically Added by addNops.pl
5203	1060	00000000		nop	; Automatically Added by addNops.pl
5204				; Automatically 28 NOPs removed by reduceNOPs.sh
5205	1061	2bc1000c		subi	%GPR1,%GPR30,$12	
5206	1062	00000000		nop	; Automatically Added by addNops.pl
5207	1063	00000000		nop	; Automatically Added by addNops.pl
5208	1064	00000000		nop	; Automatically Added by addNops.pl
5209				; Automatically 8 NOPs removed by reduceNOPs.sh
5210	1065	3c030000		lhi	%GPR3,$0	
5211	1066	00000000		nop	; Automatically Added by addNops.pl
5212	1067	00000000		nop	; Automatically Added by addNops.pl
5213	1068	00000000		nop	; Automatically Added by addNops.pl
5214				; Automatically 16 NOPs removed by reduceNOPs.sh
5215	1069	3463003c		ori	%GPR3,%GPR3,$60	
5216	106a	00000000		nop	; Automatically Added by addNops.pl
5217	106b	00000000		nop	; Automatically Added by addNops.pl
5218	106c	00000000		nop	; Automatically Added by addNops.pl
5219	106d	3c020000		lhi	%GPR2,$0	
5220	106e	00000000		nop	; Automatically Added by addNops.pl
5221	106f	00000000		nop	; Automatically Added by addNops.pl
5222	1070	00000000		nop	; Automatically Added by addNops.pl
5223				; Automatically 16 NOPs removed by reduceNOPs.sh
5224	1071	3442002a		ori	%GPR2,%GPR2,$42	
5225	1072	00000000		nop	; Automatically Added by addNops.pl
5226	1073	00000000		nop	; Automatically Added by addNops.pl
5227	1074	00000000		nop	; Automatically Added by addNops.pl
5228				; Automatically 16 NOPs removed by reduceNOPs.sh
5229	1075	2bbd0008		subi	%GPR29,%GPR29,$8	
5230	1076	00000000		nop	; Automatically Added by addNops.pl
5231	1077	00000000		nop	; Automatically Added by addNops.pl
5232	1078	00000000		nop	; Automatically Added by addNops.pl
5233				; Automatically 16 NOPs removed by reduceNOPs.sh
5234	1079	0c0011ba		jal	g_print	
5235	107a	00000000		nop	; Automatically Added by addNops.pl
5236	107b	00000000		nop	; Automatically Added by addNops.pl
5237	107c	00000000		nop	; Automatically Added by addNops.pl
5238				; Automatically 16 NOPs removed by reduceNOPs.sh
5239	107d	23bd0008		addi	%GPR29,%GPR29,$8	
5240	107e	00000000		nop	; Automatically Added by addNops.pl
5241	107f	00000000		nop	; Automatically Added by addNops.pl
5242	1080	00000000		nop	; Automatically Added by addNops.pl
5243				; Automatically 24 NOPs removed by reduceNOPs.sh
5244	1081	3c010000		lhi	%GPR1,$( _switches	/0x10000)
5245	1082	00000000		nop
5246	1083	00000000		nop
5247	1084	00000000		nop
5248	1085	342102ac		ori	%GPR1,%GPR1,$( _switches	%0x10000)
5249	1086	00000000		nop	; Automatically Added by addNops.pl
5250	1087	00000000		nop	; Automatically Added by addNops.pl
5251	1088	00000000		nop	; Automatically Added by addNops.pl
5252				; Automatically 12 NOPs removed by reduceNOPs.sh
5253	1089	3c020000		lhi	%GPR2,$0	
5254	108a	00000000		nop	; Automatically Added by addNops.pl
5255	108b	00000000		nop	; Automatically Added by addNops.pl
5256	108c	00000000		nop	; Automatically Added by addNops.pl
5257				; Automatically 16 NOPs removed by reduceNOPs.sh
5258	108d	34420038		ori	%GPR2,%GPR2,$56	
5259	108e	00000000		nop	; Automatically Added by addNops.pl
5260	108f	00000000		nop	; Automatically Added by addNops.pl
5261	1090	00000000		nop	; Automatically Added by addNops.pl
5262				; Automatically 8 NOPs removed by reduceNOPs.sh
5263	1091	3c030000		lhi	%GPR3,$0	
5264	1092	00000000		nop	; Automatically Added by addNops.pl
5265	1093	00000000		nop	; Automatically Added by addNops.pl
5266	1094	00000000		nop	; Automatically Added by addNops.pl
5267				; Automatically 16 NOPs removed by reduceNOPs.sh
5268	1095	34630000		ori	%GPR3,%GPR3,$0	
5269	1096	00000000		nop	; Automatically Added by addNops.pl
5270	1097	00000000		nop	; Automatically Added by addNops.pl
5271	1098	00000000		nop	; Automatically Added by addNops.pl
5272				; Automatically 8 NOPs removed by reduceNOPs.sh
5273	1099	00220820		add	%GPR1,%GPR1,%GPR2	
5274	109a	00000000		nop	; Automatically Added by addNops.pl
5275	109b	00000000		nop	; Automatically Added by addNops.pl
5276	109c	00000000		nop	; Automatically Added by addNops.pl
5277				; Automatically 16 NOPs removed by reduceNOPs.sh
5278	109d	ac230000		sw	0(%GPR1),%GPR3	
5279	109e	00000000		nop	; Automatically Added by addNops.pl
5280	109f	00000000		nop	; Automatically Added by addNops.pl
5281	10a0	00000000		nop	; Automatically Added by addNops.pl
5282				; Automatically 12 NOPs removed by reduceNOPs.sh
5283			L_lcd_thread_52:
5284	10a1	00000000		nop	; Automatically Added by addNops.pl
5285	10a2	00000000		nop	; Automatically Added by addNops.pl
5286	10a3	00000000		nop	; Automatically Added by addNops.pl
5287				; Automatically 16 NOPs removed by reduceNOPs.sh
5288	10a4	3c010000		lhi	%GPR1,$0	
5289	10a5	00000000		nop	; Automatically Added by addNops.pl
5290	10a6	00000000		nop	; Automatically Added by addNops.pl
5291	10a7	00000000		nop	; Automatically Added by addNops.pl
5292				; Automatically 16 NOPs removed by reduceNOPs.sh
5293	10a8	34210000		ori	%GPR1,%GPR1,$0	
5294	10a9	00000000		nop	; Automatically Added by addNops.pl
5295	10aa	00000000		nop	; Automatically Added by addNops.pl
5296	10ab	00000000		nop	; Automatically Added by addNops.pl
5297				; Automatically 16 NOPs removed by reduceNOPs.sh
5298	10ac	afc1fff0		sw	-16(%GPR30),%GPR1	
5299	10ad	00000000		nop	; Automatically Added by addNops.pl
5300	10ae	00000000		nop	; Automatically Added by addNops.pl
5301	10af	00000000		nop	; Automatically Added by addNops.pl
5302				; Automatically 12 NOPs removed by reduceNOPs.sh
5303			L_lcd_thread_53:
5304	10b0	00000000		nop	; Automatically Added by addNops.pl
5305	10b1	00000000		nop	; Automatically Added by addNops.pl
5306	10b2	00000000		nop	; Automatically Added by addNops.pl
5307	10b3	3c010000		lhi	%GPR1,$( _activeswitches	/0x10000)
5308	10b4	00000000		nop
5309	10b5	00000000		nop
5310	10b6	00000000		nop
5311	10b7	34210730		ori	%GPR1,%GPR1,$( _activeswitches	%0x10000)
5312	10b8	00000000		nop	; Automatically Added by addNops.pl
5313	10b9	00000000		nop	; Automatically Added by addNops.pl
5314	10ba	00000000		nop	; Automatically Added by addNops.pl
5315	10bb	8fc2fff0		lw	%GPR2,-16(%GPR30)	
5316	10bc	00000000		nop	; Automatically Added by addNops.pl
5317	10bd	00000000		nop	; Automatically Added by addNops.pl
5318	10be	00000000		nop	; Automatically Added by addNops.pl
5319				; Automatically 12 NOPs removed by reduceNOPs.sh
5320	10bf	00000000		nop	; Automatically added by fix-stall-insns.pl
5321	10c0	8c210000		lw	%GPR1,0(%GPR1)	
5322	10c1	00000000		nop	; Automatically Added by addNops.pl
5323	10c2	00000000		nop	; Automatically Added by addNops.pl
5324	10c3	00000000		nop	; Automatically Added by addNops.pl
5325				; Automatically 16 NOPs removed by reduceNOPs.sh
5326	10c4	0041d82c		sle	%GPR27,%GPR2,%GPR1	
5327	10c5	00000000		nop	; Automatically Added by addNops.pl
5328	10c6	00000000		nop	; Automatically Added by addNops.pl
5329	10c7	00000000		nop	; Automatically Added by addNops.pl
5330	10c8	17600008		bnez	%GPR27,L_lcd_thread_54	
5331	10c9	00000000		nop	; Automatically Added by addNops.pl
5332	10ca	00000000		nop	; Automatically Added by addNops.pl
5333	10cb	00000000		nop	; Automatically Added by addNops.pl
5334				; Automatically 16 NOPs removed by reduceNOPs.sh
5335	10cc	08000185		j	L_lcd_thread_61	
5336	10cd	00000000		nop	; Automatically Added by addNops.pl
5337	10ce	00000000		nop	; Automatically Added by addNops.pl
5338	10cf	00000000		nop	; Automatically Added by addNops.pl
5339				; Automatically 16 NOPs removed by reduceNOPs.sh
5340			L_lcd_thread_54:
5341	10d0	00000000		nop	; Automatically Added by addNops.pl
5342	10d1	00000000		nop	; Automatically Added by addNops.pl
5343	10d2	00000000		nop	; Automatically Added by addNops.pl
5344	10d3	8fc5fff0		lw	%GPR5,-16(%GPR30)	
5345	10d4	00000000		nop	; Automatically Added by addNops.pl
5346	10d5	00000000		nop	; Automatically Added by addNops.pl
5347	10d6	00000000		nop	; Automatically Added by addNops.pl
5348	10d7	00000000		nop	; Automatically added by fix-stall-insns.pl
5349	10d8	3c010000		lhi	%GPR1,$( _switches	/0x10000)
5350	10d9	00000000		nop
5351	10da	00000000		nop
5352	10db	00000000		nop
5353	10dc	342102ac		ori	%GPR1,%GPR1,$( _switches	%0x10000)
5354	10dd	00000000		nop	; Automatically Added by addNops.pl
5355	10de	00000000		nop	; Automatically Added by addNops.pl
5356	10df	00000000		nop	; Automatically Added by addNops.pl
5357				; Automatically 8 NOPs removed by reduceNOPs.sh
5358	10e0	3c020000		lhi	%GPR2,$0	
5359	10e1	00000000		nop	; Automatically Added by addNops.pl
5360	10e2	00000000		nop	; Automatically Added by addNops.pl
5361	10e3	00000000		nop	; Automatically Added by addNops.pl
5362				; Automatically 16 NOPs removed by reduceNOPs.sh
5363	10e4	34420010		ori	%GPR2,%GPR2,$16	
5364	10e5	00000000		nop	; Automatically Added by addNops.pl
5365	10e6	00000000		nop	; Automatically Added by addNops.pl
5366	10e7	00000000		nop	; Automatically Added by addNops.pl
5367				; Automatically 12 NOPs removed by reduceNOPs.sh
5368	10e8	3c030000		lhi	%GPR3,$0	
5369	10e9	00000000		nop	; Automatically Added by addNops.pl
5370	10ea	00000000		nop	; Automatically Added by addNops.pl
5371	10eb	00000000		nop	; Automatically Added by addNops.pl
5372				; Automatically 16 NOPs removed by reduceNOPs.sh
5373	10ec	34630008		ori	%GPR3,%GPR3,$8	
5374	10ed	00000000		nop	; Automatically Added by addNops.pl
5375	10ee	00000000		nop	; Automatically Added by addNops.pl
5376	10ef	00000000		nop	; Automatically Added by addNops.pl
5377	10f0	00a21018		mult	%GPR2,%GPR5,%GPR2	
5378	10f1	00000000		nop	; Automatically Added by addNops.pl
5379	10f2	00000000		nop	; Automatically Added by addNops.pl
5380	10f3	00000000		nop	; Automatically Added by addNops.pl
5381	10f4	3c040000		lhi	%GPR4,$0	
5382	10f5	00000000		nop	; Automatically Added by addNops.pl
5383	10f6	00000000		nop	; Automatically Added by addNops.pl
5384	10f7	00000000		nop	; Automatically Added by addNops.pl
5385				; Automatically 16 NOPs removed by reduceNOPs.sh
5386	10f8	34840001		ori	%GPR4,%GPR4,$1	
5387	10f9	00000000		nop	; Automatically Added by addNops.pl
5388	10fa	00000000		nop	; Automatically Added by addNops.pl
5389	10fb	00000000		nop	; Automatically Added by addNops.pl
5390				; Automatically 12 NOPs removed by reduceNOPs.sh
5391	10fc	00220820		add	%GPR1,%GPR1,%GPR2	
5392	10fd	00000000		nop	; Automatically Added by addNops.pl
5393	10fe	00000000		nop	; Automatically Added by addNops.pl
5394	10ff	00000000		nop	; Automatically Added by addNops.pl
5395				; Automatically 16 NOPs removed by reduceNOPs.sh
5396	1100	00230820		add	%GPR1,%GPR1,%GPR3	
5397	1101	00000000		nop	; Automatically Added by addNops.pl
5398	1102	00000000		nop	; Automatically Added by addNops.pl
5399	1103	00000000		nop	; Automatically Added by addNops.pl
5400				; Automatically 16 NOPs removed by reduceNOPs.sh
5401	1104	8c210000		lw	%GPR1,0(%GPR1)	
5402	1105	00000000		nop	; Automatically Added by addNops.pl
5403	1106	00000000		nop	; Automatically Added by addNops.pl
5404	1107	00000000		nop	; Automatically Added by addNops.pl
5405				; Automatically 16 NOPs removed by reduceNOPs.sh
5406	1108	0024d82e		seq	%GPR27,%GPR1,%GPR4	
5407	1109	00000000		nop	; Automatically Added by addNops.pl
5408	110a	00000000		nop	; Automatically Added by addNops.pl
5409	110b	00000000		nop	; Automatically Added by addNops.pl
5410	110c	17600008		bnez	%GPR27,L_lcd_thread_55	
5411	110d	00000000		nop	; Automatically Added by addNops.pl
5412	110e	00000000		nop	; Automatically Added by addNops.pl
5413	110f	00000000		nop	; Automatically Added by addNops.pl
5414				; Automatically 16 NOPs removed by reduceNOPs.sh
5415	1110	08000132		j	L_lcd_thread_60	
5416	1111	00000000		nop	; Automatically Added by addNops.pl
5417	1112	00000000		nop	; Automatically Added by addNops.pl
5418	1113	00000000		nop	; Automatically Added by addNops.pl
5419				; Automatically 16 NOPs removed by reduceNOPs.sh
5420			L_lcd_thread_55:
5421	1114	00000000		nop	; Automatically Added by addNops.pl
5422	1115	00000000		nop	; Automatically Added by addNops.pl
5423	1116	00000000		nop	; Automatically Added by addNops.pl
5424	1117	8fc5fff0		lw	%GPR5,-16(%GPR30)	
5425	1118	00000000		nop	; Automatically Added by addNops.pl
5426	1119	00000000		nop	; Automatically Added by addNops.pl
5427	111a	00000000		nop	; Automatically Added by addNops.pl
5428	111b	00000000		nop	; Automatically added by fix-stall-insns.pl
5429	111c	3c010000		lhi	%GPR1,$( _switches	/0x10000)
5430	111d	00000000		nop
5431	111e	00000000		nop
5432	111f	00000000		nop
5433	1120	342102ac		ori	%GPR1,%GPR1,$( _switches	%0x10000)
5434	1121	00000000		nop	; Automatically Added by addNops.pl
5435	1122	00000000		nop	; Automatically Added by addNops.pl
5436	1123	00000000		nop	; Automatically Added by addNops.pl
5437				; Automatically 8 NOPs removed by reduceNOPs.sh
5438	1124	3c020000		lhi	%GPR2,$0	
5439	1125	00000000		nop	; Automatically Added by addNops.pl
5440	1126	00000000		nop	; Automatically Added by addNops.pl
5441	1127	00000000		nop	; Automatically Added by addNops.pl
5442				; Automatically 16 NOPs removed by reduceNOPs.sh
5443	1128	34420010		ori	%GPR2,%GPR2,$16	
5444	1129	00000000		nop	; Automatically Added by addNops.pl
5445	112a	00000000		nop	; Automatically Added by addNops.pl
5446	112b	00000000		nop	; Automatically Added by addNops.pl
5447				; Automatically 12 NOPs removed by reduceNOPs.sh
5448	112c	3c030000		lhi	%GPR3,$0	
5449	112d	00000000		nop	; Automatically Added by addNops.pl
5450	112e	00000000		nop	; Automatically Added by addNops.pl
5451	112f	00000000		nop	; Automatically Added by addNops.pl
5452				; Automatically 16 NOPs removed by reduceNOPs.sh
5453	1130	3463000c		ori	%GPR3,%GPR3,$12	
5454	1131	00000000		nop	; Automatically Added by addNops.pl
5455	1132	00000000		nop	; Automatically Added by addNops.pl
5456	1133	00000000		nop	; Automatically Added by addNops.pl
5457	1134	00a21018		mult	%GPR2,%GPR5,%GPR2	
5458	1135	00000000		nop	; Automatically Added by addNops.pl
5459	1136	00000000		nop	; Automatically Added by addNops.pl
5460	1137	00000000		nop	; Automatically Added by addNops.pl
5461	1138	3c040000		lhi	%GPR4,$0	
5462	1139	00000000		nop	; Automatically Added by addNops.pl
5463	113a	00000000		nop	; Automatically Added by addNops.pl
5464	113b	00000000		nop	; Automatically Added by addNops.pl
5465				; Automatically 16 NOPs removed by reduceNOPs.sh
5466	113c	34840001		ori	%GPR4,%GPR4,$1	
5467	113d	00000000		nop	; Automatically Added by addNops.pl
5468	113e	00000000		nop	; Automatically Added by addNops.pl
5469	113f	00000000		nop	; Automatically Added by addNops.pl
5470				; Automatically 12 NOPs removed by reduceNOPs.sh
5471	1140	00220820		add	%GPR1,%GPR1,%GPR2	
5472	1141	00000000		nop	; Automatically Added by addNops.pl
5473	1142	00000000		nop	; Automatically Added by addNops.pl
5474	1143	00000000		nop	; Automatically Added by addNops.pl
5475				; Automatically 16 NOPs removed by reduceNOPs.sh
5476	1144	00230820		add	%GPR1,%GPR1,%GPR3	
5477	1145	00000000		nop	; Automatically Added by addNops.pl
5478	1146	00000000		nop	; Automatically Added by addNops.pl
5479	1147	00000000		nop	; Automatically Added by addNops.pl
5480				; Automatically 16 NOPs removed by reduceNOPs.sh
5481	1148	8c210000		lw	%GPR1,0(%GPR1)	
5482	1149	00000000		nop	; Automatically Added by addNops.pl
5483	114a	00000000		nop	; Automatically Added by addNops.pl
5484	114b	00000000		nop	; Automatically Added by addNops.pl
5485				; Automatically 16 NOPs removed by reduceNOPs.sh
5486	114c	0024d82e		seq	%GPR27,%GPR1,%GPR4	
5487	114d	00000000		nop	; Automatically Added by addNops.pl
5488	114e	00000000		nop	; Automatically Added by addNops.pl
5489	114f	00000000		nop	; Automatically Added by addNops.pl
5490	1150	17600008		bnez	%GPR27,L_lcd_thread_56	
5491	1151	00000000		nop	; Automatically Added by addNops.pl
5492	1152	00000000		nop	; Automatically Added by addNops.pl
5493	1153	00000000		nop	; Automatically Added by addNops.pl
5494				; Automatically 16 NOPs removed by reduceNOPs.sh
5495	1154	080000ee		j	L_lcd_thread_60	
5496	1155	00000000		nop	; Automatically Added by addNops.pl
5497	1156	00000000		nop	; Automatically Added by addNops.pl
5498	1157	00000000		nop	; Automatically Added by addNops.pl
5499				; Automatically 16 NOPs removed by reduceNOPs.sh
5500			L_lcd_thread_56:
5501	1158	00000000		nop	; Automatically Added by addNops.pl
5502	1159	00000000		nop	; Automatically Added by addNops.pl
5503	115a	00000000		nop	; Automatically Added by addNops.pl
5504				; Automatically 8 NOPs removed by reduceNOPs.sh
5505	115b	3c020000		lhi	%GPR2,$( _switches	/0x10000)
5506	115c	00000000		nop
5507	115d	00000000		nop
5508	115e	00000000		nop
5509	115f	344202ac		ori	%GPR2,%GPR2,$( _switches	%0x10000)
5510	1160	00000000		nop	; Automatically Added by addNops.pl
5511	1161	00000000		nop	; Automatically Added by addNops.pl
5512	1162	00000000		nop	; Automatically Added by addNops.pl
5513				; Automatically 8 NOPs removed by reduceNOPs.sh
5514	1163	3c010000		lhi	%GPR1,$0	
5515	1164	00000000		nop	; Automatically Added by addNops.pl
5516	1165	00000000		nop	; Automatically Added by addNops.pl
5517	1166	00000000		nop	; Automatically Added by addNops.pl
5518				; Automatically 16 NOPs removed by reduceNOPs.sh
5519	1167	34210001		ori	%GPR1,%GPR1,$1	
5520	1168	00000000		nop	; Automatically Added by addNops.pl
5521	1169	00000000		nop	; Automatically Added by addNops.pl
5522	116a	00000000		nop	; Automatically Added by addNops.pl
5523	116b	3c030000		lhi	%GPR3,$0	
5524	116c	00000000		nop	; Automatically Added by addNops.pl
5525	116d	00000000		nop	; Automatically Added by addNops.pl
5526	116e	00000000		nop	; Automatically Added by addNops.pl
5527				; Automatically 16 NOPs removed by reduceNOPs.sh
5528	116f	34630010		ori	%GPR3,%GPR3,$16	
5529	1170	00000000		nop	; Automatically Added by addNops.pl
5530	1171	00000000		nop	; Automatically Added by addNops.pl
5531	1172	00000000		nop	; Automatically Added by addNops.pl
5532				; Automatically 8 NOPs removed by reduceNOPs.sh
5533	1173	3c040000		lhi	%GPR4,$0	
5534	1174	00000000		nop	; Automatically Added by addNops.pl
5535	1175	00000000		nop	; Automatically Added by addNops.pl
5536	1176	00000000		nop	; Automatically Added by addNops.pl
5537				; Automatically 16 NOPs removed by reduceNOPs.sh
5538	1177	34840001		ori	%GPR4,%GPR4,$1	
5539	1178	00000000		nop	; Automatically Added by addNops.pl
5540	1179	00000000		nop	; Automatically Added by addNops.pl
5541	117a	00000000		nop	; Automatically Added by addNops.pl
5542	117b	8fc1fff0		lw	%GPR1,-16(%GPR30)	
5543	117c	00000000		nop	; Automatically Added by addNops.pl
5544	117d	00000000		nop	; Automatically Added by addNops.pl
5545	117e	00000000		nop	; Automatically Added by addNops.pl
5546				; Automatically 16 NOPs removed by reduceNOPs.sh
5547	117f	00000000		nop	; Automatically added by fix-stall-insns.pl
5548	1180	00230818		mult	%GPR1,%GPR1,%GPR3	
5549	1181	00000000		nop	; Automatically Added by addNops.pl
5550	1182	00000000		nop	; Automatically Added by addNops.pl
5551	1183	00000000		nop	; Automatically Added by addNops.pl
5552				; Automatically 16 NOPs removed by reduceNOPs.sh
5553	1184	00410820		add	%GPR1,%GPR2,%GPR1	
5554	1185	00000000		nop	; Automatically Added by addNops.pl
5555	1186	00000000		nop	; Automatically Added by addNops.pl
5556	1187	00000000		nop	; Automatically Added by addNops.pl
5557				; Automatically 16 NOPs removed by reduceNOPs.sh
5558	1188	8c210000		lw	%GPR1,0(%GPR1)	
5559	1189	00000000		nop	; Automatically Added by addNops.pl
5560	118a	00000000		nop	; Automatically Added by addNops.pl
5561	118b	00000000		nop	; Automatically Added by addNops.pl
5562				; Automatically 16 NOPs removed by reduceNOPs.sh
5563	118c	0024d82e		seq	%GPR27,%GPR1,%GPR4	
5564	118d	00000000		nop	; Automatically Added by addNops.pl
5565	118e	00000000		nop	; Automatically Added by addNops.pl
5566	118f	00000000		nop	; Automatically Added by addNops.pl
5567	1190	17600008		bnez	%GPR27,L_lcd_thread_57	
5568	1191	00000000		nop	; Automatically Added by addNops.pl
5569	1192	00000000		nop	; Automatically Added by addNops.pl
5570	1193	00000000		nop	; Automatically Added by addNops.pl
5571				; Automatically 16 NOPs removed by reduceNOPs.sh
5572	1194	08000063		j	L_lcd_thread_58	
5573	1195	00000000		nop	; Automatically Added by addNops.pl
5574	1196	00000000		nop	; Automatically Added by addNops.pl
5575	1197	00000000		nop	; Automatically Added by addNops.pl
5576				; Automatically 16 NOPs removed by reduceNOPs.sh
5577			L_lcd_thread_57:
5578	1198	00000000		nop	; Automatically Added by addNops.pl
5579	1199	00000000		nop	; Automatically Added by addNops.pl
5580	119a	00000000		nop	; Automatically Added by addNops.pl
5581	119b	3c010000		lhi	%GPR1,$( L_lcd_thread_8	/0x10000)
5582	119c	00000000		nop
5583	119d	00000000		nop
5584	119e	00000000		nop
5585	119f	3421078c		ori	%GPR1,%GPR1,$( L_lcd_thread_8	%0x10000)
5586	11a0	00000000		nop	; Automatically Added by addNops.pl
5587	11a1	00000000		nop	; Automatically Added by addNops.pl
5588	11a2	00000000		nop	; Automatically Added by addNops.pl
5589				; Automatically 20 NOPs removed by reduceNOPs.sh
5590	11a3	3c030000		lhi	%GPR3,$0	
5591	11a4	00000000		nop	; Automatically Added by addNops.pl
5592	11a5	00000000		nop	; Automatically Added by addNops.pl
5593	11a6	00000000		nop	; Automatically Added by addNops.pl
5594				; Automatically 16 NOPs removed by reduceNOPs.sh
5595	11a7	34630000		ori	%GPR3,%GPR3,$0	
5596	11a8	00000000		nop	; Automatically Added by addNops.pl
5597	11a9	00000000		nop	; Automatically Added by addNops.pl
5598	11aa	00000000		nop	; Automatically Added by addNops.pl
5599	11ab	3c020000		lhi	%GPR2,$0	
5600	11ac	00000000		nop	; Automatically Added by addNops.pl
5601	11ad	00000000		nop	; Automatically Added by addNops.pl
5602	11ae	00000000		nop	; Automatically Added by addNops.pl
5603				; Automatically 16 NOPs removed by reduceNOPs.sh
5604	11af	34420000		ori	%GPR2,%GPR2,$0	
5605	11b0	00000000		nop	; Automatically Added by addNops.pl
5606	11b1	00000000		nop	; Automatically Added by addNops.pl
5607	11b2	00000000		nop	; Automatically Added by addNops.pl
5608				; Automatically 16 NOPs removed by reduceNOPs.sh
5609	11b3	2bbd0008		subi	%GPR29,%GPR29,$8	
5610	11b4	00000000		nop	; Automatically Added by addNops.pl
5611	11b5	00000000		nop	; Automatically Added by addNops.pl
5612	11b6	00000000		nop	; Automatically Added by addNops.pl
5613				; Automatically 16 NOPs removed by reduceNOPs.sh
5614	11b7	0c00107c		jal	g_print	
5615	11b8	00000000		nop	; Automatically Added by addNops.pl
5616	11b9	00000000		nop	; Automatically Added by addNops.pl
5617	11ba	00000000		nop	; Automatically Added by addNops.pl
5618				; Automatically 16 NOPs removed by reduceNOPs.sh
5619	11bb	23bd0008		addi	%GPR29,%GPR29,$8	
5620	11bc	00000000		nop	; Automatically Added by addNops.pl
5621	11bd	00000000		nop	; Automatically Added by addNops.pl
5622	11be	00000000		nop	; Automatically Added by addNops.pl
5623				; Automatically 16 NOPs removed by reduceNOPs.sh
5624	11bf	8fc1fff0		lw	%GPR1,-16(%GPR30)	
5625	11c0	00000000		nop	; Automatically Added by addNops.pl
5626	11c1	00000000		nop	; Automatically Added by addNops.pl
5627	11c2	00000000		nop	; Automatically Added by addNops.pl
5628	11c3	2bc2000c		subi	%GPR2,%GPR30,$12	
5629	11c4	00000000		nop	; Automatically Added by addNops.pl
5630	11c5	00000000		nop	; Automatically Added by addNops.pl
5631	11c6	00000000		nop	; Automatically Added by addNops.pl
5632				; Automatically 12 NOPs removed by reduceNOPs.sh
5633	11c7	20210001		addi	%GPR1,%GPR1,$1	
5634	11c8	00000000		nop	; Automatically Added by addNops.pl
5635	11c9	00000000		nop	; Automatically Added by addNops.pl
5636	11ca	00000000		nop	; Automatically Added by addNops.pl
5637				; Automatically 16 NOPs removed by reduceNOPs.sh
5638	11cb	2bbd0008		subi	%GPR29,%GPR29,$8	
5639	11cc	00000000		nop	; Automatically Added by addNops.pl
5640	11cd	00000000		nop	; Automatically Added by addNops.pl
5641	11ce	00000000		nop	; Automatically Added by addNops.pl
5642				; Automatically 16 NOPs removed by reduceNOPs.sh
5643	11cf	0fffee51		jal	intToStr	
5644	11d0	00000000		nop	; Automatically Added by addNops.pl
5645	11d1	00000000		nop	; Automatically Added by addNops.pl
5646	11d2	00000000		nop	; Automatically Added by addNops.pl
5647				; Automatically 16 NOPs removed by reduceNOPs.sh
5648	11d3	23bd0008		addi	%GPR29,%GPR29,$8	
5649	11d4	00000000		nop	; Automatically Added by addNops.pl
5650	11d5	00000000		nop	; Automatically Added by addNops.pl
5651	11d6	00000000		nop	; Automatically Added by addNops.pl
5652				; Automatically 28 NOPs removed by reduceNOPs.sh
5653	11d7	2bc1000c		subi	%GPR1,%GPR30,$12	
5654	11d8	00000000		nop	; Automatically Added by addNops.pl
5655	11d9	00000000		nop	; Automatically Added by addNops.pl
5656	11da	00000000		nop	; Automatically Added by addNops.pl
5657				; Automatically 8 NOPs removed by reduceNOPs.sh
5658	11db	3c030000		lhi	%GPR3,$0	
5659	11dc	00000000		nop	; Automatically Added by addNops.pl
5660	11dd	00000000		nop	; Automatically Added by addNops.pl
5661	11de	00000000		nop	; Automatically Added by addNops.pl
5662				; Automatically 16 NOPs removed by reduceNOPs.sh
5663	11df	34630000		ori	%GPR3,%GPR3,$0	
5664	11e0	00000000		nop	; Automatically Added by addNops.pl
5665	11e1	00000000		nop	; Automatically Added by addNops.pl
5666	11e2	00000000		nop	; Automatically Added by addNops.pl
5667	11e3	3c020000		lhi	%GPR2,$0	
5668	11e4	00000000		nop	; Automatically Added by addNops.pl
5669	11e5	00000000		nop	; Automatically Added by addNops.pl
5670	11e6	00000000		nop	; Automatically Added by addNops.pl
5671				; Automatically 16 NOPs removed by reduceNOPs.sh
5672	11e7	34420028		ori	%GPR2,%GPR2,$40	
5673	11e8	00000000		nop	; Automatically Added by addNops.pl
5674	11e9	00000000		nop	; Automatically Added by addNops.pl
5675	11ea	00000000		nop	; Automatically Added by addNops.pl
5676				; Automatically 16 NOPs removed by reduceNOPs.sh
5677	11eb	2bbd0008		subi	%GPR29,%GPR29,$8	
5678	11ec	00000000		nop	; Automatically Added by addNops.pl
5679	11ed	00000000		nop	; Automatically Added by addNops.pl
5680	11ee	00000000		nop	; Automatically Added by addNops.pl
5681				; Automatically 16 NOPs removed by reduceNOPs.sh
5682	11ef	0c001044		jal	g_print	
5683	11f0	00000000		nop	; Automatically Added by addNops.pl
5684	11f1	00000000		nop	; Automatically Added by addNops.pl
5685	11f2	00000000		nop	; Automatically Added by addNops.pl
5686				; Automatically 16 NOPs removed by reduceNOPs.sh
5687	11f3	23bd0008		addi	%GPR29,%GPR29,$8	
5688	11f4	00000000		nop	; Automatically Added by addNops.pl
5689	11f5	00000000		nop	; Automatically Added by addNops.pl
5690	11f6	00000000		nop	; Automatically Added by addNops.pl
5691				; Automatically 28 NOPs removed by reduceNOPs.sh
5692			L_lcd_thread_58:
5693	11f7	00000000		nop	; Automatically Added by addNops.pl
5694	11f8	00000000		nop	; Automatically Added by addNops.pl
5695	11f9	00000000		nop	; Automatically Added by addNops.pl
5696	11fa	8fc5fff0		lw	%GPR5,-16(%GPR30)	
5697	11fb	00000000		nop	; Automatically Added by addNops.pl
5698	11fc	00000000		nop	; Automatically Added by addNops.pl
5699	11fd	00000000		nop	; Automatically Added by addNops.pl
5700	11fe	00000000		nop	; Automatically added by fix-stall-insns.pl
5701	11ff	3c010000		lhi	%GPR1,$( _switches	/0x10000)
5702	1200	00000000		nop
5703	1201	00000000		nop
5704	1202	00000000		nop
5705	1203	342102ac		ori	%GPR1,%GPR1,$( _switches	%0x10000)
5706	1204	00000000		nop	; Automatically Added by addNops.pl
5707	1205	00000000		nop	; Automatically Added by addNops.pl
5708	1206	00000000		nop	; Automatically Added by addNops.pl
5709				; Automatically 8 NOPs removed by reduceNOPs.sh
5710	1207	3c020000		lhi	%GPR2,$0	
5711	1208	00000000		nop	; Automatically Added by addNops.pl
5712	1209	00000000		nop	; Automatically Added by addNops.pl
5713	120a	00000000		nop	; Automatically Added by addNops.pl
5714				; Automatically 16 NOPs removed by reduceNOPs.sh
5715	120b	34420010		ori	%GPR2,%GPR2,$16	
5716	120c	00000000		nop	; Automatically Added by addNops.pl
5717	120d	00000000		nop	; Automatically Added by addNops.pl
5718	120e	00000000		nop	; Automatically Added by addNops.pl
5719				; Automatically 12 NOPs removed by reduceNOPs.sh
5720	120f	3c030000		lhi	%GPR3,$0	
5721	1210	00000000		nop	; Automatically Added by addNops.pl
5722	1211	00000000		nop	; Automatically Added by addNops.pl
5723	1212	00000000		nop	; Automatically Added by addNops.pl
5724				; Automatically 16 NOPs removed by reduceNOPs.sh
5725	1213	34630008		ori	%GPR3,%GPR3,$8	
5726	1214	00000000		nop	; Automatically Added by addNops.pl
5727	1215	00000000		nop	; Automatically Added by addNops.pl
5728	1216	00000000		nop	; Automatically Added by addNops.pl
5729	1217	00a21018		mult	%GPR2,%GPR5,%GPR2	
5730	1218	00000000		nop	; Automatically Added by addNops.pl
5731	1219	00000000		nop	; Automatically Added by addNops.pl
5732	121a	00000000		nop	; Automatically Added by addNops.pl
5733	121b	3c040000		lhi	%GPR4,$0	
5734	121c	00000000		nop	; Automatically Added by addNops.pl
5735	121d	00000000		nop	; Automatically Added by addNops.pl
5736	121e	00000000		nop	; Automatically Added by addNops.pl
5737				; Automatically 16 NOPs removed by reduceNOPs.sh
5738	121f	34840000		ori	%GPR4,%GPR4,$0	
5739	1220	00000000		nop	; Automatically Added by addNops.pl
5740	1221	00000000		nop	; Automatically Added by addNops.pl
5741	1222	00000000		nop	; Automatically Added by addNops.pl
5742				; Automatically 12 NOPs removed by reduceNOPs.sh
5743	1223	00220820		add	%GPR1,%GPR1,%GPR2	
5744	1224	00000000		nop	; Automatically Added by addNops.pl
5745	1225	00000000		nop	; Automatically Added by addNops.pl
5746	1226	00000000		nop	; Automatically Added by addNops.pl
5747				; Automatically 16 NOPs removed by reduceNOPs.sh
5748	1227	00230820		add	%GPR1,%GPR1,%GPR3	
5749	1228	00000000		nop	; Automatically Added by addNops.pl
5750	1229	00000000		nop	; Automatically Added by addNops.pl
5751	122a	00000000		nop	; Automatically Added by addNops.pl
5752				; Automatically 16 NOPs removed by reduceNOPs.sh
5753	122b	ac240000		sw	0(%GPR1),%GPR4	
5754	122c	00000000		nop	; Automatically Added by addNops.pl
5755	122d	00000000		nop	; Automatically Added by addNops.pl
5756	122e	00000000		nop	; Automatically Added by addNops.pl
5757				; Automatically 12 NOPs removed by reduceNOPs.sh
5758			L_lcd_thread_59:
5759	122f	00000000		nop	; Automatically Added by addNops.pl
5760	1230	00000000		nop	; Automatically Added by addNops.pl
5761	1231	00000000		nop	; Automatically Added by addNops.pl
5762	1232	8fc1fff0		lw	%GPR1,-16(%GPR30)	
5763	1233	00000000		nop	; Automatically Added by addNops.pl
5764	1234	00000000		nop	; Automatically Added by addNops.pl
5765	1235	00000000		nop	; Automatically Added by addNops.pl
5766				; Automatically 16 NOPs removed by reduceNOPs.sh
5767	1236	20210001		addi	%GPR1,%GPR1,$1	
5768	1237	00000000		nop	; Automatically Added by addNops.pl
5769	1238	00000000		nop	; Automatically Added by addNops.pl
5770	1239	00000000		nop	; Automatically Added by addNops.pl
5771				; Automatically 16 NOPs removed by reduceNOPs.sh
5772	123a	afc1fff0		sw	-16(%GPR30),%GPR1	
5773	123b	00000000		nop	; Automatically Added by addNops.pl
5774	123c	00000000		nop	; Automatically Added by addNops.pl
5775	123d	00000000		nop	; Automatically Added by addNops.pl
5776	123e	0bfffe72		j	L_lcd_thread_53	
5777	123f	00000000		nop	; Automatically Added by addNops.pl
5778	1240	00000000		nop	; Automatically Added by addNops.pl
5779	1241	00000000		nop	; Automatically Added by addNops.pl
5780				; Automatically 12 NOPs removed by reduceNOPs.sh
5781			L_lcd_thread_60:
5782	1242	00000000		nop	; Automatically Added by addNops.pl
5783	1243	00000000		nop	; Automatically Added by addNops.pl
5784	1244	00000000		nop	; Automatically Added by addNops.pl
5785				; Automatically 16 NOPs removed by reduceNOPs.sh
5786	1245	3c010000		lhi	%GPR1,$0	
5787	1246	00000000		nop	; Automatically Added by addNops.pl
5788	1247	00000000		nop	; Automatically Added by addNops.pl
5789	1248	00000000		nop	; Automatically Added by addNops.pl
5790				; Automatically 16 NOPs removed by reduceNOPs.sh
5791	1249	34210000		ori	%GPR1,%GPR1,$0	
5792	124a	00000000		nop	; Automatically Added by addNops.pl
5793	124b	00000000		nop	; Automatically Added by addNops.pl
5794	124c	00000000		nop	; Automatically Added by addNops.pl
5795	124d	0bffffe2		j	L_lcd_thread_59	
5796	124e	00000000		nop	; Automatically Added by addNops.pl
5797	124f	00000000		nop	; Automatically Added by addNops.pl
5798	1250	00000000		nop	; Automatically Added by addNops.pl
5799				; Automatically 12 NOPs removed by reduceNOPs.sh
5800			L_lcd_thread_61:
5801	1251	00000000		nop	; Automatically Added by addNops.pl
5802	1252	00000000		nop	; Automatically Added by addNops.pl
5803	1253	00000000		nop	; Automatically Added by addNops.pl
5804				; Automatically 16 NOPs removed by reduceNOPs.sh
5805	1254	3c010000		lhi	%GPR1,$0	
5806	1255	00000000		nop	; Automatically Added by addNops.pl
5807	1256	00000000		nop	; Automatically Added by addNops.pl
5808	1257	00000000		nop	; Automatically Added by addNops.pl
5809				; Automatically 16 NOPs removed by reduceNOPs.sh
5810	1258	34210000		ori	%GPR1,%GPR1,$0	
5811	1259	00000000		nop	; Automatically Added by addNops.pl
5812	125a	00000000		nop	; Automatically Added by addNops.pl
5813	125b	00000000		nop	; Automatically Added by addNops.pl
5814				; Automatically 16 NOPs removed by reduceNOPs.sh
5815	125c	afc1fff0		sw	-16(%GPR30),%GPR1	
5816	125d	00000000		nop	; Automatically Added by addNops.pl
5817	125e	00000000		nop	; Automatically Added by addNops.pl
5818	125f	00000000		nop	; Automatically Added by addNops.pl
5819				; Automatically 12 NOPs removed by reduceNOPs.sh
5820			L_lcd_thread_62:
5821	1260	00000000		nop	; Automatically Added by addNops.pl
5822	1261	00000000		nop	; Automatically Added by addNops.pl
5823	1262	00000000		nop	; Automatically Added by addNops.pl
5824	1263	3c010000		lhi	%GPR1,$( _activeswitches	/0x10000)
5825	1264	00000000		nop
5826	1265	00000000		nop
5827	1266	00000000		nop
5828	1267	34210730		ori	%GPR1,%GPR1,$( _activeswitches	%0x10000)
5829	1268	00000000		nop	; Automatically Added by addNops.pl
5830	1269	00000000		nop	; Automatically Added by addNops.pl
5831	126a	00000000		nop	; Automatically Added by addNops.pl
5832	126b	8fc2fff0		lw	%GPR2,-16(%GPR30)	
5833	126c	00000000		nop	; Automatically Added by addNops.pl
5834	126d	00000000		nop	; Automatically Added by addNops.pl
5835	126e	00000000		nop	; Automatically Added by addNops.pl
5836				; Automatically 12 NOPs removed by reduceNOPs.sh
5837	126f	00000000		nop	; Automatically added by fix-stall-insns.pl
5838	1270	8c210000		lw	%GPR1,0(%GPR1)	
5839	1271	00000000		nop	; Automatically Added by addNops.pl
5840	1272	00000000		nop	; Automatically Added by addNops.pl
5841	1273	00000000		nop	; Automatically Added by addNops.pl
5842				; Automatically 16 NOPs removed by reduceNOPs.sh
5843	1274	0041d82c		sle	%GPR27,%GPR2,%GPR1	
5844	1275	00000000		nop	; Automatically Added by addNops.pl
5845	1276	00000000		nop	; Automatically Added by addNops.pl
5846	1277	00000000		nop	; Automatically Added by addNops.pl
5847	1278	17600008		bnez	%GPR27,L_lcd_thread_63	
5848	1279	00000000		nop	; Automatically Added by addNops.pl
5849	127a	00000000		nop	; Automatically Added by addNops.pl
5850	127b	00000000		nop	; Automatically Added by addNops.pl
5851				; Automatically 16 NOPs removed by reduceNOPs.sh
5852	127c	08000181		j	L_lcd_thread_70	
5853	127d	00000000		nop	; Automatically Added by addNops.pl
5854	127e	00000000		nop	; Automatically Added by addNops.pl
5855	127f	00000000		nop	; Automatically Added by addNops.pl
5856				; Automatically 16 NOPs removed by reduceNOPs.sh
5857			L_lcd_thread_63:
5858	1280	00000000		nop	; Automatically Added by addNops.pl
5859	1281	00000000		nop	; Automatically Added by addNops.pl
5860	1282	00000000		nop	; Automatically Added by addNops.pl
5861	1283	8fc5fff0		lw	%GPR5,-16(%GPR30)	
5862	1284	00000000		nop	; Automatically Added by addNops.pl
5863	1285	00000000		nop	; Automatically Added by addNops.pl
5864	1286	00000000		nop	; Automatically Added by addNops.pl
5865	1287	00000000		nop	; Automatically added by fix-stall-insns.pl
5866	1288	3c010000		lhi	%GPR1,$( _switches	/0x10000)
5867	1289	00000000		nop
5868	128a	00000000		nop
5869	128b	00000000		nop
5870	128c	342102ac		ori	%GPR1,%GPR1,$( _switches	%0x10000)
5871	128d	00000000		nop	; Automatically Added by addNops.pl
5872	128e	00000000		nop	; Automatically Added by addNops.pl
5873	128f	00000000		nop	; Automatically Added by addNops.pl
5874				; Automatically 8 NOPs removed by reduceNOPs.sh
5875	1290	3c020000		lhi	%GPR2,$0	
5876	1291	00000000		nop	; Automatically Added by addNops.pl
5877	1292	00000000		nop	; Automatically Added by addNops.pl
5878	1293	00000000		nop	; Automatically Added by addNops.pl
5879				; Automatically 16 NOPs removed by reduceNOPs.sh
5880	1294	34420010		ori	%GPR2,%GPR2,$16	
5881	1295	00000000		nop	; Automatically Added by addNops.pl
5882	1296	00000000		nop	; Automatically Added by addNops.pl
5883	1297	00000000		nop	; Automatically Added by addNops.pl
5884				; Automatically 12 NOPs removed by reduceNOPs.sh
5885	1298	3c030000		lhi	%GPR3,$0	
5886	1299	00000000		nop	; Automatically Added by addNops.pl
5887	129a	00000000		nop	; Automatically Added by addNops.pl
5888	129b	00000000		nop	; Automatically Added by addNops.pl
5889				; Automatically 16 NOPs removed by reduceNOPs.sh
5890	129c	34630008		ori	%GPR3,%GPR3,$8	
5891	129d	00000000		nop	; Automatically Added by addNops.pl
5892	129e	00000000		nop	; Automatically Added by addNops.pl
5893	129f	00000000		nop	; Automatically Added by addNops.pl
5894	12a0	00a21018		mult	%GPR2,%GPR5,%GPR2	
5895	12a1	00000000		nop	; Automatically Added by addNops.pl
5896	12a2	00000000		nop	; Automatically Added by addNops.pl
5897	12a3	00000000		nop	; Automatically Added by addNops.pl
5898	12a4	3c040000		lhi	%GPR4,$0	
5899	12a5	00000000		nop	; Automatically Added by addNops.pl
5900	12a6	00000000		nop	; Automatically Added by addNops.pl
5901	12a7	00000000		nop	; Automatically Added by addNops.pl
5902				; Automatically 16 NOPs removed by reduceNOPs.sh
5903	12a8	34840001		ori	%GPR4,%GPR4,$1	
5904	12a9	00000000		nop	; Automatically Added by addNops.pl
5905	12aa	00000000		nop	; Automatically Added by addNops.pl
5906	12ab	00000000		nop	; Automatically Added by addNops.pl
5907				; Automatically 12 NOPs removed by reduceNOPs.sh
5908	12ac	00220820		add	%GPR1,%GPR1,%GPR2	
5909	12ad	00000000		nop	; Automatically Added by addNops.pl
5910	12ae	00000000		nop	; Automatically Added by addNops.pl
5911	12af	00000000		nop	; Automatically Added by addNops.pl
5912				; Automatically 16 NOPs removed by reduceNOPs.sh
5913	12b0	00230820		add	%GPR1,%GPR1,%GPR3	
5914	12b1	00000000		nop	; Automatically Added by addNops.pl
5915	12b2	00000000		nop	; Automatically Added by addNops.pl
5916	12b3	00000000		nop	; Automatically Added by addNops.pl
5917				; Automatically 16 NOPs removed by reduceNOPs.sh
5918	12b4	8c210000		lw	%GPR1,0(%GPR1)	
5919	12b5	00000000		nop	; Automatically Added by addNops.pl
5920	12b6	00000000		nop	; Automatically Added by addNops.pl
5921	12b7	00000000		nop	; Automatically Added by addNops.pl
5922				; Automatically 16 NOPs removed by reduceNOPs.sh
5923	12b8	0024d82e		seq	%GPR27,%GPR1,%GPR4	
5924	12b9	00000000		nop	; Automatically Added by addNops.pl
5925	12ba	00000000		nop	; Automatically Added by addNops.pl
5926	12bb	00000000		nop	; Automatically Added by addNops.pl
5927	12bc	17600008		bnez	%GPR27,L_lcd_thread_64	
5928	12bd	00000000		nop	; Automatically Added by addNops.pl
5929	12be	00000000		nop	; Automatically Added by addNops.pl
5930	12bf	00000000		nop	; Automatically Added by addNops.pl
5931				; Automatically 16 NOPs removed by reduceNOPs.sh
5932	12c0	0800012e		j	L_lcd_thread_69	
5933	12c1	00000000		nop	; Automatically Added by addNops.pl
5934	12c2	00000000		nop	; Automatically Added by addNops.pl
5935	12c3	00000000		nop	; Automatically Added by addNops.pl
5936				; Automatically 16 NOPs removed by reduceNOPs.sh
5937			L_lcd_thread_64:
5938	12c4	00000000		nop	; Automatically Added by addNops.pl
5939	12c5	00000000		nop	; Automatically Added by addNops.pl
5940	12c6	00000000		nop	; Automatically Added by addNops.pl
5941	12c7	8fc5fff0		lw	%GPR5,-16(%GPR30)	
5942	12c8	00000000		nop	; Automatically Added by addNops.pl
5943	12c9	00000000		nop	; Automatically Added by addNops.pl
5944	12ca	00000000		nop	; Automatically Added by addNops.pl
5945	12cb	00000000		nop	; Automatically added by fix-stall-insns.pl
5946	12cc	3c010000		lhi	%GPR1,$( _switches	/0x10000)
5947	12cd	00000000		nop
5948	12ce	00000000		nop
5949	12cf	00000000		nop
5950	12d0	342102ac		ori	%GPR1,%GPR1,$( _switches	%0x10000)
5951	12d1	00000000		nop	; Automatically Added by addNops.pl
5952	12d2	00000000		nop	; Automatically Added by addNops.pl
5953	12d3	00000000		nop	; Automatically Added by addNops.pl
5954				; Automatically 8 NOPs removed by reduceNOPs.sh
5955	12d4	3c020000		lhi	%GPR2,$0	
5956	12d5	00000000		nop	; Automatically Added by addNops.pl
5957	12d6	00000000		nop	; Automatically Added by addNops.pl
5958	12d7	00000000		nop	; Automatically Added by addNops.pl
5959				; Automatically 16 NOPs removed by reduceNOPs.sh
5960	12d8	34420010		ori	%GPR2,%GPR2,$16	
5961	12d9	00000000		nop	; Automatically Added by addNops.pl
5962	12da	00000000		nop	; Automatically Added by addNops.pl
5963	12db	00000000		nop	; Automatically Added by addNops.pl
5964				; Automatically 12 NOPs removed by reduceNOPs.sh
5965	12dc	3c030000		lhi	%GPR3,$0	
5966	12dd	00000000		nop	; Automatically Added by addNops.pl
5967	12de	00000000		nop	; Automatically Added by addNops.pl
5968	12df	00000000		nop	; Automatically Added by addNops.pl
5969				; Automatically 16 NOPs removed by reduceNOPs.sh
5970	12e0	3463000c		ori	%GPR3,%GPR3,$12	
5971	12e1	00000000		nop	; Automatically Added by addNops.pl
5972	12e2	00000000		nop	; Automatically Added by addNops.pl
5973	12e3	00000000		nop	; Automatically Added by addNops.pl
5974	12e4	00a21018		mult	%GPR2,%GPR5,%GPR2	
5975	12e5	00000000		nop	; Automatically Added by addNops.pl
5976	12e6	00000000		nop	; Automatically Added by addNops.pl
5977	12e7	00000000		nop	; Automatically Added by addNops.pl
5978	12e8	3c040000		lhi	%GPR4,$0	
5979	12e9	00000000		nop	; Automatically Added by addNops.pl
5980	12ea	00000000		nop	; Automatically Added by addNops.pl
5981	12eb	00000000		nop	; Automatically Added by addNops.pl
5982				; Automatically 16 NOPs removed by reduceNOPs.sh
5983	12ec	34840002		ori	%GPR4,%GPR4,$2	
5984	12ed	00000000		nop	; Automatically Added by addNops.pl
5985	12ee	00000000		nop	; Automatically Added by addNops.pl
5986	12ef	00000000		nop	; Automatically Added by addNops.pl
5987				; Automatically 12 NOPs removed by reduceNOPs.sh
5988	12f0	00220820		add	%GPR1,%GPR1,%GPR2	
5989	12f1	00000000		nop	; Automatically Added by addNops.pl
5990	12f2	00000000		nop	; Automatically Added by addNops.pl
5991	12f3	00000000		nop	; Automatically Added by addNops.pl
5992				; Automatically 16 NOPs removed by reduceNOPs.sh
5993	12f4	00230820		add	%GPR1,%GPR1,%GPR3	
5994	12f5	00000000		nop	; Automatically Added by addNops.pl
5995	12f6	00000000		nop	; Automatically Added by addNops.pl
5996	12f7	00000000		nop	; Automatically Added by addNops.pl
5997				; Automatically 16 NOPs removed by reduceNOPs.sh
5998	12f8	8c210000		lw	%GPR1,0(%GPR1)	
5999	12f9	00000000		nop	; Automatically Added by addNops.pl
6000	12fa	00000000		nop	; Automatically Added by addNops.pl
6001	12fb	00000000		nop	; Automatically Added by addNops.pl
6002				; Automatically 16 NOPs removed by reduceNOPs.sh
6003	12fc	0024d82e		seq	%GPR27,%GPR1,%GPR4	
6004	12fd	00000000		nop	; Automatically Added by addNops.pl
6005	12fe	00000000		nop	; Automatically Added by addNops.pl
6006	12ff	00000000		nop	; Automatically Added by addNops.pl
6007	1300	17600008		bnez	%GPR27,L_lcd_thread_65	
6008	1301	00000000		nop	; Automatically Added by addNops.pl
6009	1302	00000000		nop	; Automatically Added by addNops.pl
6010	1303	00000000		nop	; Automatically Added by addNops.pl
6011				; Automatically 16 NOPs removed by reduceNOPs.sh
6012	1304	080000ea		j	L_lcd_thread_69	
6013	1305	00000000		nop	; Automatically Added by addNops.pl
6014	1306	00000000		nop	; Automatically Added by addNops.pl
6015	1307	00000000		nop	; Automatically Added by addNops.pl
6016				; Automatically 16 NOPs removed by reduceNOPs.sh
6017			L_lcd_thread_65:
6018	1308	00000000		nop	; Automatically Added by addNops.pl
6019	1309	00000000		nop	; Automatically Added by addNops.pl
6020	130a	00000000		nop	; Automatically Added by addNops.pl
6021				; Automatically 8 NOPs removed by reduceNOPs.sh
6022	130b	3c020000		lhi	%GPR2,$( _switches	/0x10000)
6023	130c	00000000		nop
6024	130d	00000000		nop
6025	130e	00000000		nop
6026	130f	344202ac		ori	%GPR2,%GPR2,$( _switches	%0x10000)
6027	1310	00000000		nop	; Automatically Added by addNops.pl
6028	1311	00000000		nop	; Automatically Added by addNops.pl
6029	1312	00000000		nop	; Automatically Added by addNops.pl
6030				; Automatically 8 NOPs removed by reduceNOPs.sh
6031	1313	3c010000		lhi	%GPR1,$0	
6032	1314	00000000		nop	; Automatically Added by addNops.pl
6033	1315	00000000		nop	; Automatically Added by addNops.pl
6034	1316	00000000		nop	; Automatically Added by addNops.pl
6035				; Automatically 16 NOPs removed by reduceNOPs.sh
6036	1317	34210001		ori	%GPR1,%GPR1,$1	
6037	1318	00000000		nop	; Automatically Added by addNops.pl
6038	1319	00000000		nop	; Automatically Added by addNops.pl
6039	131a	00000000		nop	; Automatically Added by addNops.pl
6040	131b	3c030000		lhi	%GPR3,$0	
6041	131c	00000000		nop	; Automatically Added by addNops.pl
6042	131d	00000000		nop	; Automatically Added by addNops.pl
6043	131e	00000000		nop	; Automatically Added by addNops.pl
6044				; Automatically 16 NOPs removed by reduceNOPs.sh
6045	131f	34630010		ori	%GPR3,%GPR3,$16	
6046	1320	00000000		nop	; Automatically Added by addNops.pl
6047	1321	00000000		nop	; Automatically Added by addNops.pl
6048	1322	00000000		nop	; Automatically Added by addNops.pl
6049				; Automatically 8 NOPs removed by reduceNOPs.sh
6050	1323	3c040000		lhi	%GPR4,$0	
6051	1324	00000000		nop	; Automatically Added by addNops.pl
6052	1325	00000000		nop	; Automatically Added by addNops.pl
6053	1326	00000000		nop	; Automatically Added by addNops.pl
6054				; Automatically 16 NOPs removed by reduceNOPs.sh
6055	1327	34840001		ori	%GPR4,%GPR4,$1	
6056	1328	00000000		nop	; Automatically Added by addNops.pl
6057	1329	00000000		nop	; Automatically Added by addNops.pl
6058	132a	00000000		nop	; Automatically Added by addNops.pl
6059	132b	8fc1fff0		lw	%GPR1,-16(%GPR30)	
6060	132c	00000000		nop	; Automatically Added by addNops.pl
6061	132d	00000000		nop	; Automatically Added by addNops.pl
6062	132e	00000000		nop	; Automatically Added by addNops.pl
6063				; Automatically 16 NOPs removed by reduceNOPs.sh
6064	132f	00000000		nop	; Automatically added by fix-stall-insns.pl
6065	1330	00230818		mult	%GPR1,%GPR1,%GPR3	
6066	1331	00000000		nop	; Automatically Added by addNops.pl
6067	1332	00000000		nop	; Automatically Added by addNops.pl
6068	1333	00000000		nop	; Automatically Added by addNops.pl
6069				; Automatically 16 NOPs removed by reduceNOPs.sh
6070	1334	00410820		add	%GPR1,%GPR2,%GPR1	
6071	1335	00000000		nop	; Automatically Added by addNops.pl
6072	1336	00000000		nop	; Automatically Added by addNops.pl
6073	1337	00000000		nop	; Automatically Added by addNops.pl
6074				; Automatically 16 NOPs removed by reduceNOPs.sh
6075	1338	8c210000		lw	%GPR1,0(%GPR1)	
6076	1339	00000000		nop	; Automatically Added by addNops.pl
6077	133a	00000000		nop	; Automatically Added by addNops.pl
6078	133b	00000000		nop	; Automatically Added by addNops.pl
6079				; Automatically 16 NOPs removed by reduceNOPs.sh
6080	133c	0024d82e		seq	%GPR27,%GPR1,%GPR4	
6081	133d	00000000		nop	; Automatically Added by addNops.pl
6082	133e	00000000		nop	; Automatically Added by addNops.pl
6083	133f	00000000		nop	; Automatically Added by addNops.pl
6084	1340	17600008		bnez	%GPR27,L_lcd_thread_66	
6085	1341	00000000		nop	; Automatically Added by addNops.pl
6086	1342	00000000		nop	; Automatically Added by addNops.pl
6087	1343	00000000		nop	; Automatically Added by addNops.pl
6088				; Automatically 16 NOPs removed by reduceNOPs.sh
6089	1344	0800005f		j	L_lcd_thread_67	
6090	1345	00000000		nop	; Automatically Added by addNops.pl
6091	1346	00000000		nop	; Automatically Added by addNops.pl
6092	1347	00000000		nop	; Automatically Added by addNops.pl
6093				; Automatically 16 NOPs removed by reduceNOPs.sh
6094			L_lcd_thread_66:
6095	1348	00000000		nop	; Automatically Added by addNops.pl
6096	1349	00000000		nop	; Automatically Added by addNops.pl
6097	134a	00000000		nop	; Automatically Added by addNops.pl
6098	134b	3c010000		lhi	%GPR1,$( L_lcd_thread_9	/0x10000)
6099	134c	00000000		nop
6100	134d	00000000		nop
6101	134e	00000000		nop
6102	134f	34210792		ori	%GPR1,%GPR1,$( L_lcd_thread_9	%0x10000)
6103	1350	00000000		nop	; Automatically Added by addNops.pl
6104	1351	00000000		nop	; Automatically Added by addNops.pl
6105	1352	00000000		nop	; Automatically Added by addNops.pl
6106				; Automatically 20 NOPs removed by reduceNOPs.sh
6107	1353	3c030000		lhi	%GPR3,$0	
6108	1354	00000000		nop	; Automatically Added by addNops.pl
6109	1355	00000000		nop	; Automatically Added by addNops.pl
6110	1356	00000000		nop	; Automatically Added by addNops.pl
6111				; Automatically 16 NOPs removed by reduceNOPs.sh
6112	1357	34630000		ori	%GPR3,%GPR3,$0	
6113	1358	00000000		nop	; Automatically Added by addNops.pl
6114	1359	00000000		nop	; Automatically Added by addNops.pl
6115	135a	00000000		nop	; Automatically Added by addNops.pl
6116	135b	3c020000		lhi	%GPR2,$0	
6117	135c	00000000		nop	; Automatically Added by addNops.pl
6118	135d	00000000		nop	; Automatically Added by addNops.pl
6119	135e	00000000		nop	; Automatically Added by addNops.pl
6120				; Automatically 16 NOPs removed by reduceNOPs.sh
6121	135f	34420000		ori	%GPR2,%GPR2,$0	
6122	1360	00000000		nop	; Automatically Added by addNops.pl
6123	1361	00000000		nop	; Automatically Added by addNops.pl
6124	1362	00000000		nop	; Automatically Added by addNops.pl
6125				; Automatically 16 NOPs removed by reduceNOPs.sh
6126	1363	2bbd0008		subi	%GPR29,%GPR29,$8	
6127	1364	00000000		nop	; Automatically Added by addNops.pl
6128	1365	00000000		nop	; Automatically Added by addNops.pl
6129	1366	00000000		nop	; Automatically Added by addNops.pl
6130				; Automatically 16 NOPs removed by reduceNOPs.sh
6131	1367	0c000ecc		jal	g_print	
6132	1368	00000000		nop	; Automatically Added by addNops.pl
6133	1369	00000000		nop	; Automatically Added by addNops.pl
6134	136a	00000000		nop	; Automatically Added by addNops.pl
6135				; Automatically 16 NOPs removed by reduceNOPs.sh
6136	136b	23bd0008		addi	%GPR29,%GPR29,$8	
6137	136c	00000000		nop	; Automatically Added by addNops.pl
6138	136d	00000000		nop	; Automatically Added by addNops.pl
6139	136e	00000000		nop	; Automatically Added by addNops.pl
6140				; Automatically 16 NOPs removed by reduceNOPs.sh
6141	136f	8fc1fff0		lw	%GPR1,-16(%GPR30)	
6142	1370	00000000		nop	; Automatically Added by addNops.pl
6143	1371	00000000		nop	; Automatically Added by addNops.pl
6144	1372	00000000		nop	; Automatically Added by addNops.pl
6145	1373	2bc2000c		subi	%GPR2,%GPR30,$12	
6146	1374	00000000		nop	; Automatically Added by addNops.pl
6147	1375	00000000		nop	; Automatically Added by addNops.pl
6148	1376	00000000		nop	; Automatically Added by addNops.pl
6149				; Automatically 16 NOPs removed by reduceNOPs.sh
6150	1377	2bbd0008		subi	%GPR29,%GPR29,$8	
6151	1378	00000000		nop	; Automatically Added by addNops.pl
6152	1379	00000000		nop	; Automatically Added by addNops.pl
6153	137a	00000000		nop	; Automatically Added by addNops.pl
6154				; Automatically 16 NOPs removed by reduceNOPs.sh
6155	137b	0fffeca5		jal	intToStr	
6156	137c	00000000		nop	; Automatically Added by addNops.pl
6157	137d	00000000		nop	; Automatically Added by addNops.pl
6158	137e	00000000		nop	; Automatically Added by addNops.pl
6159				; Automatically 16 NOPs removed by reduceNOPs.sh
6160	137f	23bd0008		addi	%GPR29,%GPR29,$8	
6161	1380	00000000		nop	; Automatically Added by addNops.pl
6162	1381	00000000		nop	; Automatically Added by addNops.pl
6163	1382	00000000		nop	; Automatically Added by addNops.pl
6164				; Automatically 28 NOPs removed by reduceNOPs.sh
6165	1383	2bc1000c		subi	%GPR1,%GPR30,$12	
6166	1384	00000000		nop	; Automatically Added by addNops.pl
6167	1385	00000000		nop	; Automatically Added by addNops.pl
6168	1386	00000000		nop	; Automatically Added by addNops.pl
6169				; Automatically 8 NOPs removed by reduceNOPs.sh
6170	1387	3c030000		lhi	%GPR3,$0	
6171	1388	00000000		nop	; Automatically Added by addNops.pl
6172	1389	00000000		nop	; Automatically Added by addNops.pl
6173	138a	00000000		nop	; Automatically Added by addNops.pl
6174				; Automatically 16 NOPs removed by reduceNOPs.sh
6175	138b	34630000		ori	%GPR3,%GPR3,$0	
6176	138c	00000000		nop	; Automatically Added by addNops.pl
6177	138d	00000000		nop	; Automatically Added by addNops.pl
6178	138e	00000000		nop	; Automatically Added by addNops.pl
6179	138f	3c020000		lhi	%GPR2,$0	
6180	1390	00000000		nop	; Automatically Added by addNops.pl
6181	1391	00000000		nop	; Automatically Added by addNops.pl
6182	1392	00000000		nop	; Automatically Added by addNops.pl
6183				; Automatically 16 NOPs removed by reduceNOPs.sh
6184	1393	34420028		ori	%GPR2,%GPR2,$40	
6185	1394	00000000		nop	; Automatically Added by addNops.pl
6186	1395	00000000		nop	; Automatically Added by addNops.pl
6187	1396	00000000		nop	; Automatically Added by addNops.pl
6188				; Automatically 16 NOPs removed by reduceNOPs.sh
6189	1397	2bbd0008		subi	%GPR29,%GPR29,$8	
6190	1398	00000000		nop	; Automatically Added by addNops.pl
6191	1399	00000000		nop	; Automatically Added by addNops.pl
6192	139a	00000000		nop	; Automatically Added by addNops.pl
6193				; Automatically 16 NOPs removed by reduceNOPs.sh
6194	139b	0c000e98		jal	g_print	
6195	139c	00000000		nop	; Automatically Added by addNops.pl
6196	139d	00000000		nop	; Automatically Added by addNops.pl
6197	139e	00000000		nop	; Automatically Added by addNops.pl
6198				; Automatically 16 NOPs removed by reduceNOPs.sh
6199	139f	23bd0008		addi	%GPR29,%GPR29,$8	
6200	13a0	00000000		nop	; Automatically Added by addNops.pl
6201	13a1	00000000		nop	; Automatically Added by addNops.pl
6202	13a2	00000000		nop	; Automatically Added by addNops.pl
6203				; Automatically 28 NOPs removed by reduceNOPs.sh
6204			L_lcd_thread_67:
6205	13a3	00000000		nop	; Automatically Added by addNops.pl
6206	13a4	00000000		nop	; Automatically Added by addNops.pl
6207	13a5	00000000		nop	; Automatically Added by addNops.pl
6208	13a6	8fc5fff0		lw	%GPR5,-16(%GPR30)	
6209	13a7	00000000		nop	; Automatically Added by addNops.pl
6210	13a8	00000000		nop	; Automatically Added by addNops.pl
6211	13a9	00000000		nop	; Automatically Added by addNops.pl
6212	13aa	00000000		nop	; Automatically added by fix-stall-insns.pl
6213	13ab	3c010000		lhi	%GPR1,$( _switches	/0x10000)
6214	13ac	00000000		nop
6215	13ad	00000000		nop
6216	13ae	00000000		nop
6217	13af	342102ac		ori	%GPR1,%GPR1,$( _switches	%0x10000)
6218	13b0	00000000		nop	; Automatically Added by addNops.pl
6219	13b1	00000000		nop	; Automatically Added by addNops.pl
6220	13b2	00000000		nop	; Automatically Added by addNops.pl
6221				; Automatically 8 NOPs removed by reduceNOPs.sh
6222	13b3	3c020000		lhi	%GPR2,$0	
6223	13b4	00000000		nop	; Automatically Added by addNops.pl
6224	13b5	00000000		nop	; Automatically Added by addNops.pl
6225	13b6	00000000		nop	; Automatically Added by addNops.pl
6226				; Automatically 16 NOPs removed by reduceNOPs.sh
6227	13b7	34420010		ori	%GPR2,%GPR2,$16	
6228	13b8	00000000		nop	; Automatically Added by addNops.pl
6229	13b9	00000000		nop	; Automatically Added by addNops.pl
6230	13ba	00000000		nop	; Automatically Added by addNops.pl
6231				; Automatically 12 NOPs removed by reduceNOPs.sh
6232	13bb	3c030000		lhi	%GPR3,$0	
6233	13bc	00000000		nop	; Automatically Added by addNops.pl
6234	13bd	00000000		nop	; Automatically Added by addNops.pl
6235	13be	00000000		nop	; Automatically Added by addNops.pl
6236				; Automatically 16 NOPs removed by reduceNOPs.sh
6237	13bf	34630008		ori	%GPR3,%GPR3,$8	
6238	13c0	00000000		nop	; Automatically Added by addNops.pl
6239	13c1	00000000		nop	; Automatically Added by addNops.pl
6240	13c2	00000000		nop	; Automatically Added by addNops.pl
6241	13c3	00a21018		mult	%GPR2,%GPR5,%GPR2	
6242	13c4	00000000		nop	; Automatically Added by addNops.pl
6243	13c5	00000000		nop	; Automatically Added by addNops.pl
6244	13c6	00000000		nop	; Automatically Added by addNops.pl
6245	13c7	3c040000		lhi	%GPR4,$0	
6246	13c8	00000000		nop	; Automatically Added by addNops.pl
6247	13c9	00000000		nop	; Automatically Added by addNops.pl
6248	13ca	00000000		nop	; Automatically Added by addNops.pl
6249				; Automatically 16 NOPs removed by reduceNOPs.sh
6250	13cb	34840000		ori	%GPR4,%GPR4,$0	
6251	13cc	00000000		nop	; Automatically Added by addNops.pl
6252	13cd	00000000		nop	; Automatically Added by addNops.pl
6253	13ce	00000000		nop	; Automatically Added by addNops.pl
6254				; Automatically 12 NOPs removed by reduceNOPs.sh
6255	13cf	00220820		add	%GPR1,%GPR1,%GPR2	
6256	13d0	00000000		nop	; Automatically Added by addNops.pl
6257	13d1	00000000		nop	; Automatically Added by addNops.pl
6258	13d2	00000000		nop	; Automatically Added by addNops.pl
6259				; Automatically 16 NOPs removed by reduceNOPs.sh
6260	13d3	00230820		add	%GPR1,%GPR1,%GPR3	
6261	13d4	00000000		nop	; Automatically Added by addNops.pl
6262	13d5	00000000		nop	; Automatically Added by addNops.pl
6263	13d6	00000000		nop	; Automatically Added by addNops.pl
6264				; Automatically 16 NOPs removed by reduceNOPs.sh
6265	13d7	ac240000		sw	0(%GPR1),%GPR4	
6266	13d8	00000000		nop	; Automatically Added by addNops.pl
6267	13d9	00000000		nop	; Automatically Added by addNops.pl
6268	13da	00000000		nop	; Automatically Added by addNops.pl
6269				; Automatically 12 NOPs removed by reduceNOPs.sh
6270			L_lcd_thread_68:
6271	13db	00000000		nop	; Automatically Added by addNops.pl
6272	13dc	00000000		nop	; Automatically Added by addNops.pl
6273	13dd	00000000		nop	; Automatically Added by addNops.pl
6274	13de	8fc1fff0		lw	%GPR1,-16(%GPR30)	
6275	13df	00000000		nop	; Automatically Added by addNops.pl
6276	13e0	00000000		nop	; Automatically Added by addNops.pl
6277	13e1	00000000		nop	; Automatically Added by addNops.pl
6278				; Automatically 16 NOPs removed by reduceNOPs.sh
6279	13e2	20210001		addi	%GPR1,%GPR1,$1	
6280	13e3	00000000		nop	; Automatically Added by addNops.pl
6281	13e4	00000000		nop	; Automatically Added by addNops.pl
6282	13e5	00000000		nop	; Automatically Added by addNops.pl
6283				; Automatically 16 NOPs removed by reduceNOPs.sh
6284	13e6	afc1fff0		sw	-16(%GPR30),%GPR1	
6285	13e7	00000000		nop	; Automatically Added by addNops.pl
6286	13e8	00000000		nop	; Automatically Added by addNops.pl
6287	13e9	00000000		nop	; Automatically Added by addNops.pl
6288	13ea	0bfffe76		j	L_lcd_thread_62	
6289	13eb	00000000		nop	; Automatically Added by addNops.pl
6290	13ec	00000000		nop	; Automatically Added by addNops.pl
6291	13ed	00000000		nop	; Automatically Added by addNops.pl
6292				; Automatically 12 NOPs removed by reduceNOPs.sh
6293			L_lcd_thread_69:
6294	13ee	00000000		nop	; Automatically Added by addNops.pl
6295	13ef	00000000		nop	; Automatically Added by addNops.pl
6296	13f0	00000000		nop	; Automatically Added by addNops.pl
6297				; Automatically 16 NOPs removed by reduceNOPs.sh
6298	13f1	3c010000		lhi	%GPR1,$0	
6299	13f2	00000000		nop	; Automatically Added by addNops.pl
6300	13f3	00000000		nop	; Automatically Added by addNops.pl
6301	13f4	00000000		nop	; Automatically Added by addNops.pl
6302				; Automatically 16 NOPs removed by reduceNOPs.sh
6303	13f5	34210000		ori	%GPR1,%GPR1,$0	
6304	13f6	00000000		nop	; Automatically Added by addNops.pl
6305	13f7	00000000		nop	; Automatically Added by addNops.pl
6306	13f8	00000000		nop	; Automatically Added by addNops.pl
6307	13f9	0bffffe2		j	L_lcd_thread_68	
6308	13fa	00000000		nop	; Automatically Added by addNops.pl
6309	13fb	00000000		nop	; Automatically Added by addNops.pl
6310	13fc	00000000		nop	; Automatically Added by addNops.pl
6311				; Automatically 12 NOPs removed by reduceNOPs.sh
6312			L_lcd_thread_70:
6313	13fd	00000000		nop	; Automatically Added by addNops.pl
6314	13fe	00000000		nop	; Automatically Added by addNops.pl
6315	13ff	00000000		nop	; Automatically Added by addNops.pl
6316				; Automatically 16 NOPs removed by reduceNOPs.sh
6317	1400	2bbd0008		subi	%GPR29,%GPR29,$8	
6318	1401	00000000		nop	; Automatically Added by addNops.pl
6319	1402	00000000		nop	; Automatically Added by addNops.pl
6320	1403	00000000		nop	; Automatically Added by addNops.pl
6321				; Automatically 16 NOPs removed by reduceNOPs.sh
6322	1404	0fffef59		jal	switchThread	
6323	1405	00000000		nop	; Automatically Added by addNops.pl
6324	1406	00000000		nop	; Automatically Added by addNops.pl
6325	1407	00000000		nop	; Automatically Added by addNops.pl
6326				; Automatically 16 NOPs removed by reduceNOPs.sh
6327	1408	23bd0008		addi	%GPR29,%GPR29,$8	
6328	1409	00000000		nop	; Automatically Added by addNops.pl
6329	140a	00000000		nop	; Automatically Added by addNops.pl
6330	140b	00000000		nop	; Automatically Added by addNops.pl
6331				; Automatically 16 NOPs removed by reduceNOPs.sh
6332	140c	0bfffbd7		j	L_lcd_thread_50	
6333	140d	00000000		nop	; Automatically Added by addNops.pl
6334	140e	00000000		nop	; Automatically Added by addNops.pl
6335	140f	00000000		nop	; Automatically Added by addNops.pl
6336				; Automatically 12 NOPs removed by reduceNOPs.sh
6337			L_lcd_thread_71:
6338	1410	00000000		nop	; Automatically Added by addNops.pl
6339	1411	00000000		nop	; Automatically Added by addNops.pl
6340	1412	00000000		nop	; Automatically Added by addNops.pl
6341				; Automatically 16 NOPs removed by reduceNOPs.sh
6342	1413	8fdf0004		lw	%GPR31,4(%GPR30)	
6343	1414	00000000		nop	; Automatically Added by addNops.pl
6344	1415	00000000		nop	; Automatically Added by addNops.pl
6345	1416	00000000		nop	; Automatically Added by addNops.pl
6346	1417	27dd0004		addui	%GPR29,%GPR30,$4	
6347	1418	00000000		nop	; Automatically Added by addNops.pl
6348	1419	00000000		nop	; Automatically Added by addNops.pl
6349	141a	00000000		nop	; Automatically Added by addNops.pl
6350	141b	8fde0000		lw	%GPR30,0(%GPR30)	
6351	141c	00000000		nop	; Automatically Added by addNops.pl
6352	141d	00000000		nop	; Automatically Added by addNops.pl
6353	141e	00000000		nop	; Automatically Added by addNops.pl
6354				; Automatically 8 NOPs removed by reduceNOPs.sh
6355	141f	00000000		nop
6356	1420	00000000		nop
6357	1421	03e00008		jr	%GPR31	
6358	1422	00000000		nop	; Automatically Added by addNops.pl
6359	1423	00000000		nop	; Automatically Added by addNops.pl
6360	1424	00000000		nop	; Automatically Added by addNops.pl
6361				.section	.data
6362				.align	4
6363			L_lib_lcd_larsix_1:
6364	0798	00000000		.space	4
6365				.align	4
6366			L_lib_lcd_larsix_2:
6367	079c	00000001		.data.32	1
6368				.section	.text
6369				.addressing	Word
6370				;.addressing	Word
6371			create_switch:
6372			L_lib_lcd_larsix_3:
6373	1425	00000000		nop	; Automatically Added by addNops.pl
6374	1426	00000000		nop	; Automatically Added by addNops.pl
6375	1427	00000000		nop	; Automatically Added by addNops.pl
6376				; Automatically 16 NOPs removed by reduceNOPs.sh
6377	1428	afbefffc		sw	-4(%GPR29),%GPR30	
6378	1429	00000000		nop	; Automatically Added by addNops.pl
6379	142a	00000000		nop	; Automatically Added by addNops.pl
6380	142b	00000000		nop	; Automatically Added by addNops.pl
6381	142c	00000000		nop	; Automatically added by fix-stall-insns.pl
6382	142d	afbf0000		sw	0(%GPR29),%GPR31	
6383	142e	00000000		nop	; Automatically Added by addNops.pl
6384	142f	00000000		nop	; Automatically Added by addNops.pl
6385	1430	00000000		nop	; Automatically Added by addNops.pl
6386	1431	2fbe0004		subui	%GPR30,%GPR29,$4	
6387	1432	00000000		nop	; Automatically Added by addNops.pl
6388	1433	00000000		nop	; Automatically Added by addNops.pl
6389	1434	00000000		nop	; Automatically Added by addNops.pl
6390				; Automatically 4 NOPs removed by reduceNOPs.sh
6391	1435	2bbd0020		subi	%GPR29,%GPR29,$32	
6392	1436	00000000		nop	; Automatically Added by addNops.pl
6393	1437	00000000		nop	; Automatically Added by addNops.pl
6394	1438	00000000		nop	; Automatically Added by addNops.pl
6395				; Automatically 16 NOPs removed by reduceNOPs.sh
6396	1439	afc2fffc		sw	-4(%GPR30),%GPR2	
6397	143a	00000000		nop	; Automatically Added by addNops.pl
6398	143b	00000000		nop	; Automatically Added by addNops.pl
6399	143c	00000000		nop	; Automatically Added by addNops.pl
6400	143d	00000000		nop	; Automatically added by fix-stall-insns.pl
6401	143e	afc1fff8		sw	-8(%GPR30),%GPR1	
6402	143f	00000000		nop	; Automatically Added by addNops.pl
6403	1440	00000000		nop	; Automatically Added by addNops.pl
6404	1441	00000000		nop	; Automatically Added by addNops.pl
6405	1442	00000000		nop	; Automatically added by fix-stall-insns.pl
6406	1443	afc3fff4		sw	-12(%GPR30),%GPR3	
6407	1444	00000000		nop	; Automatically Added by addNops.pl
6408	1445	00000000		nop	; Automatically Added by addNops.pl
6409	1446	00000000		nop	; Automatically Added by addNops.pl
6410	1447	00000000		nop	; Automatically added by fix-stall-insns.pl
6411	1448	afc4fff0		sw	-16(%GPR30),%GPR4	
6412	1449	00000000		nop	; Automatically Added by addNops.pl
6413	144a	00000000		nop	; Automatically Added by addNops.pl
6414	144b	00000000		nop	; Automatically Added by addNops.pl
6415	144c	00000000		nop	; Automatically added by fix-stall-insns.pl
6416	144d	afc5ffec		sw	-20(%GPR30),%GPR5	
6417	144e	00000000		nop	; Automatically Added by addNops.pl
6418	144f	00000000		nop	; Automatically Added by addNops.pl
6419	1450	00000000		nop	; Automatically Added by addNops.pl
6420	1451	00000000		nop	; Automatically added by fix-stall-insns.pl
6421	1452	afc6ffe8		sw	-24(%GPR30),%GPR6	
6422	1453	00000000		nop	; Automatically Added by addNops.pl
6423	1454	00000000		nop	; Automatically Added by addNops.pl
6424	1455	00000000		nop	; Automatically Added by addNops.pl
6425	1456	00c01020		add	%GPR2,%GPR6,%GPR0	
6426	1457	00000000		nop	; Automatically Added by addNops.pl
6427	1458	00000000		nop	; Automatically Added by addNops.pl
6428	1459	00000000		nop	; Automatically Added by addNops.pl
6429				; Automatically 32 NOPs removed by reduceNOPs.sh
6430	145a	3c010000		lhi	%GPR1,$0	
6431	145b	00000000		nop	; Automatically Added by addNops.pl
6432	145c	00000000		nop	; Automatically Added by addNops.pl
6433	145d	00000000		nop	; Automatically Added by addNops.pl
6434				; Automatically 16 NOPs removed by reduceNOPs.sh
6435	145e	34210000		ori	%GPR1,%GPR1,$0	
6436	145f	00000000		nop	; Automatically Added by addNops.pl
6437	1460	00000000		nop	; Automatically Added by addNops.pl
6438	1461	00000000		nop	; Automatically Added by addNops.pl
6439				; Automatically 16 NOPs removed by reduceNOPs.sh
6440	1462	0041d82a		slt	%GPR27,%GPR2,%GPR1	
6441	1463	00000000		nop	; Automatically Added by addNops.pl
6442	1464	00000000		nop	; Automatically Added by addNops.pl
6443	1465	00000000		nop	; Automatically Added by addNops.pl
6444	1466	17600023		bnez	%GPR27,L_lib_lcd_larsix_5	
6445	1467	00000000		nop	; Automatically Added by addNops.pl
6446	1468	00000000		nop	; Automatically Added by addNops.pl
6447	1469	00000000		nop	; Automatically Added by addNops.pl
6448				; Automatically 16 NOPs removed by reduceNOPs.sh
6449	146a	08000004		j	L_lib_lcd_larsix_4	
6450	146b	00000000		nop	; Automatically Added by addNops.pl
6451	146c	00000000		nop	; Automatically Added by addNops.pl
6452	146d	00000000		nop	; Automatically Added by addNops.pl
6453				; Automatically 16 NOPs removed by reduceNOPs.sh
6454			L_lib_lcd_larsix_4:
6455	146e	00000000		nop	; Automatically Added by addNops.pl
6456	146f	00000000		nop	; Automatically Added by addNops.pl
6457	1470	00000000		nop	; Automatically Added by addNops.pl
6458	1471	8fc2ffe8		lw	%GPR2,-24(%GPR30)	
6459	1472	00000000		nop	; Automatically Added by addNops.pl
6460	1473	00000000		nop	; Automatically Added by addNops.pl
6461	1474	00000000		nop	; Automatically Added by addNops.pl
6462				; Automatically 12 NOPs removed by reduceNOPs.sh
6463	1475	3c010000		lhi	%GPR1,$0	
6464	1476	00000000		nop	; Automatically Added by addNops.pl
6465	1477	00000000		nop	; Automatically Added by addNops.pl
6466	1478	00000000		nop	; Automatically Added by addNops.pl
6467				; Automatically 16 NOPs removed by reduceNOPs.sh
6468	1479	34210100		ori	%GPR1,%GPR1,$256	
6469	147a	00000000		nop	; Automatically Added by addNops.pl
6470	147b	00000000		nop	; Automatically Added by addNops.pl
6471	147c	00000000		nop	; Automatically Added by addNops.pl
6472				; Automatically 16 NOPs removed by reduceNOPs.sh
6473	147d	0041d82b		sgt	%GPR27,%GPR2,%GPR1	
6474	147e	00000000		nop	; Automatically Added by addNops.pl
6475	147f	00000000		nop	; Automatically Added by addNops.pl
6476	1480	00000000		nop	; Automatically Added by addNops.pl
6477	1481	17600008		bnez	%GPR27,L_lib_lcd_larsix_5	
6478	1482	00000000		nop	; Automatically Added by addNops.pl
6479	1483	00000000		nop	; Automatically Added by addNops.pl
6480	1484	00000000		nop	; Automatically Added by addNops.pl
6481				; Automatically 16 NOPs removed by reduceNOPs.sh
6482	1485	0800001b		j	L_lib_lcd_larsix_6	
6483	1486	00000000		nop	; Automatically Added by addNops.pl
6484	1487	00000000		nop	; Automatically Added by addNops.pl
6485	1488	00000000		nop	; Automatically Added by addNops.pl
6486				; Automatically 16 NOPs removed by reduceNOPs.sh
6487			L_lib_lcd_larsix_5:
6488	1489	00000000		nop	; Automatically Added by addNops.pl
6489	148a	00000000		nop	; Automatically Added by addNops.pl
6490	148b	00000000		nop	; Automatically Added by addNops.pl
6491				; Automatically 16 NOPs removed by reduceNOPs.sh
6492	148c	3c1c0000		lhi	%GPR28,$0	
6493	148d	00000000		nop	; Automatically Added by addNops.pl
6494	148e	00000000		nop	; Automatically Added by addNops.pl
6495	148f	00000000		nop	; Automatically Added by addNops.pl
6496				; Automatically 16 NOPs removed by reduceNOPs.sh
6497	1490	379c0001		ori	%GPR28,%GPR28,$1	
6498	1491	00000000		nop	; Automatically Added by addNops.pl
6499	1492	00000000		nop	; Automatically Added by addNops.pl
6500	1493	00000000		nop	; Automatically Added by addNops.pl
6501	1494	3c010000		lhi	%GPR1,$0	
6502	1495	00000000		nop	; Automatically Added by addNops.pl
6503	1496	00000000		nop	; Automatically Added by addNops.pl
6504	1497	00000000		nop	; Automatically Added by addNops.pl
6505				; Automatically 16 NOPs removed by reduceNOPs.sh
6506	1498	34210001		ori	%GPR1,%GPR1,$1	
6507	1499	00000000		nop	; Automatically Added by addNops.pl
6508	149a	00000000		nop	; Automatically Added by addNops.pl
6509	149b	00000000		nop	; Automatically Added by addNops.pl
6510				; Automatically 12 NOPs removed by reduceNOPs.sh
6511	149c	080001b0		j	L_lib_lcd_larsix_9	
6512	149d	00000000		nop	; Automatically Added by addNops.pl
6513	149e	00000000		nop	; Automatically Added by addNops.pl
6514	149f	00000000		nop	; Automatically Added by addNops.pl
6515				; Automatically 16 NOPs removed by reduceNOPs.sh
6516			L_lib_lcd_larsix_6:
6517	14a0	00000000		nop	; Automatically Added by addNops.pl
6518	14a1	00000000		nop	; Automatically Added by addNops.pl
6519	14a2	00000000		nop	; Automatically Added by addNops.pl
6520	14a3	3c010000		lhi	%GPR1,$( L_lib_lcd_larsix_1	/0x10000)
6521	14a4	00000000		nop
6522	14a5	00000000		nop
6523	14a6	00000000		nop
6524	14a7	34210798		ori	%GPR1,%GPR1,$( L_lib_lcd_larsix_1	%0x10000)
6525	14a8	00000000		nop	; Automatically Added by addNops.pl
6526	14a9	00000000		nop	; Automatically Added by addNops.pl
6527	14aa	00000000		nop	; Automatically Added by addNops.pl
6528				; Automatically 16 NOPs removed by reduceNOPs.sh
6529	14ab	8c220000		lw	%GPR2,0(%GPR1)	
6530	14ac	00000000		nop	; Automatically Added by addNops.pl
6531	14ad	00000000		nop	; Automatically Added by addNops.pl
6532	14ae	00000000		nop	; Automatically Added by addNops.pl
6533	14af	3c010000		lhi	%GPR1,$0	
6534	14b0	00000000		nop	; Automatically Added by addNops.pl
6535	14b1	00000000		nop	; Automatically Added by addNops.pl
6536	14b2	00000000		nop	; Automatically Added by addNops.pl
6537				; Automatically 16 NOPs removed by reduceNOPs.sh
6538	14b3	34210000		ori	%GPR1,%GPR1,$0	
6539	14b4	00000000		nop	; Automatically Added by addNops.pl
6540	14b5	00000000		nop	; Automatically Added by addNops.pl
6541	14b6	00000000		nop	; Automatically Added by addNops.pl
6542				; Automatically 16 NOPs removed by reduceNOPs.sh
6543	14b7	8fc1ffe8		lw	%GPR1,-24(%GPR30)	
6544	14b8	00000000		nop	; Automatically Added by addNops.pl
6545	14b9	00000000		nop	; Automatically Added by addNops.pl
6546	14ba	00000000		nop	; Automatically Added by addNops.pl
6547				; Automatically 16 NOPs removed by reduceNOPs.sh
6548	14bb	0041d82f		sne	%GPR27,%GPR2,%GPR1	
6549	14bc	00000000		nop	; Automatically Added by addNops.pl
6550	14bd	00000000		nop	; Automatically Added by addNops.pl
6551	14be	00000000		nop	; Automatically Added by addNops.pl
6552	14bf	17600008		bnez	%GPR27,L_lib_lcd_larsix_7	
6553	14c0	00000000		nop	; Automatically Added by addNops.pl
6554	14c1	00000000		nop	; Automatically Added by addNops.pl
6555	14c2	00000000		nop	; Automatically Added by addNops.pl
6556				; Automatically 16 NOPs removed by reduceNOPs.sh
6557	14c3	08000028		j	L_lib_lcd_larsix_8	
6558	14c4	00000000		nop	; Automatically Added by addNops.pl
6559	14c5	00000000		nop	; Automatically Added by addNops.pl
6560	14c6	00000000		nop	; Automatically Added by addNops.pl
6561				; Automatically 16 NOPs removed by reduceNOPs.sh
6562			L_lib_lcd_larsix_7:
6563	14c7	00000000		nop	; Automatically Added by addNops.pl
6564	14c8	00000000		nop	; Automatically Added by addNops.pl
6565	14c9	00000000		nop	; Automatically Added by addNops.pl
6566	14ca	8fc1ffe8		lw	%GPR1,-24(%GPR30)	
6567	14cb	00000000		nop	; Automatically Added by addNops.pl
6568	14cc	00000000		nop	; Automatically Added by addNops.pl
6569	14cd	00000000		nop	; Automatically Added by addNops.pl
6570				; Automatically 16 NOPs removed by reduceNOPs.sh
6571	14ce	2bbd0008		subi	%GPR29,%GPR29,$8	
6572	14cf	00000000		nop	; Automatically Added by addNops.pl
6573	14d0	00000000		nop	; Automatically Added by addNops.pl
6574	14d1	00000000		nop	; Automatically Added by addNops.pl
6575				; Automatically 16 NOPs removed by reduceNOPs.sh
6576	14d2	0c0013a3		jal	g_makeradiogroup	
6577	14d3	00000000		nop	; Automatically Added by addNops.pl
6578	14d4	00000000		nop	; Automatically Added by addNops.pl
6579	14d5	00000000		nop	; Automatically Added by addNops.pl
6580				; Automatically 16 NOPs removed by reduceNOPs.sh
6581	14d6	23bd0008		addi	%GPR29,%GPR29,$8	
6582	14d7	00000000		nop	; Automatically Added by addNops.pl
6583	14d8	00000000		nop	; Automatically Added by addNops.pl
6584	14d9	00000000		nop	; Automatically Added by addNops.pl
6585				; Automatically 16 NOPs removed by reduceNOPs.sh
6586	14da	3c010000		lhi	%GPR1,$( L_lib_lcd_larsix_1	/0x10000)
6587	14db	00000000		nop
6588	14dc	00000000		nop
6589	14dd	00000000		nop
6590	14de	34210798		ori	%GPR1,%GPR1,$( L_lib_lcd_larsix_1	%0x10000)
6591	14df	00000000		nop	; Automatically Added by addNops.pl
6592	14e0	00000000		nop	; Automatically Added by addNops.pl
6593	14e1	00000000		nop	; Automatically Added by addNops.pl
6594	14e2	8fc2ffe8		lw	%GPR2,-24(%GPR30)	
6595	14e3	00000000		nop	; Automatically Added by addNops.pl
6596	14e4	00000000		nop	; Automatically Added by addNops.pl
6597	14e5	00000000		nop	; Automatically Added by addNops.pl
6598				; Automatically 16 NOPs removed by reduceNOPs.sh
6599	14e6	00000000		nop	; Automatically added by fix-stall-insns.pl
6600	14e7	ac220000		sw	0(%GPR1),%GPR2	
6601	14e8	00000000		nop	; Automatically Added by addNops.pl
6602	14e9	00000000		nop	; Automatically Added by addNops.pl
6603	14ea	00000000		nop	; Automatically Added by addNops.pl
6604				; Automatically 12 NOPs removed by reduceNOPs.sh
6605			L_lib_lcd_larsix_8:
6606	14eb	00000000		nop	; Automatically Added by addNops.pl
6607	14ec	00000000		nop	; Automatically Added by addNops.pl
6608	14ed	00000000		nop	; Automatically Added by addNops.pl
6609	14ee	3c010000		lhi	%GPR1,$( _activeswitches	/0x10000)
6610	14ef	00000000		nop
6611	14f0	00000000		nop
6612	14f1	00000000		nop
6613	14f2	34210730		ori	%GPR1,%GPR1,$( _activeswitches	%0x10000)
6614	14f3	00000000		nop	; Automatically Added by addNops.pl
6615	14f4	00000000		nop	; Automatically Added by addNops.pl
6616	14f5	00000000		nop	; Automatically Added by addNops.pl
6617	14f6	3c020000		lhi	%GPR2,$( _activeswitches	/0x10000)
6618	14f7	00000000		nop
6619	14f8	00000000		nop
6620	14f9	00000000		nop
6621	14fa	34420730		ori	%GPR2,%GPR2,$( _activeswitches	%0x10000)
6622	14fb	00000000		nop	; Automatically Added by addNops.pl
6623	14fc	00000000		nop	; Automatically Added by addNops.pl
6624	14fd	00000000		nop	; Automatically Added by addNops.pl
6625	14fe	8fc5ffec		lw	%GPR5,-20(%GPR30)	
6626	14ff	00000000		nop	; Automatically Added by addNops.pl
6627	1500	00000000		nop	; Automatically Added by addNops.pl
6628	1501	00000000		nop	; Automatically Added by addNops.pl
6629	1502	00000000		nop	; Automatically added by fix-stall-insns.pl
6630	1503	8fc4fff0		lw	%GPR4,-16(%GPR30)	
6631	1504	00000000		nop	; Automatically Added by addNops.pl
6632	1505	00000000		nop	; Automatically Added by addNops.pl
6633	1506	00000000		nop	; Automatically Added by addNops.pl
6634	1507	00000000		nop	; Automatically added by fix-stall-insns.pl
6635	1508	8c210000		lw	%GPR1,0(%GPR1)	
6636	1509	00000000		nop	; Automatically Added by addNops.pl
6637	150a	00000000		nop	; Automatically Added by addNops.pl
6638	150b	00000000		nop	; Automatically Added by addNops.pl
6639	150c	00000000		nop	; Automatically added by fix-stall-insns.pl
6640	150d	8c420000		lw	%GPR2,0(%GPR2)	
6641	150e	00000000		nop	; Automatically Added by addNops.pl
6642	150f	00000000		nop	; Automatically Added by addNops.pl
6643	1510	00000000		nop	; Automatically Added by addNops.pl
6644	1511	00000000		nop	; Automatically added by fix-stall-insns.pl
6645	1512	8fc3fff4		lw	%GPR3,-12(%GPR30)	
6646	1513	00000000		nop	; Automatically Added by addNops.pl
6647	1514	00000000		nop	; Automatically Added by addNops.pl
6648	1515	00000000		nop	; Automatically Added by addNops.pl
6649				; Automatically 8 NOPs removed by reduceNOPs.sh
6650	1516	20270001		addi	%GPR7,%GPR1,$1	
6651	1517	00000000		nop	; Automatically Added by addNops.pl
6652	1518	00000000		nop	; Automatically Added by addNops.pl
6653	1519	00000000		nop	; Automatically Added by addNops.pl
6654	151a	20460001		addi	%GPR6,%GPR2,$1	
6655	151b	00000000		nop	; Automatically Added by addNops.pl
6656	151c	00000000		nop	; Automatically Added by addNops.pl
6657	151d	00000000		nop	; Automatically Added by addNops.pl
6658	151e	8fc1fff8		lw	%GPR1,-8(%GPR30)	
6659	151f	00000000		nop	; Automatically Added by addNops.pl
6660	1520	00000000		nop	; Automatically Added by addNops.pl
6661	1521	00000000		nop	; Automatically Added by addNops.pl
6662	1522	00000000		nop	; Automatically added by fix-stall-insns.pl
6663	1523	8fc2fffc		lw	%GPR2,-4(%GPR30)	
6664	1524	00000000		nop	; Automatically Added by addNops.pl
6665	1525	00000000		nop	; Automatically Added by addNops.pl
6666	1526	00000000		nop	; Automatically Added by addNops.pl
6667				; Automatically 16 NOPs removed by reduceNOPs.sh
6668	1527	2bbd0008		subi	%GPR29,%GPR29,$8	
6669	1528	00000000		nop	; Automatically Added by addNops.pl
6670	1529	00000000		nop	; Automatically Added by addNops.pl
6671	152a	00000000		nop	; Automatically Added by addNops.pl
6672				; Automatically 16 NOPs removed by reduceNOPs.sh
6673	152b	0c0010fb		jal	g_makeswitch	
6674	152c	00000000		nop	; Automatically Added by addNops.pl
6675	152d	00000000		nop	; Automatically Added by addNops.pl
6676	152e	00000000		nop	; Automatically Added by addNops.pl
6677				; Automatically 16 NOPs removed by reduceNOPs.sh
6678	152f	23bd0008		addi	%GPR29,%GPR29,$8	
6679	1530	00000000		nop	; Automatically Added by addNops.pl
6680	1531	00000000		nop	; Automatically Added by addNops.pl
6681	1532	00000000		nop	; Automatically Added by addNops.pl
6682				; Automatically 16 NOPs removed by reduceNOPs.sh
6683	1533	3c010000		lhi	%GPR1,$( _activeswitches	/0x10000)
6684	1534	00000000		nop
6685	1535	00000000		nop
6686	1536	00000000		nop
6687	1537	34210730		ori	%GPR1,%GPR1,$( _activeswitches	%0x10000)
6688	1538	00000000		nop	; Automatically Added by addNops.pl
6689	1539	00000000		nop	; Automatically Added by addNops.pl
6690	153a	00000000		nop	; Automatically Added by addNops.pl
6691				; Automatically 8 NOPs removed by reduceNOPs.sh
6692	153b	3c020000		lhi	%GPR2,$( _switches	/0x10000)
6693	153c	00000000		nop
6694	153d	00000000		nop
6695	153e	00000000		nop
6696	153f	344202ac		ori	%GPR2,%GPR2,$( _switches	%0x10000)
6697	1540	00000000		nop	; Automatically Added by addNops.pl
6698	1541	00000000		nop	; Automatically Added by addNops.pl
6699	1542	00000000		nop	; Automatically Added by addNops.pl
6700				; Automatically 8 NOPs removed by reduceNOPs.sh
6701	1543	8c210000		lw	%GPR1,0(%GPR1)	
6702	1544	00000000		nop	; Automatically Added by addNops.pl
6703	1545	00000000		nop	; Automatically Added by addNops.pl
6704	1546	00000000		nop	; Automatically Added by addNops.pl
6705	1547	3c030000		lhi	%GPR3,$0	
6706	1548	00000000		nop	; Automatically Added by addNops.pl
6707	1549	00000000		nop	; Automatically Added by addNops.pl
6708	154a	00000000		nop	; Automatically Added by addNops.pl
6709				; Automatically 16 NOPs removed by reduceNOPs.sh
6710	154b	34630010		ori	%GPR3,%GPR3,$16	
6711	154c	00000000		nop	; Automatically Added by addNops.pl
6712	154d	00000000		nop	; Automatically Added by addNops.pl
6713	154e	00000000		nop	; Automatically Added by addNops.pl
6714	154f	3c050000		lhi	%GPR5,$( _activeswitches	/0x10000)
6715	1550	00000000		nop
6716	1551	00000000		nop
6717	1552	00000000		nop
6718	1553	34a50730		ori	%GPR5,%GPR5,$( _activeswitches	%0x10000)
6719	1554	00000000		nop	; Automatically Added by addNops.pl
6720	1555	00000000		nop	; Automatically Added by addNops.pl
6721	1556	00000000		nop	; Automatically Added by addNops.pl
6722	1557	3c040000		lhi	%GPR4,$0	
6723	1558	00000000		nop	; Automatically Added by addNops.pl
6724	1559	00000000		nop	; Automatically Added by addNops.pl
6725	155a	00000000		nop	; Automatically Added by addNops.pl
6726				; Automatically 16 NOPs removed by reduceNOPs.sh
6727	155b	34840000		ori	%GPR4,%GPR4,$0	
6728	155c	00000000		nop	; Automatically Added by addNops.pl
6729	155d	00000000		nop	; Automatically Added by addNops.pl
6730	155e	00000000		nop	; Automatically Added by addNops.pl
6731				; Automatically 8 NOPs removed by reduceNOPs.sh
6732	155f	00230818		mult	%GPR1,%GPR1,%GPR3	
6733	1560	00000000		nop	; Automatically Added by addNops.pl
6734	1561	00000000		nop	; Automatically Added by addNops.pl
6735	1562	00000000		nop	; Automatically Added by addNops.pl
6736	1563	3c060000		lhi	%GPR6,$( _switches	/0x10000)
6737	1564	00000000		nop
6738	1565	00000000		nop
6739	1566	00000000		nop
6740	1567	34c602ac		ori	%GPR6,%GPR6,$( _switches	%0x10000)
6741	1568	00000000		nop	; Automatically Added by addNops.pl
6742	1569	00000000		nop	; Automatically Added by addNops.pl
6743	156a	00000000		nop	; Automatically Added by addNops.pl
6744				; Automatically 12 NOPs removed by reduceNOPs.sh
6745	156b	00410820		add	%GPR1,%GPR2,%GPR1	
6746	156c	00000000		nop	; Automatically Added by addNops.pl
6747	156d	00000000		nop	; Automatically Added by addNops.pl
6748	156e	00000000		nop	; Automatically Added by addNops.pl
6749	156f	3c030000		lhi	%GPR3,$0	
6750	1570	00000000		nop	; Automatically Added by addNops.pl
6751	1571	00000000		nop	; Automatically Added by addNops.pl
6752	1572	00000000		nop	; Automatically Added by addNops.pl
6753				; Automatically 16 NOPs removed by reduceNOPs.sh
6754	1573	34630010		ori	%GPR3,%GPR3,$16	
6755	1574	00000000		nop	; Automatically Added by addNops.pl
6756	1575	00000000		nop	; Automatically Added by addNops.pl
6757	1576	00000000		nop	; Automatically Added by addNops.pl
6758	1577	3c020000		lhi	%GPR2,$0	
6759	1578	00000000		nop	; Automatically Added by addNops.pl
6760	1579	00000000		nop	; Automatically Added by addNops.pl
6761	157a	00000000		nop	; Automatically Added by addNops.pl
6762				; Automatically 16 NOPs removed by reduceNOPs.sh
6763	157b	34420004		ori	%GPR2,%GPR2,$4	
6764	157c	00000000		nop	; Automatically Added by addNops.pl
6765	157d	00000000		nop	; Automatically Added by addNops.pl
6766	157e	00000000		nop	; Automatically Added by addNops.pl
6767				; Automatically 8 NOPs removed by reduceNOPs.sh
6768	157f	ac240000		sw	0(%GPR1),%GPR4	
6769	1580	00000000		nop	; Automatically Added by addNops.pl
6770	1581	00000000		nop	; Automatically Added by addNops.pl
6771	1582	00000000		nop	; Automatically Added by addNops.pl
6772	1583	00000000		nop	; Automatically added by fix-stall-insns.pl
6773	1584	8fc9ffe8		lw	%GPR9,-24(%GPR30)	
6774	1585	00000000		nop	; Automatically Added by addNops.pl
6775	1586	00000000		nop	; Automatically Added by addNops.pl
6776	1587	00000000		nop	; Automatically Added by addNops.pl
6777	1588	00000000		nop	; Automatically added by fix-stall-insns.pl
6778	1589	3c010000		lhi	%GPR1,$( _activeswitches	/0x10000)
6779	158a	00000000		nop
6780	158b	00000000		nop
6781	158c	00000000		nop
6782	158d	34210730		ori	%GPR1,%GPR1,$( _activeswitches	%0x10000)
6783	158e	00000000		nop	; Automatically Added by addNops.pl
6784	158f	00000000		nop	; Automatically Added by addNops.pl
6785	1590	00000000		nop	; Automatically Added by addNops.pl
6786				; Automatically 8 NOPs removed by reduceNOPs.sh
6787	1591	8ca50000		lw	%GPR5,0(%GPR5)	
6788	1592	00000000		nop	; Automatically Added by addNops.pl
6789	1593	00000000		nop	; Automatically Added by addNops.pl
6790	1594	00000000		nop	; Automatically Added by addNops.pl
6791				; Automatically 8 NOPs removed by reduceNOPs.sh
6792	1595	00000000		nop	; Automatically added by fix-stall-insns.pl
6793	1596	3c070000		lhi	%GPR7,$( _switches	/0x10000)
6794	1597	00000000		nop
6795	1598	00000000		nop
6796	1599	00000000		nop
6797	159a	34e702ac		ori	%GPR7,%GPR7,$( _switches	%0x10000)
6798	159b	00000000		nop	; Automatically Added by addNops.pl
6799	159c	00000000		nop	; Automatically Added by addNops.pl
6800	159d	00000000		nop	; Automatically Added by addNops.pl
6801				; Automatically 8 NOPs removed by reduceNOPs.sh
6802	159e	00a31818		mult	%GPR3,%GPR5,%GPR3	
6803	159f	00000000		nop	; Automatically Added by addNops.pl
6804	15a0	00000000		nop	; Automatically Added by addNops.pl
6805	15a1	00000000		nop	; Automatically Added by addNops.pl
6806	15a2	3c040000		lhi	%GPR4,$0	
6807	15a3	00000000		nop	; Automatically Added by addNops.pl
6808	15a4	00000000		nop	; Automatically Added by addNops.pl
6809	15a5	00000000		nop	; Automatically Added by addNops.pl
6810				; Automatically 16 NOPs removed by reduceNOPs.sh
6811	15a6	34840010		ori	%GPR4,%GPR4,$16	
6812	15a7	00000000		nop	; Automatically Added by addNops.pl
6813	15a8	00000000		nop	; Automatically Added by addNops.pl
6814	15a9	00000000		nop	; Automatically Added by addNops.pl
6815				; Automatically 12 NOPs removed by reduceNOPs.sh
6816	15aa	00c31820		add	%GPR3,%GPR6,%GPR3	
6817	15ab	00000000		nop	; Automatically Added by addNops.pl
6818	15ac	00000000		nop	; Automatically Added by addNops.pl
6819	15ad	00000000		nop	; Automatically Added by addNops.pl
6820				; Automatically 8 NOPs removed by reduceNOPs.sh
6821	15ae	3c050000		lhi	%GPR5,$0	
6822	15af	00000000		nop	; Automatically Added by addNops.pl
6823	15b0	00000000		nop	; Automatically Added by addNops.pl
6824	15b1	00000000		nop	; Automatically Added by addNops.pl
6825				; Automatically 16 NOPs removed by reduceNOPs.sh
6826	15b2	34a50008		ori	%GPR5,%GPR5,$8	
6827	15b3	00000000		nop	; Automatically Added by addNops.pl
6828	15b4	00000000		nop	; Automatically Added by addNops.pl
6829	15b5	00000000		nop	; Automatically Added by addNops.pl
6830				; Automatically 8 NOPs removed by reduceNOPs.sh
6831	15b6	00621020		add	%GPR2,%GPR3,%GPR2	
6832	15b7	00000000		nop	; Automatically Added by addNops.pl
6833	15b8	00000000		nop	; Automatically Added by addNops.pl
6834	15b9	00000000		nop	; Automatically Added by addNops.pl
6835	15ba	3c060000		lhi	%GPR6,$0	
6836	15bb	00000000		nop	; Automatically Added by addNops.pl
6837	15bc	00000000		nop	; Automatically Added by addNops.pl
6838	15bd	00000000		nop	; Automatically Added by addNops.pl
6839				; Automatically 16 NOPs removed by reduceNOPs.sh
6840	15be	34c60001		ori	%GPR6,%GPR6,$1	
6841	15bf	00000000		nop	; Automatically Added by addNops.pl
6842	15c0	00000000		nop	; Automatically Added by addNops.pl
6843	15c1	00000000		nop	; Automatically Added by addNops.pl
6844				; Automatically 12 NOPs removed by reduceNOPs.sh
6845	15c2	ac490000		sw	0(%GPR2),%GPR9	
6846	15c3	00000000		nop	; Automatically Added by addNops.pl
6847	15c4	00000000		nop	; Automatically Added by addNops.pl
6848	15c5	00000000		nop	; Automatically Added by addNops.pl
6849	15c6	00000000		nop	; Automatically added by fix-stall-insns.pl
6850	15c7	3c030000		lhi	%GPR3,$( _activeswitches	/0x10000)
6851	15c8	00000000		nop
6852	15c9	00000000		nop
6853	15ca	00000000		nop
6854	15cb	34630730		ori	%GPR3,%GPR3,$( _activeswitches	%0x10000)
6855	15cc	00000000		nop	; Automatically Added by addNops.pl
6856	15cd	00000000		nop	; Automatically Added by addNops.pl
6857	15ce	00000000		nop	; Automatically Added by addNops.pl
6858	15cf	3c080000		lhi	%GPR8,$0	
6859	15d0	00000000		nop	; Automatically Added by addNops.pl
6860	15d1	00000000		nop	; Automatically Added by addNops.pl
6861	15d2	00000000		nop	; Automatically Added by addNops.pl
6862				; Automatically 16 NOPs removed by reduceNOPs.sh
6863	15d3	35080010		ori	%GPR8,%GPR8,$16	
6864	15d4	00000000		nop	; Automatically Added by addNops.pl
6865	15d5	00000000		nop	; Automatically Added by addNops.pl
6866	15d6	00000000		nop	; Automatically Added by addNops.pl
6867				; Automatically 8 NOPs removed by reduceNOPs.sh
6868	15d7	8c210000		lw	%GPR1,0(%GPR1)	
6869	15d8	00000000		nop	; Automatically Added by addNops.pl
6870	15d9	00000000		nop	; Automatically Added by addNops.pl
6871	15da	00000000		nop	; Automatically Added by addNops.pl
6872				; Automatically 8 NOPs removed by reduceNOPs.sh
6873	15db	00000000		nop	; Automatically added by fix-stall-insns.pl
6874	15dc	3c020000		lhi	%GPR2,$( _switches	/0x10000)
6875	15dd	00000000		nop
6876	15de	00000000		nop
6877	15df	00000000		nop
6878	15e0	344202ac		ori	%GPR2,%GPR2,$( _switches	%0x10000)
6879	15e1	00000000		nop	; Automatically Added by addNops.pl
6880	15e2	00000000		nop	; Automatically Added by addNops.pl
6881	15e3	00000000		nop	; Automatically Added by addNops.pl
6882				; Automatically 8 NOPs removed by reduceNOPs.sh
6883	15e4	00240818		mult	%GPR1,%GPR1,%GPR4	
6884	15e5	00000000		nop	; Automatically Added by addNops.pl
6885	15e6	00000000		nop	; Automatically Added by addNops.pl
6886	15e7	00000000		nop	; Automatically Added by addNops.pl
6887				; Automatically 8 NOPs removed by reduceNOPs.sh
6888	15e8	3c090000		lhi	%GPR9,$0	
6889	15e9	00000000		nop	; Automatically Added by addNops.pl
6890	15ea	00000000		nop	; Automatically Added by addNops.pl
6891	15eb	00000000		nop	; Automatically Added by addNops.pl
6892				; Automatically 16 NOPs removed by reduceNOPs.sh
6893	15ec	3529000c		ori	%GPR9,%GPR9,$12	
6894	15ed	00000000		nop	; Automatically Added by addNops.pl
6895	15ee	00000000		nop	; Automatically Added by addNops.pl
6896	15ef	00000000		nop	; Automatically Added by addNops.pl
6897				; Automatically 8 NOPs removed by reduceNOPs.sh
6898	15f0	00e10820		add	%GPR1,%GPR7,%GPR1	
6899	15f1	00000000		nop	; Automatically Added by addNops.pl
6900	15f2	00000000		nop	; Automatically Added by addNops.pl
6901	15f3	00000000		nop	; Automatically Added by addNops.pl
6902	15f4	3c040000		lhi	%GPR4,$0	
6903	15f5	00000000		nop	; Automatically Added by addNops.pl
6904	15f6	00000000		nop	; Automatically Added by addNops.pl
6905	15f7	00000000		nop	; Automatically Added by addNops.pl
6906				; Automatically 16 NOPs removed by reduceNOPs.sh
6907	15f8	34840000		ori	%GPR4,%GPR4,$0	
6908	15f9	00000000		nop	; Automatically Added by addNops.pl
6909	15fa	00000000		nop	; Automatically Added by addNops.pl
6910	15fb	00000000		nop	; Automatically Added by addNops.pl
6911	15fc	3c0a0000		lhi	%GPR10,$( _activeswitches	/0x10000)
6912	15fd	00000000		nop
6913	15fe	00000000		nop
6914	15ff	00000000		nop
6915	1600	354a0730		ori	%GPR10,%GPR10,$( _activeswitches	%0x10000)
6916	1601	00000000		nop	; Automatically Added by addNops.pl
6917	1602	00000000		nop	; Automatically Added by addNops.pl
6918	1603	00000000		nop	; Automatically Added by addNops.pl
6919				; Automatically 8 NOPs removed by reduceNOPs.sh
6920	1604	00250820		add	%GPR1,%GPR1,%GPR5	
6921	1605	00000000		nop	; Automatically Added by addNops.pl
6922	1606	00000000		nop	; Automatically Added by addNops.pl
6923	1607	00000000		nop	; Automatically Added by addNops.pl
6924	1608	3c070000		lhi	%GPR7,$( _activeswitches	/0x10000)
6925	1609	00000000		nop
6926	160a	00000000		nop
6927	160b	00000000		nop
6928	160c	34e70730		ori	%GPR7,%GPR7,$( _activeswitches	%0x10000)
6929	160d	00000000		nop	; Automatically Added by addNops.pl
6930	160e	00000000		nop	; Automatically Added by addNops.pl
6931	160f	00000000		nop	; Automatically Added by addNops.pl
6932				; Automatically 12 NOPs removed by reduceNOPs.sh
6933	1610	ac260000		sw	0(%GPR1),%GPR6	
6934	1611	00000000		nop	; Automatically Added by addNops.pl
6935	1612	00000000		nop	; Automatically Added by addNops.pl
6936	1613	00000000		nop	; Automatically Added by addNops.pl
6937	1614	00000000		nop	; Automatically added by fix-stall-insns.pl
6938	1615	3c050000		lhi	%GPR5,$( _activeswitches	/0x10000)
6939	1616	00000000		nop
6940	1617	00000000		nop
6941	1618	00000000		nop
6942	1619	34a50730		ori	%GPR5,%GPR5,$( _activeswitches	%0x10000)
6943	161a	00000000		nop	; Automatically Added by addNops.pl
6944	161b	00000000		nop	; Automatically Added by addNops.pl
6945	161c	00000000		nop	; Automatically Added by addNops.pl
6946				; Automatically 12 NOPs removed by reduceNOPs.sh
6947	161d	8c610000		lw	%GPR1,0(%GPR3)	
6948	161e	00000000		nop	; Automatically Added by addNops.pl
6949	161f	00000000		nop	; Automatically Added by addNops.pl
6950	1620	00000000		nop	; Automatically Added by addNops.pl
6951				; Automatically 16 NOPs removed by reduceNOPs.sh
6952	1621	00000000		nop	; Automatically added by fix-stall-insns.pl
6953	1622	00280818		mult	%GPR1,%GPR1,%GPR8	
6954	1623	00000000		nop	; Automatically Added by addNops.pl
6955	1624	00000000		nop	; Automatically Added by addNops.pl
6956	1625	00000000		nop	; Automatically Added by addNops.pl
6957				; Automatically 16 NOPs removed by reduceNOPs.sh
6958	1626	00410820		add	%GPR1,%GPR2,%GPR1	
6959	1627	00000000		nop	; Automatically Added by addNops.pl
6960	1628	00000000		nop	; Automatically Added by addNops.pl
6961	1629	00000000		nop	; Automatically Added by addNops.pl
6962				; Automatically 16 NOPs removed by reduceNOPs.sh
6963	162a	00290820		add	%GPR1,%GPR1,%GPR9	
6964	162b	00000000		nop	; Automatically Added by addNops.pl
6965	162c	00000000		nop	; Automatically Added by addNops.pl
6966	162d	00000000		nop	; Automatically Added by addNops.pl
6967				; Automatically 16 NOPs removed by reduceNOPs.sh
6968	162e	ac240000		sw	0(%GPR1),%GPR4	
6969	162f	00000000		nop	; Automatically Added by addNops.pl
6970	1630	00000000		nop	; Automatically Added by addNops.pl
6971	1631	00000000		nop	; Automatically Added by addNops.pl
6972				; Automatically 16 NOPs removed by reduceNOPs.sh
6973	1632	00000000		nop	; Automatically added by fix-stall-insns.pl
6974	1633	8d410000		lw	%GPR1,0(%GPR10)	
6975	1634	00000000		nop	; Automatically Added by addNops.pl
6976	1635	00000000		nop	; Automatically Added by addNops.pl
6977	1636	00000000		nop	; Automatically Added by addNops.pl
6978				; Automatically 16 NOPs removed by reduceNOPs.sh
6979	1637	20210001		addi	%GPR1,%GPR1,$1	
6980	1638	00000000		nop	; Automatically Added by addNops.pl
6981	1639	00000000		nop	; Automatically Added by addNops.pl
6982	163a	00000000		nop	; Automatically Added by addNops.pl
6983				; Automatically 16 NOPs removed by reduceNOPs.sh
6984	163b	ace10000		sw	0(%GPR7),%GPR1	
6985	163c	00000000		nop	; Automatically Added by addNops.pl
6986	163d	00000000		nop	; Automatically Added by addNops.pl
6987	163e	00000000		nop	; Automatically Added by addNops.pl
6988				; Automatically 16 NOPs removed by reduceNOPs.sh
6989	163f	00000000		nop	; Automatically added by fix-stall-insns.pl
6990	1640	8ca10000		lw	%GPR1,0(%GPR5)	
6991	1641	00000000		nop	; Automatically Added by addNops.pl
6992	1642	00000000		nop	; Automatically Added by addNops.pl
6993	1643	00000000		nop	; Automatically Added by addNops.pl
6994				; Automatically 16 NOPs removed by reduceNOPs.sh
6995	1644	283c0001		subi	%GPR28,%GPR1,$1	
6996	1645	00000000		nop	; Automatically Added by addNops.pl
6997	1646	00000000		nop	; Automatically Added by addNops.pl
6998	1647	00000000		nop	; Automatically Added by addNops.pl
6999				; Automatically 16 NOPs removed by reduceNOPs.sh
7000	1648	08000004		j	L_lib_lcd_larsix_9	
7001	1649	00000000		nop	; Automatically Added by addNops.pl
7002	164a	00000000		nop	; Automatically Added by addNops.pl
7003	164b	00000000		nop	; Automatically Added by addNops.pl
7004				; Automatically 16 NOPs removed by reduceNOPs.sh
7005			L_lib_lcd_larsix_9:
7006	164c	00000000		nop	; Automatically Added by addNops.pl
7007	164d	00000000		nop	; Automatically Added by addNops.pl
7008	164e	00000000		nop	; Automatically Added by addNops.pl
7009				; Automatically 16 NOPs removed by reduceNOPs.sh
7010	164f	8fdf0004		lw	%GPR31,4(%GPR30)	
7011	1650	00000000		nop	; Automatically Added by addNops.pl
7012	1651	00000000		nop	; Automatically Added by addNops.pl
7013	1652	00000000		nop	; Automatically Added by addNops.pl
7014	1653	27dd0004		addui	%GPR29,%GPR30,$4	
7015	1654	00000000		nop	; Automatically Added by addNops.pl
7016	1655	00000000		nop	; Automatically Added by addNops.pl
7017	1656	00000000		nop	; Automatically Added by addNops.pl
7018	1657	8fde0000		lw	%GPR30,0(%GPR30)	
7019	1658	00000000		nop	; Automatically Added by addNops.pl
7020	1659	00000000		nop	; Automatically Added by addNops.pl
7021	165a	00000000		nop	; Automatically Added by addNops.pl
7022				; Automatically 8 NOPs removed by reduceNOPs.sh
7023	165b	00000000		nop
7024	165c	00000000		nop
7025	165d	03e00008		jr	%GPR31	
7026	165e	00000000		nop	; Automatically Added by addNops.pl
7027	165f	00000000		nop	; Automatically Added by addNops.pl
7028	1660	00000000		nop	; Automatically Added by addNops.pl
7029				; Automatically 16 NOPs removed by reduceNOPs.sh
7030			create_menu_switch:
7031			L_lib_lcd_larsix_10:
7032	1661	00000000		nop	; Automatically Added by addNops.pl
7033	1662	00000000		nop	; Automatically Added by addNops.pl
7034	1663	00000000		nop	; Automatically Added by addNops.pl
7035				; Automatically 16 NOPs removed by reduceNOPs.sh
7036	1664	afbefffc		sw	-4(%GPR29),%GPR30	
7037	1665	00000000		nop	; Automatically Added by addNops.pl
7038	1666	00000000		nop	; Automatically Added by addNops.pl
7039	1667	00000000		nop	; Automatically Added by addNops.pl
7040	1668	00000000		nop	; Automatically added by fix-stall-insns.pl
7041	1669	afbf0000		sw	0(%GPR29),%GPR31	
7042	166a	00000000		nop	; Automatically Added by addNops.pl
7043	166b	00000000		nop	; Automatically Added by addNops.pl
7044	166c	00000000		nop	; Automatically Added by addNops.pl
7045	166d	2fbe0004		subui	%GPR30,%GPR29,$4	
7046	166e	00000000		nop	; Automatically Added by addNops.pl
7047	166f	00000000		nop	; Automatically Added by addNops.pl
7048	1670	00000000		nop	; Automatically Added by addNops.pl
7049				; Automatically 4 NOPs removed by reduceNOPs.sh
7050	1671	2bbd0014		subi	%GPR29,%GPR29,$20	
7051	1672	00000000		nop	; Automatically Added by addNops.pl
7052	1673	00000000		nop	; Automatically Added by addNops.pl
7053	1674	00000000		nop	; Automatically Added by addNops.pl
7054				; Automatically 16 NOPs removed by reduceNOPs.sh
7055	1675	afc1fffc		sw	-4(%GPR30),%GPR1	
7056	1676	00000000		nop	; Automatically Added by addNops.pl
7057	1677	00000000		nop	; Automatically Added by addNops.pl
7058	1678	00000000		nop	; Automatically Added by addNops.pl
7059				; Automatically 12 NOPs removed by reduceNOPs.sh
7060	1679	00000000		nop	; Automatically added by fix-stall-insns.pl
7061	167a	3c010000		lhi	%GPR1,$( _activeswitches	/0x10000)
7062	167b	00000000		nop
7063	167c	00000000		nop
7064	167d	00000000		nop
7065	167e	34210730		ori	%GPR1,%GPR1,$( _activeswitches	%0x10000)
7066	167f	00000000		nop	; Automatically Added by addNops.pl
7067	1680	00000000		nop	; Automatically Added by addNops.pl
7068	1681	00000000		nop	; Automatically Added by addNops.pl
7069				; Automatically 16 NOPs removed by reduceNOPs.sh
7070	1682	8c210000		lw	%GPR1,0(%GPR1)	
7071	1683	00000000		nop	; Automatically Added by addNops.pl
7072	1684	00000000		nop	; Automatically Added by addNops.pl
7073	1685	00000000		nop	; Automatically Added by addNops.pl
7074				; Automatically 12 NOPs removed by reduceNOPs.sh
7075	1686	3c090000		lhi	%GPR9,$0	
7076	1687	00000000		nop	; Automatically Added by addNops.pl
7077	1688	00000000		nop	; Automatically Added by addNops.pl
7078	1689	00000000		nop	; Automatically Added by addNops.pl
7079				; Automatically 16 NOPs removed by reduceNOPs.sh
7080	168a	3529000a		ori	%GPR9,%GPR9,$10	
7081	168b	00000000		nop	; Automatically Added by addNops.pl
7082	168c	00000000		nop	; Automatically Added by addNops.pl
7083	168d	00000000		nop	; Automatically Added by addNops.pl
7084	168e	20280001		addi	%GPR8,%GPR1,$1	
7085	168f	00000000		nop	; Automatically Added by addNops.pl
7086	1690	00000000		nop	; Automatically Added by addNops.pl
7087	1691	00000000		nop	; Automatically Added by addNops.pl
7088	1692	3c010000		lhi	%GPR1,$0	
7089	1693	00000000		nop	; Automatically Added by addNops.pl
7090	1694	00000000		nop	; Automatically Added by addNops.pl
7091	1695	00000000		nop	; Automatically Added by addNops.pl
7092				; Automatically 16 NOPs removed by reduceNOPs.sh
7093	1696	34210000		ori	%GPR1,%GPR1,$0	
7094	1697	00000000		nop	; Automatically Added by addNops.pl
7095	1698	00000000		nop	; Automatically Added by addNops.pl
7096	1699	00000000		nop	; Automatically Added by addNops.pl
7097	169a	3c070000		lhi	%GPR7,$0	
7098	169b	00000000		nop	; Automatically Added by addNops.pl
7099	169c	00000000		nop	; Automatically Added by addNops.pl
7100	169d	00000000		nop	; Automatically Added by addNops.pl
7101				; Automatically 16 NOPs removed by reduceNOPs.sh
7102	169e	34e70000		ori	%GPR7,%GPR7,$0	
7103	169f	00000000		nop	; Automatically Added by addNops.pl
7104	16a0	00000000		nop	; Automatically Added by addNops.pl
7105	16a1	00000000		nop	; Automatically Added by addNops.pl
7106	16a2	3c060000		lhi	%GPR6,$0	
7107	16a3	00000000		nop	; Automatically Added by addNops.pl
7108	16a4	00000000		nop	; Automatically Added by addNops.pl
7109	16a5	00000000		nop	; Automatically Added by addNops.pl
7110				; Automatically 16 NOPs removed by reduceNOPs.sh
7111	16a6	34c60000		ori	%GPR6,%GPR6,$0	
7112	16a7	00000000		nop	; Automatically Added by addNops.pl
7113	16a8	00000000		nop	; Automatically Added by addNops.pl
7114	16a9	00000000		nop	; Automatically Added by addNops.pl
7115				; Automatically 8 NOPs removed by reduceNOPs.sh
7116	16aa	afc1fff8		sw	-8(%GPR30),%GPR1	
7117	16ab	00000000		nop	; Automatically Added by addNops.pl
7118	16ac	00000000		nop	; Automatically Added by addNops.pl
7119	16ad	00000000		nop	; Automatically Added by addNops.pl
7120	16ae	3c010000		lhi	%GPR1,$0	
7121	16af	00000000		nop	; Automatically Added by addNops.pl
7122	16b0	00000000		nop	; Automatically Added by addNops.pl
7123	16b1	00000000		nop	; Automatically Added by addNops.pl
7124				; Automatically 16 NOPs removed by reduceNOPs.sh
7125	16b2	34210000		ori	%GPR1,%GPR1,$0	
7126	16b3	00000000		nop	; Automatically Added by addNops.pl
7127	16b4	00000000		nop	; Automatically Added by addNops.pl
7128	16b5	00000000		nop	; Automatically Added by addNops.pl
7129				; Automatically 16 NOPs removed by reduceNOPs.sh
7130	16b6	afc1fff4		sw	-12(%GPR30),%GPR1	
7131	16b7	00000000		nop	; Automatically Added by addNops.pl
7132	16b8	00000000		nop	; Automatically Added by addNops.pl
7133	16b9	00000000		nop	; Automatically Added by addNops.pl
7134	16ba	00000000		nop	; Automatically added by fix-stall-insns.pl
7135	16bb	8fc1fffc		lw	%GPR1,-4(%GPR30)	
7136	16bc	00000000		nop	; Automatically Added by addNops.pl
7137	16bd	00000000		nop	; Automatically Added by addNops.pl
7138	16be	00000000		nop	; Automatically Added by addNops.pl
7139				; Automatically 16 NOPs removed by reduceNOPs.sh
7140	16bf	2bbd0008		subi	%GPR29,%GPR29,$8	
7141	16c0	00000000		nop	; Automatically Added by addNops.pl
7142	16c1	00000000		nop	; Automatically Added by addNops.pl
7143	16c2	00000000		nop	; Automatically Added by addNops.pl
7144				; Automatically 16 NOPs removed by reduceNOPs.sh
7145	16c3	0c00104f		jal	g_makemenubutton	
7146	16c4	00000000		nop	; Automatically Added by addNops.pl
7147	16c5	00000000		nop	; Automatically Added by addNops.pl
7148	16c6	00000000		nop	; Automatically Added by addNops.pl
7149				; Automatically 16 NOPs removed by reduceNOPs.sh
7150	16c7	23bd0008		addi	%GPR29,%GPR29,$8	
7151	16c8	00000000		nop	; Automatically Added by addNops.pl
7152	16c9	00000000		nop	; Automatically Added by addNops.pl
7153	16ca	00000000		nop	; Automatically Added by addNops.pl
7154				; Automatically 28 NOPs removed by reduceNOPs.sh
7155			L_lib_lcd_larsix_11:
7156	16cb	00000000		nop	; Automatically Added by addNops.pl
7157	16cc	00000000		nop	; Automatically Added by addNops.pl
7158	16cd	00000000		nop	; Automatically Added by addNops.pl
7159	16ce	8fc1fff4		lw	%GPR1,-12(%GPR30)	
7160	16cf	00000000		nop	; Automatically Added by addNops.pl
7161	16d0	00000000		nop	; Automatically Added by addNops.pl
7162	16d1	00000000		nop	; Automatically Added by addNops.pl
7163	16d2	00000000		nop	; Automatically added by fix-stall-insns.pl
7164	16d3	8fc2fffc		lw	%GPR2,-4(%GPR30)	
7165	16d4	00000000		nop	; Automatically Added by addNops.pl
7166	16d5	00000000		nop	; Automatically Added by addNops.pl
7167	16d6	00000000		nop	; Automatically Added by addNops.pl
7168				; Automatically 16 NOPs removed by reduceNOPs.sh
7169	16d7	00410820		add	%GPR1,%GPR2,%GPR1	
7170	16d8	00000000		nop	; Automatically Added by addNops.pl
7171	16d9	00000000		nop	; Automatically Added by addNops.pl
7172	16da	00000000		nop	; Automatically Added by addNops.pl
7173	16db	8fc2fff4		lw	%GPR2,-12(%GPR30)	
7174	16dc	00000000		nop	; Automatically Added by addNops.pl
7175	16dd	00000000		nop	; Automatically Added by addNops.pl
7176	16de	00000000		nop	; Automatically Added by addNops.pl
7177				; Automatically 16 NOPs removed by reduceNOPs.sh
7178	16df	20420001		addi	%GPR2,%GPR2,$1	
7179	16e0	00000000		nop	; Automatically Added by addNops.pl
7180	16e1	00000000		nop	; Automatically Added by addNops.pl
7181	16e2	00000000		nop	; Automatically Added by addNops.pl
7182				; Automatically 16 NOPs removed by reduceNOPs.sh
7183	16e3	afc2fff4		sw	-12(%GPR30),%GPR2	
7184	16e4	00000000		nop	; Automatically Added by addNops.pl
7185	16e5	00000000		nop	; Automatically Added by addNops.pl
7186	16e6	00000000		nop	; Automatically Added by addNops.pl
7187				; Automatically 16 NOPs removed by reduceNOPs.sh
7188	16e7	2bbd0008		subi	%GPR29,%GPR29,$8	
7189	16e8	00000000		nop	; Automatically Added by addNops.pl
7190	16e9	00000000		nop	; Automatically Added by addNops.pl
7191	16ea	00000000		nop	; Automatically Added by addNops.pl
7192				; Automatically 16 NOPs removed by reduceNOPs.sh
7193	16eb	0c001206		jal	loadByteUnsigned	
7194	16ec	00000000		nop	; Automatically Added by addNops.pl
7195	16ed	00000000		nop	; Automatically Added by addNops.pl
7196	16ee	00000000		nop	; Automatically Added by addNops.pl
7197				; Automatically 16 NOPs removed by reduceNOPs.sh
7198	16ef	23bd0008		addi	%GPR29,%GPR29,$8	
7199	16f0	00000000		nop	; Automatically Added by addNops.pl
7200	16f1	00000000		nop	; Automatically Added by addNops.pl
7201	16f2	00000000		nop	; Automatically Added by addNops.pl
7202				; Automatically 36 NOPs removed by reduceNOPs.sh
7203	16f3	3c010000		lhi	%GPR1,$0	
7204	16f4	00000000		nop	; Automatically Added by addNops.pl
7205	16f5	00000000		nop	; Automatically Added by addNops.pl
7206	16f6	00000000		nop	; Automatically Added by addNops.pl
7207				; Automatically 16 NOPs removed by reduceNOPs.sh
7208	16f7	3421007c		ori	%GPR1,%GPR1,$124	
7209	16f8	00000000		nop	; Automatically Added by addNops.pl
7210	16f9	00000000		nop	; Automatically Added by addNops.pl
7211	16fa	00000000		nop	; Automatically Added by addNops.pl
7212				; Automatically 16 NOPs removed by reduceNOPs.sh
7213	16fb	0381d82e		seq	%GPR27,%GPR28,%GPR1	
7214	16fc	00000000		nop	; Automatically Added by addNops.pl
7215	16fd	00000000		nop	; Automatically Added by addNops.pl
7216	16fe	00000000		nop	; Automatically Added by addNops.pl
7217	16ff	17600008		bnez	%GPR27,L_lib_lcd_larsix_12	
7218	1700	00000000		nop	; Automatically Added by addNops.pl
7219	1701	00000000		nop	; Automatically Added by addNops.pl
7220	1702	00000000		nop	; Automatically Added by addNops.pl
7221				; Automatically 16 NOPs removed by reduceNOPs.sh
7222	1703	08000013		j	L_lib_lcd_larsix_13	
7223	1704	00000000		nop	; Automatically Added by addNops.pl
7224	1705	00000000		nop	; Automatically Added by addNops.pl
7225	1706	00000000		nop	; Automatically Added by addNops.pl
7226				; Automatically 16 NOPs removed by reduceNOPs.sh
7227			L_lib_lcd_larsix_12:
7228	1707	00000000		nop	; Automatically Added by addNops.pl
7229	1708	00000000		nop	; Automatically Added by addNops.pl
7230	1709	00000000		nop	; Automatically Added by addNops.pl
7231	170a	8fc1fff8		lw	%GPR1,-8(%GPR30)	
7232	170b	00000000		nop	; Automatically Added by addNops.pl
7233	170c	00000000		nop	; Automatically Added by addNops.pl
7234	170d	00000000		nop	; Automatically Added by addNops.pl
7235				; Automatically 16 NOPs removed by reduceNOPs.sh
7236	170e	20210001		addi	%GPR1,%GPR1,$1	
7237	170f	00000000		nop	; Automatically Added by addNops.pl
7238	1710	00000000		nop	; Automatically Added by addNops.pl
7239	1711	00000000		nop	; Automatically Added by addNops.pl
7240				; Automatically 16 NOPs removed by reduceNOPs.sh
7241	1712	afc1fff8		sw	-8(%GPR30),%GPR1	
7242	1713	00000000		nop	; Automatically Added by addNops.pl
7243	1714	00000000		nop	; Automatically Added by addNops.pl
7244	1715	00000000		nop	; Automatically Added by addNops.pl
7245				; Automatically 12 NOPs removed by reduceNOPs.sh
7246			L_lib_lcd_larsix_13:
7247	1716	00000000		nop	; Automatically Added by addNops.pl
7248	1717	00000000		nop	; Automatically Added by addNops.pl
7249	1718	00000000		nop	; Automatically Added by addNops.pl
7250				; Automatically 16 NOPs removed by reduceNOPs.sh
7251	1719	3c010000		lhi	%GPR1,$0	
7252	171a	00000000		nop	; Automatically Added by addNops.pl
7253	171b	00000000		nop	; Automatically Added by addNops.pl
7254	171c	00000000		nop	; Automatically Added by addNops.pl
7255				; Automatically 16 NOPs removed by reduceNOPs.sh
7256	171d	34210000		ori	%GPR1,%GPR1,$0	
7257	171e	00000000		nop	; Automatically Added by addNops.pl
7258	171f	00000000		nop	; Automatically Added by addNops.pl
7259	1720	00000000		nop	; Automatically Added by addNops.pl
7260				; Automatically 16 NOPs removed by reduceNOPs.sh
7261	1721	0381d82f		sne	%GPR27,%GPR28,%GPR1	
7262	1722	00000000		nop	; Automatically Added by addNops.pl
7263	1723	00000000		nop	; Automatically Added by addNops.pl
7264	1724	00000000		nop	; Automatically Added by addNops.pl
7265	1725	1760ffa6		bnez	%GPR27,L_lib_lcd_larsix_11	
7266	1726	00000000		nop	; Automatically Added by addNops.pl
7267	1727	00000000		nop	; Automatically Added by addNops.pl
7268	1728	00000000		nop	; Automatically Added by addNops.pl
7269				; Automatically 16 NOPs removed by reduceNOPs.sh
7270	1729	08000004		j	L_lib_lcd_larsix_14	
7271	172a	00000000		nop	; Automatically Added by addNops.pl
7272	172b	00000000		nop	; Automatically Added by addNops.pl
7273	172c	00000000		nop	; Automatically Added by addNops.pl
7274				; Automatically 16 NOPs removed by reduceNOPs.sh
7275			L_lib_lcd_larsix_14:
7276	172d	00000000		nop	; Automatically Added by addNops.pl
7277	172e	00000000		nop	; Automatically Added by addNops.pl
7278	172f	00000000		nop	; Automatically Added by addNops.pl
7279				; Automatically 16 NOPs removed by reduceNOPs.sh
7280	1730	3c010000		lhi	%GPR1,$0	
7281	1731	00000000		nop	; Automatically Added by addNops.pl
7282	1732	00000000		nop	; Automatically Added by addNops.pl
7283	1733	00000000		nop	; Automatically Added by addNops.pl
7284				; Automatically 16 NOPs removed by reduceNOPs.sh
7285	1734	34210000		ori	%GPR1,%GPR1,$0	
7286	1735	00000000		nop	; Automatically Added by addNops.pl
7287	1736	00000000		nop	; Automatically Added by addNops.pl
7288	1737	00000000		nop	; Automatically Added by addNops.pl
7289				; Automatically 16 NOPs removed by reduceNOPs.sh
7290	1738	afc1fff4		sw	-12(%GPR30),%GPR1	
7291	1739	00000000		nop	; Automatically Added by addNops.pl
7292	173a	00000000		nop	; Automatically Added by addNops.pl
7293	173b	00000000		nop	; Automatically Added by addNops.pl
7294				; Automatically 12 NOPs removed by reduceNOPs.sh
7295			L_lib_lcd_larsix_15:
7296	173c	00000000		nop	; Automatically Added by addNops.pl
7297	173d	00000000		nop	; Automatically Added by addNops.pl
7298	173e	00000000		nop	; Automatically Added by addNops.pl
7299	173f	8fc1fff4		lw	%GPR1,-12(%GPR30)	
7300	1740	00000000		nop	; Automatically Added by addNops.pl
7301	1741	00000000		nop	; Automatically Added by addNops.pl
7302	1742	00000000		nop	; Automatically Added by addNops.pl
7303	1743	00000000		nop	; Automatically added by fix-stall-insns.pl
7304	1744	8fc2fff8		lw	%GPR2,-8(%GPR30)	
7305	1745	00000000		nop	; Automatically Added by addNops.pl
7306	1746	00000000		nop	; Automatically Added by addNops.pl
7307	1747	00000000		nop	; Automatically Added by addNops.pl
7308				; Automatically 16 NOPs removed by reduceNOPs.sh
7309	1748	0022d82a		slt	%GPR27,%GPR1,%GPR2	
7310	1749	00000000		nop	; Automatically Added by addNops.pl
7311	174a	00000000		nop	; Automatically Added by addNops.pl
7312	174b	00000000		nop	; Automatically Added by addNops.pl
7313	174c	17600008		bnez	%GPR27,L_lib_lcd_larsix_16	
7314	174d	00000000		nop	; Automatically Added by addNops.pl
7315	174e	00000000		nop	; Automatically Added by addNops.pl
7316	174f	00000000		nop	; Automatically Added by addNops.pl
7317				; Automatically 16 NOPs removed by reduceNOPs.sh
7318	1750	08000122		j	L_lib_lcd_larsix_17	
7319	1751	00000000		nop	; Automatically Added by addNops.pl
7320	1752	00000000		nop	; Automatically Added by addNops.pl
7321	1753	00000000		nop	; Automatically Added by addNops.pl
7322				; Automatically 16 NOPs removed by reduceNOPs.sh
7323			L_lib_lcd_larsix_16:
7324	1754	00000000		nop	; Automatically Added by addNops.pl
7325	1755	00000000		nop	; Automatically Added by addNops.pl
7326	1756	00000000		nop	; Automatically Added by addNops.pl
7327	1757	3c010000		lhi	%GPR1,$( _activeswitches	/0x10000)
7328	1758	00000000		nop
7329	1759	00000000		nop
7330	175a	00000000		nop
7331	175b	34210730		ori	%GPR1,%GPR1,$( _activeswitches	%0x10000)
7332	175c	00000000		nop	; Automatically Added by addNops.pl
7333	175d	00000000		nop	; Automatically Added by addNops.pl
7334	175e	00000000		nop	; Automatically Added by addNops.pl
7335				; Automatically 8 NOPs removed by reduceNOPs.sh
7336	175f	3c020000		lhi	%GPR2,$( _switches	/0x10000)
7337	1760	00000000		nop
7338	1761	00000000		nop
7339	1762	00000000		nop
7340	1763	344202ac		ori	%GPR2,%GPR2,$( _switches	%0x10000)
7341	1764	00000000		nop	; Automatically Added by addNops.pl
7342	1765	00000000		nop	; Automatically Added by addNops.pl
7343	1766	00000000		nop	; Automatically Added by addNops.pl
7344				; Automatically 8 NOPs removed by reduceNOPs.sh
7345	1767	8c210000		lw	%GPR1,0(%GPR1)	
7346	1768	00000000		nop	; Automatically Added by addNops.pl
7347	1769	00000000		nop	; Automatically Added by addNops.pl
7348	176a	00000000		nop	; Automatically Added by addNops.pl
7349	176b	3c030000		lhi	%GPR3,$0	
7350	176c	00000000		nop	; Automatically Added by addNops.pl
7351	176d	00000000		nop	; Automatically Added by addNops.pl
7352	176e	00000000		nop	; Automatically Added by addNops.pl
7353				; Automatically 16 NOPs removed by reduceNOPs.sh
7354	176f	34630010		ori	%GPR3,%GPR3,$16	
7355	1770	00000000		nop	; Automatically Added by addNops.pl
7356	1771	00000000		nop	; Automatically Added by addNops.pl
7357	1772	00000000		nop	; Automatically Added by addNops.pl
7358	1773	3c040000		lhi	%GPR4,$( _activeswitches	/0x10000)
7359	1774	00000000		nop
7360	1775	00000000		nop
7361	1776	00000000		nop
7362	1777	34840730		ori	%GPR4,%GPR4,$( _activeswitches	%0x10000)
7363	1778	00000000		nop	; Automatically Added by addNops.pl
7364	1779	00000000		nop	; Automatically Added by addNops.pl
7365	177a	00000000		nop	; Automatically Added by addNops.pl
7366	177b	3c050000		lhi	%GPR5,$0	
7367	177c	00000000		nop	; Automatically Added by addNops.pl
7368	177d	00000000		nop	; Automatically Added by addNops.pl
7369	177e	00000000		nop	; Automatically Added by addNops.pl
7370				; Automatically 16 NOPs removed by reduceNOPs.sh
7371	177f	34a50000		ori	%GPR5,%GPR5,$0	
7372	1780	00000000		nop	; Automatically Added by addNops.pl
7373	1781	00000000		nop	; Automatically Added by addNops.pl
7374	1782	00000000		nop	; Automatically Added by addNops.pl
7375				; Automatically 8 NOPs removed by reduceNOPs.sh
7376	1783	00230818		mult	%GPR1,%GPR1,%GPR3	
7377	1784	00000000		nop	; Automatically Added by addNops.pl
7378	1785	00000000		nop	; Automatically Added by addNops.pl
7379	1786	00000000		nop	; Automatically Added by addNops.pl
7380				; Automatically 12 NOPs removed by reduceNOPs.sh
7381	1787	3c060000		lhi	%GPR6,$0	
7382	1788	00000000		nop	; Automatically Added by addNops.pl
7383	1789	00000000		nop	; Automatically Added by addNops.pl
7384	178a	00000000		nop	; Automatically Added by addNops.pl
7385				; Automatically 16 NOPs removed by reduceNOPs.sh
7386	178b	34c60010		ori	%GPR6,%GPR6,$16	
7387	178c	00000000		nop	; Automatically Added by addNops.pl
7388	178d	00000000		nop	; Automatically Added by addNops.pl
7389	178e	00000000		nop	; Automatically Added by addNops.pl
7390	178f	00410820		add	%GPR1,%GPR2,%GPR1	
7391	1790	00000000		nop	; Automatically Added by addNops.pl
7392	1791	00000000		nop	; Automatically Added by addNops.pl
7393	1792	00000000		nop	; Automatically Added by addNops.pl
7394	1793	3c030000		lhi	%GPR3,$( _switches	/0x10000)
7395	1794	00000000		nop
7396	1795	00000000		nop
7397	1796	00000000		nop
7398	1797	346302ac		ori	%GPR3,%GPR3,$( _switches	%0x10000)
7399	1798	00000000		nop	; Automatically Added by addNops.pl
7400	1799	00000000		nop	; Automatically Added by addNops.pl
7401	179a	00000000		nop	; Automatically Added by addNops.pl
7402	179b	3c020000		lhi	%GPR2,$0	
7403	179c	00000000		nop	; Automatically Added by addNops.pl
7404	179d	00000000		nop	; Automatically Added by addNops.pl
7405	179e	00000000		nop	; Automatically Added by addNops.pl
7406				; Automatically 16 NOPs removed by reduceNOPs.sh
7407	179f	34420004		ori	%GPR2,%GPR2,$4	
7408	17a0	00000000		nop	; Automatically Added by addNops.pl
7409	17a1	00000000		nop	; Automatically Added by addNops.pl
7410	17a2	00000000		nop	; Automatically Added by addNops.pl
7411				; Automatically 8 NOPs removed by reduceNOPs.sh
7412	17a3	ac250000		sw	0(%GPR1),%GPR5	
7413	17a4	00000000		nop	; Automatically Added by addNops.pl
7414	17a5	00000000		nop	; Automatically Added by addNops.pl
7415	17a6	00000000		nop	; Automatically Added by addNops.pl
7416	17a7	3c010000		lhi	%GPR1,$0	
7417	17a8	00000000		nop	; Automatically Added by addNops.pl
7418	17a9	00000000		nop	; Automatically Added by addNops.pl
7419	17aa	00000000		nop	; Automatically Added by addNops.pl
7420				; Automatically 16 NOPs removed by reduceNOPs.sh
7421	17ab	34210000		ori	%GPR1,%GPR1,$0	
7422	17ac	00000000		nop	; Automatically Added by addNops.pl
7423	17ad	00000000		nop	; Automatically Added by addNops.pl
7424	17ae	00000000		nop	; Automatically Added by addNops.pl
7425	17af	3c050000		lhi	%GPR5,$( _activeswitches	/0x10000)
7426	17b0	00000000		nop
7427	17b1	00000000		nop
7428	17b2	00000000		nop
7429	17b3	34a50730		ori	%GPR5,%GPR5,$( _activeswitches	%0x10000)
7430	17b4	00000000		nop	; Automatically Added by addNops.pl
7431	17b5	00000000		nop	; Automatically Added by addNops.pl
7432	17b6	00000000		nop	; Automatically Added by addNops.pl
7433				; Automatically 8 NOPs removed by reduceNOPs.sh
7434	17b7	8c840000		lw	%GPR4,0(%GPR4)	
7435	17b8	00000000		nop	; Automatically Added by addNops.pl
7436	17b9	00000000		nop	; Automatically Added by addNops.pl
7437	17ba	00000000		nop	; Automatically Added by addNops.pl
7438				; Automatically 8 NOPs removed by reduceNOPs.sh
7439	17bb	00000000		nop	; Automatically added by fix-stall-insns.pl
7440	17bc	3c070000		lhi	%GPR7,$( _switches	/0x10000)
7441	17bd	00000000		nop
7442	17be	00000000		nop
7443	17bf	00000000		nop
7444	17c0	34e702ac		ori	%GPR7,%GPR7,$( _switches	%0x10000)
7445	17c1	00000000		nop	; Automatically Added by addNops.pl
7446	17c2	00000000		nop	; Automatically Added by addNops.pl
7447	17c3	00000000		nop	; Automatically Added by addNops.pl
7448				; Automatically 8 NOPs removed by reduceNOPs.sh
7449	17c4	00862018		mult	%GPR4,%GPR4,%GPR6	
7450	17c5	00000000		nop	; Automatically Added by addNops.pl
7451	17c6	00000000		nop	; Automatically Added by addNops.pl
7452	17c7	00000000		nop	; Automatically Added by addNops.pl
7453				; Automatically 16 NOPs removed by reduceNOPs.sh
7454	17c8	00641820		add	%GPR3,%GPR3,%GPR4	
7455	17c9	00000000		nop	; Automatically Added by addNops.pl
7456	17ca	00000000		nop	; Automatically Added by addNops.pl
7457	17cb	00000000		nop	; Automatically Added by addNops.pl
7458	17cc	3c060000		lhi	%GPR6,$0	
7459	17cd	00000000		nop	; Automatically Added by addNops.pl
7460	17ce	00000000		nop	; Automatically Added by addNops.pl
7461	17cf	00000000		nop	; Automatically Added by addNops.pl
7462				; Automatically 16 NOPs removed by reduceNOPs.sh
7463	17d0	34c60010		ori	%GPR6,%GPR6,$16	
7464	17d1	00000000		nop	; Automatically Added by addNops.pl
7465	17d2	00000000		nop	; Automatically Added by addNops.pl
7466	17d3	00000000		nop	; Automatically Added by addNops.pl
7467	17d4	3c040000		lhi	%GPR4,$0	
7468	17d5	00000000		nop	; Automatically Added by addNops.pl
7469	17d6	00000000		nop	; Automatically Added by addNops.pl
7470	17d7	00000000		nop	; Automatically Added by addNops.pl
7471				; Automatically 16 NOPs removed by reduceNOPs.sh
7472	17d8	34840008		ori	%GPR4,%GPR4,$8	
7473	17d9	00000000		nop	; Automatically Added by addNops.pl
7474	17da	00000000		nop	; Automatically Added by addNops.pl
7475	17db	00000000		nop	; Automatically Added by addNops.pl
7476				; Automatically 8 NOPs removed by reduceNOPs.sh
7477	17dc	00621020		add	%GPR2,%GPR3,%GPR2	
7478	17dd	00000000		nop	; Automatically Added by addNops.pl
7479	17de	00000000		nop	; Automatically Added by addNops.pl
7480	17df	00000000		nop	; Automatically Added by addNops.pl
7481	17e0	3c030000		lhi	%GPR3,$0	
7482	17e1	00000000		nop	; Automatically Added by addNops.pl
7483	17e2	00000000		nop	; Automatically Added by addNops.pl
7484	17e3	00000000		nop	; Automatically Added by addNops.pl
7485				; Automatically 16 NOPs removed by reduceNOPs.sh
7486	17e4	34630000		ori	%GPR3,%GPR3,$0	
7487	17e5	00000000		nop	; Automatically Added by addNops.pl
7488	17e6	00000000		nop	; Automatically Added by addNops.pl
7489	17e7	00000000		nop	; Automatically Added by addNops.pl
7490	17e8	3c080000		lhi	%GPR8,$( _activeswitches	/0x10000)
7491	17e9	00000000		nop
7492	17ea	00000000		nop
7493	17eb	00000000		nop
7494	17ec	35080730		ori	%GPR8,%GPR8,$( _activeswitches	%0x10000)
7495	17ed	00000000		nop	; Automatically Added by addNops.pl
7496	17ee	00000000		nop	; Automatically Added by addNops.pl
7497	17ef	00000000		nop	; Automatically Added by addNops.pl
7498				; Automatically 8 NOPs removed by reduceNOPs.sh
7499	17f0	ac410000		sw	0(%GPR2),%GPR1	
7500	17f1	00000000		nop	; Automatically Added by addNops.pl
7501	17f2	00000000		nop	; Automatically Added by addNops.pl
7502	17f3	00000000		nop	; Automatically Added by addNops.pl
7503				; Automatically 8 NOPs removed by reduceNOPs.sh
7504	17f4	00000000		nop	; Automatically added by fix-stall-insns.pl
7505	17f5	3c010000		lhi	%GPR1,$( _switches	/0x10000)
7506	17f6	00000000		nop
7507	17f7	00000000		nop
7508	17f8	00000000		nop
7509	17f9	342102ac		ori	%GPR1,%GPR1,$( _switches	%0x10000)
7510	17fa	00000000		nop	; Automatically Added by addNops.pl
7511	17fb	00000000		nop	; Automatically Added by addNops.pl
7512	17fc	00000000		nop	; Automatically Added by addNops.pl
7513				; Automatically 8 NOPs removed by reduceNOPs.sh
7514	17fd	8ca20000		lw	%GPR2,0(%GPR5)	
7515	17fe	00000000		nop	; Automatically Added by addNops.pl
7516	17ff	00000000		nop	; Automatically Added by addNops.pl
7517	1800	00000000		nop	; Automatically Added by addNops.pl
7518	1801	3c050000		lhi	%GPR5,$0	
7519	1802	00000000		nop	; Automatically Added by addNops.pl
7520	1803	00000000		nop	; Automatically Added by addNops.pl
7521	1804	00000000		nop	; Automatically Added by addNops.pl
7522				; Automatically 16 NOPs removed by reduceNOPs.sh
7523	1805	34a50010		ori	%GPR5,%GPR5,$16	
7524	1806	00000000		nop	; Automatically Added by addNops.pl
7525	1807	00000000		nop	; Automatically Added by addNops.pl
7526	1808	00000000		nop	; Automatically Added by addNops.pl
7527				; Automatically 12 NOPs removed by reduceNOPs.sh
7528	1809	00461018		mult	%GPR2,%GPR2,%GPR6	
7529	180a	00000000		nop	; Automatically Added by addNops.pl
7530	180b	00000000		nop	; Automatically Added by addNops.pl
7531	180c	00000000		nop	; Automatically Added by addNops.pl
7532	180d	3c0a0000		lhi	%GPR10,$( _activeswitches	/0x10000)
7533	180e	00000000		nop
7534	180f	00000000		nop
7535	1810	00000000		nop
7536	1811	354a0730		ori	%GPR10,%GPR10,$( _activeswitches	%0x10000)
7537	1812	00000000		nop	; Automatically Added by addNops.pl
7538	1813	00000000		nop	; Automatically Added by addNops.pl
7539	1814	00000000		nop	; Automatically Added by addNops.pl
7540	1815	3c090000		lhi	%GPR9,$0	
7541	1816	00000000		nop	; Automatically Added by addNops.pl
7542	1817	00000000		nop	; Automatically Added by addNops.pl
7543	1818	00000000		nop	; Automatically Added by addNops.pl
7544				; Automatically 16 NOPs removed by reduceNOPs.sh
7545	1819	3529000c		ori	%GPR9,%GPR9,$12	
7546	181a	00000000		nop	; Automatically Added by addNops.pl
7547	181b	00000000		nop	; Automatically Added by addNops.pl
7548	181c	00000000		nop	; Automatically Added by addNops.pl
7549				; Automatically 8 NOPs removed by reduceNOPs.sh
7550	181d	00e21020		add	%GPR2,%GPR7,%GPR2	
7551	181e	00000000		nop	; Automatically Added by addNops.pl
7552	181f	00000000		nop	; Automatically Added by addNops.pl
7553	1820	00000000		nop	; Automatically Added by addNops.pl
7554	1821	3c060000		lhi	%GPR6,$( L_lib_lcd_larsix_2	/0x10000)
7555	1822	00000000		nop
7556	1823	00000000		nop
7557	1824	00000000		nop
7558	1825	34c6079c		ori	%GPR6,%GPR6,$( L_lib_lcd_larsix_2	%0x10000)
7559	1826	00000000		nop	; Automatically Added by addNops.pl
7560	1827	00000000		nop	; Automatically Added by addNops.pl
7561	1828	00000000		nop	; Automatically Added by addNops.pl
7562	1829	3c070000		lhi	%GPR7,$( _activeswitches	/0x10000)
7563	182a	00000000		nop
7564	182b	00000000		nop
7565	182c	00000000		nop
7566	182d	34e70730		ori	%GPR7,%GPR7,$( _activeswitches	%0x10000)
7567	182e	00000000		nop	; Automatically Added by addNops.pl
7568	182f	00000000		nop	; Automatically Added by addNops.pl
7569	1830	00000000		nop	; Automatically Added by addNops.pl
7570				; Automatically 8 NOPs removed by reduceNOPs.sh
7571	1831	00441020		add	%GPR2,%GPR2,%GPR4	
7572	1832	00000000		nop	; Automatically Added by addNops.pl
7573	1833	00000000		nop	; Automatically Added by addNops.pl
7574	1834	00000000		nop	; Automatically Added by addNops.pl
7575	1835	8fc4fff4		lw	%GPR4,-12(%GPR30)	
7576	1836	00000000		nop	; Automatically Added by addNops.pl
7577	1837	00000000		nop	; Automatically Added by addNops.pl
7578	1838	00000000		nop	; Automatically Added by addNops.pl
7579				; Automatically 12 NOPs removed by reduceNOPs.sh
7580	1839	00000000		nop	; Automatically added by fix-stall-insns.pl
7581	183a	ac430000		sw	0(%GPR2),%GPR3	
7582	183b	00000000		nop	; Automatically Added by addNops.pl
7583	183c	00000000		nop	; Automatically Added by addNops.pl
7584	183d	00000000		nop	; Automatically Added by addNops.pl
7585	183e	20840001		addi	%GPR4,%GPR4,$1	
7586	183f	00000000		nop	; Automatically Added by addNops.pl
7587	1840	00000000		nop	; Automatically Added by addNops.pl
7588	1841	00000000		nop	; Automatically Added by addNops.pl
7589				; Automatically 12 NOPs removed by reduceNOPs.sh
7590	1842	8d020000		lw	%GPR2,0(%GPR8)	
7591	1843	00000000		nop	; Automatically Added by addNops.pl
7592	1844	00000000		nop	; Automatically Added by addNops.pl
7593	1845	00000000		nop	; Automatically Added by addNops.pl
7594	1846	00000000		nop	; Automatically added by fix-stall-insns.pl
7595	1847	8cc30000		lw	%GPR3,0(%GPR6)	
7596	1848	00000000		nop	; Automatically Added by addNops.pl
7597	1849	00000000		nop	; Automatically Added by addNops.pl
7598	184a	00000000		nop	; Automatically Added by addNops.pl
7599	184b	00000000		nop	; Automatically added by fix-stall-insns.pl
7600	184c	afc4fff4		sw	-12(%GPR30),%GPR4	
7601	184d	00000000		nop	; Automatically Added by addNops.pl
7602	184e	00000000		nop	; Automatically Added by addNops.pl
7603	184f	00000000		nop	; Automatically Added by addNops.pl
7604				; Automatically 8 NOPs removed by reduceNOPs.sh
7605	1850	00000000		nop	; Automatically added by fix-stall-insns.pl
7606	1851	00451018		mult	%GPR2,%GPR2,%GPR5	
7607	1852	00000000		nop	; Automatically Added by addNops.pl
7608	1853	00000000		nop	; Automatically Added by addNops.pl
7609	1854	00000000		nop	; Automatically Added by addNops.pl
7610				; Automatically 16 NOPs removed by reduceNOPs.sh
7611	1855	00220820		add	%GPR1,%GPR1,%GPR2	
7612	1856	00000000		nop	; Automatically Added by addNops.pl
7613	1857	00000000		nop	; Automatically Added by addNops.pl
7614	1858	00000000		nop	; Automatically Added by addNops.pl
7615				; Automatically 16 NOPs removed by reduceNOPs.sh
7616	1859	00290820		add	%GPR1,%GPR1,%GPR9	
7617	185a	00000000		nop	; Automatically Added by addNops.pl
7618	185b	00000000		nop	; Automatically Added by addNops.pl
7619	185c	00000000		nop	; Automatically Added by addNops.pl
7620				; Automatically 16 NOPs removed by reduceNOPs.sh
7621	185d	ac230000		sw	0(%GPR1),%GPR3	
7622	185e	00000000		nop	; Automatically Added by addNops.pl
7623	185f	00000000		nop	; Automatically Added by addNops.pl
7624	1860	00000000		nop	; Automatically Added by addNops.pl
7625				; Automatically 16 NOPs removed by reduceNOPs.sh
7626	1861	00000000		nop	; Automatically added by fix-stall-insns.pl
7627	1862	8ce10000		lw	%GPR1,0(%GPR7)	
7628	1863	00000000		nop	; Automatically Added by addNops.pl
7629	1864	00000000		nop	; Automatically Added by addNops.pl
7630	1865	00000000		nop	; Automatically Added by addNops.pl
7631				; Automatically 16 NOPs removed by reduceNOPs.sh
7632	1866	20210001		addi	%GPR1,%GPR1,$1	
7633	1867	00000000		nop	; Automatically Added by addNops.pl
7634	1868	00000000		nop	; Automatically Added by addNops.pl
7635	1869	00000000		nop	; Automatically Added by addNops.pl
7636				; Automatically 16 NOPs removed by reduceNOPs.sh
7637	186a	ad410000		sw	0(%GPR10),%GPR1	
7638	186b	00000000		nop	; Automatically Added by addNops.pl
7639	186c	00000000		nop	; Automatically Added by addNops.pl
7640	186d	00000000		nop	; Automatically Added by addNops.pl
7641	186e	0bfffece		j	L_lib_lcd_larsix_15	
7642	186f	00000000		nop	; Automatically Added by addNops.pl
7643	1870	00000000		nop	; Automatically Added by addNops.pl
7644	1871	00000000		nop	; Automatically Added by addNops.pl
7645				; Automatically 12 NOPs removed by reduceNOPs.sh
7646			L_lib_lcd_larsix_17:
7647	1872	00000000		nop	; Automatically Added by addNops.pl
7648	1873	00000000		nop	; Automatically Added by addNops.pl
7649	1874	00000000		nop	; Automatically Added by addNops.pl
7650	1875	3c010000		lhi	%GPR1,$( L_lib_lcd_larsix_2	/0x10000)
7651	1876	00000000		nop
7652	1877	00000000		nop
7653	1878	00000000		nop
7654	1879	3421079c		ori	%GPR1,%GPR1,$( L_lib_lcd_larsix_2	%0x10000)
7655	187a	00000000		nop	; Automatically Added by addNops.pl
7656	187b	00000000		nop	; Automatically Added by addNops.pl
7657	187c	00000000		nop	; Automatically Added by addNops.pl
7658	187d	3c020000		lhi	%GPR2,$( L_lib_lcd_larsix_2	/0x10000)
7659	187e	00000000		nop
7660	187f	00000000		nop
7661	1880	00000000		nop
7662	1881	3442079c		ori	%GPR2,%GPR2,$( L_lib_lcd_larsix_2	%0x10000)
7663	1882	00000000		nop	; Automatically Added by addNops.pl
7664	1883	00000000		nop	; Automatically Added by addNops.pl
7665	1884	00000000		nop	; Automatically Added by addNops.pl
7666				; Automatically 12 NOPs removed by reduceNOPs.sh
7667	1885	8c210000		lw	%GPR1,0(%GPR1)	
7668	1886	00000000		nop	; Automatically Added by addNops.pl
7669	1887	00000000		nop	; Automatically Added by addNops.pl
7670	1888	00000000		nop	; Automatically Added by addNops.pl
7671				; Automatically 16 NOPs removed by reduceNOPs.sh
7672	1889	20210001		addi	%GPR1,%GPR1,$1	
7673	188a	00000000		nop	; Automatically Added by addNops.pl
7674	188b	00000000		nop	; Automatically Added by addNops.pl
7675	188c	00000000		nop	; Automatically Added by addNops.pl
7676				; Automatically 16 NOPs removed by reduceNOPs.sh
7677	188d	ac410000		sw	0(%GPR2),%GPR1	
7678	188e	00000000		nop	; Automatically Added by addNops.pl
7679	188f	00000000		nop	; Automatically Added by addNops.pl
7680	1890	00000000		nop	; Automatically Added by addNops.pl
7681				; Automatically 12 NOPs removed by reduceNOPs.sh
7682			L_lib_lcd_larsix_18:
7683	1891	00000000		nop	; Automatically Added by addNops.pl
7684	1892	00000000		nop	; Automatically Added by addNops.pl
7685	1893	00000000		nop	; Automatically Added by addNops.pl
7686				; Automatically 16 NOPs removed by reduceNOPs.sh
7687	1894	8fdf0004		lw	%GPR31,4(%GPR30)	
7688	1895	00000000		nop	; Automatically Added by addNops.pl
7689	1896	00000000		nop	; Automatically Added by addNops.pl
7690	1897	00000000		nop	; Automatically Added by addNops.pl
7691	1898	27dd0004		addui	%GPR29,%GPR30,$4	
7692	1899	00000000		nop	; Automatically Added by addNops.pl
7693	189a	00000000		nop	; Automatically Added by addNops.pl
7694	189b	00000000		nop	; Automatically Added by addNops.pl
7695	189c	8fde0000		lw	%GPR30,0(%GPR30)	
7696	189d	00000000		nop	; Automatically Added by addNops.pl
7697	189e	00000000		nop	; Automatically Added by addNops.pl
7698	189f	00000000		nop	; Automatically Added by addNops.pl
7699				; Automatically 8 NOPs removed by reduceNOPs.sh
7700	18a0	00000000		nop
7701	18a1	00000000		nop
7702	18a2	03e00008		jr	%GPR31	
7703	18a3	00000000		nop	; Automatically Added by addNops.pl
7704	18a4	00000000		nop	; Automatically Added by addNops.pl
7705	18a5	00000000		nop	; Automatically Added by addNops.pl
7706				; Automatically 16 NOPs removed by reduceNOPs.sh
7707			create_bar:
7708			L_lib_lcd_larsix_19:
7709	18a6	00000000		nop	; Automatically Added by addNops.pl
7710	18a7	00000000		nop	; Automatically Added by addNops.pl
7711	18a8	00000000		nop	; Automatically Added by addNops.pl
7712				; Automatically 16 NOPs removed by reduceNOPs.sh
7713	18a9	afbefffc		sw	-4(%GPR29),%GPR30	
7714	18aa	00000000		nop	; Automatically Added by addNops.pl
7715	18ab	00000000		nop	; Automatically Added by addNops.pl
7716	18ac	00000000		nop	; Automatically Added by addNops.pl
7717	18ad	00000000		nop	; Automatically added by fix-stall-insns.pl
7718	18ae	afbf0000		sw	0(%GPR29),%GPR31	
7719	18af	00000000		nop	; Automatically Added by addNops.pl
7720	18b0	00000000		nop	; Automatically Added by addNops.pl
7721	18b1	00000000		nop	; Automatically Added by addNops.pl
7722	18b2	2fbe0004		subui	%GPR30,%GPR29,$4	
7723	18b3	00000000		nop	; Automatically Added by addNops.pl
7724	18b4	00000000		nop	; Automatically Added by addNops.pl
7725	18b5	00000000		nop	; Automatically Added by addNops.pl
7726				; Automatically 4 NOPs removed by reduceNOPs.sh
7727	18b6	2bbd000c		subi	%GPR29,%GPR29,$12	
7728	18b7	00000000		nop	; Automatically Added by addNops.pl
7729	18b8	00000000		nop	; Automatically Added by addNops.pl
7730	18b9	00000000		nop	; Automatically Added by addNops.pl
7731				; Automatically 16 NOPs removed by reduceNOPs.sh
7732	18ba	afc7fffc		sw	-4(%GPR30),%GPR7	
7733	18bb	00000000		nop	; Automatically Added by addNops.pl
7734	18bc	00000000		nop	; Automatically Added by addNops.pl
7735	18bd	00000000		nop	; Automatically Added by addNops.pl
7736				; Automatically 28 NOPs removed by reduceNOPs.sh
7737	18be	2bbd0008		subi	%GPR29,%GPR29,$8	
7738	18bf	00000000		nop	; Automatically Added by addNops.pl
7739	18c0	00000000		nop	; Automatically Added by addNops.pl
7740	18c1	00000000		nop	; Automatically Added by addNops.pl
7741				; Automatically 16 NOPs removed by reduceNOPs.sh
7742	18c2	0c000a76		jal	g_makebar	
7743	18c3	00000000		nop	; Automatically Added by addNops.pl
7744	18c4	00000000		nop	; Automatically Added by addNops.pl
7745	18c5	00000000		nop	; Automatically Added by addNops.pl
7746				; Automatically 16 NOPs removed by reduceNOPs.sh
7747	18c6	23bd0008		addi	%GPR29,%GPR29,$8	
7748	18c7	00000000		nop	; Automatically Added by addNops.pl
7749	18c8	00000000		nop	; Automatically Added by addNops.pl
7750	18c9	00000000		nop	; Automatically Added by addNops.pl
7751				; Automatically 16 NOPs removed by reduceNOPs.sh
7752	18ca	3c010000		lhi	%GPR1,$( _activebars	/0x10000)
7753	18cb	00000000		nop
7754	18cc	00000000		nop
7755	18cd	00000000		nop
7756	18ce	3421072c		ori	%GPR1,%GPR1,$( _activebars	%0x10000)
7757	18cf	00000000		nop	; Automatically Added by addNops.pl
7758	18d0	00000000		nop	; Automatically Added by addNops.pl
7759	18d1	00000000		nop	; Automatically Added by addNops.pl
7760				; Automatically 8 NOPs removed by reduceNOPs.sh
7761	18d2	3c020000		lhi	%GPR2,$( _bars	/0x10000)
7762	18d3	00000000		nop
7763	18d4	00000000		nop
7764	18d5	00000000		nop
7765	18d6	344206ac		ori	%GPR2,%GPR2,$( _bars	%0x10000)
7766	18d7	00000000		nop	; Automatically Added by addNops.pl
7767	18d8	00000000		nop	; Automatically Added by addNops.pl
7768	18d9	00000000		nop	; Automatically Added by addNops.pl
7769	18da	8fc8fffc		lw	%GPR8,-4(%GPR30)	
7770	18db	00000000		nop	; Automatically Added by addNops.pl
7771	18dc	00000000		nop	; Automatically Added by addNops.pl
7772	18dd	00000000		nop	; Automatically Added by addNops.pl
7773	18de	00000000		nop	; Automatically added by fix-stall-insns.pl
7774	18df	8c210000		lw	%GPR1,0(%GPR1)	
7775	18e0	00000000		nop	; Automatically Added by addNops.pl
7776	18e1	00000000		nop	; Automatically Added by addNops.pl
7777	18e2	00000000		nop	; Automatically Added by addNops.pl
7778	18e3	3c030000		lhi	%GPR3,$0	
7779	18e4	00000000		nop	; Automatically Added by addNops.pl
7780	18e5	00000000		nop	; Automatically Added by addNops.pl
7781	18e6	00000000		nop	; Automatically Added by addNops.pl
7782				; Automatically 16 NOPs removed by reduceNOPs.sh
7783	18e7	34630008		ori	%GPR3,%GPR3,$8	
7784	18e8	00000000		nop	; Automatically Added by addNops.pl
7785	18e9	00000000		nop	; Automatically Added by addNops.pl
7786	18ea	00000000		nop	; Automatically Added by addNops.pl
7787	18eb	3c040000		lhi	%GPR4,$( _activebars	/0x10000)
7788	18ec	00000000		nop
7789	18ed	00000000		nop
7790	18ee	00000000		nop
7791	18ef	3484072c		ori	%GPR4,%GPR4,$( _activebars	%0x10000)
7792	18f0	00000000		nop	; Automatically Added by addNops.pl
7793	18f1	00000000		nop	; Automatically Added by addNops.pl
7794	18f2	00000000		nop	; Automatically Added by addNops.pl
7795				; Automatically 12 NOPs removed by reduceNOPs.sh
7796	18f3	00230818		mult	%GPR1,%GPR1,%GPR3	
7797	18f4	00000000		nop	; Automatically Added by addNops.pl
7798	18f5	00000000		nop	; Automatically Added by addNops.pl
7799	18f6	00000000		nop	; Automatically Added by addNops.pl
7800				; Automatically 8 NOPs removed by reduceNOPs.sh
7801	18f7	3c050000		lhi	%GPR5,$0	
7802	18f8	00000000		nop	; Automatically Added by addNops.pl
7803	18f9	00000000		nop	; Automatically Added by addNops.pl
7804	18fa	00000000		nop	; Automatically Added by addNops.pl
7805				; Automatically 16 NOPs removed by reduceNOPs.sh
7806	18fb	34a50008		ori	%GPR5,%GPR5,$8	
7807	18fc	00000000		nop	; Automatically Added by addNops.pl
7808	18fd	00000000		nop	; Automatically Added by addNops.pl
7809	18fe	00000000		nop	; Automatically Added by addNops.pl
7810				; Automatically 8 NOPs removed by reduceNOPs.sh
7811	18ff	00410820		add	%GPR1,%GPR2,%GPR1	
7812	1900	00000000		nop	; Automatically Added by addNops.pl
7813	1901	00000000		nop	; Automatically Added by addNops.pl
7814	1902	00000000		nop	; Automatically Added by addNops.pl
7815	1903	3c030000		lhi	%GPR3,$( _bars	/0x10000)
7816	1904	00000000		nop
7817	1905	00000000		nop
7818	1906	00000000		nop
7819	1907	346306ac		ori	%GPR3,%GPR3,$( _bars	%0x10000)
7820	1908	00000000		nop	; Automatically Added by addNops.pl
7821	1909	00000000		nop	; Automatically Added by addNops.pl
7822	190a	00000000		nop	; Automatically Added by addNops.pl
7823				; Automatically 8 NOPs removed by reduceNOPs.sh
7824	190b	3c060000		lhi	%GPR6,$0	
7825	190c	00000000		nop	; Automatically Added by addNops.pl
7826	190d	00000000		nop	; Automatically Added by addNops.pl
7827	190e	00000000		nop	; Automatically Added by addNops.pl
7828				; Automatically 16 NOPs removed by reduceNOPs.sh
7829	190f	34c60004		ori	%GPR6,%GPR6,$4	
7830	1910	00000000		nop	; Automatically Added by addNops.pl
7831	1911	00000000		nop	; Automatically Added by addNops.pl
7832	1912	00000000		nop	; Automatically Added by addNops.pl
7833	1913	ac280000		sw	0(%GPR1),%GPR8	
7834	1914	00000000		nop	; Automatically Added by addNops.pl
7835	1915	00000000		nop	; Automatically Added by addNops.pl
7836	1916	00000000		nop	; Automatically Added by addNops.pl
7837	1917	3c020000		lhi	%GPR2,$( _activebars	/0x10000)
7838	1918	00000000		nop
7839	1919	00000000		nop
7840	191a	00000000		nop
7841	191b	3442072c		ori	%GPR2,%GPR2,$( _activebars	%0x10000)
7842	191c	00000000		nop	; Automatically Added by addNops.pl
7843	191d	00000000		nop	; Automatically Added by addNops.pl
7844	191e	00000000		nop	; Automatically Added by addNops.pl
7845	191f	3c070000		lhi	%GPR7,$0	
7846	1920	00000000		nop	; Automatically Added by addNops.pl
7847	1921	00000000		nop	; Automatically Added by addNops.pl
7848	1922	00000000		nop	; Automatically Added by addNops.pl
7849				; Automatically 16 NOPs removed by reduceNOPs.sh
7850	1923	34e70001		ori	%GPR7,%GPR7,$1	
7851	1924	00000000		nop	; Automatically Added by addNops.pl
7852	1925	00000000		nop	; Automatically Added by addNops.pl
7853	1926	00000000		nop	; Automatically Added by addNops.pl
7854				; Automatically 8 NOPs removed by reduceNOPs.sh
7855	1927	8c840000		lw	%GPR4,0(%GPR4)	
7856	1928	00000000		nop	; Automatically Added by addNops.pl
7857	1929	00000000		nop	; Automatically Added by addNops.pl
7858	192a	00000000		nop	; Automatically Added by addNops.pl
7859	192b	3c010000		lhi	%GPR1,$( _activebars	/0x10000)
7860	192c	00000000		nop
7861	192d	00000000		nop
7862	192e	00000000		nop
7863	192f	3421072c		ori	%GPR1,%GPR1,$( _activebars	%0x10000)
7864	1930	00000000		nop	; Automatically Added by addNops.pl
7865	1931	00000000		nop	; Automatically Added by addNops.pl
7866	1932	00000000		nop	; Automatically Added by addNops.pl
7867	1933	3c080000		lhi	%GPR8,$( _activebars	/0x10000)
7868	1934	00000000		nop
7869	1935	00000000		nop
7870	1936	00000000		nop
7871	1937	3508072c		ori	%GPR8,%GPR8,$( _activebars	%0x10000)
7872	1938	00000000		nop	; Automatically Added by addNops.pl
7873	1939	00000000		nop	; Automatically Added by addNops.pl
7874	193a	00000000		nop	; Automatically Added by addNops.pl
7875				; Automatically 8 NOPs removed by reduceNOPs.sh
7876	193b	00852018		mult	%GPR4,%GPR4,%GPR5	
7877	193c	00000000		nop	; Automatically Added by addNops.pl
7878	193d	00000000		nop	; Automatically Added by addNops.pl
7879	193e	00000000		nop	; Automatically Added by addNops.pl
7880				; Automatically 16 NOPs removed by reduceNOPs.sh
7881	193f	00641820		add	%GPR3,%GPR3,%GPR4	
7882	1940	00000000		nop	; Automatically Added by addNops.pl
7883	1941	00000000		nop	; Automatically Added by addNops.pl
7884	1942	00000000		nop	; Automatically Added by addNops.pl
7885				; Automatically 16 NOPs removed by reduceNOPs.sh
7886	1943	00661820		add	%GPR3,%GPR3,%GPR6	
7887	1944	00000000		nop	; Automatically Added by addNops.pl
7888	1945	00000000		nop	; Automatically Added by addNops.pl
7889	1946	00000000		nop	; Automatically Added by addNops.pl
7890				; Automatically 16 NOPs removed by reduceNOPs.sh
7891	1947	ac670000		sw	0(%GPR3),%GPR7	
7892	1948	00000000		nop	; Automatically Added by addNops.pl
7893	1949	00000000		nop	; Automatically Added by addNops.pl
7894	194a	00000000		nop	; Automatically Added by addNops.pl
7895				; Automatically 16 NOPs removed by reduceNOPs.sh
7896	194b	00000000		nop	; Automatically added by fix-stall-insns.pl
7897	194c	8c420000		lw	%GPR2,0(%GPR2)	
7898	194d	00000000		nop	; Automatically Added by addNops.pl
7899	194e	00000000		nop	; Automatically Added by addNops.pl
7900	194f	00000000		nop	; Automatically Added by addNops.pl
7901				; Automatically 16 NOPs removed by reduceNOPs.sh
7902	1950	20420001		addi	%GPR2,%GPR2,$1	
7903	1951	00000000		nop	; Automatically Added by addNops.pl
7904	1952	00000000		nop	; Automatically Added by addNops.pl
7905	1953	00000000		nop	; Automatically Added by addNops.pl
7906				; Automatically 16 NOPs removed by reduceNOPs.sh
7907	1954	ac220000		sw	0(%GPR1),%GPR2	
7908	1955	00000000		nop	; Automatically Added by addNops.pl
7909	1956	00000000		nop	; Automatically Added by addNops.pl
7910	1957	00000000		nop	; Automatically Added by addNops.pl
7911				; Automatically 16 NOPs removed by reduceNOPs.sh
7912	1958	00000000		nop	; Automatically added by fix-stall-insns.pl
7913	1959	8d010000		lw	%GPR1,0(%GPR8)	
7914	195a	00000000		nop	; Automatically Added by addNops.pl
7915	195b	00000000		nop	; Automatically Added by addNops.pl
7916	195c	00000000		nop	; Automatically Added by addNops.pl
7917				; Automatically 16 NOPs removed by reduceNOPs.sh
7918	195d	283c0001		subi	%GPR28,%GPR1,$1	
7919	195e	00000000		nop	; Automatically Added by addNops.pl
7920	195f	00000000		nop	; Automatically Added by addNops.pl
7921	1960	00000000		nop	; Automatically Added by addNops.pl
7922				; Automatically 16 NOPs removed by reduceNOPs.sh
7923	1961	08000004		j	L_lib_lcd_larsix_20	
7924	1962	00000000		nop	; Automatically Added by addNops.pl
7925	1963	00000000		nop	; Automatically Added by addNops.pl
7926	1964	00000000		nop	; Automatically Added by addNops.pl
7927				; Automatically 16 NOPs removed by reduceNOPs.sh
7928			L_lib_lcd_larsix_20:
7929	1965	00000000		nop	; Automatically Added by addNops.pl
7930	1966	00000000		nop	; Automatically Added by addNops.pl
7931	1967	00000000		nop	; Automatically Added by addNops.pl
7932				; Automatically 16 NOPs removed by reduceNOPs.sh
7933	1968	8fdf0004		lw	%GPR31,4(%GPR30)	
7934	1969	00000000		nop	; Automatically Added by addNops.pl
7935	196a	00000000		nop	; Automatically Added by addNops.pl
7936	196b	00000000		nop	; Automatically Added by addNops.pl
7937	196c	27dd0004		addui	%GPR29,%GPR30,$4	
7938	196d	00000000		nop	; Automatically Added by addNops.pl
7939	196e	00000000		nop	; Automatically Added by addNops.pl
7940	196f	00000000		nop	; Automatically Added by addNops.pl
7941	1970	8fde0000		lw	%GPR30,0(%GPR30)	
7942	1971	00000000		nop	; Automatically Added by addNops.pl
7943	1972	00000000		nop	; Automatically Added by addNops.pl
7944	1973	00000000		nop	; Automatically Added by addNops.pl
7945				; Automatically 8 NOPs removed by reduceNOPs.sh
7946	1974	00000000		nop
7947	1975	00000000		nop
7948	1976	03e00008		jr	%GPR31	
7949	1977	00000000		nop	; Automatically Added by addNops.pl
7950	1978	00000000		nop	; Automatically Added by addNops.pl
7951	1979	00000000		nop	; Automatically Added by addNops.pl
7952				.section	.data
7953				.align	4
7954			L_lib_lcd_1:
7955	07a0	00000001		.data.32	1
7956				.section	.text
7957				.addressing	Word
7958				;.addressing	Word
7959			strlength:
7960			L_lib_lcd_2:
7961	197a	00000000		nop	; Automatically Added by addNops.pl
7962	197b	00000000		nop	; Automatically Added by addNops.pl
7963	197c	00000000		nop	; Automatically Added by addNops.pl
7964				; Automatically 16 NOPs removed by reduceNOPs.sh
7965	197d	afbefffc		sw	-4(%GPR29),%GPR30	
7966	197e	00000000		nop	; Automatically Added by addNops.pl
7967	197f	00000000		nop	; Automatically Added by addNops.pl
7968	1980	00000000		nop	; Automatically Added by addNops.pl
7969	1981	00000000		nop	; Automatically added by fix-stall-insns.pl
7970	1982	afbf0000		sw	0(%GPR29),%GPR31	
7971	1983	00000000		nop	; Automatically Added by addNops.pl
7972	1984	00000000		nop	; Automatically Added by addNops.pl
7973	1985	00000000		nop	; Automatically Added by addNops.pl
7974	1986	2fbe0004		subui	%GPR30,%GPR29,$4	
7975	1987	00000000		nop	; Automatically Added by addNops.pl
7976	1988	00000000		nop	; Automatically Added by addNops.pl
7977	1989	00000000		nop	; Automatically Added by addNops.pl
7978				; Automatically 4 NOPs removed by reduceNOPs.sh
7979	198a	2bbd0010		subi	%GPR29,%GPR29,$16	
7980	198b	00000000		nop	; Automatically Added by addNops.pl
7981	198c	00000000		nop	; Automatically Added by addNops.pl
7982	198d	00000000		nop	; Automatically Added by addNops.pl
7983				; Automatically 44 NOPs removed by reduceNOPs.sh
7984	198e	afc1fffc		sw	-4(%GPR30),%GPR1	
7985	198f	00000000		nop	; Automatically Added by addNops.pl
7986	1990	00000000		nop	; Automatically Added by addNops.pl
7987	1991	00000000		nop	; Automatically Added by addNops.pl
7988				; Automatically 12 NOPs removed by reduceNOPs.sh
7989	1992	3c010000		lhi	%GPR1,$0	
7990	1993	00000000		nop	; Automatically Added by addNops.pl
7991	1994	00000000		nop	; Automatically Added by addNops.pl
7992	1995	00000000		nop	; Automatically Added by addNops.pl
7993				; Automatically 16 NOPs removed by reduceNOPs.sh
7994	1996	34210000		ori	%GPR1,%GPR1,$0	
7995	1997	00000000		nop	; Automatically Added by addNops.pl
7996	1998	00000000		nop	; Automatically Added by addNops.pl
7997	1999	00000000		nop	; Automatically Added by addNops.pl
7998				; Automatically 16 NOPs removed by reduceNOPs.sh
7999	199a	afc1fff8		sw	-8(%GPR30),%GPR1	
8000	199b	00000000		nop	; Automatically Added by addNops.pl
8001	199c	00000000		nop	; Automatically Added by addNops.pl
8002	199d	00000000		nop	; Automatically Added by addNops.pl
8003				; Automatically 12 NOPs removed by reduceNOPs.sh
8004			L_lib_lcd_3:
8005	199e	00000000		nop	; Automatically Added by addNops.pl
8006	199f	00000000		nop	; Automatically Added by addNops.pl
8007	19a0	00000000		nop	; Automatically Added by addNops.pl
8008	19a1	8fc1fffc		lw	%GPR1,-4(%GPR30)	
8009	19a2	00000000		nop	; Automatically Added by addNops.pl
8010	19a3	00000000		nop	; Automatically Added by addNops.pl
8011	19a4	00000000		nop	; Automatically Added by addNops.pl
8012				; Automatically 16 NOPs removed by reduceNOPs.sh
8013	19a5	00201820		add	%GPR3,%GPR1,%GPR0	
8014	19a6	00000000		nop	; Automatically Added by addNops.pl
8015	19a7	00000000		nop	; Automatically Added by addNops.pl
8016	19a8	00000000		nop	; Automatically Added by addNops.pl
8017	19a9	3c020000		lhi	%GPR2,$0	
8018	19aa	00000000		nop	; Automatically Added by addNops.pl
8019	19ab	00000000		nop	; Automatically Added by addNops.pl
8020	19ac	00000000		nop	; Automatically Added by addNops.pl
8021				; Automatically 16 NOPs removed by reduceNOPs.sh
8022	19ad	34420001		ori	%GPR2,%GPR2,$1	
8023	19ae	00000000		nop	; Automatically Added by addNops.pl
8024	19af	00000000		nop	; Automatically Added by addNops.pl
8025	19b0	00000000		nop	; Automatically Added by addNops.pl
8026				; Automatically 16 NOPs removed by reduceNOPs.sh
8027	19b1	00621020		add	%GPR2,%GPR3,%GPR2	
8028	19b2	00000000		nop	; Automatically Added by addNops.pl
8029	19b3	00000000		nop	; Automatically Added by addNops.pl
8030	19b4	00000000		nop	; Automatically Added by addNops.pl
8031				; Automatically 16 NOPs removed by reduceNOPs.sh
8032	19b5	afc2fffc		sw	-4(%GPR30),%GPR2	
8033	19b6	00000000		nop	; Automatically Added by addNops.pl
8034	19b7	00000000		nop	; Automatically Added by addNops.pl
8035	19b8	00000000		nop	; Automatically Added by addNops.pl
8036				; Automatically 16 NOPs removed by reduceNOPs.sh
8037	19b9	2bbd0008		subi	%GPR29,%GPR29,$8	
8038	19ba	00000000		nop	; Automatically Added by addNops.pl
8039	19bb	00000000		nop	; Automatically Added by addNops.pl
8040	19bc	00000000		nop	; Automatically Added by addNops.pl
8041				; Automatically 16 NOPs removed by reduceNOPs.sh
8042	19bd	0c000f34		jal	loadByteUnsigned	
8043	19be	00000000		nop	; Automatically Added by addNops.pl
8044	19bf	00000000		nop	; Automatically Added by addNops.pl
8045	19c0	00000000		nop	; Automatically Added by addNops.pl
8046				; Automatically 16 NOPs removed by reduceNOPs.sh
8047	19c1	23bd0008		addi	%GPR29,%GPR29,$8	
8048	19c2	00000000		nop	; Automatically Added by addNops.pl
8049	19c3	00000000		nop	; Automatically Added by addNops.pl
8050	19c4	00000000		nop	; Automatically Added by addNops.pl
8051				; Automatically 36 NOPs removed by reduceNOPs.sh
8052	19c5	3c010000		lhi	%GPR1,$0	
8053	19c6	00000000		nop	; Automatically Added by addNops.pl
8054	19c7	00000000		nop	; Automatically Added by addNops.pl
8055	19c8	00000000		nop	; Automatically Added by addNops.pl
8056				; Automatically 16 NOPs removed by reduceNOPs.sh
8057	19c9	34210000		ori	%GPR1,%GPR1,$0	
8058	19ca	00000000		nop	; Automatically Added by addNops.pl
8059	19cb	00000000		nop	; Automatically Added by addNops.pl
8060	19cc	00000000		nop	; Automatically Added by addNops.pl
8061				; Automatically 16 NOPs removed by reduceNOPs.sh
8062	19cd	0381d82f		sne	%GPR27,%GPR28,%GPR1	
8063	19ce	00000000		nop	; Automatically Added by addNops.pl
8064	19cf	00000000		nop	; Automatically Added by addNops.pl
8065	19d0	00000000		nop	; Automatically Added by addNops.pl
8066	19d1	17600008		bnez	%GPR27,L_lib_lcd_4	
8067	19d2	00000000		nop	; Automatically Added by addNops.pl
8068	19d3	00000000		nop	; Automatically Added by addNops.pl
8069	19d4	00000000		nop	; Automatically Added by addNops.pl
8070				; Automatically 16 NOPs removed by reduceNOPs.sh
8071	19d5	08000017		j	L_lib_lcd_5	
8072	19d6	00000000		nop	; Automatically Added by addNops.pl
8073	19d7	00000000		nop	; Automatically Added by addNops.pl
8074	19d8	00000000		nop	; Automatically Added by addNops.pl
8075				; Automatically 16 NOPs removed by reduceNOPs.sh
8076			L_lib_lcd_4:
8077	19d9	00000000		nop	; Automatically Added by addNops.pl
8078	19da	00000000		nop	; Automatically Added by addNops.pl
8079	19db	00000000		nop	; Automatically Added by addNops.pl
8080	19dc	8fc1fff8		lw	%GPR1,-8(%GPR30)	
8081	19dd	00000000		nop	; Automatically Added by addNops.pl
8082	19de	00000000		nop	; Automatically Added by addNops.pl
8083	19df	00000000		nop	; Automatically Added by addNops.pl
8084				; Automatically 16 NOPs removed by reduceNOPs.sh
8085	19e0	20210001		addi	%GPR1,%GPR1,$1	
8086	19e1	00000000		nop	; Automatically Added by addNops.pl
8087	19e2	00000000		nop	; Automatically Added by addNops.pl
8088	19e3	00000000		nop	; Automatically Added by addNops.pl
8089				; Automatically 16 NOPs removed by reduceNOPs.sh
8090	19e4	afc1fff8		sw	-8(%GPR30),%GPR1	
8091	19e5	00000000		nop	; Automatically Added by addNops.pl
8092	19e6	00000000		nop	; Automatically Added by addNops.pl
8093	19e7	00000000		nop	; Automatically Added by addNops.pl
8094	19e8	0bffffb6		j	L_lib_lcd_3	
8095	19e9	00000000		nop	; Automatically Added by addNops.pl
8096	19ea	00000000		nop	; Automatically Added by addNops.pl
8097	19eb	00000000		nop	; Automatically Added by addNops.pl
8098				; Automatically 12 NOPs removed by reduceNOPs.sh
8099			L_lib_lcd_5:
8100	19ec	00000000		nop	; Automatically Added by addNops.pl
8101	19ed	00000000		nop	; Automatically Added by addNops.pl
8102	19ee	00000000		nop	; Automatically Added by addNops.pl
8103	19ef	8fdcfff8		lw	%GPR28,-8(%GPR30)	
8104	19f0	00000000		nop	; Automatically Added by addNops.pl
8105	19f1	00000000		nop	; Automatically Added by addNops.pl
8106	19f2	00000000		nop	; Automatically Added by addNops.pl
8107				; Automatically 32 NOPs removed by reduceNOPs.sh
8108	19f3	08000004		j	L_lib_lcd_6	
8109	19f4	00000000		nop	; Automatically Added by addNops.pl
8110	19f5	00000000		nop	; Automatically Added by addNops.pl
8111	19f6	00000000		nop	; Automatically Added by addNops.pl
8112				; Automatically 16 NOPs removed by reduceNOPs.sh
8113			L_lib_lcd_6:
8114	19f7	00000000		nop	; Automatically Added by addNops.pl
8115	19f8	00000000		nop	; Automatically Added by addNops.pl
8116	19f9	00000000		nop	; Automatically Added by addNops.pl
8117				; Automatically 16 NOPs removed by reduceNOPs.sh
8118	19fa	8fdf0004		lw	%GPR31,4(%GPR30)	
8119	19fb	00000000		nop	; Automatically Added by addNops.pl
8120	19fc	00000000		nop	; Automatically Added by addNops.pl
8121	19fd	00000000		nop	; Automatically Added by addNops.pl
8122	19fe	27dd0004		addui	%GPR29,%GPR30,$4	
8123	19ff	00000000		nop	; Automatically Added by addNops.pl
8124	1a00	00000000		nop	; Automatically Added by addNops.pl
8125	1a01	00000000		nop	; Automatically Added by addNops.pl
8126	1a02	8fde0000		lw	%GPR30,0(%GPR30)	
8127	1a03	00000000		nop	; Automatically Added by addNops.pl
8128	1a04	00000000		nop	; Automatically Added by addNops.pl
8129	1a05	00000000		nop	; Automatically Added by addNops.pl
8130				; Automatically 8 NOPs removed by reduceNOPs.sh
8131	1a06	00000000		nop
8132	1a07	00000000		nop
8133	1a08	03e00008		jr	%GPR31	
8134	1a09	00000000		nop	; Automatically Added by addNops.pl
8135	1a0a	00000000		nop	; Automatically Added by addNops.pl
8136	1a0b	00000000		nop	; Automatically Added by addNops.pl
8137				; Automatically 16 NOPs removed by reduceNOPs.sh
8138			wait:
8139			L_lib_lcd_7:
8140	1a0c	00000000		nop	; Automatically Added by addNops.pl
8141	1a0d	00000000		nop	; Automatically Added by addNops.pl
8142	1a0e	00000000		nop	; Automatically Added by addNops.pl
8143				; Automatically 16 NOPs removed by reduceNOPs.sh
8144	1a0f	afbefffc		sw	-4(%GPR29),%GPR30	
8145	1a10	00000000		nop	; Automatically Added by addNops.pl
8146	1a11	00000000		nop	; Automatically Added by addNops.pl
8147	1a12	00000000		nop	; Automatically Added by addNops.pl
8148	1a13	00000000		nop	; Automatically added by fix-stall-insns.pl
8149	1a14	afbf0000		sw	0(%GPR29),%GPR31	
8150	1a15	00000000		nop	; Automatically Added by addNops.pl
8151	1a16	00000000		nop	; Automatically Added by addNops.pl
8152	1a17	00000000		nop	; Automatically Added by addNops.pl
8153	1a18	2fbe0004		subui	%GPR30,%GPR29,$4	
8154	1a19	00000000		nop	; Automatically Added by addNops.pl
8155	1a1a	00000000		nop	; Automatically Added by addNops.pl
8156	1a1b	00000000		nop	; Automatically Added by addNops.pl
8157				; Automatically 4 NOPs removed by reduceNOPs.sh
8158	1a1c	2bbd0008		subi	%GPR29,%GPR29,$8	
8159	1a1d	00000000		nop	; Automatically Added by addNops.pl
8160	1a1e	00000000		nop	; Automatically Added by addNops.pl
8161	1a1f	00000000		nop	; Automatically Added by addNops.pl
8162				; Automatically 56 NOPs removed by reduceNOPs.sh
8163	1a20	3c020000		lhi	%GPR2,$0	
8164	1a21	00000000		nop	; Automatically Added by addNops.pl
8165	1a22	00000000		nop	; Automatically Added by addNops.pl
8166	1a23	00000000		nop	; Automatically Added by addNops.pl
8167				; Automatically 16 NOPs removed by reduceNOPs.sh
8168	1a24	34420000		ori	%GPR2,%GPR2,$0	
8169	1a25	00000000		nop	; Automatically Added by addNops.pl
8170	1a26	00000000		nop	; Automatically Added by addNops.pl
8171	1a27	00000000		nop	; Automatically Added by addNops.pl
8172				; Automatically 12 NOPs removed by reduceNOPs.sh
8173			L_lib_lcd_8:
8174	1a28	00000000		nop	; Automatically Added by addNops.pl
8175	1a29	00000000		nop	; Automatically Added by addNops.pl
8176	1a2a	00000000		nop	; Automatically Added by addNops.pl
8177	1a2b	00401820		add	%GPR3,%GPR2,%GPR0	
8178	1a2c	00000000		nop	; Automatically Added by addNops.pl
8179	1a2d	00000000		nop	; Automatically Added by addNops.pl
8180	1a2e	00000000		nop	; Automatically Added by addNops.pl
8181	1a2f	20420001		addi	%GPR2,%GPR2,$1	
8182	1a30	00000000		nop	; Automatically Added by addNops.pl
8183	1a31	00000000		nop	; Automatically Added by addNops.pl
8184	1a32	00000000		nop	; Automatically Added by addNops.pl
8185				; Automatically 12 NOPs removed by reduceNOPs.sh
8186	1a33	0061d82f		sne	%GPR27,%GPR3,%GPR1	
8187	1a34	00000000		nop	; Automatically Added by addNops.pl
8188	1a35	00000000		nop	; Automatically Added by addNops.pl
8189	1a36	00000000		nop	; Automatically Added by addNops.pl
8190	1a37	1760fff1		bnez	%GPR27,L_lib_lcd_8	
8191	1a38	00000000		nop	; Automatically Added by addNops.pl
8192	1a39	00000000		nop	; Automatically Added by addNops.pl
8193	1a3a	00000000		nop	; Automatically Added by addNops.pl
8194				; Automatically 16 NOPs removed by reduceNOPs.sh
8195	1a3b	08000004		j	L_lib_lcd_9	
8196	1a3c	00000000		nop	; Automatically Added by addNops.pl
8197	1a3d	00000000		nop	; Automatically Added by addNops.pl
8198	1a3e	00000000		nop	; Automatically Added by addNops.pl
8199				; Automatically 16 NOPs removed by reduceNOPs.sh
8200			L_lib_lcd_9:
8201	1a3f	00000000		nop	; Automatically Added by addNops.pl
8202	1a40	00000000		nop	; Automatically Added by addNops.pl
8203	1a41	00000000		nop	; Automatically Added by addNops.pl
8204	1a42	285c0001		subi	%GPR28,%GPR2,$1	
8205	1a43	00000000		nop	; Automatically Added by addNops.pl
8206	1a44	00000000		nop	; Automatically Added by addNops.pl
8207	1a45	00000000		nop	; Automatically Added by addNops.pl
8208				; Automatically 16 NOPs removed by reduceNOPs.sh
8209	1a46	08000004		j	L_lib_lcd_10	
8210	1a47	00000000		nop	; Automatically Added by addNops.pl
8211	1a48	00000000		nop	; Automatically Added by addNops.pl
8212	1a49	00000000		nop	; Automatically Added by addNops.pl
8213				; Automatically 16 NOPs removed by reduceNOPs.sh
8214			L_lib_lcd_10:
8215	1a4a	00000000		nop	; Automatically Added by addNops.pl
8216	1a4b	00000000		nop	; Automatically Added by addNops.pl
8217	1a4c	00000000		nop	; Automatically Added by addNops.pl
8218				; Automatically 16 NOPs removed by reduceNOPs.sh
8219	1a4d	8fdf0004		lw	%GPR31,4(%GPR30)	
8220	1a4e	00000000		nop	; Automatically Added by addNops.pl
8221	1a4f	00000000		nop	; Automatically Added by addNops.pl
8222	1a50	00000000		nop	; Automatically Added by addNops.pl
8223	1a51	27dd0004		addui	%GPR29,%GPR30,$4	
8224	1a52	00000000		nop	; Automatically Added by addNops.pl
8225	1a53	00000000		nop	; Automatically Added by addNops.pl
8226	1a54	00000000		nop	; Automatically Added by addNops.pl
8227	1a55	8fde0000		lw	%GPR30,0(%GPR30)	
8228	1a56	00000000		nop	; Automatically Added by addNops.pl
8229	1a57	00000000		nop	; Automatically Added by addNops.pl
8230	1a58	00000000		nop	; Automatically Added by addNops.pl
8231				; Automatically 8 NOPs removed by reduceNOPs.sh
8232	1a59	00000000		nop
8233	1a5a	00000000		nop
8234	1a5b	03e00008		jr	%GPR31	
8235	1a5c	00000000		nop	; Automatically Added by addNops.pl
8236	1a5d	00000000		nop	; Automatically Added by addNops.pl
8237	1a5e	00000000		nop	; Automatically Added by addNops.pl
8238				; Automatically 16 NOPs removed by reduceNOPs.sh
8239			getack:
8240			L_lib_lcd_11:
8241	1a5f	00000000		nop	; Automatically Added by addNops.pl
8242	1a60	00000000		nop	; Automatically Added by addNops.pl
8243	1a61	00000000		nop	; Automatically Added by addNops.pl
8244				; Automatically 16 NOPs removed by reduceNOPs.sh
8245	1a62	afbefffc		sw	-4(%GPR29),%GPR30	
8246	1a63	00000000		nop	; Automatically Added by addNops.pl
8247	1a64	00000000		nop	; Automatically Added by addNops.pl
8248	1a65	00000000		nop	; Automatically Added by addNops.pl
8249	1a66	00000000		nop	; Automatically added by fix-stall-insns.pl
8250	1a67	afbf0000		sw	0(%GPR29),%GPR31	
8251	1a68	00000000		nop	; Automatically Added by addNops.pl
8252	1a69	00000000		nop	; Automatically Added by addNops.pl
8253	1a6a	00000000		nop	; Automatically Added by addNops.pl
8254	1a6b	2fbe0004		subui	%GPR30,%GPR29,$4	
8255	1a6c	00000000		nop	; Automatically Added by addNops.pl
8256	1a6d	00000000		nop	; Automatically Added by addNops.pl
8257	1a6e	00000000		nop	; Automatically Added by addNops.pl
8258				; Automatically 4 NOPs removed by reduceNOPs.sh
8259	1a6f	2bbd0008		subi	%GPR29,%GPR29,$8	
8260	1a70	00000000		nop	; Automatically Added by addNops.pl
8261	1a71	00000000		nop	; Automatically Added by addNops.pl
8262	1a72	00000000		nop	; Automatically Added by addNops.pl
8263				; Automatically 56 NOPs removed by reduceNOPs.sh
8264	1a73	3c020000		lhi	%GPR2,$0	
8265	1a74	00000000		nop	; Automatically Added by addNops.pl
8266	1a75	00000000		nop	; Automatically Added by addNops.pl
8267	1a76	00000000		nop	; Automatically Added by addNops.pl
8268				; Automatically 16 NOPs removed by reduceNOPs.sh
8269	1a77	34420000		ori	%GPR2,%GPR2,$0	
8270			
8271			
8272			
8273	1a78	00000000		nop	; Automatically Added by addNops.pl
8274	1a79	00000000		nop	; Automatically Added by addNops.pl
8275	1a7a	00000000		nop	; Automatically Added by addNops.pl
8276				; Automatically 12 NOPs removed by reduceNOPs.sh
8277	1a7b	0040000a		putc	%GPR2
8278	1a7c	00000000		nop	; Automatically Added by addNops.pl
8279	1a7d	00000000		nop	; Automatically Added by addNops.pl
8280	1a7e	00000000		nop	; Automatically Added by addNops.pl
8281				; Automatically 9 NOPs removed by reduceNOPs.sh
8282			
8283	1a7f	00000000		nop	; Automatically Added by addNops.pl
8284	1a80	00000000		nop	; Automatically Added by addNops.pl
8285	1a81	00000000		nop	; Automatically Added by addNops.pl
8286	1a82	20210001		addi	%GPR1,%GPR1,$1	
8287			
8288			
8289			
8290	1a83	00000000		nop	; Automatically Added by addNops.pl
8291	1a84	00000000		nop	; Automatically Added by addNops.pl
8292	1a85	00000000		nop	; Automatically Added by addNops.pl
8293				; Automatically 12 NOPs removed by reduceNOPs.sh
8294	1a86	0020000a		putc	%GPR1
8295	1a87	00000000		nop	; Automatically Added by addNops.pl
8296	1a88	00000000		nop	; Automatically Added by addNops.pl
8297	1a89	00000000		nop	; Automatically Added by addNops.pl
8298				; Automatically 9 NOPs removed by reduceNOPs.sh
8299			
8300	1a8a	00000000		nop	; Automatically Added by addNops.pl
8301	1a8b	00000000		nop	; Automatically Added by addNops.pl
8302	1a8c	00000000		nop	; Automatically Added by addNops.pl
8303				; Automatically 20 NOPs removed by reduceNOPs.sh
8304	1a8d	3c010000		lhi	%GPR1,$0	
8305	1a8e	00000000		nop	; Automatically Added by addNops.pl
8306	1a8f	00000000		nop	; Automatically Added by addNops.pl
8307	1a90	00000000		nop	; Automatically Added by addNops.pl
8308				; Automatically 16 NOPs removed by reduceNOPs.sh
8309	1a91	34210001		ori	%GPR1,%GPR1,$1	
8310			
8311			
8312			
8313	1a92	00000000		nop	; Automatically Added by addNops.pl
8314	1a93	00000000		nop	; Automatically Added by addNops.pl
8315	1a94	00000000		nop	; Automatically Added by addNops.pl
8316				; Automatically 12 NOPs removed by reduceNOPs.sh
8317	1a95	0020000a		putc	%GPR1
8318	1a96	00000000		nop	; Automatically Added by addNops.pl
8319	1a97	00000000		nop	; Automatically Added by addNops.pl
8320	1a98	00000000		nop	; Automatically Added by addNops.pl
8321				; Automatically 9 NOPs removed by reduceNOPs.sh
8322			
8323			
8324			
8325			
8326	1a99	00000000		nop	; Automatically Added by addNops.pl
8327	1a9a	00000000		nop	; Automatically Added by addNops.pl
8328	1a9b	00000000		nop	; Automatically Added by addNops.pl
8329				; Automatically 12 NOPs removed by reduceNOPs.sh
8330	1a9c	0020000b		getc	%GPR1
8331	1a9d	00000000		nop	; Automatically Added by addNops.pl
8332	1a9e	00000000		nop	; Automatically Added by addNops.pl
8333	1a9f	00000000		nop	; Automatically Added by addNops.pl
8334				; Automatically 9 NOPs removed by reduceNOPs.sh
8335			
8336	1aa0	00000000		nop	; Automatically Added by addNops.pl
8337	1aa1	00000000		nop	; Automatically Added by addNops.pl
8338	1aa2	00000000		nop	; Automatically Added by addNops.pl
8339				; Automatically 20 NOPs removed by reduceNOPs.sh
8340	1aa3	3c020000		lhi	%GPR2,$0	
8341	1aa4	00000000		nop	; Automatically Added by addNops.pl
8342	1aa5	00000000		nop	; Automatically Added by addNops.pl
8343	1aa6	00000000		nop	; Automatically Added by addNops.pl
8344				; Automatically 16 NOPs removed by reduceNOPs.sh
8345	1aa7	3442000f		ori	%GPR2,%GPR2,$15	
8346	1aa8	00000000		nop	; Automatically Added by addNops.pl
8347	1aa9	00000000		nop	; Automatically Added by addNops.pl
8348	1aaa	00000000		nop	; Automatically Added by addNops.pl
8349				; Automatically 16 NOPs removed by reduceNOPs.sh
8350	1aab	0022d82e		seq	%GPR27,%GPR1,%GPR2	
8351	1aac	00000000		nop	; Automatically Added by addNops.pl
8352	1aad	00000000		nop	; Automatically Added by addNops.pl
8353	1aae	00000000		nop	; Automatically Added by addNops.pl
8354	1aaf	17600008		bnez	%GPR27,L_lib_lcd_12	
8355	1ab0	00000000		nop	; Automatically Added by addNops.pl
8356	1ab1	00000000		nop	; Automatically Added by addNops.pl
8357	1ab2	00000000		nop	; Automatically Added by addNops.pl
8358				; Automatically 16 NOPs removed by reduceNOPs.sh
8359	1ab3	08000013		j	L_lib_lcd_13	
8360	1ab4	00000000		nop	; Automatically Added by addNops.pl
8361	1ab5	00000000		nop	; Automatically Added by addNops.pl
8362	1ab6	00000000		nop	; Automatically Added by addNops.pl
8363				; Automatically 16 NOPs removed by reduceNOPs.sh
8364			L_lib_lcd_12:
8365	1ab7	00000000		nop	; Automatically Added by addNops.pl
8366	1ab8	00000000		nop	; Automatically Added by addNops.pl
8367	1ab9	00000000		nop	; Automatically Added by addNops.pl
8368				; Automatically 16 NOPs removed by reduceNOPs.sh
8369	1aba	3c1c0000		lhi	%GPR28,$0	
8370	1abb	00000000		nop	; Automatically Added by addNops.pl
8371	1abc	00000000		nop	; Automatically Added by addNops.pl
8372	1abd	00000000		nop	; Automatically Added by addNops.pl
8373				; Automatically 16 NOPs removed by reduceNOPs.sh
8374	1abe	379c0001		ori	%GPR28,%GPR28,$1	
8375	1abf	00000000		nop	; Automatically Added by addNops.pl
8376	1ac0	00000000		nop	; Automatically Added by addNops.pl
8377	1ac1	00000000		nop	; Automatically Added by addNops.pl
8378				; Automatically 16 NOPs removed by reduceNOPs.sh
8379	1ac2	08000013		j	L_lib_lcd_14	
8380	1ac3	00000000		nop	; Automatically Added by addNops.pl
8381	1ac4	00000000		nop	; Automatically Added by addNops.pl
8382	1ac5	00000000		nop	; Automatically Added by addNops.pl
8383				; Automatically 16 NOPs removed by reduceNOPs.sh
8384			L_lib_lcd_13:
8385	1ac6	00000000		nop	; Automatically Added by addNops.pl
8386	1ac7	00000000		nop	; Automatically Added by addNops.pl
8387	1ac8	00000000		nop	; Automatically Added by addNops.pl
8388				; Automatically 16 NOPs removed by reduceNOPs.sh
8389	1ac9	3c1c0000		lhi	%GPR28,$0	
8390	1aca	00000000		nop	; Automatically Added by addNops.pl
8391	1acb	00000000		nop	; Automatically Added by addNops.pl
8392	1acc	00000000		nop	; Automatically Added by addNops.pl
8393				; Automatically 16 NOPs removed by reduceNOPs.sh
8394	1acd	379c0000		ori	%GPR28,%GPR28,$0	
8395	1ace	00000000		nop	; Automatically Added by addNops.pl
8396	1acf	00000000		nop	; Automatically Added by addNops.pl
8397	1ad0	00000000		nop	; Automatically Added by addNops.pl
8398				; Automatically 16 NOPs removed by reduceNOPs.sh
8399	1ad1	08000004		j	L_lib_lcd_14	
8400	1ad2	00000000		nop	; Automatically Added by addNops.pl
8401	1ad3	00000000		nop	; Automatically Added by addNops.pl
8402	1ad4	00000000		nop	; Automatically Added by addNops.pl
8403				; Automatically 16 NOPs removed by reduceNOPs.sh
8404			L_lib_lcd_14:
8405	1ad5	00000000		nop	; Automatically Added by addNops.pl
8406	1ad6	00000000		nop	; Automatically Added by addNops.pl
8407	1ad7	00000000		nop	; Automatically Added by addNops.pl
8408				; Automatically 16 NOPs removed by reduceNOPs.sh
8409	1ad8	8fdf0004		lw	%GPR31,4(%GPR30)	
8410	1ad9	00000000		nop	; Automatically Added by addNops.pl
8411	1ada	00000000		nop	; Automatically Added by addNops.pl
8412	1adb	00000000		nop	; Automatically Added by addNops.pl
8413	1adc	27dd0004		addui	%GPR29,%GPR30,$4	
8414	1add	00000000		nop	; Automatically Added by addNops.pl
8415	1ade	00000000		nop	; Automatically Added by addNops.pl
8416	1adf	00000000		nop	; Automatically Added by addNops.pl
8417	1ae0	8fde0000		lw	%GPR30,0(%GPR30)	
8418	1ae1	00000000		nop	; Automatically Added by addNops.pl
8419	1ae2	00000000		nop	; Automatically Added by addNops.pl
8420	1ae3	00000000		nop	; Automatically Added by addNops.pl
8421				; Automatically 8 NOPs removed by reduceNOPs.sh
8422	1ae4	00000000		nop
8423	1ae5	00000000		nop
8424	1ae6	03e00008		jr	%GPR31	
8425	1ae7	00000000		nop	; Automatically Added by addNops.pl
8426	1ae8	00000000		nop	; Automatically Added by addNops.pl
8427	1ae9	00000000		nop	; Automatically Added by addNops.pl
8428				; Automatically 16 NOPs removed by reduceNOPs.sh
8429			checkbuffer:
8430			L_lib_lcd_15:
8431	1aea	00000000		nop	; Automatically Added by addNops.pl
8432	1aeb	00000000		nop	; Automatically Added by addNops.pl
8433	1aec	00000000		nop	; Automatically Added by addNops.pl
8434				; Automatically 16 NOPs removed by reduceNOPs.sh
8435	1aed	afbefffc		sw	-4(%GPR29),%GPR30	
8436	1aee	00000000		nop	; Automatically Added by addNops.pl
8437	1aef	00000000		nop	; Automatically Added by addNops.pl
8438	1af0	00000000		nop	; Automatically Added by addNops.pl
8439	1af1	00000000		nop	; Automatically added by fix-stall-insns.pl
8440	1af2	afbf0000		sw	0(%GPR29),%GPR31	
8441	1af3	00000000		nop	; Automatically Added by addNops.pl
8442	1af4	00000000		nop	; Automatically Added by addNops.pl
8443	1af5	00000000		nop	; Automatically Added by addNops.pl
8444	1af6	2fbe0004		subui	%GPR30,%GPR29,$4	
8445	1af7	00000000		nop	; Automatically Added by addNops.pl
8446	1af8	00000000		nop	; Automatically Added by addNops.pl
8447	1af9	00000000		nop	; Automatically Added by addNops.pl
8448				; Automatically 4 NOPs removed by reduceNOPs.sh
8449	1afa	2bbd0008		subi	%GPR29,%GPR29,$8	
8450	1afb	00000000		nop	; Automatically Added by addNops.pl
8451	1afc	00000000		nop	; Automatically Added by addNops.pl
8452	1afd	00000000		nop	; Automatically Added by addNops.pl
8453				; Automatically 48 NOPs removed by reduceNOPs.sh
8454	1afe	3c010000		lhi	%GPR1,$0	
8455	1aff	00000000		nop	; Automatically Added by addNops.pl
8456	1b00	00000000		nop	; Automatically Added by addNops.pl
8457	1b01	00000000		nop	; Automatically Added by addNops.pl
8458				; Automatically 16 NOPs removed by reduceNOPs.sh
8459	1b02	34210000		ori	%GPR1,%GPR1,$0	
8460	1b03	00000000		nop	; Automatically Added by addNops.pl
8461	1b04	00000000		nop	; Automatically Added by addNops.pl
8462	1b05	00000000		nop	; Automatically Added by addNops.pl
8463	1b06	3c040000		lhi	%GPR4,$0	
8464	1b07	00000000		nop	; Automatically Added by addNops.pl
8465	1b08	00000000		nop	; Automatically Added by addNops.pl
8466	1b09	00000000		nop	; Automatically Added by addNops.pl
8467				; Automatically 16 NOPs removed by reduceNOPs.sh
8468	1b0a	348400de		ori	%GPR4,%GPR4,$222	
8469	1b0b	00000000		nop	; Automatically Added by addNops.pl
8470	1b0c	00000000		nop	; Automatically Added by addNops.pl
8471	1b0d	00000000		nop	; Automatically Added by addNops.pl
8472	1b0e	3c020000		lhi	%GPR2,$0	
8473	1b0f	00000000		nop	; Automatically Added by addNops.pl
8474	1b10	00000000		nop	; Automatically Added by addNops.pl
8475	1b11	00000000		nop	; Automatically Added by addNops.pl
8476				; Automatically 16 NOPs removed by reduceNOPs.sh
8477	1b12	34420004		ori	%GPR2,%GPR2,$4	
8478			
8479			
8480			
8481	1b13	00000000		nop	; Automatically Added by addNops.pl
8482	1b14	00000000		nop	; Automatically Added by addNops.pl
8483	1b15	00000000		nop	; Automatically Added by addNops.pl
8484				; Automatically 12 NOPs removed by reduceNOPs.sh
8485	1b16	0040000a		putc	%GPR2
8486	1b17	00000000		nop	; Automatically Added by addNops.pl
8487	1b18	00000000		nop	; Automatically Added by addNops.pl
8488	1b19	00000000		nop	; Automatically Added by addNops.pl
8489				; Automatically 9 NOPs removed by reduceNOPs.sh
8490			
8491			
8492			
8493			
8494	1b1a	00000000		nop	; Automatically Added by addNops.pl
8495	1b1b	00000000		nop	; Automatically Added by addNops.pl
8496	1b1c	00000000		nop	; Automatically Added by addNops.pl
8497				; Automatically 12 NOPs removed by reduceNOPs.sh
8498	1b1d	0080000a		putc	%GPR4
8499	1b1e	00000000		nop	; Automatically Added by addNops.pl
8500	1b1f	00000000		nop	; Automatically Added by addNops.pl
8501	1b20	00000000		nop	; Automatically Added by addNops.pl
8502				; Automatically 9 NOPs removed by reduceNOPs.sh
8503			
8504	1b21	00000000		nop	; Automatically Added by addNops.pl
8505	1b22	00000000		nop	; Automatically Added by addNops.pl
8506	1b23	00000000		nop	; Automatically Added by addNops.pl
8507				; Automatically 20 NOPs removed by reduceNOPs.sh
8508	1b24	3c020000		lhi	%GPR2,$0	
8509	1b25	00000000		nop	; Automatically Added by addNops.pl
8510	1b26	00000000		nop	; Automatically Added by addNops.pl
8511	1b27	00000000		nop	; Automatically Added by addNops.pl
8512				; Automatically 16 NOPs removed by reduceNOPs.sh
8513	1b28	34420012		ori	%GPR2,%GPR2,$18	
8514			
8515			
8516			
8517	1b29	00000000		nop	; Automatically Added by addNops.pl
8518	1b2a	00000000		nop	; Automatically Added by addNops.pl
8519	1b2b	00000000		nop	; Automatically Added by addNops.pl
8520				; Automatically 12 NOPs removed by reduceNOPs.sh
8521	1b2c	0040000a		putc	%GPR2
8522	1b2d	00000000		nop	; Automatically Added by addNops.pl
8523	1b2e	00000000		nop	; Automatically Added by addNops.pl
8524	1b2f	00000000		nop	; Automatically Added by addNops.pl
8525				; Automatically 9 NOPs removed by reduceNOPs.sh
8526			
8527	1b30	00000000		nop	; Automatically Added by addNops.pl
8528	1b31	00000000		nop	; Automatically Added by addNops.pl
8529	1b32	00000000		nop	; Automatically Added by addNops.pl
8530				; Automatically 20 NOPs removed by reduceNOPs.sh
8531	1b33	3c030000		lhi	%GPR3,$0	
8532	1b34	00000000		nop	; Automatically Added by addNops.pl
8533	1b35	00000000		nop	; Automatically Added by addNops.pl
8534	1b36	00000000		nop	; Automatically Added by addNops.pl
8535				; Automatically 16 NOPs removed by reduceNOPs.sh
8536	1b37	34630012		ori	%GPR3,%GPR3,$18	
8537	1b38	00000000		nop	; Automatically Added by addNops.pl
8538	1b39	00000000		nop	; Automatically Added by addNops.pl
8539	1b3a	00000000		nop	; Automatically Added by addNops.pl
8540	1b3b	3c020000		lhi	%GPR2,$0	
8541	1b3c	00000000		nop	; Automatically Added by addNops.pl
8542	1b3d	00000000		nop	; Automatically Added by addNops.pl
8543	1b3e	00000000		nop	; Automatically Added by addNops.pl
8544				; Automatically 16 NOPs removed by reduceNOPs.sh
8545	1b3f	34420001		ori	%GPR2,%GPR2,$1	
8546			
8547			
8548			
8549	1b40	00000000		nop	; Automatically Added by addNops.pl
8550	1b41	00000000		nop	; Automatically Added by addNops.pl
8551	1b42	00000000		nop	; Automatically Added by addNops.pl
8552				; Automatically 12 NOPs removed by reduceNOPs.sh
8553	1b43	0040000a		putc	%GPR2
8554	1b44	00000000		nop	; Automatically Added by addNops.pl
8555	1b45	00000000		nop	; Automatically Added by addNops.pl
8556	1b46	00000000		nop	; Automatically Added by addNops.pl
8557				; Automatically 9 NOPs removed by reduceNOPs.sh
8558			
8559	1b47	00000000		nop	; Automatically Added by addNops.pl
8560	1b48	00000000		nop	; Automatically Added by addNops.pl
8561	1b49	00000000		nop	; Automatically Added by addNops.pl
8562				; Automatically 8 NOPs removed by reduceNOPs.sh
8563	1b4a	00621820		add	%GPR3,%GPR3,%GPR2	
8564	1b4b	00000000		nop	; Automatically Added by addNops.pl
8565	1b4c	00000000		nop	; Automatically Added by addNops.pl
8566	1b4d	00000000		nop	; Automatically Added by addNops.pl
8567				; Automatically 12 NOPs removed by reduceNOPs.sh
8568	1b4e	3c020000		lhi	%GPR2,$0	
8569	1b4f	00000000		nop	; Automatically Added by addNops.pl
8570	1b50	00000000		nop	; Automatically Added by addNops.pl
8571	1b51	00000000		nop	; Automatically Added by addNops.pl
8572				; Automatically 16 NOPs removed by reduceNOPs.sh
8573	1b52	34420049		ori	%GPR2,%GPR2,$73	
8574			
8575			
8576			
8577	1b53	00000000		nop	; Automatically Added by addNops.pl
8578	1b54	00000000		nop	; Automatically Added by addNops.pl
8579	1b55	00000000		nop	; Automatically Added by addNops.pl
8580				; Automatically 12 NOPs removed by reduceNOPs.sh
8581	1b56	0040000a		putc	%GPR2
8582	1b57	00000000		nop	; Automatically Added by addNops.pl
8583	1b58	00000000		nop	; Automatically Added by addNops.pl
8584	1b59	00000000		nop	; Automatically Added by addNops.pl
8585				; Automatically 9 NOPs removed by reduceNOPs.sh
8586			
8587	1b5a	00000000		nop	; Automatically Added by addNops.pl
8588	1b5b	00000000		nop	; Automatically Added by addNops.pl
8589	1b5c	00000000		nop	; Automatically Added by addNops.pl
8590	1b5d	00621820		add	%GPR3,%GPR3,%GPR2	
8591			
8592			
8593			
8594	1b5e	00000000		nop	; Automatically Added by addNops.pl
8595	1b5f	00000000		nop	; Automatically Added by addNops.pl
8596	1b60	00000000		nop	; Automatically Added by addNops.pl
8597				; Automatically 12 NOPs removed by reduceNOPs.sh
8598	1b61	0060000a		putc	%GPR3
8599	1b62	00000000		nop	; Automatically Added by addNops.pl
8600	1b63	00000000		nop	; Automatically Added by addNops.pl
8601	1b64	00000000		nop	; Automatically Added by addNops.pl
8602				; Automatically 9 NOPs removed by reduceNOPs.sh
8603			
8604	1b65	00000000		nop	; Automatically Added by addNops.pl
8605	1b66	00000000		nop	; Automatically Added by addNops.pl
8606	1b67	00000000		nop	; Automatically Added by addNops.pl
8607				; Automatically 20 NOPs removed by reduceNOPs.sh
8608	1b68	3c03ffff		lhi	%GPR3,$65535	
8609	1b69	00000000		nop	; Automatically Added by addNops.pl
8610	1b6a	00000000		nop	; Automatically Added by addNops.pl
8611	1b6b	00000000		nop	; Automatically Added by addNops.pl
8612				; Automatically 16 NOPs removed by reduceNOPs.sh
8613	1b6c	3463ffff		ori	%GPR3,%GPR3,$-1	
8614	1b6d	00000000		nop	; Automatically Added by addNops.pl
8615	1b6e	00000000		nop	; Automatically Added by addNops.pl
8616	1b6f	00000000		nop	; Automatically Added by addNops.pl
8617				; Automatically 12 NOPs removed by reduceNOPs.sh
8618			L_lib_lcd_16:
8619	1b70	00000000		nop	; Automatically Added by addNops.pl
8620	1b71	00000000		nop	; Automatically Added by addNops.pl
8621	1b72	00000000		nop	; Automatically Added by addNops.pl
8622				; Automatically 16 NOPs removed by reduceNOPs.sh
8623	1b73	3c010000		lhi	%GPR1,$0	
8624	1b74	00000000		nop	; Automatically Added by addNops.pl
8625	1b75	00000000		nop	; Automatically Added by addNops.pl
8626	1b76	00000000		nop	; Automatically Added by addNops.pl
8627				; Automatically 16 NOPs removed by reduceNOPs.sh
8628	1b77	34210000		ori	%GPR1,%GPR1,$0	
8629			
8630			
8631			
8632	1b78	00000000		nop	; Automatically Added by addNops.pl
8633	1b79	00000000		nop	; Automatically Added by addNops.pl
8634	1b7a	00000000		nop	; Automatically Added by addNops.pl
8635				; Automatically 12 NOPs removed by reduceNOPs.sh
8636	1b7b	0020000a		putc	%GPR1
8637	1b7c	00000000		nop	; Automatically Added by addNops.pl
8638	1b7d	00000000		nop	; Automatically Added by addNops.pl
8639	1b7e	00000000		nop	; Automatically Added by addNops.pl
8640				; Automatically 9 NOPs removed by reduceNOPs.sh
8641			
8642	1b7f	00000000		nop	; Automatically Added by addNops.pl
8643	1b80	00000000		nop	; Automatically Added by addNops.pl
8644	1b81	00000000		nop	; Automatically Added by addNops.pl
8645	1b82	20820001		addi	%GPR2,%GPR4,$1	
8646			
8647			
8648			
8649	1b83	00000000		nop	; Automatically Added by addNops.pl
8650	1b84	00000000		nop	; Automatically Added by addNops.pl
8651	1b85	00000000		nop	; Automatically Added by addNops.pl
8652				; Automatically 12 NOPs removed by reduceNOPs.sh
8653	1b86	0040000a		putc	%GPR2
8654	1b87	00000000		nop	; Automatically Added by addNops.pl
8655	1b88	00000000		nop	; Automatically Added by addNops.pl
8656	1b89	00000000		nop	; Automatically Added by addNops.pl
8657				; Automatically 9 NOPs removed by reduceNOPs.sh
8658			
8659	1b8a	00000000		nop	; Automatically Added by addNops.pl
8660	1b8b	00000000		nop	; Automatically Added by addNops.pl
8661	1b8c	00000000		nop	; Automatically Added by addNops.pl
8662				; Automatically 20 NOPs removed by reduceNOPs.sh
8663	1b8d	3c010000		lhi	%GPR1,$0	
8664	1b8e	00000000		nop	; Automatically Added by addNops.pl
8665	1b8f	00000000		nop	; Automatically Added by addNops.pl
8666	1b90	00000000		nop	; Automatically Added by addNops.pl
8667				; Automatically 16 NOPs removed by reduceNOPs.sh
8668	1b91	34210006		ori	%GPR1,%GPR1,$6	
8669			
8670			
8671			
8672	1b92	00000000		nop	; Automatically Added by addNops.pl
8673	1b93	00000000		nop	; Automatically Added by addNops.pl
8674	1b94	00000000		nop	; Automatically Added by addNops.pl
8675				; Automatically 12 NOPs removed by reduceNOPs.sh
8676	1b95	0020000a		putc	%GPR1
8677	1b96	00000000		nop	; Automatically Added by addNops.pl
8678	1b97	00000000		nop	; Automatically Added by addNops.pl
8679	1b98	00000000		nop	; Automatically Added by addNops.pl
8680				; Automatically 9 NOPs removed by reduceNOPs.sh
8681			
8682			
8683			
8684			
8685	1b99	00000000		nop	; Automatically Added by addNops.pl
8686	1b9a	00000000		nop	; Automatically Added by addNops.pl
8687	1b9b	00000000		nop	; Automatically Added by addNops.pl
8688				; Automatically 12 NOPs removed by reduceNOPs.sh
8689	1b9c	0040000b		getc	%GPR2
8690	1b9d	00000000		nop	; Automatically Added by addNops.pl
8691	1b9e	00000000		nop	; Automatically Added by addNops.pl
8692	1b9f	00000000		nop	; Automatically Added by addNops.pl
8693				; Automatically 9 NOPs removed by reduceNOPs.sh
8694			
8695			
8696			
8697			
8698	1ba0	00000000		nop	; Automatically Added by addNops.pl
8699	1ba1	00000000		nop	; Automatically Added by addNops.pl
8700	1ba2	00000000		nop	; Automatically Added by addNops.pl
8701				; Automatically 12 NOPs removed by reduceNOPs.sh
8702	1ba3	0040000b		getc	%GPR2
8703	1ba4	00000000		nop	; Automatically Added by addNops.pl
8704	1ba5	00000000		nop	; Automatically Added by addNops.pl
8705	1ba6	00000000		nop	; Automatically Added by addNops.pl
8706				; Automatically 9 NOPs removed by reduceNOPs.sh
8707			
8708			
8709			
8710			
8711	1ba7	00000000		nop	; Automatically Added by addNops.pl
8712	1ba8	00000000		nop	; Automatically Added by addNops.pl
8713	1ba9	00000000		nop	; Automatically Added by addNops.pl
8714				; Automatically 12 NOPs removed by reduceNOPs.sh
8715	1baa	0020000b		getc	%GPR1
8716	1bab	00000000		nop	; Automatically Added by addNops.pl
8717	1bac	00000000		nop	; Automatically Added by addNops.pl
8718	1bad	00000000		nop	; Automatically Added by addNops.pl
8719				; Automatically 9 NOPs removed by reduceNOPs.sh
8720			
8721	1bae	00000000		nop	; Automatically Added by addNops.pl
8722	1baf	00000000		nop	; Automatically Added by addNops.pl
8723	1bb0	00000000		nop	; Automatically Added by addNops.pl
8724	1bb1	00411820		add	%GPR3,%GPR2,%GPR1	
8725			
8726			
8727			
8728	1bb2	00000000		nop	; Automatically Added by addNops.pl
8729	1bb3	00000000		nop	; Automatically Added by addNops.pl
8730	1bb4	00000000		nop	; Automatically Added by addNops.pl
8731				; Automatically 12 NOPs removed by reduceNOPs.sh
8732	1bb5	0020000b		getc	%GPR1
8733	1bb6	00000000		nop	; Automatically Added by addNops.pl
8734	1bb7	00000000		nop	; Automatically Added by addNops.pl
8735	1bb8	00000000		nop	; Automatically Added by addNops.pl
8736				; Automatically 9 NOPs removed by reduceNOPs.sh
8737			
8738	1bb9	00000000		nop	; Automatically Added by addNops.pl
8739	1bba	00000000		nop	; Automatically Added by addNops.pl
8740	1bbb	00000000		nop	; Automatically Added by addNops.pl
8741	1bbc	00611820		add	%GPR3,%GPR3,%GPR1	
8742			
8743			
8744			
8745	1bbd	00000000		nop	; Automatically Added by addNops.pl
8746	1bbe	00000000		nop	; Automatically Added by addNops.pl
8747	1bbf	00000000		nop	; Automatically Added by addNops.pl
8748				; Automatically 12 NOPs removed by reduceNOPs.sh
8749	1bc0	0040000b		getc	%GPR2
8750	1bc1	00000000		nop	; Automatically Added by addNops.pl
8751	1bc2	00000000		nop	; Automatically Added by addNops.pl
8752	1bc3	00000000		nop	; Automatically Added by addNops.pl
8753				; Automatically 9 NOPs removed by reduceNOPs.sh
8754			
8755	1bc4	00000000		nop	; Automatically Added by addNops.pl
8756	1bc5	00000000		nop	; Automatically Added by addNops.pl
8757	1bc6	00000000		nop	; Automatically Added by addNops.pl
8758	1bc7	00621820		add	%GPR3,%GPR3,%GPR2	
8759			
8760			
8761			
8762	1bc8	00000000		nop	; Automatically Added by addNops.pl
8763	1bc9	00000000		nop	; Automatically Added by addNops.pl
8764	1bca	00000000		nop	; Automatically Added by addNops.pl
8765				; Automatically 12 NOPs removed by reduceNOPs.sh
8766	1bcb	0040000b		getc	%GPR2
8767	1bcc	00000000		nop	; Automatically Added by addNops.pl
8768	1bcd	00000000		nop	; Automatically Added by addNops.pl
8769	1bce	00000000		nop	; Automatically Added by addNops.pl
8770				; Automatically 9 NOPs removed by reduceNOPs.sh
8771			
8772	1bcf	00000000		nop	; Automatically Added by addNops.pl
8773	1bd0	00000000		nop	; Automatically Added by addNops.pl
8774	1bd1	00000000		nop	; Automatically Added by addNops.pl
8775				; Automatically 20 NOPs removed by reduceNOPs.sh
8776	1bd2	3c050000		lhi	%GPR5,$0	
8777	1bd3	00000000		nop	; Automatically Added by addNops.pl
8778	1bd4	00000000		nop	; Automatically Added by addNops.pl
8779	1bd5	00000000		nop	; Automatically Added by addNops.pl
8780				; Automatically 16 NOPs removed by reduceNOPs.sh
8781	1bd6	34a50100		ori	%GPR5,%GPR5,$256	
8782	1bd7	00000000		nop	; Automatically Added by addNops.pl
8783	1bd8	00000000		nop	; Automatically Added by addNops.pl
8784	1bd9	00000000		nop	; Automatically Added by addNops.pl
8785				; Automatically 16 NOPs removed by reduceNOPs.sh
8786	1bda	0065181c		MOD	%GPR3,%GPR3,%GPR5	
8787	1bdb	00000000		nop	; Automatically Added by addNops.pl
8788	1bdc	00000000		nop	; Automatically Added by addNops.pl
8789	1bdd	00000000		nop	; Automatically Added by addNops.pl
8790				; Automatically 16 NOPs removed by reduceNOPs.sh
8791	1bde	0062d82f		sne	%GPR27,%GPR3,%GPR2	
8792	1bdf	00000000		nop	; Automatically Added by addNops.pl
8793	1be0	00000000		nop	; Automatically Added by addNops.pl
8794	1be1	00000000		nop	; Automatically Added by addNops.pl
8795	1be2	17600008		bnez	%GPR27,L_lib_lcd_17	
8796	1be3	00000000		nop	; Automatically Added by addNops.pl
8797	1be4	00000000		nop	; Automatically Added by addNops.pl
8798	1be5	00000000		nop	; Automatically Added by addNops.pl
8799				; Automatically 16 NOPs removed by reduceNOPs.sh
8800	1be6	08000061		j	L_lib_lcd_18	
8801	1be7	00000000		nop	; Automatically Added by addNops.pl
8802	1be8	00000000		nop	; Automatically Added by addNops.pl
8803	1be9	00000000		nop	; Automatically Added by addNops.pl
8804				; Automatically 16 NOPs removed by reduceNOPs.sh
8805			L_lib_lcd_17:
8806	1bea	00000000		nop	; Automatically Added by addNops.pl
8807	1beb	00000000		nop	; Automatically Added by addNops.pl
8808	1bec	00000000		nop	; Automatically Added by addNops.pl
8809				; Automatically 16 NOPs removed by reduceNOPs.sh
8810	1bed	3c020000		lhi	%GPR2,$0	
8811	1bee	00000000		nop	; Automatically Added by addNops.pl
8812	1bef	00000000		nop	; Automatically Added by addNops.pl
8813	1bf0	00000000		nop	; Automatically Added by addNops.pl
8814				; Automatically 16 NOPs removed by reduceNOPs.sh
8815	1bf1	34420004		ori	%GPR2,%GPR2,$4	
8816			
8817			
8818			
8819	1bf2	00000000		nop	; Automatically Added by addNops.pl
8820	1bf3	00000000		nop	; Automatically Added by addNops.pl
8821	1bf4	00000000		nop	; Automatically Added by addNops.pl
8822				; Automatically 12 NOPs removed by reduceNOPs.sh
8823	1bf5	0040000a		putc	%GPR2
8824	1bf6	00000000		nop	; Automatically Added by addNops.pl
8825	1bf7	00000000		nop	; Automatically Added by addNops.pl
8826	1bf8	00000000		nop	; Automatically Added by addNops.pl
8827				; Automatically 9 NOPs removed by reduceNOPs.sh
8828			
8829			
8830			
8831			
8832	1bf9	00000000		nop	; Automatically Added by addNops.pl
8833	1bfa	00000000		nop	; Automatically Added by addNops.pl
8834	1bfb	00000000		nop	; Automatically Added by addNops.pl
8835				; Automatically 12 NOPs removed by reduceNOPs.sh
8836	1bfc	0080000a		putc	%GPR4
8837	1bfd	00000000		nop	; Automatically Added by addNops.pl
8838	1bfe	00000000		nop	; Automatically Added by addNops.pl
8839	1bff	00000000		nop	; Automatically Added by addNops.pl
8840				; Automatically 9 NOPs removed by reduceNOPs.sh
8841			
8842	1c00	00000000		nop	; Automatically Added by addNops.pl
8843	1c01	00000000		nop	; Automatically Added by addNops.pl
8844	1c02	00000000		nop	; Automatically Added by addNops.pl
8845				; Automatically 20 NOPs removed by reduceNOPs.sh
8846	1c03	3c020000		lhi	%GPR2,$0	
8847	1c04	00000000		nop	; Automatically Added by addNops.pl
8848	1c05	00000000		nop	; Automatically Added by addNops.pl
8849	1c06	00000000		nop	; Automatically Added by addNops.pl
8850				; Automatically 16 NOPs removed by reduceNOPs.sh
8851	1c07	34420012		ori	%GPR2,%GPR2,$18	
8852			
8853			
8854			
8855	1c08	00000000		nop	; Automatically Added by addNops.pl
8856	1c09	00000000		nop	; Automatically Added by addNops.pl
8857	1c0a	00000000		nop	; Automatically Added by addNops.pl
8858				; Automatically 12 NOPs removed by reduceNOPs.sh
8859	1c0b	0040000a		putc	%GPR2
8860	1c0c	00000000		nop	; Automatically Added by addNops.pl
8861	1c0d	00000000		nop	; Automatically Added by addNops.pl
8862	1c0e	00000000		nop	; Automatically Added by addNops.pl
8863				; Automatically 9 NOPs removed by reduceNOPs.sh
8864			
8865	1c0f	00000000		nop	; Automatically Added by addNops.pl
8866	1c10	00000000		nop	; Automatically Added by addNops.pl
8867	1c11	00000000		nop	; Automatically Added by addNops.pl
8868				; Automatically 20 NOPs removed by reduceNOPs.sh
8869	1c12	3c030000		lhi	%GPR3,$0	
8870	1c13	00000000		nop	; Automatically Added by addNops.pl
8871	1c14	00000000		nop	; Automatically Added by addNops.pl
8872	1c15	00000000		nop	; Automatically Added by addNops.pl
8873				; Automatically 16 NOPs removed by reduceNOPs.sh
8874	1c16	34630012		ori	%GPR3,%GPR3,$18	
8875	1c17	00000000		nop	; Automatically Added by addNops.pl
8876	1c18	00000000		nop	; Automatically Added by addNops.pl
8877	1c19	00000000		nop	; Automatically Added by addNops.pl
8878	1c1a	3c020000		lhi	%GPR2,$0	
8879	1c1b	00000000		nop	; Automatically Added by addNops.pl
8880	1c1c	00000000		nop	; Automatically Added by addNops.pl
8881	1c1d	00000000		nop	; Automatically Added by addNops.pl
8882				; Automatically 16 NOPs removed by reduceNOPs.sh
8883	1c1e	34420001		ori	%GPR2,%GPR2,$1	
8884			
8885			
8886			
8887	1c1f	00000000		nop	; Automatically Added by addNops.pl
8888	1c20	00000000		nop	; Automatically Added by addNops.pl
8889	1c21	00000000		nop	; Automatically Added by addNops.pl
8890				; Automatically 12 NOPs removed by reduceNOPs.sh
8891	1c22	0040000a		putc	%GPR2
8892	1c23	00000000		nop	; Automatically Added by addNops.pl
8893	1c24	00000000		nop	; Automatically Added by addNops.pl
8894	1c25	00000000		nop	; Automatically Added by addNops.pl
8895				; Automatically 9 NOPs removed by reduceNOPs.sh
8896			
8897	1c26	00000000		nop	; Automatically Added by addNops.pl
8898	1c27	00000000		nop	; Automatically Added by addNops.pl
8899	1c28	00000000		nop	; Automatically Added by addNops.pl
8900				; Automatically 8 NOPs removed by reduceNOPs.sh
8901	1c29	00621820		add	%GPR3,%GPR3,%GPR2	
8902	1c2a	00000000		nop	; Automatically Added by addNops.pl
8903	1c2b	00000000		nop	; Automatically Added by addNops.pl
8904	1c2c	00000000		nop	; Automatically Added by addNops.pl
8905				; Automatically 12 NOPs removed by reduceNOPs.sh
8906	1c2d	3c020000		lhi	%GPR2,$0	
8907	1c2e	00000000		nop	; Automatically Added by addNops.pl
8908	1c2f	00000000		nop	; Automatically Added by addNops.pl
8909	1c30	00000000		nop	; Automatically Added by addNops.pl
8910				; Automatically 16 NOPs removed by reduceNOPs.sh
8911	1c31	34420052		ori	%GPR2,%GPR2,$82	
8912			
8913			
8914			
8915	1c32	00000000		nop	; Automatically Added by addNops.pl
8916	1c33	00000000		nop	; Automatically Added by addNops.pl
8917	1c34	00000000		nop	; Automatically Added by addNops.pl
8918				; Automatically 12 NOPs removed by reduceNOPs.sh
8919	1c35	0040000a		putc	%GPR2
8920	1c36	00000000		nop	; Automatically Added by addNops.pl
8921	1c37	00000000		nop	; Automatically Added by addNops.pl
8922	1c38	00000000		nop	; Automatically Added by addNops.pl
8923				; Automatically 9 NOPs removed by reduceNOPs.sh
8924			
8925	1c39	00000000		nop	; Automatically Added by addNops.pl
8926	1c3a	00000000		nop	; Automatically Added by addNops.pl
8927	1c3b	00000000		nop	; Automatically Added by addNops.pl
8928	1c3c	00621820		add	%GPR3,%GPR3,%GPR2	
8929			
8930			
8931			
8932	1c3d	00000000		nop	; Automatically Added by addNops.pl
8933	1c3e	00000000		nop	; Automatically Added by addNops.pl
8934	1c3f	00000000		nop	; Automatically Added by addNops.pl
8935				; Automatically 12 NOPs removed by reduceNOPs.sh
8936	1c40	0060000a		putc	%GPR3
8937	1c41	00000000		nop	; Automatically Added by addNops.pl
8938	1c42	00000000		nop	; Automatically Added by addNops.pl
8939	1c43	00000000		nop	; Automatically Added by addNops.pl
8940				; Automatically 9 NOPs removed by reduceNOPs.sh
8941			
8942	1c44	00000000		nop	; Automatically Added by addNops.pl
8943	1c45	00000000		nop	; Automatically Added by addNops.pl
8944	1c46	00000000		nop	; Automatically Added by addNops.pl
8945				; Automatically 12 NOPs removed by reduceNOPs.sh
8946			L_lib_lcd_18:
8947	1c47	00000000		nop	; Automatically Added by addNops.pl
8948	1c48	00000000		nop	; Automatically Added by addNops.pl
8949	1c49	00000000		nop	; Automatically Added by addNops.pl
8950				; Automatically 16 NOPs removed by reduceNOPs.sh
8951	1c4a	3c02ffff		lhi	%GPR2,$65535	
8952	1c4b	00000000		nop	; Automatically Added by addNops.pl
8953	1c4c	00000000		nop	; Automatically Added by addNops.pl
8954	1c4d	00000000		nop	; Automatically Added by addNops.pl
8955				; Automatically 16 NOPs removed by reduceNOPs.sh
8956	1c4e	3442ffff		ori	%GPR2,%GPR2,$-1	
8957	1c4f	00000000		nop	; Automatically Added by addNops.pl
8958	1c50	00000000		nop	; Automatically Added by addNops.pl
8959	1c51	00000000		nop	; Automatically Added by addNops.pl
8960				; Automatically 16 NOPs removed by reduceNOPs.sh
8961	1c52	0062d82e		seq	%GPR27,%GPR3,%GPR2	
8962	1c53	00000000		nop	; Automatically Added by addNops.pl
8963	1c54	00000000		nop	; Automatically Added by addNops.pl
8964	1c55	00000000		nop	; Automatically Added by addNops.pl
8965	1c56	1760ff1a		bnez	%GPR27,L_lib_lcd_16	
8966	1c57	00000000		nop	; Automatically Added by addNops.pl
8967	1c58	00000000		nop	; Automatically Added by addNops.pl
8968	1c59	00000000		nop	; Automatically Added by addNops.pl
8969				; Automatically 16 NOPs removed by reduceNOPs.sh
8970	1c5a	08000004		j	L_lib_lcd_19	
8971	1c5b	00000000		nop	; Automatically Added by addNops.pl
8972	1c5c	00000000		nop	; Automatically Added by addNops.pl
8973	1c5d	00000000		nop	; Automatically Added by addNops.pl
8974				; Automatically 16 NOPs removed by reduceNOPs.sh
8975			L_lib_lcd_19:
8976	1c5e	00000000		nop	; Automatically Added by addNops.pl
8977	1c5f	00000000		nop	; Automatically Added by addNops.pl
8978	1c60	00000000		nop	; Automatically Added by addNops.pl
8979	1c61	0020e020		add	%GPR28,%GPR1,%GPR0	
8980	1c62	00000000		nop	; Automatically Added by addNops.pl
8981	1c63	00000000		nop	; Automatically Added by addNops.pl
8982	1c64	00000000		nop	; Automatically Added by addNops.pl
8983				; Automatically 16 NOPs removed by reduceNOPs.sh
8984	1c65	08000004		j	L_lib_lcd_20	
8985	1c66	00000000		nop	; Automatically Added by addNops.pl
8986	1c67	00000000		nop	; Automatically Added by addNops.pl
8987	1c68	00000000		nop	; Automatically Added by addNops.pl
8988				; Automatically 16 NOPs removed by reduceNOPs.sh
8989			L_lib_lcd_20:
8990	1c69	00000000		nop	; Automatically Added by addNops.pl
8991	1c6a	00000000		nop	; Automatically Added by addNops.pl
8992	1c6b	00000000		nop	; Automatically Added by addNops.pl
8993				; Automatically 16 NOPs removed by reduceNOPs.sh
8994	1c6c	8fdf0004		lw	%GPR31,4(%GPR30)	
8995	1c6d	00000000		nop	; Automatically Added by addNops.pl
8996	1c6e	00000000		nop	; Automatically Added by addNops.pl
8997	1c6f	00000000		nop	; Automatically Added by addNops.pl
8998	1c70	27dd0004		addui	%GPR29,%GPR30,$4	
8999	1c71	00000000		nop	; Automatically Added by addNops.pl
9000	1c72	00000000		nop	; Automatically Added by addNops.pl
9001	1c73	00000000		nop	; Automatically Added by addNops.pl
9002	1c74	8fde0000		lw	%GPR30,0(%GPR30)	
9003	1c75	00000000		nop	; Automatically Added by addNops.pl
9004	1c76	00000000		nop	; Automatically Added by addNops.pl
9005	1c77	00000000		nop	; Automatically Added by addNops.pl
9006				; Automatically 8 NOPs removed by reduceNOPs.sh
9007	1c78	00000000		nop
9008	1c79	00000000		nop
9009	1c7a	03e00008		jr	%GPR31	
9010	1c7b	00000000		nop	; Automatically Added by addNops.pl
9011	1c7c	00000000		nop	; Automatically Added by addNops.pl
9012	1c7d	00000000		nop	; Automatically Added by addNops.pl
9013				; Automatically 16 NOPs removed by reduceNOPs.sh
9014			getbytes:
9015			L_lib_lcd_21:
9016	1c7e	00000000		nop	; Automatically Added by addNops.pl
9017	1c7f	00000000		nop	; Automatically Added by addNops.pl
9018	1c80	00000000		nop	; Automatically Added by addNops.pl
9019				; Automatically 16 NOPs removed by reduceNOPs.sh
9020	1c81	afbefffc		sw	-4(%GPR29),%GPR30	
9021	1c82	00000000		nop	; Automatically Added by addNops.pl
9022	1c83	00000000		nop	; Automatically Added by addNops.pl
9023	1c84	00000000		nop	; Automatically Added by addNops.pl
9024	1c85	00000000		nop	; Automatically added by fix-stall-insns.pl
9025	1c86	afbf0000		sw	0(%GPR29),%GPR31	
9026	1c87	00000000		nop	; Automatically Added by addNops.pl
9027	1c88	00000000		nop	; Automatically Added by addNops.pl
9028	1c89	00000000		nop	; Automatically Added by addNops.pl
9029	1c8a	2fbe0004		subui	%GPR30,%GPR29,$4	
9030	1c8b	00000000		nop	; Automatically Added by addNops.pl
9031	1c8c	00000000		nop	; Automatically Added by addNops.pl
9032	1c8d	00000000		nop	; Automatically Added by addNops.pl
9033				; Automatically 4 NOPs removed by reduceNOPs.sh
9034	1c8e	2bbd0020		subi	%GPR29,%GPR29,$32	
9035	1c8f	00000000		nop	; Automatically Added by addNops.pl
9036	1c90	00000000		nop	; Automatically Added by addNops.pl
9037	1c91	00000000		nop	; Automatically Added by addNops.pl
9038				; Automatically 16 NOPs removed by reduceNOPs.sh
9039	1c92	afc1fffc		sw	-4(%GPR30),%GPR1	
9040	1c93	00000000		nop	; Automatically Added by addNops.pl
9041	1c94	00000000		nop	; Automatically Added by addNops.pl
9042	1c95	00000000		nop	; Automatically Added by addNops.pl
9043	1c96	00000000		nop	; Automatically added by fix-stall-insns.pl
9044	1c97	afc2fff8		sw	-8(%GPR30),%GPR2	
9045	1c98	00000000		nop	; Automatically Added by addNops.pl
9046	1c99	00000000		nop	; Automatically Added by addNops.pl
9047	1c9a	00000000		nop	; Automatically Added by addNops.pl
9048				; Automatically 32 NOPs removed by reduceNOPs.sh
9049	1c9b	3c010000		lhi	%GPR1,$0	
9050	1c9c	00000000		nop	; Automatically Added by addNops.pl
9051	1c9d	00000000		nop	; Automatically Added by addNops.pl
9052	1c9e	00000000		nop	; Automatically Added by addNops.pl
9053				; Automatically 16 NOPs removed by reduceNOPs.sh
9054	1c9f	34210004		ori	%GPR1,%GPR1,$4	
9055	1ca0	00000000		nop	; Automatically Added by addNops.pl
9056	1ca1	00000000		nop	; Automatically Added by addNops.pl
9057	1ca2	00000000		nop	; Automatically Added by addNops.pl
9058				; Automatically 16 NOPs removed by reduceNOPs.sh
9059	1ca3	afc1fff4		sw	-12(%GPR30),%GPR1	
9060	1ca4	00000000		nop	; Automatically Added by addNops.pl
9061	1ca5	00000000		nop	; Automatically Added by addNops.pl
9062	1ca6	00000000		nop	; Automatically Added by addNops.pl
9063	1ca7	3c010000		lhi	%GPR1,$0	
9064	1ca8	00000000		nop	; Automatically Added by addNops.pl
9065	1ca9	00000000		nop	; Automatically Added by addNops.pl
9066	1caa	00000000		nop	; Automatically Added by addNops.pl
9067				; Automatically 16 NOPs removed by reduceNOPs.sh
9068	1cab	342100de		ori	%GPR1,%GPR1,$222	
9069	1cac	00000000		nop	; Automatically Added by addNops.pl
9070	1cad	00000000		nop	; Automatically Added by addNops.pl
9071	1cae	00000000		nop	; Automatically Added by addNops.pl
9072				; Automatically 16 NOPs removed by reduceNOPs.sh
9073	1caf	afc1fff0		sw	-16(%GPR30),%GPR1	
9074	1cb0	00000000		nop	; Automatically Added by addNops.pl
9075	1cb1	00000000		nop	; Automatically Added by addNops.pl
9076	1cb2	00000000		nop	; Automatically Added by addNops.pl
9077	1cb3	3c010000		lhi	%GPR1,$0	
9078	1cb4	00000000		nop	; Automatically Added by addNops.pl
9079	1cb5	00000000		nop	; Automatically Added by addNops.pl
9080	1cb6	00000000		nop	; Automatically Added by addNops.pl
9081				; Automatically 16 NOPs removed by reduceNOPs.sh
9082	1cb7	34210000		ori	%GPR1,%GPR1,$0	
9083	1cb8	00000000		nop	; Automatically Added by addNops.pl
9084	1cb9	00000000		nop	; Automatically Added by addNops.pl
9085	1cba	00000000		nop	; Automatically Added by addNops.pl
9086				; Automatically 16 NOPs removed by reduceNOPs.sh
9087	1cbb	afc1ffec		sw	-20(%GPR30),%GPR1	
9088	1cbc	00000000		nop	; Automatically Added by addNops.pl
9089	1cbd	00000000		nop	; Automatically Added by addNops.pl
9090	1cbe	00000000		nop	; Automatically Added by addNops.pl
9091	1cbf	00000000		nop	; Automatically added by fix-stall-insns.pl
9092	1cc0	8fc1fff4		lw	%GPR1,-12(%GPR30)	
9093			
9094			
9095			
9096	1cc1	00000000		nop	; Automatically Added by addNops.pl
9097	1cc2	00000000		nop	; Automatically Added by addNops.pl
9098	1cc3	00000000		nop	; Automatically Added by addNops.pl
9099				; Automatically 12 NOPs removed by reduceNOPs.sh
9100	1cc4	00000000		nop	; Automatically added by fix-stall-insns.pl
9101	1cc5	0020000a		putc	%GPR1
9102	1cc6	00000000		nop	; Automatically Added by addNops.pl
9103	1cc7	00000000		nop	; Automatically Added by addNops.pl
9104	1cc8	00000000		nop	; Automatically Added by addNops.pl
9105				; Automatically 9 NOPs removed by reduceNOPs.sh
9106			
9107	1cc9	00000000		nop	; Automatically Added by addNops.pl
9108	1cca	00000000		nop	; Automatically Added by addNops.pl
9109	1ccb	00000000		nop	; Automatically Added by addNops.pl
9110	1ccc	8fc1fff0		lw	%GPR1,-16(%GPR30)	
9111			
9112			
9113			
9114	1ccd	00000000		nop	; Automatically Added by addNops.pl
9115	1cce	00000000		nop	; Automatically Added by addNops.pl
9116	1ccf	00000000		nop	; Automatically Added by addNops.pl
9117				; Automatically 12 NOPs removed by reduceNOPs.sh
9118	1cd0	00000000		nop	; Automatically added by fix-stall-insns.pl
9119	1cd1	0020000a		putc	%GPR1
9120	1cd2	00000000		nop	; Automatically Added by addNops.pl
9121	1cd3	00000000		nop	; Automatically Added by addNops.pl
9122	1cd4	00000000		nop	; Automatically Added by addNops.pl
9123				; Automatically 9 NOPs removed by reduceNOPs.sh
9124			
9125	1cd5	00000000		nop	; Automatically Added by addNops.pl
9126	1cd6	00000000		nop	; Automatically Added by addNops.pl
9127	1cd7	00000000		nop	; Automatically Added by addNops.pl
9128				; Automatically 20 NOPs removed by reduceNOPs.sh
9129	1cd8	3c010000		lhi	%GPR1,$0	
9130	1cd9	00000000		nop	; Automatically Added by addNops.pl
9131	1cda	00000000		nop	; Automatically Added by addNops.pl
9132	1cdb	00000000		nop	; Automatically Added by addNops.pl
9133				; Automatically 16 NOPs removed by reduceNOPs.sh
9134	1cdc	34210012		ori	%GPR1,%GPR1,$18	
9135			
9136			
9137			
9138	1cdd	00000000		nop	; Automatically Added by addNops.pl
9139	1cde	00000000		nop	; Automatically Added by addNops.pl
9140	1cdf	00000000		nop	; Automatically Added by addNops.pl
9141				; Automatically 12 NOPs removed by reduceNOPs.sh
9142	1ce0	0020000a		putc	%GPR1
9143	1ce1	00000000		nop	; Automatically Added by addNops.pl
9144	1ce2	00000000		nop	; Automatically Added by addNops.pl
9145	1ce3	00000000		nop	; Automatically Added by addNops.pl
9146				; Automatically 9 NOPs removed by reduceNOPs.sh
9147			
9148	1ce4	00000000		nop	; Automatically Added by addNops.pl
9149	1ce5	00000000		nop	; Automatically Added by addNops.pl
9150	1ce6	00000000		nop	; Automatically Added by addNops.pl
9151				; Automatically 20 NOPs removed by reduceNOPs.sh
9152	1ce7	3c010000		lhi	%GPR1,$0	
9153	1ce8	00000000		nop	; Automatically Added by addNops.pl
9154	1ce9	00000000		nop	; Automatically Added by addNops.pl
9155	1cea	00000000		nop	; Automatically Added by addNops.pl
9156				; Automatically 16 NOPs removed by reduceNOPs.sh
9157	1ceb	34210001		ori	%GPR1,%GPR1,$1	
9158	1cec	00000000		nop	; Automatically Added by addNops.pl
9159	1ced	00000000		nop	; Automatically Added by addNops.pl
9160	1cee	00000000		nop	; Automatically Added by addNops.pl
9161				; Automatically 16 NOPs removed by reduceNOPs.sh
9162	1cef	afc1fff4		sw	-12(%GPR30),%GPR1	
9163	1cf0	00000000		nop	; Automatically Added by addNops.pl
9164	1cf1	00000000		nop	; Automatically Added by addNops.pl
9165	1cf2	00000000		nop	; Automatically Added by addNops.pl
9166	1cf3	3c010000		lhi	%GPR1,$0	
9167	1cf4	00000000		nop	; Automatically Added by addNops.pl
9168	1cf5	00000000		nop	; Automatically Added by addNops.pl
9169	1cf6	00000000		nop	; Automatically Added by addNops.pl
9170				; Automatically 16 NOPs removed by reduceNOPs.sh
9171	1cf7	34210012		ori	%GPR1,%GPR1,$18	
9172	1cf8	00000000		nop	; Automatically Added by addNops.pl
9173	1cf9	00000000		nop	; Automatically Added by addNops.pl
9174	1cfa	00000000		nop	; Automatically Added by addNops.pl
9175				; Automatically 16 NOPs removed by reduceNOPs.sh
9176	1cfb	afc1ffe8		sw	-24(%GPR30),%GPR1	
9177	1cfc	00000000		nop	; Automatically Added by addNops.pl
9178	1cfd	00000000		nop	; Automatically Added by addNops.pl
9179	1cfe	00000000		nop	; Automatically Added by addNops.pl
9180	1cff	00000000		nop	; Automatically added by fix-stall-insns.pl
9181	1d00	8fc1fff4		lw	%GPR1,-12(%GPR30)	
9182	1d01	00000000		nop	; Automatically Added by addNops.pl
9183	1d02	00000000		nop	; Automatically Added by addNops.pl
9184	1d03	00000000		nop	; Automatically Added by addNops.pl
9185				; Automatically 16 NOPs removed by reduceNOPs.sh
9186	1d04	00201020		add	%GPR2,%GPR1,%GPR0	
9187			
9188			
9189			
9190	1d05	00000000		nop	; Automatically Added by addNops.pl
9191	1d06	00000000		nop	; Automatically Added by addNops.pl
9192	1d07	00000000		nop	; Automatically Added by addNops.pl
9193				; Automatically 12 NOPs removed by reduceNOPs.sh
9194	1d08	0020000a		putc	%GPR1
9195	1d09	00000000		nop	; Automatically Added by addNops.pl
9196	1d0a	00000000		nop	; Automatically Added by addNops.pl
9197	1d0b	00000000		nop	; Automatically Added by addNops.pl
9198				; Automatically 9 NOPs removed by reduceNOPs.sh
9199			
9200	1d0c	00000000		nop	; Automatically Added by addNops.pl
9201	1d0d	00000000		nop	; Automatically Added by addNops.pl
9202	1d0e	00000000		nop	; Automatically Added by addNops.pl
9203	1d0f	8fc1ffe8		lw	%GPR1,-24(%GPR30)	
9204	1d10	00000000		nop	; Automatically Added by addNops.pl
9205	1d11	00000000		nop	; Automatically Added by addNops.pl
9206	1d12	00000000		nop	; Automatically Added by addNops.pl
9207				; Automatically 16 NOPs removed by reduceNOPs.sh
9208	1d13	00220820		add	%GPR1,%GPR1,%GPR2	
9209	1d14	00000000		nop	; Automatically Added by addNops.pl
9210	1d15	00000000		nop	; Automatically Added by addNops.pl
9211	1d16	00000000		nop	; Automatically Added by addNops.pl
9212				; Automatically 16 NOPs removed by reduceNOPs.sh
9213	1d17	afc1ffe8		sw	-24(%GPR30),%GPR1	
9214	1d18	00000000		nop	; Automatically Added by addNops.pl
9215	1d19	00000000		nop	; Automatically Added by addNops.pl
9216	1d1a	00000000		nop	; Automatically Added by addNops.pl
9217	1d1b	3c010000		lhi	%GPR1,$0	
9218	1d1c	00000000		nop	; Automatically Added by addNops.pl
9219	1d1d	00000000		nop	; Automatically Added by addNops.pl
9220	1d1e	00000000		nop	; Automatically Added by addNops.pl
9221				; Automatically 16 NOPs removed by reduceNOPs.sh
9222	1d1f	34210053		ori	%GPR1,%GPR1,$83	
9223	1d20	00000000		nop	; Automatically Added by addNops.pl
9224	1d21	00000000		nop	; Automatically Added by addNops.pl
9225	1d22	00000000		nop	; Automatically Added by addNops.pl
9226				; Automatically 16 NOPs removed by reduceNOPs.sh
9227	1d23	00201020		add	%GPR2,%GPR1,%GPR0	
9228			
9229			
9230			
9231	1d24	00000000		nop	; Automatically Added by addNops.pl
9232	1d25	00000000		nop	; Automatically Added by addNops.pl
9233	1d26	00000000		nop	; Automatically Added by addNops.pl
9234				; Automatically 12 NOPs removed by reduceNOPs.sh
9235	1d27	0020000a		putc	%GPR1
9236	1d28	00000000		nop	; Automatically Added by addNops.pl
9237	1d29	00000000		nop	; Automatically Added by addNops.pl
9238	1d2a	00000000		nop	; Automatically Added by addNops.pl
9239				; Automatically 9 NOPs removed by reduceNOPs.sh
9240			
9241	1d2b	00000000		nop	; Automatically Added by addNops.pl
9242	1d2c	00000000		nop	; Automatically Added by addNops.pl
9243	1d2d	00000000		nop	; Automatically Added by addNops.pl
9244	1d2e	8fc1ffe8		lw	%GPR1,-24(%GPR30)	
9245	1d2f	00000000		nop	; Automatically Added by addNops.pl
9246	1d30	00000000		nop	; Automatically Added by addNops.pl
9247	1d31	00000000		nop	; Automatically Added by addNops.pl
9248				; Automatically 16 NOPs removed by reduceNOPs.sh
9249	1d32	00220820		add	%GPR1,%GPR1,%GPR2	
9250			
9251			
9252			
9253	1d33	00000000		nop	; Automatically Added by addNops.pl
9254	1d34	00000000		nop	; Automatically Added by addNops.pl
9255	1d35	00000000		nop	; Automatically Added by addNops.pl
9256				; Automatically 12 NOPs removed by reduceNOPs.sh
9257	1d36	0020000a		putc	%GPR1
9258	1d37	00000000		nop	; Automatically Added by addNops.pl
9259	1d38	00000000		nop	; Automatically Added by addNops.pl
9260	1d39	00000000		nop	; Automatically Added by addNops.pl
9261				; Automatically 9 NOPs removed by reduceNOPs.sh
9262			
9263	1d3a	00000000		nop	; Automatically Added by addNops.pl
9264	1d3b	00000000		nop	; Automatically Added by addNops.pl
9265	1d3c	00000000		nop	; Automatically Added by addNops.pl
9266				; Automatically 20 NOPs removed by reduceNOPs.sh
9267	1d3d	3c01ffff		lhi	%GPR1,$65535	
9268	1d3e	00000000		nop	; Automatically Added by addNops.pl
9269	1d3f	00000000		nop	; Automatically Added by addNops.pl
9270	1d40	00000000		nop	; Automatically Added by addNops.pl
9271				; Automatically 16 NOPs removed by reduceNOPs.sh
9272	1d41	3421ffff		ori	%GPR1,%GPR1,$-1	
9273	1d42	00000000		nop	; Automatically Added by addNops.pl
9274	1d43	00000000		nop	; Automatically Added by addNops.pl
9275	1d44	00000000		nop	; Automatically Added by addNops.pl
9276				; Automatically 12 NOPs removed by reduceNOPs.sh
9277			L_lib_lcd_22:
9278	1d45	00000000		nop	; Automatically Added by addNops.pl
9279	1d46	00000000		nop	; Automatically Added by addNops.pl
9280	1d47	00000000		nop	; Automatically Added by addNops.pl
9281				; Automatically 16 NOPs removed by reduceNOPs.sh
9282	1d48	3c010000		lhi	%GPR1,$0	
9283	1d49	00000000		nop	; Automatically Added by addNops.pl
9284	1d4a	00000000		nop	; Automatically Added by addNops.pl
9285	1d4b	00000000		nop	; Automatically Added by addNops.pl
9286				; Automatically 16 NOPs removed by reduceNOPs.sh
9287	1d4c	34210000		ori	%GPR1,%GPR1,$0	
9288			
9289			
9290			
9291	1d4d	00000000		nop	; Automatically Added by addNops.pl
9292	1d4e	00000000		nop	; Automatically Added by addNops.pl
9293	1d4f	00000000		nop	; Automatically Added by addNops.pl
9294				; Automatically 12 NOPs removed by reduceNOPs.sh
9295	1d50	0020000a		putc	%GPR1
9296	1d51	00000000		nop	; Automatically Added by addNops.pl
9297	1d52	00000000		nop	; Automatically Added by addNops.pl
9298	1d53	00000000		nop	; Automatically Added by addNops.pl
9299				; Automatically 9 NOPs removed by reduceNOPs.sh
9300			
9301	1d54	00000000		nop	; Automatically Added by addNops.pl
9302	1d55	00000000		nop	; Automatically Added by addNops.pl
9303	1d56	00000000		nop	; Automatically Added by addNops.pl
9304	1d57	8fc1fff0		lw	%GPR1,-16(%GPR30)	
9305	1d58	00000000		nop	; Automatically Added by addNops.pl
9306	1d59	00000000		nop	; Automatically Added by addNops.pl
9307	1d5a	00000000		nop	; Automatically Added by addNops.pl
9308				; Automatically 16 NOPs removed by reduceNOPs.sh
9309	1d5b	20210001		addi	%GPR1,%GPR1,$1	
9310			
9311			
9312			
9313	1d5c	00000000		nop	; Automatically Added by addNops.pl
9314	1d5d	00000000		nop	; Automatically Added by addNops.pl
9315	1d5e	00000000		nop	; Automatically Added by addNops.pl
9316				; Automatically 12 NOPs removed by reduceNOPs.sh
9317	1d5f	0020000a		putc	%GPR1
9318	1d60	00000000		nop	; Automatically Added by addNops.pl
9319	1d61	00000000		nop	; Automatically Added by addNops.pl
9320	1d62	00000000		nop	; Automatically Added by addNops.pl
9321				; Automatically 9 NOPs removed by reduceNOPs.sh
9322			
9323	1d63	00000000		nop	; Automatically Added by addNops.pl
9324	1d64	00000000		nop	; Automatically Added by addNops.pl
9325	1d65	00000000		nop	; Automatically Added by addNops.pl
9326	1d66	8fc1fff8		lw	%GPR1,-8(%GPR30)	
9327	1d67	00000000		nop	; Automatically Added by addNops.pl
9328	1d68	00000000		nop	; Automatically Added by addNops.pl
9329	1d69	00000000		nop	; Automatically Added by addNops.pl
9330				; Automatically 16 NOPs removed by reduceNOPs.sh
9331	1d6a	20210004		addi	%GPR1,%GPR1,$4	
9332			
9333			
9334			
9335	1d6b	00000000		nop	; Automatically Added by addNops.pl
9336	1d6c	00000000		nop	; Automatically Added by addNops.pl
9337	1d6d	00000000		nop	; Automatically Added by addNops.pl
9338				; Automatically 12 NOPs removed by reduceNOPs.sh
9339	1d6e	0020000a		putc	%GPR1
9340	1d6f	00000000		nop	; Automatically Added by addNops.pl
9341	1d70	00000000		nop	; Automatically Added by addNops.pl
9342	1d71	00000000		nop	; Automatically Added by addNops.pl
9343				; Automatically 9 NOPs removed by reduceNOPs.sh
9344			
9345			
9346			
9347			
9348	1d72	00000000		nop	; Automatically Added by addNops.pl
9349	1d73	00000000		nop	; Automatically Added by addNops.pl
9350	1d74	00000000		nop	; Automatically Added by addNops.pl
9351				; Automatically 12 NOPs removed by reduceNOPs.sh
9352	1d75	0020000b		getc	%GPR1
9353	1d76	00000000		nop	; Automatically Added by addNops.pl
9354	1d77	00000000		nop	; Automatically Added by addNops.pl
9355	1d78	00000000		nop	; Automatically Added by addNops.pl
9356				; Automatically 9 NOPs removed by reduceNOPs.sh
9357			
9358			
9359			
9360			
9361	1d79	00000000		nop	; Automatically Added by addNops.pl
9362	1d7a	00000000		nop	; Automatically Added by addNops.pl
9363	1d7b	00000000		nop	; Automatically Added by addNops.pl
9364				; Automatically 12 NOPs removed by reduceNOPs.sh
9365	1d7c	0020000b		getc	%GPR1
9366	1d7d	00000000		nop	; Automatically Added by addNops.pl
9367	1d7e	00000000		nop	; Automatically Added by addNops.pl
9368	1d7f	00000000		nop	; Automatically Added by addNops.pl
9369				; Automatically 9 NOPs removed by reduceNOPs.sh
9370			
9371	1d80	00000000		nop	; Automatically Added by addNops.pl
9372	1d81	00000000		nop	; Automatically Added by addNops.pl
9373	1d82	00000000		nop	; Automatically Added by addNops.pl
9374	1d83	00201020		add	%GPR2,%GPR1,%GPR0	
9375			
9376			
9377			
9378	1d84	00000000		nop	; Automatically Added by addNops.pl
9379	1d85	00000000		nop	; Automatically Added by addNops.pl
9380	1d86	00000000		nop	; Automatically Added by addNops.pl
9381				; Automatically 12 NOPs removed by reduceNOPs.sh
9382	1d87	0020000b		getc	%GPR1
9383	1d88	00000000		nop	; Automatically Added by addNops.pl
9384	1d89	00000000		nop	; Automatically Added by addNops.pl
9385	1d8a	00000000		nop	; Automatically Added by addNops.pl
9386				; Automatically 9 NOPs removed by reduceNOPs.sh
9387			
9388	1d8b	00000000		nop	; Automatically Added by addNops.pl
9389	1d8c	00000000		nop	; Automatically Added by addNops.pl
9390	1d8d	00000000		nop	; Automatically Added by addNops.pl
9391	1d8e	00410820		add	%GPR1,%GPR2,%GPR1	
9392	1d8f	00000000		nop	; Automatically Added by addNops.pl
9393	1d90	00000000		nop	; Automatically Added by addNops.pl
9394	1d91	00000000		nop	; Automatically Added by addNops.pl
9395				; Automatically 16 NOPs removed by reduceNOPs.sh
9396	1d92	afc1ffe8		sw	-24(%GPR30),%GPR1	
9397	1d93	00000000		nop	; Automatically Added by addNops.pl
9398	1d94	00000000		nop	; Automatically Added by addNops.pl
9399	1d95	00000000		nop	; Automatically Added by addNops.pl
9400				; Automatically 12 NOPs removed by reduceNOPs.sh
9401			L_lib_lcd_23:
9402	1d96	00000000		nop	; Automatically Added by addNops.pl
9403	1d97	00000000		nop	; Automatically Added by addNops.pl
9404	1d98	00000000		nop	; Automatically Added by addNops.pl
9405	1d99	8fc1ffec		lw	%GPR1,-20(%GPR30)	
9406	1d9a	00000000		nop	; Automatically Added by addNops.pl
9407	1d9b	00000000		nop	; Automatically Added by addNops.pl
9408	1d9c	00000000		nop	; Automatically Added by addNops.pl
9409	1d9d	00000000		nop	; Automatically added by fix-stall-insns.pl
9410	1d9e	8fc2fff8		lw	%GPR2,-8(%GPR30)	
9411	1d9f	00000000		nop	; Automatically Added by addNops.pl
9412	1da0	00000000		nop	; Automatically Added by addNops.pl
9413	1da1	00000000		nop	; Automatically Added by addNops.pl
9414				; Automatically 16 NOPs removed by reduceNOPs.sh
9415	1da2	0022d82f		sne	%GPR27,%GPR1,%GPR2	
9416	1da3	00000000		nop	; Automatically Added by addNops.pl
9417	1da4	00000000		nop	; Automatically Added by addNops.pl
9418	1da5	00000000		nop	; Automatically Added by addNops.pl
9419	1da6	17600008		bnez	%GPR27,L_lib_lcd_24	
9420	1da7	00000000		nop	; Automatically Added by addNops.pl
9421	1da8	00000000		nop	; Automatically Added by addNops.pl
9422	1da9	00000000		nop	; Automatically Added by addNops.pl
9423				; Automatically 16 NOPs removed by reduceNOPs.sh
9424	1daa	08000052		j	L_lib_lcd_25	
9425	1dab	00000000		nop	; Automatically Added by addNops.pl
9426	1dac	00000000		nop	; Automatically Added by addNops.pl
9427	1dad	00000000		nop	; Automatically Added by addNops.pl
9428				; Automatically 16 NOPs removed by reduceNOPs.sh
9429			L_lib_lcd_24:
9430			
9431			
9432			
9433	1dae	00000000		nop	; Automatically Added by addNops.pl
9434	1daf	00000000		nop	; Automatically Added by addNops.pl
9435	1db0	00000000		nop	; Automatically Added by addNops.pl
9436				; Automatically 12 NOPs removed by reduceNOPs.sh
9437	1db1	0020000b		getc	%GPR1
9438	1db2	00000000		nop	; Automatically Added by addNops.pl
9439	1db3	00000000		nop	; Automatically Added by addNops.pl
9440	1db4	00000000		nop	; Automatically Added by addNops.pl
9441				; Automatically 9 NOPs removed by reduceNOPs.sh
9442			
9443	1db5	00000000		nop	; Automatically Added by addNops.pl
9444	1db6	00000000		nop	; Automatically Added by addNops.pl
9445	1db7	00000000		nop	; Automatically Added by addNops.pl
9446	1db8	afc1fff4		sw	-12(%GPR30),%GPR1	
9447	1db9	00000000		nop	; Automatically Added by addNops.pl
9448	1dba	00000000		nop	; Automatically Added by addNops.pl
9449	1dbb	00000000		nop	; Automatically Added by addNops.pl
9450	1dbc	00000000		nop	; Automatically added by fix-stall-insns.pl
9451	1dbd	8fc2ffec		lw	%GPR2,-20(%GPR30)	
9452	1dbe	00000000		nop	; Automatically Added by addNops.pl
9453	1dbf	00000000		nop	; Automatically Added by addNops.pl
9454	1dc0	00000000		nop	; Automatically Added by addNops.pl
9455	1dc1	00000000		nop	; Automatically added by fix-stall-insns.pl
9456	1dc2	8fc1fffc		lw	%GPR1,-4(%GPR30)	
9457	1dc3	00000000		nop	; Automatically Added by addNops.pl
9458	1dc4	00000000		nop	; Automatically Added by addNops.pl
9459	1dc5	00000000		nop	; Automatically Added by addNops.pl
9460				; Automatically 16 NOPs removed by reduceNOPs.sh
9461	1dc6	00220820		add	%GPR1,%GPR1,%GPR2	
9462	1dc7	00000000		nop	; Automatically Added by addNops.pl
9463	1dc8	00000000		nop	; Automatically Added by addNops.pl
9464	1dc9	00000000		nop	; Automatically Added by addNops.pl
9465	1dca	8fc2fff4		lw	%GPR2,-12(%GPR30)	
9466	1dcb	00000000		nop	; Automatically Added by addNops.pl
9467	1dcc	00000000		nop	; Automatically Added by addNops.pl
9468	1dcd	00000000		nop	; Automatically Added by addNops.pl
9469				; Automatically 16 NOPs removed by reduceNOPs.sh
9470	1dce	2bbd0008		subi	%GPR29,%GPR29,$8	
9471	1dcf	00000000		nop	; Automatically Added by addNops.pl
9472	1dd0	00000000		nop	; Automatically Added by addNops.pl
9473	1dd1	00000000		nop	; Automatically Added by addNops.pl
9474				; Automatically 16 NOPs removed by reduceNOPs.sh
9475	1dd2	0c000bc1		jal	storeByte	
9476	1dd3	00000000		nop	; Automatically Added by addNops.pl
9477	1dd4	00000000		nop	; Automatically Added by addNops.pl
9478	1dd5	00000000		nop	; Automatically Added by addNops.pl
9479				; Automatically 16 NOPs removed by reduceNOPs.sh
9480	1dd6	23bd0008		addi	%GPR29,%GPR29,$8	
9481	1dd7	00000000		nop	; Automatically Added by addNops.pl
9482	1dd8	00000000		nop	; Automatically Added by addNops.pl
9483	1dd9	00000000		nop	; Automatically Added by addNops.pl
9484				; Automatically 16 NOPs removed by reduceNOPs.sh
9485	1dda	8fc1ffe8		lw	%GPR1,-24(%GPR30)	
9486	1ddb	00000000		nop	; Automatically Added by addNops.pl
9487	1ddc	00000000		nop	; Automatically Added by addNops.pl
9488	1ddd	00000000		nop	; Automatically Added by addNops.pl
9489	1dde	00000000		nop	; Automatically added by fix-stall-insns.pl
9490	1ddf	8fc2fff4		lw	%GPR2,-12(%GPR30)	
9491	1de0	00000000		nop	; Automatically Added by addNops.pl
9492	1de1	00000000		nop	; Automatically Added by addNops.pl
9493	1de2	00000000		nop	; Automatically Added by addNops.pl
9494				; Automatically 16 NOPs removed by reduceNOPs.sh
9495	1de3	00220820		add	%GPR1,%GPR1,%GPR2	
9496	1de4	00000000		nop	; Automatically Added by addNops.pl
9497	1de5	00000000		nop	; Automatically Added by addNops.pl
9498	1de6	00000000		nop	; Automatically Added by addNops.pl
9499				; Automatically 16 NOPs removed by reduceNOPs.sh
9500	1de7	afc1ffe8		sw	-24(%GPR30),%GPR1	
9501	1de8	00000000		nop	; Automatically Added by addNops.pl
9502	1de9	00000000		nop	; Automatically Added by addNops.pl
9503	1dea	00000000		nop	; Automatically Added by addNops.pl
9504	1deb	00000000		nop	; Automatically added by fix-stall-insns.pl
9505	1dec	8fc1ffec		lw	%GPR1,-20(%GPR30)	
9506	1ded	00000000		nop	; Automatically Added by addNops.pl
9507	1dee	00000000		nop	; Automatically Added by addNops.pl
9508	1def	00000000		nop	; Automatically Added by addNops.pl
9509				; Automatically 16 NOPs removed by reduceNOPs.sh
9510	1df0	20210001		addi	%GPR1,%GPR1,$1	
9511	1df1	00000000		nop	; Automatically Added by addNops.pl
9512	1df2	00000000		nop	; Automatically Added by addNops.pl
9513	1df3	00000000		nop	; Automatically Added by addNops.pl
9514				; Automatically 16 NOPs removed by reduceNOPs.sh
9515	1df4	afc1ffec		sw	-20(%GPR30),%GPR1	
9516	1df5	00000000		nop	; Automatically Added by addNops.pl
9517	1df6	00000000		nop	; Automatically Added by addNops.pl
9518	1df7	00000000		nop	; Automatically Added by addNops.pl
9519	1df8	0bffff9e		j	L_lib_lcd_23	
9520	1df9	00000000		nop	; Automatically Added by addNops.pl
9521	1dfa	00000000		nop	; Automatically Added by addNops.pl
9522	1dfb	00000000		nop	; Automatically Added by addNops.pl
9523				; Automatically 12 NOPs removed by reduceNOPs.sh
9524			L_lib_lcd_25:
9525			
9526			
9527			
9528	1dfc	00000000		nop	; Automatically Added by addNops.pl
9529	1dfd	00000000		nop	; Automatically Added by addNops.pl
9530	1dfe	00000000		nop	; Automatically Added by addNops.pl
9531				; Automatically 12 NOPs removed by reduceNOPs.sh
9532	1dff	0020000b		getc	%GPR1
9533	1e00	00000000		nop	; Automatically Added by addNops.pl
9534	1e01	00000000		nop	; Automatically Added by addNops.pl
9535	1e02	00000000		nop	; Automatically Added by addNops.pl
9536				; Automatically 9 NOPs removed by reduceNOPs.sh
9537			
9538	1e03	00000000		nop	; Automatically Added by addNops.pl
9539	1e04	00000000		nop	; Automatically Added by addNops.pl
9540	1e05	00000000		nop	; Automatically Added by addNops.pl
9541	1e06	8fc2ffe8		lw	%GPR2,-24(%GPR30)	
9542	1e07	00000000		nop	; Automatically Added by addNops.pl
9543	1e08	00000000		nop	; Automatically Added by addNops.pl
9544	1e09	00000000		nop	; Automatically Added by addNops.pl
9545				; Automatically 16 NOPs removed by reduceNOPs.sh
9546	1e0a	304200ff		andi	%GPR2,%GPR2,$255	
9547	1e0b	00000000		nop	; Automatically Added by addNops.pl
9548	1e0c	00000000		nop	; Automatically Added by addNops.pl
9549	1e0d	00000000		nop	; Automatically Added by addNops.pl
9550				; Automatically 16 NOPs removed by reduceNOPs.sh
9551	1e0e	afc2ffe8		sw	-24(%GPR30),%GPR2	
9552	1e0f	00000000		nop	; Automatically Added by addNops.pl
9553	1e10	00000000		nop	; Automatically Added by addNops.pl
9554	1e11	00000000		nop	; Automatically Added by addNops.pl
9555	1e12	0041d82f		sne	%GPR27,%GPR2,%GPR1	
9556	1e13	00000000		nop	; Automatically Added by addNops.pl
9557	1e14	00000000		nop	; Automatically Added by addNops.pl
9558	1e15	00000000		nop	; Automatically Added by addNops.pl
9559	1e16	17600008		bnez	%GPR27,L_lib_lcd_26	
9560	1e17	00000000		nop	; Automatically Added by addNops.pl
9561	1e18	00000000		nop	; Automatically Added by addNops.pl
9562	1e19	00000000		nop	; Automatically Added by addNops.pl
9563				; Automatically 16 NOPs removed by reduceNOPs.sh
9564	1e1a	0800008c		j	L_lib_lcd_27	
9565	1e1b	00000000		nop	; Automatically Added by addNops.pl
9566	1e1c	00000000		nop	; Automatically Added by addNops.pl
9567	1e1d	00000000		nop	; Automatically Added by addNops.pl
9568				; Automatically 16 NOPs removed by reduceNOPs.sh
9569			L_lib_lcd_26:
9570	1e1e	00000000		nop	; Automatically Added by addNops.pl
9571	1e1f	00000000		nop	; Automatically Added by addNops.pl
9572	1e20	00000000		nop	; Automatically Added by addNops.pl
9573				; Automatically 16 NOPs removed by reduceNOPs.sh
9574	1e21	3c010000		lhi	%GPR1,$0	
9575	1e22	00000000		nop	; Automatically Added by addNops.pl
9576	1e23	00000000		nop	; Automatically Added by addNops.pl
9577	1e24	00000000		nop	; Automatically Added by addNops.pl
9578				; Automatically 16 NOPs removed by reduceNOPs.sh
9579	1e25	34210004		ori	%GPR1,%GPR1,$4	
9580			
9581			
9582			
9583	1e26	00000000		nop	; Automatically Added by addNops.pl
9584	1e27	00000000		nop	; Automatically Added by addNops.pl
9585	1e28	00000000		nop	; Automatically Added by addNops.pl
9586				; Automatically 12 NOPs removed by reduceNOPs.sh
9587	1e29	0020000a		putc	%GPR1
9588	1e2a	00000000		nop	; Automatically Added by addNops.pl
9589	1e2b	00000000		nop	; Automatically Added by addNops.pl
9590	1e2c	00000000		nop	; Automatically Added by addNops.pl
9591				; Automatically 9 NOPs removed by reduceNOPs.sh
9592			
9593	1e2d	00000000		nop	; Automatically Added by addNops.pl
9594	1e2e	00000000		nop	; Automatically Added by addNops.pl
9595	1e2f	00000000		nop	; Automatically Added by addNops.pl
9596	1e30	8fc1fff0		lw	%GPR1,-16(%GPR30)	
9597			
9598			
9599			
9600	1e31	00000000		nop	; Automatically Added by addNops.pl
9601	1e32	00000000		nop	; Automatically Added by addNops.pl
9602	1e33	00000000		nop	; Automatically Added by addNops.pl
9603				; Automatically 12 NOPs removed by reduceNOPs.sh
9604	1e34	00000000		nop	; Automatically added by fix-stall-insns.pl
9605	1e35	0020000a		putc	%GPR1
9606	1e36	00000000		nop	; Automatically Added by addNops.pl
9607	1e37	00000000		nop	; Automatically Added by addNops.pl
9608	1e38	00000000		nop	; Automatically Added by addNops.pl
9609				; Automatically 9 NOPs removed by reduceNOPs.sh
9610			
9611	1e39	00000000		nop	; Automatically Added by addNops.pl
9612	1e3a	00000000		nop	; Automatically Added by addNops.pl
9613	1e3b	00000000		nop	; Automatically Added by addNops.pl
9614				; Automatically 20 NOPs removed by reduceNOPs.sh
9615	1e3c	3c010000		lhi	%GPR1,$0	
9616	1e3d	00000000		nop	; Automatically Added by addNops.pl
9617	1e3e	00000000		nop	; Automatically Added by addNops.pl
9618	1e3f	00000000		nop	; Automatically Added by addNops.pl
9619				; Automatically 16 NOPs removed by reduceNOPs.sh
9620	1e40	34210012		ori	%GPR1,%GPR1,$18	
9621			
9622			
9623			
9624	1e41	00000000		nop	; Automatically Added by addNops.pl
9625	1e42	00000000		nop	; Automatically Added by addNops.pl
9626	1e43	00000000		nop	; Automatically Added by addNops.pl
9627				; Automatically 12 NOPs removed by reduceNOPs.sh
9628	1e44	0020000a		putc	%GPR1
9629	1e45	00000000		nop	; Automatically Added by addNops.pl
9630	1e46	00000000		nop	; Automatically Added by addNops.pl
9631	1e47	00000000		nop	; Automatically Added by addNops.pl
9632				; Automatically 9 NOPs removed by reduceNOPs.sh
9633			
9634	1e48	00000000		nop	; Automatically Added by addNops.pl
9635	1e49	00000000		nop	; Automatically Added by addNops.pl
9636	1e4a	00000000		nop	; Automatically Added by addNops.pl
9637				; Automatically 20 NOPs removed by reduceNOPs.sh
9638	1e4b	3c010000		lhi	%GPR1,$0	
9639	1e4c	00000000		nop	; Automatically Added by addNops.pl
9640	1e4d	00000000		nop	; Automatically Added by addNops.pl
9641	1e4e	00000000		nop	; Automatically Added by addNops.pl
9642				; Automatically 16 NOPs removed by reduceNOPs.sh
9643	1e4f	34210001		ori	%GPR1,%GPR1,$1	
9644	1e50	00000000		nop	; Automatically Added by addNops.pl
9645	1e51	00000000		nop	; Automatically Added by addNops.pl
9646	1e52	00000000		nop	; Automatically Added by addNops.pl
9647				; Automatically 16 NOPs removed by reduceNOPs.sh
9648	1e53	afc1fff4		sw	-12(%GPR30),%GPR1	
9649	1e54	00000000		nop	; Automatically Added by addNops.pl
9650	1e55	00000000		nop	; Automatically Added by addNops.pl
9651	1e56	00000000		nop	; Automatically Added by addNops.pl
9652	1e57	3c010000		lhi	%GPR1,$0	
9653	1e58	00000000		nop	; Automatically Added by addNops.pl
9654	1e59	00000000		nop	; Automatically Added by addNops.pl
9655	1e5a	00000000		nop	; Automatically Added by addNops.pl
9656				; Automatically 16 NOPs removed by reduceNOPs.sh
9657	1e5b	34210012		ori	%GPR1,%GPR1,$18	
9658	1e5c	00000000		nop	; Automatically Added by addNops.pl
9659	1e5d	00000000		nop	; Automatically Added by addNops.pl
9660	1e5e	00000000		nop	; Automatically Added by addNops.pl
9661				; Automatically 16 NOPs removed by reduceNOPs.sh
9662	1e5f	afc1ffe8		sw	-24(%GPR30),%GPR1	
9663	1e60	00000000		nop	; Automatically Added by addNops.pl
9664	1e61	00000000		nop	; Automatically Added by addNops.pl
9665	1e62	00000000		nop	; Automatically Added by addNops.pl
9666	1e63	00000000		nop	; Automatically added by fix-stall-insns.pl
9667	1e64	8fc1fff4		lw	%GPR1,-12(%GPR30)	
9668	1e65	00000000		nop	; Automatically Added by addNops.pl
9669	1e66	00000000		nop	; Automatically Added by addNops.pl
9670	1e67	00000000		nop	; Automatically Added by addNops.pl
9671				; Automatically 16 NOPs removed by reduceNOPs.sh
9672	1e68	00201020		add	%GPR2,%GPR1,%GPR0	
9673			
9674			
9675			
9676	1e69	00000000		nop	; Automatically Added by addNops.pl
9677	1e6a	00000000		nop	; Automatically Added by addNops.pl
9678	1e6b	00000000		nop	; Automatically Added by addNops.pl
9679				; Automatically 12 NOPs removed by reduceNOPs.sh
9680	1e6c	0020000a		putc	%GPR1
9681	1e6d	00000000		nop	; Automatically Added by addNops.pl
9682	1e6e	00000000		nop	; Automatically Added by addNops.pl
9683	1e6f	00000000		nop	; Automatically Added by addNops.pl
9684				; Automatically 9 NOPs removed by reduceNOPs.sh
9685			
9686	1e70	00000000		nop	; Automatically Added by addNops.pl
9687	1e71	00000000		nop	; Automatically Added by addNops.pl
9688	1e72	00000000		nop	; Automatically Added by addNops.pl
9689	1e73	8fc1ffe8		lw	%GPR1,-24(%GPR30)	
9690	1e74	00000000		nop	; Automatically Added by addNops.pl
9691	1e75	00000000		nop	; Automatically Added by addNops.pl
9692	1e76	00000000		nop	; Automatically Added by addNops.pl
9693				; Automatically 16 NOPs removed by reduceNOPs.sh
9694	1e77	00220820		add	%GPR1,%GPR1,%GPR2	
9695	1e78	00000000		nop	; Automatically Added by addNops.pl
9696	1e79	00000000		nop	; Automatically Added by addNops.pl
9697	1e7a	00000000		nop	; Automatically Added by addNops.pl
9698				; Automatically 16 NOPs removed by reduceNOPs.sh
9699	1e7b	afc1ffe8		sw	-24(%GPR30),%GPR1	
9700	1e7c	00000000		nop	; Automatically Added by addNops.pl
9701	1e7d	00000000		nop	; Automatically Added by addNops.pl
9702	1e7e	00000000		nop	; Automatically Added by addNops.pl
9703	1e7f	3c010000		lhi	%GPR1,$0	
9704	1e80	00000000		nop	; Automatically Added by addNops.pl
9705	1e81	00000000		nop	; Automatically Added by addNops.pl
9706	1e82	00000000		nop	; Automatically Added by addNops.pl
9707				; Automatically 16 NOPs removed by reduceNOPs.sh
9708	1e83	34210052		ori	%GPR1,%GPR1,$82	
9709	1e84	00000000		nop	; Automatically Added by addNops.pl
9710	1e85	00000000		nop	; Automatically Added by addNops.pl
9711	1e86	00000000		nop	; Automatically Added by addNops.pl
9712				; Automatically 16 NOPs removed by reduceNOPs.sh
9713	1e87	00201020		add	%GPR2,%GPR1,%GPR0	
9714			
9715			
9716			
9717	1e88	00000000		nop	; Automatically Added by addNops.pl
9718	1e89	00000000		nop	; Automatically Added by addNops.pl
9719	1e8a	00000000		nop	; Automatically Added by addNops.pl
9720				; Automatically 12 NOPs removed by reduceNOPs.sh
9721	1e8b	0020000a		putc	%GPR1
9722	1e8c	00000000		nop	; Automatically Added by addNops.pl
9723	1e8d	00000000		nop	; Automatically Added by addNops.pl
9724	1e8e	00000000		nop	; Automatically Added by addNops.pl
9725				; Automatically 9 NOPs removed by reduceNOPs.sh
9726			
9727	1e8f	00000000		nop	; Automatically Added by addNops.pl
9728	1e90	00000000		nop	; Automatically Added by addNops.pl
9729	1e91	00000000		nop	; Automatically Added by addNops.pl
9730	1e92	8fc1ffe8		lw	%GPR1,-24(%GPR30)	
9731	1e93	00000000		nop	; Automatically Added by addNops.pl
9732	1e94	00000000		nop	; Automatically Added by addNops.pl
9733	1e95	00000000		nop	; Automatically Added by addNops.pl
9734				; Automatically 16 NOPs removed by reduceNOPs.sh
9735	1e96	00220820		add	%GPR1,%GPR1,%GPR2	
9736	1e97	00000000		nop	; Automatically Added by addNops.pl
9737	1e98	00000000		nop	; Automatically Added by addNops.pl
9738	1e99	00000000		nop	; Automatically Added by addNops.pl
9739				; Automatically 16 NOPs removed by reduceNOPs.sh
9740	1e9a	afc1ffe8		sw	-24(%GPR30),%GPR1	
9741			
9742			
9743			
9744	1e9b	00000000		nop	; Automatically Added by addNops.pl
9745	1e9c	00000000		nop	; Automatically Added by addNops.pl
9746	1e9d	00000000		nop	; Automatically Added by addNops.pl
9747				; Automatically 12 NOPs removed by reduceNOPs.sh
9748	1e9e	00000000		nop	; Automatically added by fix-stall-insns.pl
9749	1e9f	0020000a		putc	%GPR1
9750	1ea0	00000000		nop	; Automatically Added by addNops.pl
9751	1ea1	00000000		nop	; Automatically Added by addNops.pl
9752	1ea2	00000000		nop	; Automatically Added by addNops.pl
9753				; Automatically 9 NOPs removed by reduceNOPs.sh
9754			
9755	1ea3	00000000		nop	; Automatically Added by addNops.pl
9756	1ea4	00000000		nop	; Automatically Added by addNops.pl
9757	1ea5	00000000		nop	; Automatically Added by addNops.pl
9758				; Automatically 12 NOPs removed by reduceNOPs.sh
9759			L_lib_lcd_27:
9760	1ea6	00000000		nop	; Automatically Added by addNops.pl
9761	1ea7	00000000		nop	; Automatically Added by addNops.pl
9762	1ea8	00000000		nop	; Automatically Added by addNops.pl
9763	1ea9	8fc2ffe8		lw	%GPR2,-24(%GPR30)	
9764	1eaa	00000000		nop	; Automatically Added by addNops.pl
9765	1eab	00000000		nop	; Automatically Added by addNops.pl
9766	1eac	00000000		nop	; Automatically Added by addNops.pl
9767				; Automatically 12 NOPs removed by reduceNOPs.sh
9768	1ead	3c01ffff		lhi	%GPR1,$65535	
9769	1eae	00000000		nop	; Automatically Added by addNops.pl
9770	1eaf	00000000		nop	; Automatically Added by addNops.pl
9771	1eb0	00000000		nop	; Automatically Added by addNops.pl
9772				; Automatically 16 NOPs removed by reduceNOPs.sh
9773	1eb1	3421ffff		ori	%GPR1,%GPR1,$-1	
9774	1eb2	00000000		nop	; Automatically Added by addNops.pl
9775	1eb3	00000000		nop	; Automatically Added by addNops.pl
9776	1eb4	00000000		nop	; Automatically Added by addNops.pl
9777				; Automatically 16 NOPs removed by reduceNOPs.sh
9778	1eb5	0041d82e		seq	%GPR27,%GPR2,%GPR1	
9779	1eb6	00000000		nop	; Automatically Added by addNops.pl
9780	1eb7	00000000		nop	; Automatically Added by addNops.pl
9781	1eb8	00000000		nop	; Automatically Added by addNops.pl
9782	1eb9	1760fe8c		bnez	%GPR27,L_lib_lcd_22	
9783	1eba	00000000		nop	; Automatically Added by addNops.pl
9784	1ebb	00000000		nop	; Automatically Added by addNops.pl
9785	1ebc	00000000		nop	; Automatically Added by addNops.pl
9786				; Automatically 16 NOPs removed by reduceNOPs.sh
9787	1ebd	08000004		j	L_lib_lcd_28	
9788	1ebe	00000000		nop	; Automatically Added by addNops.pl
9789	1ebf	00000000		nop	; Automatically Added by addNops.pl
9790	1ec0	00000000		nop	; Automatically Added by addNops.pl
9791				; Automatically 16 NOPs removed by reduceNOPs.sh
9792			L_lib_lcd_28:
9793	1ec1	00000000		nop	; Automatically Added by addNops.pl
9794	1ec2	00000000		nop	; Automatically Added by addNops.pl
9795	1ec3	00000000		nop	; Automatically Added by addNops.pl
9796	1ec4	8fdcffec		lw	%GPR28,-20(%GPR30)	
9797	1ec5	00000000		nop	; Automatically Added by addNops.pl
9798	1ec6	00000000		nop	; Automatically Added by addNops.pl
9799	1ec7	00000000		nop	; Automatically Added by addNops.pl
9800				; Automatically 16 NOPs removed by reduceNOPs.sh
9801	1ec8	08000004		j	L_lib_lcd_29	
9802	1ec9	00000000		nop	; Automatically Added by addNops.pl
9803	1eca	00000000		nop	; Automatically Added by addNops.pl
9804	1ecb	00000000		nop	; Automatically Added by addNops.pl
9805				; Automatically 16 NOPs removed by reduceNOPs.sh
9806			L_lib_lcd_29:
9807	1ecc	00000000		nop	; Automatically Added by addNops.pl
9808	1ecd	00000000		nop	; Automatically Added by addNops.pl
9809	1ece	00000000		nop	; Automatically Added by addNops.pl
9810				; Automatically 16 NOPs removed by reduceNOPs.sh
9811	1ecf	8fdf0004		lw	%GPR31,4(%GPR30)	
9812	1ed0	00000000		nop	; Automatically Added by addNops.pl
9813	1ed1	00000000		nop	; Automatically Added by addNops.pl
9814	1ed2	00000000		nop	; Automatically Added by addNops.pl
9815	1ed3	27dd0004		addui	%GPR29,%GPR30,$4	
9816	1ed4	00000000		nop	; Automatically Added by addNops.pl
9817	1ed5	00000000		nop	; Automatically Added by addNops.pl
9818	1ed6	00000000		nop	; Automatically Added by addNops.pl
9819	1ed7	8fde0000		lw	%GPR30,0(%GPR30)	
9820	1ed8	00000000		nop	; Automatically Added by addNops.pl
9821	1ed9	00000000		nop	; Automatically Added by addNops.pl
9822	1eda	00000000		nop	; Automatically Added by addNops.pl
9823				; Automatically 8 NOPs removed by reduceNOPs.sh
9824	1edb	00000000		nop
9825	1edc	00000000		nop
9826	1edd	03e00008		jr	%GPR31	
9827	1ede	00000000		nop	; Automatically Added by addNops.pl
9828	1edf	00000000		nop	; Automatically Added by addNops.pl
9829	1ee0	00000000		nop	; Automatically Added by addNops.pl
9830				; Automatically 16 NOPs removed by reduceNOPs.sh
9831			sendcommand:
9832			L_lib_lcd_30:
9833	1ee1	00000000		nop	; Automatically Added by addNops.pl
9834	1ee2	00000000		nop	; Automatically Added by addNops.pl
9835	1ee3	00000000		nop	; Automatically Added by addNops.pl
9836				; Automatically 16 NOPs removed by reduceNOPs.sh
9837	1ee4	afbefffc		sw	-4(%GPR29),%GPR30	
9838	1ee5	00000000		nop	; Automatically Added by addNops.pl
9839	1ee6	00000000		nop	; Automatically Added by addNops.pl
9840	1ee7	00000000		nop	; Automatically Added by addNops.pl
9841	1ee8	00000000		nop	; Automatically added by fix-stall-insns.pl
9842	1ee9	afbf0000		sw	0(%GPR29),%GPR31	
9843	1eea	00000000		nop	; Automatically Added by addNops.pl
9844	1eeb	00000000		nop	; Automatically Added by addNops.pl
9845	1eec	00000000		nop	; Automatically Added by addNops.pl
9846	1eed	2fbe0004		subui	%GPR30,%GPR29,$4	
9847	1eee	00000000		nop	; Automatically Added by addNops.pl
9848	1eef	00000000		nop	; Automatically Added by addNops.pl
9849	1ef0	00000000		nop	; Automatically Added by addNops.pl
9850				; Automatically 4 NOPs removed by reduceNOPs.sh
9851	1ef1	2bbd0030		subi	%GPR29,%GPR29,$48	
9852	1ef2	00000000		nop	; Automatically Added by addNops.pl
9853	1ef3	00000000		nop	; Automatically Added by addNops.pl
9854	1ef4	00000000		nop	; Automatically Added by addNops.pl
9855				; Automatically 16 NOPs removed by reduceNOPs.sh
9856	1ef5	afc1fffc		sw	-4(%GPR30),%GPR1	
9857	1ef6	00000000		nop	; Automatically Added by addNops.pl
9858	1ef7	00000000		nop	; Automatically Added by addNops.pl
9859	1ef8	00000000		nop	; Automatically Added by addNops.pl
9860	1ef9	00000000		nop	; Automatically added by fix-stall-insns.pl
9861	1efa	afc2fff8		sw	-8(%GPR30),%GPR2	
9862	1efb	00000000		nop	; Automatically Added by addNops.pl
9863	1efc	00000000		nop	; Automatically Added by addNops.pl
9864	1efd	00000000		nop	; Automatically Added by addNops.pl
9865	1efe	00000000		nop	; Automatically added by fix-stall-insns.pl
9866	1eff	afc5fff4		sw	-12(%GPR30),%GPR5	
9867	1f00	00000000		nop	; Automatically Added by addNops.pl
9868	1f01	00000000		nop	; Automatically Added by addNops.pl
9869	1f02	00000000		nop	; Automatically Added by addNops.pl
9870	1f03	00000000		nop	; Automatically added by fix-stall-insns.pl
9871	1f04	afc6fff0		sw	-16(%GPR30),%GPR6	
9872	1f05	00000000		nop	; Automatically Added by addNops.pl
9873	1f06	00000000		nop	; Automatically Added by addNops.pl
9874	1f07	00000000		nop	; Automatically Added by addNops.pl
9875	1f08	00e00820		add	%GPR1,%GPR7,%GPR0	
9876	1f09	00000000		nop	; Automatically Added by addNops.pl
9877	1f0a	00000000		nop	; Automatically Added by addNops.pl
9878	1f0b	00000000		nop	; Automatically Added by addNops.pl
9879				; Automatically 12 NOPs removed by reduceNOPs.sh
9880	1f0c	40210001		slli	%GPR1,%GPR1,$1	
9881	1f0d	00000000		nop	; Automatically Added by addNops.pl
9882	1f0e	00000000		nop	; Automatically Added by addNops.pl
9883	1f0f	00000000		nop	; Automatically Added by addNops.pl
9884				; Automatically 8 NOPs removed by reduceNOPs.sh
9885	1f10	afc3ffec		sw	-20(%GPR30),%GPR3	
9886	1f11	00000000		nop	; Automatically Added by addNops.pl
9887	1f12	00000000		nop	; Automatically Added by addNops.pl
9888	1f13	00000000		nop	; Automatically Added by addNops.pl
9889	1f14	00000000		nop	; Automatically added by fix-stall-insns.pl
9890	1f15	afc4ffe8		sw	-24(%GPR30),%GPR4	
9891	1f16	00000000		nop	; Automatically Added by addNops.pl
9892	1f17	00000000		nop	; Automatically Added by addNops.pl
9893	1f18	00000000		nop	; Automatically Added by addNops.pl
9894	1f19	00000000		nop	; Automatically added by fix-stall-insns.pl
9895	1f1a	afc1ffe4		sw	-28(%GPR30),%GPR1	
9896	1f1b	00000000		nop	; Automatically Added by addNops.pl
9897	1f1c	00000000		nop	; Automatically Added by addNops.pl
9898	1f1d	00000000		nop	; Automatically Added by addNops.pl
9899	1f1e	3c010000		lhi	%GPR1,$0	
9900	1f1f	00000000		nop	; Automatically Added by addNops.pl
9901	1f20	00000000		nop	; Automatically Added by addNops.pl
9902	1f21	00000000		nop	; Automatically Added by addNops.pl
9903				; Automatically 16 NOPs removed by reduceNOPs.sh
9904	1f22	34210003		ori	%GPR1,%GPR1,$3	
9905	1f23	00000000		nop	; Automatically Added by addNops.pl
9906	1f24	00000000		nop	; Automatically Added by addNops.pl
9907	1f25	00000000		nop	; Automatically Added by addNops.pl
9908				; Automatically 16 NOPs removed by reduceNOPs.sh
9909	1f26	afc1ffe0		sw	-32(%GPR30),%GPR1	
9910	1f27	00000000		nop	; Automatically Added by addNops.pl
9911	1f28	00000000		nop	; Automatically Added by addNops.pl
9912	1f29	00000000		nop	; Automatically Added by addNops.pl
9913				; Automatically 12 NOPs removed by reduceNOPs.sh
9914			L_lib_lcd_31:
9915	1f2a	00000000		nop	; Automatically Added by addNops.pl
9916	1f2b	00000000		nop	; Automatically Added by addNops.pl
9917	1f2c	00000000		nop	; Automatically Added by addNops.pl
9918	1f2d	8fc2fff0		lw	%GPR2,-16(%GPR30)	
9919	1f2e	00000000		nop	; Automatically Added by addNops.pl
9920	1f2f	00000000		nop	; Automatically Added by addNops.pl
9921	1f30	00000000		nop	; Automatically Added by addNops.pl
9922	1f31	00000000		nop	; Automatically added by fix-stall-insns.pl
9923	1f32	8fc1fff4		lw	%GPR1,-12(%GPR30)	
9924	1f33	00000000		nop	; Automatically Added by addNops.pl
9925	1f34	00000000		nop	; Automatically Added by addNops.pl
9926	1f35	00000000		nop	; Automatically Added by addNops.pl
9927				; Automatically 12 NOPs removed by reduceNOPs.sh
9928	1f36	00401820		add	%GPR3,%GPR2,%GPR0	
9929	1f37	00000000		nop	; Automatically Added by addNops.pl
9930	1f38	00000000		nop	; Automatically Added by addNops.pl
9931	1f39	00000000		nop	; Automatically Added by addNops.pl
9932	1f3a	afc2ffdc		sw	-36(%GPR30),%GPR2	
9933	1f3b	00000000		nop	; Automatically Added by addNops.pl
9934	1f3c	00000000		nop	; Automatically Added by addNops.pl
9935	1f3d	00000000		nop	; Automatically Added by addNops.pl
9936	1f3e	00000000		nop	; Automatically added by fix-stall-insns.pl
9937	1f3f	8fc2fff4		lw	%GPR2,-12(%GPR30)	
9938	1f40	00000000		nop	; Automatically Added by addNops.pl
9939	1f41	00000000		nop	; Automatically Added by addNops.pl
9940	1f42	00000000		nop	; Automatically Added by addNops.pl
9941				; Automatically 16 NOPs removed by reduceNOPs.sh
9942	1f43	00431020		add	%GPR2,%GPR2,%GPR3	
9943	1f44	00000000		nop	; Automatically Added by addNops.pl
9944	1f45	00000000		nop	; Automatically Added by addNops.pl
9945	1f46	00000000		nop	; Automatically Added by addNops.pl
9946	1f47	8fc3ffe0		lw	%GPR3,-32(%GPR30)	
9947	1f48	00000000		nop	; Automatically Added by addNops.pl
9948	1f49	00000000		nop	; Automatically Added by addNops.pl
9949	1f4a	00000000		nop	; Automatically Added by addNops.pl
9950				; Automatically 16 NOPs removed by reduceNOPs.sh
9951	1f4b	00431020		add	%GPR2,%GPR2,%GPR3	
9952	1f4c	00000000		nop	; Automatically Added by addNops.pl
9953	1f4d	00000000		nop	; Automatically Added by addNops.pl
9954	1f4e	00000000		nop	; Automatically Added by addNops.pl
9955				; Automatically 16 NOPs removed by reduceNOPs.sh
9956	1f4f	20420003		addi	%GPR2,%GPR2,$3	
9957	1f50	00000000		nop	; Automatically Added by addNops.pl
9958	1f51	00000000		nop	; Automatically Added by addNops.pl
9959	1f52	00000000		nop	; Automatically Added by addNops.pl
9960				; Automatically 17 NOPs removed by reduceNOPs.sh
9961			
9962			
9963			
9964	1f53	00000000		nop	; Automatically Added by addNops.pl
9965	1f54	00000000		nop	; Automatically Added by addNops.pl
9966	1f55	00000000		nop	; Automatically Added by addNops.pl
9967				; Automatically 12 NOPs removed by reduceNOPs.sh
9968	1f56	0040000a		putc	%GPR2
9969	1f57	00000000		nop	; Automatically Added by addNops.pl
9970	1f58	00000000		nop	; Automatically Added by addNops.pl
9971	1f59	00000000		nop	; Automatically Added by addNops.pl
9972				; Automatically 9 NOPs removed by reduceNOPs.sh
9973			
9974	1f5a	00000000		nop	; Automatically Added by addNops.pl
9975	1f5b	00000000		nop	; Automatically Added by addNops.pl
9976	1f5c	00000000		nop	; Automatically Added by addNops.pl
9977	1f5d	8fc2ffe4		lw	%GPR2,-28(%GPR30)	
9978	1f5e	00000000		nop	; Automatically Added by addNops.pl
9979	1f5f	00000000		nop	; Automatically Added by addNops.pl
9980	1f60	00000000		nop	; Automatically Added by addNops.pl
9981				; Automatically 17 NOPs removed by reduceNOPs.sh
9982			
9983			
9984			
9985	1f61	00000000		nop	; Automatically Added by addNops.pl
9986	1f62	00000000		nop	; Automatically Added by addNops.pl
9987	1f63	00000000		nop	; Automatically Added by addNops.pl
9988				; Automatically 12 NOPs removed by reduceNOPs.sh
9989	1f64	0040000a		putc	%GPR2
9990	1f65	00000000		nop	; Automatically Added by addNops.pl
9991	1f66	00000000		nop	; Automatically Added by addNops.pl
9992	1f67	00000000		nop	; Automatically Added by addNops.pl
9993				; Automatically 9 NOPs removed by reduceNOPs.sh
9994			
9995	1f68	00000000		nop	; Automatically Added by addNops.pl
9996	1f69	00000000		nop	; Automatically Added by addNops.pl
9997	1f6a	00000000		nop	; Automatically Added by addNops.pl
9998				; Automatically 20 NOPs removed by reduceNOPs.sh
9999	1f6b	3c020000		lhi	%GPR2,$0	
10000	1f6c	00000000		nop	; Automatically Added by addNops.pl
10001	1f6d	00000000		nop	; Automatically Added by addNops.pl
10002	1f6e	00000000		nop	; Automatically Added by addNops.pl
10003				; Automatically 16 NOPs removed by reduceNOPs.sh
10004	1f6f	34420011		ori	%GPR2,%GPR2,$17	
10005	1f70	00000000		nop	; Automatically Added by addNops.pl
10006	1f71	00000000		nop	; Automatically Added by addNops.pl
10007	1f72	00000000		nop	; Automatically Added by addNops.pl
10008				; Automatically 17 NOPs removed by reduceNOPs.sh
10009			
10010			
10011			
10012	1f73	00000000		nop	; Automatically Added by addNops.pl
10013	1f74	00000000		nop	; Automatically Added by addNops.pl
10014	1f75	00000000		nop	; Automatically Added by addNops.pl
10015				; Automatically 12 NOPs removed by reduceNOPs.sh
10016	1f76	0040000a		putc	%GPR2
10017	1f77	00000000		nop	; Automatically Added by addNops.pl
10018	1f78	00000000		nop	; Automatically Added by addNops.pl
10019	1f79	00000000		nop	; Automatically Added by addNops.pl
10020				; Automatically 9 NOPs removed by reduceNOPs.sh
10021			
10022	1f7a	00000000		nop	; Automatically Added by addNops.pl
10023	1f7b	00000000		nop	; Automatically Added by addNops.pl
10024	1f7c	00000000		nop	; Automatically Added by addNops.pl
10025	1f7d	8fc3fff0		lw	%GPR3,-16(%GPR30)	
10026	1f7e	00000000		nop	; Automatically Added by addNops.pl
10027	1f7f	00000000		nop	; Automatically Added by addNops.pl
10028	1f80	00000000		nop	; Automatically Added by addNops.pl
10029	1f81	00000000		nop	; Automatically added by fix-stall-insns.pl
10030	1f82	8fc2fff4		lw	%GPR2,-12(%GPR30)	
10031	1f83	00000000		nop	; Automatically Added by addNops.pl
10032	1f84	00000000		nop	; Automatically Added by addNops.pl
10033	1f85	00000000		nop	; Automatically Added by addNops.pl
10034				; Automatically 16 NOPs removed by reduceNOPs.sh
10035	1f86	00431020		add	%GPR2,%GPR2,%GPR3	
10036	1f87	00000000		nop	; Automatically Added by addNops.pl
10037	1f88	00000000		nop	; Automatically Added by addNops.pl
10038	1f89	00000000		nop	; Automatically Added by addNops.pl
10039	1f8a	8fc3ffe0		lw	%GPR3,-32(%GPR30)	
10040	1f8b	00000000		nop	; Automatically Added by addNops.pl
10041	1f8c	00000000		nop	; Automatically Added by addNops.pl
10042	1f8d	00000000		nop	; Automatically Added by addNops.pl
10043	1f8e	3c040000		lhi	%GPR4,$0	
10044	1f8f	00000000		nop	; Automatically Added by addNops.pl
10045	1f90	00000000		nop	; Automatically Added by addNops.pl
10046	1f91	00000000		nop	; Automatically Added by addNops.pl
10047				; Automatically 16 NOPs removed by reduceNOPs.sh
10048	1f92	34840011		ori	%GPR4,%GPR4,$17	
10049	1f93	00000000		nop	; Automatically Added by addNops.pl
10050	1f94	00000000		nop	; Automatically Added by addNops.pl
10051	1f95	00000000		nop	; Automatically Added by addNops.pl
10052				; Automatically 12 NOPs removed by reduceNOPs.sh
10053	1f96	00431020		add	%GPR2,%GPR2,%GPR3	
10054	1f97	00000000		nop	; Automatically Added by addNops.pl
10055	1f98	00000000		nop	; Automatically Added by addNops.pl
10056	1f99	00000000		nop	; Automatically Added by addNops.pl
10057				; Automatically 16 NOPs removed by reduceNOPs.sh
10058	1f9a	00401820		add	%GPR3,%GPR2,%GPR0	
10059	1f9b	00000000		nop	; Automatically Added by addNops.pl
10060	1f9c	00000000		nop	; Automatically Added by addNops.pl
10061	1f9d	00000000		nop	; Automatically Added by addNops.pl
10062				; Automatically 17 NOPs removed by reduceNOPs.sh
10063			
10064			
10065			
10066	1f9e	00000000		nop	; Automatically Added by addNops.pl
10067	1f9f	00000000		nop	; Automatically Added by addNops.pl
10068	1fa0	00000000		nop	; Automatically Added by addNops.pl
10069				; Automatically 12 NOPs removed by reduceNOPs.sh
10070	1fa1	0060000a		putc	%GPR3
10071	1fa2	00000000		nop	; Automatically Added by addNops.pl
10072	1fa3	00000000		nop	; Automatically Added by addNops.pl
10073	1fa4	00000000		nop	; Automatically Added by addNops.pl
10074				; Automatically 9 NOPs removed by reduceNOPs.sh
10075			
10076	1fa5	00000000		nop	; Automatically Added by addNops.pl
10077	1fa6	00000000		nop	; Automatically Added by addNops.pl
10078	1fa7	00000000		nop	; Automatically Added by addNops.pl
10079	1fa8	00801820		add	%GPR3,%GPR4,%GPR0	
10080	1fa9	00000000		nop	; Automatically Added by addNops.pl
10081	1faa	00000000		nop	; Automatically Added by addNops.pl
10082	1fab	00000000		nop	; Automatically Added by addNops.pl
10083				; Automatically 16 NOPs removed by reduceNOPs.sh
10084	1fac	00621020		add	%GPR2,%GPR3,%GPR2	
10085	1fad	00000000		nop	; Automatically Added by addNops.pl
10086	1fae	00000000		nop	; Automatically Added by addNops.pl
10087	1faf	00000000		nop	; Automatically Added by addNops.pl
10088				; Automatically 16 NOPs removed by reduceNOPs.sh
10089	1fb0	afc2ffd8		sw	-40(%GPR30),%GPR2	
10090	1fb1	00000000		nop	; Automatically Added by addNops.pl
10091	1fb2	00000000		nop	; Automatically Added by addNops.pl
10092	1fb3	00000000		nop	; Automatically Added by addNops.pl
10093	1fb4	3c020000		lhi	%GPR2,$0	
10094	1fb5	00000000		nop	; Automatically Added by addNops.pl
10095	1fb6	00000000		nop	; Automatically Added by addNops.pl
10096	1fb7	00000000		nop	; Automatically Added by addNops.pl
10097				; Automatically 16 NOPs removed by reduceNOPs.sh
10098	1fb8	3442001b		ori	%GPR2,%GPR2,$27	
10099	1fb9	00000000		nop	; Automatically Added by addNops.pl
10100	1fba	00000000		nop	; Automatically Added by addNops.pl
10101	1fbb	00000000		nop	; Automatically Added by addNops.pl
10102				; Automatically 16 NOPs removed by reduceNOPs.sh
10103	1fbc	00401820		add	%GPR3,%GPR2,%GPR0	
10104	1fbd	00000000		nop	; Automatically Added by addNops.pl
10105	1fbe	00000000		nop	; Automatically Added by addNops.pl
10106	1fbf	00000000		nop	; Automatically Added by addNops.pl
10107				; Automatically 17 NOPs removed by reduceNOPs.sh
10108			
10109			
10110			
10111	1fc0	00000000		nop	; Automatically Added by addNops.pl
10112	1fc1	00000000		nop	; Automatically Added by addNops.pl
10113	1fc2	00000000		nop	; Automatically Added by addNops.pl
10114				; Automatically 12 NOPs removed by reduceNOPs.sh
10115	1fc3	0060000a		putc	%GPR3
10116	1fc4	00000000		nop	; Automatically Added by addNops.pl
10117	1fc5	00000000		nop	; Automatically Added by addNops.pl
10118	1fc6	00000000		nop	; Automatically Added by addNops.pl
10119				; Automatically 9 NOPs removed by reduceNOPs.sh
10120			
10121	1fc7	00000000		nop	; Automatically Added by addNops.pl
10122	1fc8	00000000		nop	; Automatically Added by addNops.pl
10123	1fc9	00000000		nop	; Automatically Added by addNops.pl
10124	1fca	8fc3ffd8		lw	%GPR3,-40(%GPR30)	
10125	1fcb	00000000		nop	; Automatically Added by addNops.pl
10126	1fcc	00000000		nop	; Automatically Added by addNops.pl
10127	1fcd	00000000		nop	; Automatically Added by addNops.pl
10128				; Automatically 16 NOPs removed by reduceNOPs.sh
10129	1fce	00621020		add	%GPR2,%GPR3,%GPR2	
10130	1fcf	00000000		nop	; Automatically Added by addNops.pl
10131	1fd0	00000000		nop	; Automatically Added by addNops.pl
10132	1fd1	00000000		nop	; Automatically Added by addNops.pl
10133				; Automatically 16 NOPs removed by reduceNOPs.sh
10134	1fd2	afc2ffd8		sw	-40(%GPR30),%GPR2	
10135	1fd3	00000000		nop	; Automatically Added by addNops.pl
10136	1fd4	00000000		nop	; Automatically Added by addNops.pl
10137	1fd5	00000000		nop	; Automatically Added by addNops.pl
10138	1fd6	00000000		nop	; Automatically added by fix-stall-insns.pl
10139	1fd7	8fc2fffc		lw	%GPR2,-4(%GPR30)	
10140	1fd8	00000000		nop	; Automatically Added by addNops.pl
10141	1fd9	00000000		nop	; Automatically Added by addNops.pl
10142	1fda	00000000		nop	; Automatically Added by addNops.pl
10143				; Automatically 32 NOPs removed by reduceNOPs.sh
10144	1fdb	00401820		add	%GPR3,%GPR2,%GPR0	
10145	1fdc	00000000		nop	; Automatically Added by addNops.pl
10146	1fdd	00000000		nop	; Automatically Added by addNops.pl
10147	1fde	00000000		nop	; Automatically Added by addNops.pl
10148				; Automatically 17 NOPs removed by reduceNOPs.sh
10149			
10150			
10151			
10152	1fdf	00000000		nop	; Automatically Added by addNops.pl
10153	1fe0	00000000		nop	; Automatically Added by addNops.pl
10154	1fe1	00000000		nop	; Automatically Added by addNops.pl
10155				; Automatically 12 NOPs removed by reduceNOPs.sh
10156	1fe2	0060000a		putc	%GPR3
10157	1fe3	00000000		nop	; Automatically Added by addNops.pl
10158	1fe4	00000000		nop	; Automatically Added by addNops.pl
10159	1fe5	00000000		nop	; Automatically Added by addNops.pl
10160				; Automatically 9 NOPs removed by reduceNOPs.sh
10161			
10162	1fe6	00000000		nop	; Automatically Added by addNops.pl
10163	1fe7	00000000		nop	; Automatically Added by addNops.pl
10164	1fe8	00000000		nop	; Automatically Added by addNops.pl
10165	1fe9	8fc3ffd8		lw	%GPR3,-40(%GPR30)	
10166	1fea	00000000		nop	; Automatically Added by addNops.pl
10167	1feb	00000000		nop	; Automatically Added by addNops.pl
10168	1fec	00000000		nop	; Automatically Added by addNops.pl
10169				; Automatically 16 NOPs removed by reduceNOPs.sh
10170	1fed	00621020		add	%GPR2,%GPR3,%GPR2	
10171	1fee	00000000		nop	; Automatically Added by addNops.pl
10172	1fef	00000000		nop	; Automatically Added by addNops.pl
10173	1ff0	00000000		nop	; Automatically Added by addNops.pl
10174				; Automatically 16 NOPs removed by reduceNOPs.sh
10175	1ff1	afc2ffd8		sw	-40(%GPR30),%GPR2	
10176	1ff2	00000000		nop	; Automatically Added by addNops.pl
10177	1ff3	00000000		nop	; Automatically Added by addNops.pl
10178	1ff4	00000000		nop	; Automatically Added by addNops.pl
10179	1ff5	00000000		nop	; Automatically added by fix-stall-insns.pl
10180	1ff6	8fc2fff8		lw	%GPR2,-8(%GPR30)	
10181	1ff7	00000000		nop	; Automatically Added by addNops.pl
10182	1ff8	00000000		nop	; Automatically Added by addNops.pl
10183	1ff9	00000000		nop	; Automatically Added by addNops.pl
10184				; Automatically 32 NOPs removed by reduceNOPs.sh
10185	1ffa	00401820		add	%GPR3,%GPR2,%GPR0	
10186	1ffb	00000000		nop	; Automatically Added by addNops.pl
10187	1ffc	00000000		nop	; Automatically Added by addNops.pl
10188	1ffd	00000000		nop	; Automatically Added by addNops.pl
10189				; Automatically 17 NOPs removed by reduceNOPs.sh
10190			
10191			
10192			
10193	1ffe	00000000		nop	; Automatically Added by addNops.pl
10194	1fff	00000000		nop	; Automatically Added by addNops.pl
10195	2000	00000000		nop	; Automatically Added by addNops.pl
10196				; Automatically 12 NOPs removed by reduceNOPs.sh
10197	2001	0060000a		putc	%GPR3
10198	2002	00000000		nop	; Automatically Added by addNops.pl
10199	2003	00000000		nop	; Automatically Added by addNops.pl
10200	2004	00000000		nop	; Automatically Added by addNops.pl
10201				; Automatically 9 NOPs removed by reduceNOPs.sh
10202			
10203	2005	00000000		nop	; Automatically Added by addNops.pl
10204	2006	00000000		nop	; Automatically Added by addNops.pl
10205	2007	00000000		nop	; Automatically Added by addNops.pl
10206	2008	8fc3ffd8		lw	%GPR3,-40(%GPR30)	
10207	2009	00000000		nop	; Automatically Added by addNops.pl
10208	200a	00000000		nop	; Automatically Added by addNops.pl
10209	200b	00000000		nop	; Automatically Added by addNops.pl
10210				; Automatically 16 NOPs removed by reduceNOPs.sh
10211	200c	00621020		add	%GPR2,%GPR3,%GPR2	
10212	200d	00000000		nop	; Automatically Added by addNops.pl
10213	200e	00000000		nop	; Automatically Added by addNops.pl
10214	200f	00000000		nop	; Automatically Added by addNops.pl
10215				; Automatically 16 NOPs removed by reduceNOPs.sh
10216	2010	afc2ffd8		sw	-40(%GPR30),%GPR2	
10217	2011	00000000		nop	; Automatically Added by addNops.pl
10218	2012	00000000		nop	; Automatically Added by addNops.pl
10219	2013	00000000		nop	; Automatically Added by addNops.pl
10220				; Automatically 12 NOPs removed by reduceNOPs.sh
10221			L_lib_lcd_32:
10222	2014	00000000		nop	; Automatically Added by addNops.pl
10223	2015	00000000		nop	; Automatically Added by addNops.pl
10224	2016	00000000		nop	; Automatically Added by addNops.pl
10225	2017	00201020		add	%GPR2,%GPR1,%GPR0	
10226	2018	00000000		nop	; Automatically Added by addNops.pl
10227	2019	00000000		nop	; Automatically Added by addNops.pl
10228	201a	00000000		nop	; Automatically Added by addNops.pl
10229	201b	28210001		subi	%GPR1,%GPR1,$1	
10230	201c	00000000		nop	; Automatically Added by addNops.pl
10231	201d	00000000		nop	; Automatically Added by addNops.pl
10232	201e	00000000		nop	; Automatically Added by addNops.pl
10233				; Automatically 8 NOPs removed by reduceNOPs.sh
10234	201f	3c030000		lhi	%GPR3,$0	
10235	2020	00000000		nop	; Automatically Added by addNops.pl
10236	2021	00000000		nop	; Automatically Added by addNops.pl
10237	2022	00000000		nop	; Automatically Added by addNops.pl
10238				; Automatically 16 NOPs removed by reduceNOPs.sh
10239	2023	34630000		ori	%GPR3,%GPR3,$0	
10240	2024	00000000		nop	; Automatically Added by addNops.pl
10241	2025	00000000		nop	; Automatically Added by addNops.pl
10242	2026	00000000		nop	; Automatically Added by addNops.pl
10243				; Automatically 16 NOPs removed by reduceNOPs.sh
10244	2027	0043d82f		sne	%GPR27,%GPR2,%GPR3	
10245	2028	00000000		nop	; Automatically Added by addNops.pl
10246	2029	00000000		nop	; Automatically Added by addNops.pl
10247	202a	00000000		nop	; Automatically Added by addNops.pl
10248	202b	17600008		bnez	%GPR27,L_lib_lcd_33	
10249	202c	00000000		nop	; Automatically Added by addNops.pl
10250	202d	00000000		nop	; Automatically Added by addNops.pl
10251	202e	00000000		nop	; Automatically Added by addNops.pl
10252				; Automatically 16 NOPs removed by reduceNOPs.sh
10253	202f	08000041		j	L_lib_lcd_34	
10254	2030	00000000		nop	; Automatically Added by addNops.pl
10255	2031	00000000		nop	; Automatically Added by addNops.pl
10256	2032	00000000		nop	; Automatically Added by addNops.pl
10257				; Automatically 16 NOPs removed by reduceNOPs.sh
10258			L_lib_lcd_33:
10259	2033	00000000		nop	; Automatically Added by addNops.pl
10260	2034	00000000		nop	; Automatically Added by addNops.pl
10261	2035	00000000		nop	; Automatically Added by addNops.pl
10262	2036	8fc2ffec		lw	%GPR2,-20(%GPR30)	
10263	2037	00000000		nop	; Automatically Added by addNops.pl
10264	2038	00000000		nop	; Automatically Added by addNops.pl
10265	2039	00000000		nop	; Automatically Added by addNops.pl
10266				; Automatically 16 NOPs removed by reduceNOPs.sh
10267	203a	00402820		add	%GPR5,%GPR2,%GPR0	
10268	203b	00000000		nop	; Automatically Added by addNops.pl
10269	203c	00000000		nop	; Automatically Added by addNops.pl
10270	203d	00000000		nop	; Automatically Added by addNops.pl
10271	203e	3c040000		lhi	%GPR4,$0	
10272	203f	00000000		nop	; Automatically Added by addNops.pl
10273	2040	00000000		nop	; Automatically Added by addNops.pl
10274	2041	00000000		nop	; Automatically Added by addNops.pl
10275				; Automatically 16 NOPs removed by reduceNOPs.sh
10276	2042	34840004		ori	%GPR4,%GPR4,$4	
10277	2043	00000000		nop	; Automatically Added by addNops.pl
10278	2044	00000000		nop	; Automatically Added by addNops.pl
10279	2045	00000000		nop	; Automatically Added by addNops.pl
10280	2046	8c420000		lw	%GPR2,0(%GPR2)	
10281	2047	00000000		nop	; Automatically Added by addNops.pl
10282	2048	00000000		nop	; Automatically Added by addNops.pl
10283	2049	00000000		nop	; Automatically Added by addNops.pl
10284				; Automatically 12 NOPs removed by reduceNOPs.sh
10285	204a	00a42020		add	%GPR4,%GPR5,%GPR4	
10286	204b	00000000		nop	; Automatically Added by addNops.pl
10287	204c	00000000		nop	; Automatically Added by addNops.pl
10288	204d	00000000		nop	; Automatically Added by addNops.pl
10289	204e	00401820		add	%GPR3,%GPR2,%GPR0	
10290	204f	00000000		nop	; Automatically Added by addNops.pl
10291	2050	00000000		nop	; Automatically Added by addNops.pl
10292	2051	00000000		nop	; Automatically Added by addNops.pl
10293				; Automatically 12 NOPs removed by reduceNOPs.sh
10294	2052	afc4ffec		sw	-20(%GPR30),%GPR4	
10295	2053	00000000		nop	; Automatically Added by addNops.pl
10296	2054	00000000		nop	; Automatically Added by addNops.pl
10297	2055	00000000		nop	; Automatically Added by addNops.pl
10298				; Automatically 5 NOPs removed by reduceNOPs.sh
10299			
10300			
10301			
10302	2056	00000000		nop	; Automatically Added by addNops.pl
10303	2057	00000000		nop	; Automatically Added by addNops.pl
10304	2058	00000000		nop	; Automatically Added by addNops.pl
10305				; Automatically 12 NOPs removed by reduceNOPs.sh
10306	2059	0060000a		putc	%GPR3
10307	205a	00000000		nop	; Automatically Added by addNops.pl
10308	205b	00000000		nop	; Automatically Added by addNops.pl
10309	205c	00000000		nop	; Automatically Added by addNops.pl
10310				; Automatically 9 NOPs removed by reduceNOPs.sh
10311			
10312	205d	00000000		nop	; Automatically Added by addNops.pl
10313	205e	00000000		nop	; Automatically Added by addNops.pl
10314	205f	00000000		nop	; Automatically Added by addNops.pl
10315	2060	8fc3ffd8		lw	%GPR3,-40(%GPR30)	
10316	2061	00000000		nop	; Automatically Added by addNops.pl
10317	2062	00000000		nop	; Automatically Added by addNops.pl
10318	2063	00000000		nop	; Automatically Added by addNops.pl
10319				; Automatically 16 NOPs removed by reduceNOPs.sh
10320	2064	00621020		add	%GPR2,%GPR3,%GPR2	
10321	2065	00000000		nop	; Automatically Added by addNops.pl
10322	2066	00000000		nop	; Automatically Added by addNops.pl
10323	2067	00000000		nop	; Automatically Added by addNops.pl
10324				; Automatically 16 NOPs removed by reduceNOPs.sh
10325	2068	afc2ffd8		sw	-40(%GPR30),%GPR2	
10326	2069	00000000		nop	; Automatically Added by addNops.pl
10327	206a	00000000		nop	; Automatically Added by addNops.pl
10328	206b	00000000		nop	; Automatically Added by addNops.pl
10329	206c	0bffffa8		j	L_lib_lcd_32	
10330	206d	00000000		nop	; Automatically Added by addNops.pl
10331	206e	00000000		nop	; Automatically Added by addNops.pl
10332	206f	00000000		nop	; Automatically Added by addNops.pl
10333				; Automatically 12 NOPs removed by reduceNOPs.sh
10334			L_lib_lcd_34:
10335	2070	00000000		nop	; Automatically Added by addNops.pl
10336	2071	00000000		nop	; Automatically Added by addNops.pl
10337	2072	00000000		nop	; Automatically Added by addNops.pl
10338	2073	8fc2ffdc		lw	%GPR2,-36(%GPR30)	
10339	2074	00000000		nop	; Automatically Added by addNops.pl
10340	2075	00000000		nop	; Automatically Added by addNops.pl
10341	2076	00000000		nop	; Automatically Added by addNops.pl
10342				; Automatically 16 NOPs removed by reduceNOPs.sh
10343	2077	00400820		add	%GPR1,%GPR2,%GPR0	
10344	2078	00000000		nop	; Automatically Added by addNops.pl
10345	2079	00000000		nop	; Automatically Added by addNops.pl
10346	207a	00000000		nop	; Automatically Added by addNops.pl
10347				; Automatically 16 NOPs removed by reduceNOPs.sh
10348	207b	28210001		subi	%GPR1,%GPR1,$1	
10349	207c	00000000		nop	; Automatically Added by addNops.pl
10350	207d	00000000		nop	; Automatically Added by addNops.pl
10351	207e	00000000		nop	; Automatically Added by addNops.pl
10352				; Automatically 16 NOPs removed by reduceNOPs.sh
10353	207f	afc1ffdc		sw	-36(%GPR30),%GPR1	
10354	2080	00000000		nop	; Automatically Added by addNops.pl
10355	2081	00000000		nop	; Automatically Added by addNops.pl
10356	2082	00000000		nop	; Automatically Added by addNops.pl
10357	2083	3c010000		lhi	%GPR1,$0	
10358	2084	00000000		nop	; Automatically Added by addNops.pl
10359	2085	00000000		nop	; Automatically Added by addNops.pl
10360	2086	00000000		nop	; Automatically Added by addNops.pl
10361				; Automatically 16 NOPs removed by reduceNOPs.sh
10362	2087	34210000		ori	%GPR1,%GPR1,$0	
10363	2088	00000000		nop	; Automatically Added by addNops.pl
10364	2089	00000000		nop	; Automatically Added by addNops.pl
10365	208a	00000000		nop	; Automatically Added by addNops.pl
10366				; Automatically 16 NOPs removed by reduceNOPs.sh
10367	208b	0041d82f		sne	%GPR27,%GPR2,%GPR1	
10368	208c	00000000		nop	; Automatically Added by addNops.pl
10369	208d	00000000		nop	; Automatically Added by addNops.pl
10370	208e	00000000		nop	; Automatically Added by addNops.pl
10371	208f	17600008		bnez	%GPR27,L_lib_lcd_35	
10372	2090	00000000		nop	; Automatically Added by addNops.pl
10373	2091	00000000		nop	; Automatically Added by addNops.pl
10374	2092	00000000		nop	; Automatically Added by addNops.pl
10375				; Automatically 16 NOPs removed by reduceNOPs.sh
10376	2093	0800004d		j	L_lib_lcd_36	
10377	2094	00000000		nop	; Automatically Added by addNops.pl
10378	2095	00000000		nop	; Automatically Added by addNops.pl
10379	2096	00000000		nop	; Automatically Added by addNops.pl
10380				; Automatically 16 NOPs removed by reduceNOPs.sh
10381			L_lib_lcd_35:
10382	2097	00000000		nop	; Automatically Added by addNops.pl
10383	2098	00000000		nop	; Automatically Added by addNops.pl
10384	2099	00000000		nop	; Automatically Added by addNops.pl
10385	209a	8fc1ffe8		lw	%GPR1,-24(%GPR30)	
10386	209b	00000000		nop	; Automatically Added by addNops.pl
10387	209c	00000000		nop	; Automatically Added by addNops.pl
10388	209d	00000000		nop	; Automatically Added by addNops.pl
10389				; Automatically 16 NOPs removed by reduceNOPs.sh
10390	209e	00201820		add	%GPR3,%GPR1,%GPR0	
10391	209f	00000000		nop	; Automatically Added by addNops.pl
10392	20a0	00000000		nop	; Automatically Added by addNops.pl
10393	20a1	00000000		nop	; Automatically Added by addNops.pl
10394	20a2	3c020000		lhi	%GPR2,$0	
10395	20a3	00000000		nop	; Automatically Added by addNops.pl
10396	20a4	00000000		nop	; Automatically Added by addNops.pl
10397	20a5	00000000		nop	; Automatically Added by addNops.pl
10398				; Automatically 16 NOPs removed by reduceNOPs.sh
10399	20a6	34420001		ori	%GPR2,%GPR2,$1	
10400	20a7	00000000		nop	; Automatically Added by addNops.pl
10401	20a8	00000000		nop	; Automatically Added by addNops.pl
10402	20a9	00000000		nop	; Automatically Added by addNops.pl
10403				; Automatically 16 NOPs removed by reduceNOPs.sh
10404	20aa	00621020		add	%GPR2,%GPR3,%GPR2	
10405	20ab	00000000		nop	; Automatically Added by addNops.pl
10406	20ac	00000000		nop	; Automatically Added by addNops.pl
10407	20ad	00000000		nop	; Automatically Added by addNops.pl
10408				; Automatically 16 NOPs removed by reduceNOPs.sh
10409	20ae	afc2ffe8		sw	-24(%GPR30),%GPR2	
10410	20af	00000000		nop	; Automatically Added by addNops.pl
10411	20b0	00000000		nop	; Automatically Added by addNops.pl
10412	20b1	00000000		nop	; Automatically Added by addNops.pl
10413				; Automatically 16 NOPs removed by reduceNOPs.sh
10414	20b2	2bbd0008		subi	%GPR29,%GPR29,$8	
10415	20b3	00000000		nop	; Automatically Added by addNops.pl
10416	20b4	00000000		nop	; Automatically Added by addNops.pl
10417	20b5	00000000		nop	; Automatically Added by addNops.pl
10418				; Automatically 16 NOPs removed by reduceNOPs.sh
10419	20b6	0c00083b		jal	loadByteUnsigned	
10420	20b7	00000000		nop	; Automatically Added by addNops.pl
10421	20b8	00000000		nop	; Automatically Added by addNops.pl
10422	20b9	00000000		nop	; Automatically Added by addNops.pl
10423				; Automatically 16 NOPs removed by reduceNOPs.sh
10424	20ba	23bd0008		addi	%GPR29,%GPR29,$8	
10425	20bb	00000000		nop	; Automatically Added by addNops.pl
10426	20bc	00000000		nop	; Automatically Added by addNops.pl
10427	20bd	00000000		nop	; Automatically Added by addNops.pl
10428				; Automatically 16 NOPs removed by reduceNOPs.sh
10429	20be	03801020		add	%GPR2,%GPR28,%GPR0	
10430	20bf	00000000		nop	; Automatically Added by addNops.pl
10431	20c0	00000000		nop	; Automatically Added by addNops.pl
10432	20c1	00000000		nop	; Automatically Added by addNops.pl
10433				; Automatically 16 NOPs removed by reduceNOPs.sh
10434	20c2	00400820		add	%GPR1,%GPR2,%GPR0	
10435	20c3	00000000		nop	; Automatically Added by addNops.pl
10436	20c4	00000000		nop	; Automatically Added by addNops.pl
10437	20c5	00000000		nop	; Automatically Added by addNops.pl
10438				; Automatically 17 NOPs removed by reduceNOPs.sh
10439			
10440			
10441			
10442	20c6	00000000		nop	; Automatically Added by addNops.pl
10443	20c7	00000000		nop	; Automatically Added by addNops.pl
10444	20c8	00000000		nop	; Automatically Added by addNops.pl
10445				; Automatically 12 NOPs removed by reduceNOPs.sh
10446	20c9	0020000a		putc	%GPR1
10447	20ca	00000000		nop	; Automatically Added by addNops.pl
10448	20cb	00000000		nop	; Automatically Added by addNops.pl
10449	20cc	00000000		nop	; Automatically Added by addNops.pl
10450				; Automatically 9 NOPs removed by reduceNOPs.sh
10451			
10452	20cd	00000000		nop	; Automatically Added by addNops.pl
10453	20ce	00000000		nop	; Automatically Added by addNops.pl
10454	20cf	00000000		nop	; Automatically Added by addNops.pl
10455	20d0	8fc1ffd8		lw	%GPR1,-40(%GPR30)	
10456	20d1	00000000		nop	; Automatically Added by addNops.pl
10457	20d2	00000000		nop	; Automatically Added by addNops.pl
10458	20d3	00000000		nop	; Automatically Added by addNops.pl
10459				; Automatically 16 NOPs removed by reduceNOPs.sh
10460	20d4	00220820		add	%GPR1,%GPR1,%GPR2	
10461	20d5	00000000		nop	; Automatically Added by addNops.pl
10462	20d6	00000000		nop	; Automatically Added by addNops.pl
10463	20d7	00000000		nop	; Automatically Added by addNops.pl
10464				; Automatically 16 NOPs removed by reduceNOPs.sh
10465	20d8	afc1ffd8		sw	-40(%GPR30),%GPR1	
10466	20d9	00000000		nop	; Automatically Added by addNops.pl
10467	20da	00000000		nop	; Automatically Added by addNops.pl
10468	20db	00000000		nop	; Automatically Added by addNops.pl
10469	20dc	0bffff94		j	L_lib_lcd_34	
10470	20dd	00000000		nop	; Automatically Added by addNops.pl
10471	20de	00000000		nop	; Automatically Added by addNops.pl
10472	20df	00000000		nop	; Automatically Added by addNops.pl
10473				; Automatically 12 NOPs removed by reduceNOPs.sh
10474			L_lib_lcd_36:
10475	20e0	00000000		nop	; Automatically Added by addNops.pl
10476	20e1	00000000		nop	; Automatically Added by addNops.pl
10477	20e2	00000000		nop	; Automatically Added by addNops.pl
10478	20e3	8fc2ffd8		lw	%GPR2,-40(%GPR30)	
10479	20e4	00000000		nop	; Automatically Added by addNops.pl
10480	20e5	00000000		nop	; Automatically Added by addNops.pl
10481	20e6	00000000		nop	; Automatically Added by addNops.pl
10482				; Automatically 17 NOPs removed by reduceNOPs.sh
10483			
10484			
10485			
10486	20e7	00000000		nop	; Automatically Added by addNops.pl
10487	20e8	00000000		nop	; Automatically Added by addNops.pl
10488	20e9	00000000		nop	; Automatically Added by addNops.pl
10489				; Automatically 12 NOPs removed by reduceNOPs.sh
10490	20ea	0040000a		putc	%GPR2
10491	20eb	00000000		nop	; Automatically Added by addNops.pl
10492	20ec	00000000		nop	; Automatically Added by addNops.pl
10493	20ed	00000000		nop	; Automatically Added by addNops.pl
10494				; Automatically 9 NOPs removed by reduceNOPs.sh
10495			
10496	20ee	00000000		nop	; Automatically Added by addNops.pl
10497	20ef	00000000		nop	; Automatically Added by addNops.pl
10498	20f0	00000000		nop	; Automatically Added by addNops.pl
10499	20f1	8fc1ffe4		lw	%GPR1,-28(%GPR30)	
10500	20f2	00000000		nop	; Automatically Added by addNops.pl
10501	20f3	00000000		nop	; Automatically Added by addNops.pl
10502	20f4	00000000		nop	; Automatically Added by addNops.pl
10503				; Automatically 16 NOPs removed by reduceNOPs.sh
10504	20f5	2bbd0008		subi	%GPR29,%GPR29,$8	
10505	20f6	00000000		nop	; Automatically Added by addNops.pl
10506	20f7	00000000		nop	; Automatically Added by addNops.pl
10507	20f8	00000000		nop	; Automatically Added by addNops.pl
10508				; Automatically 16 NOPs removed by reduceNOPs.sh
10509	20f9	0ffff966		jal	getack	
10510	20fa	00000000		nop	; Automatically Added by addNops.pl
10511	20fb	00000000		nop	; Automatically Added by addNops.pl
10512	20fc	00000000		nop	; Automatically Added by addNops.pl
10513				; Automatically 16 NOPs removed by reduceNOPs.sh
10514	20fd	23bd0008		addi	%GPR29,%GPR29,$8	
10515	20fe	00000000		nop	; Automatically Added by addNops.pl
10516	20ff	00000000		nop	; Automatically Added by addNops.pl
10517	2100	00000000		nop	; Automatically Added by addNops.pl
10518				; Automatically 36 NOPs removed by reduceNOPs.sh
10519	2101	3c010000		lhi	%GPR1,$0	
10520	2102	00000000		nop	; Automatically Added by addNops.pl
10521	2103	00000000		nop	; Automatically Added by addNops.pl
10522	2104	00000000		nop	; Automatically Added by addNops.pl
10523				; Automatically 16 NOPs removed by reduceNOPs.sh
10524	2105	34210000		ori	%GPR1,%GPR1,$0	
10525	2106	00000000		nop	; Automatically Added by addNops.pl
10526	2107	00000000		nop	; Automatically Added by addNops.pl
10527	2108	00000000		nop	; Automatically Added by addNops.pl
10528				; Automatically 16 NOPs removed by reduceNOPs.sh
10529	2109	0381d82f		sne	%GPR27,%GPR28,%GPR1	
10530	210a	00000000		nop	; Automatically Added by addNops.pl
10531	210b	00000000		nop	; Automatically Added by addNops.pl
10532	210c	00000000		nop	; Automatically Added by addNops.pl
10533	210d	1760fe1d		bnez	%GPR27,L_lib_lcd_31	
10534	210e	00000000		nop	; Automatically Added by addNops.pl
10535	210f	00000000		nop	; Automatically Added by addNops.pl
10536	2110	00000000		nop	; Automatically Added by addNops.pl
10537				; Automatically 16 NOPs removed by reduceNOPs.sh
10538	2111	08000004		j	L_lib_lcd_37	
10539	2112	00000000		nop	; Automatically Added by addNops.pl
10540	2113	00000000		nop	; Automatically Added by addNops.pl
10541	2114	00000000		nop	; Automatically Added by addNops.pl
10542				; Automatically 16 NOPs removed by reduceNOPs.sh
10543			L_lib_lcd_37:
10544	2115	00000000		nop	; Automatically Added by addNops.pl
10545	2116	00000000		nop	; Automatically Added by addNops.pl
10546	2117	00000000		nop	; Automatically Added by addNops.pl
10547				; Automatically 16 NOPs removed by reduceNOPs.sh
10548	2118	3c1c0000		lhi	%GPR28,$0	
10549	2119	00000000		nop	; Automatically Added by addNops.pl
10550	211a	00000000		nop	; Automatically Added by addNops.pl
10551	211b	00000000		nop	; Automatically Added by addNops.pl
10552				; Automatically 16 NOPs removed by reduceNOPs.sh
10553	211c	379c0000		ori	%GPR28,%GPR28,$0	
10554	211d	00000000		nop	; Automatically Added by addNops.pl
10555	211e	00000000		nop	; Automatically Added by addNops.pl
10556	211f	00000000		nop	; Automatically Added by addNops.pl
10557				; Automatically 16 NOPs removed by reduceNOPs.sh
10558	2120	08000004		j	L_lib_lcd_38	
10559	2121	00000000		nop	; Automatically Added by addNops.pl
10560	2122	00000000		nop	; Automatically Added by addNops.pl
10561	2123	00000000		nop	; Automatically Added by addNops.pl
10562				; Automatically 16 NOPs removed by reduceNOPs.sh
10563			L_lib_lcd_38:
10564	2124	00000000		nop	; Automatically Added by addNops.pl
10565	2125	00000000		nop	; Automatically Added by addNops.pl
10566	2126	00000000		nop	; Automatically Added by addNops.pl
10567				; Automatically 16 NOPs removed by reduceNOPs.sh
10568	2127	8fdf0004		lw	%GPR31,4(%GPR30)	
10569	2128	00000000		nop	; Automatically Added by addNops.pl
10570	2129	00000000		nop	; Automatically Added by addNops.pl
10571	212a	00000000		nop	; Automatically Added by addNops.pl
10572	212b	27dd0004		addui	%GPR29,%GPR30,$4	
10573	212c	00000000		nop	; Automatically Added by addNops.pl
10574	212d	00000000		nop	; Automatically Added by addNops.pl
10575	212e	00000000		nop	; Automatically Added by addNops.pl
10576	212f	8fde0000		lw	%GPR30,0(%GPR30)	
10577	2130	00000000		nop	; Automatically Added by addNops.pl
10578	2131	00000000		nop	; Automatically Added by addNops.pl
10579	2132	00000000		nop	; Automatically Added by addNops.pl
10580				; Automatically 8 NOPs removed by reduceNOPs.sh
10581	2133	00000000		nop
10582	2134	00000000		nop
10583	2135	03e00008		jr	%GPR31	
10584	2136	00000000		nop	; Automatically Added by addNops.pl
10585	2137	00000000		nop	; Automatically Added by addNops.pl
10586	2138	00000000		nop	; Automatically Added by addNops.pl
10587				; Automatically 16 NOPs removed by reduceNOPs.sh
10588			t_print:
10589			L_lib_lcd_39:
10590	2139	00000000		nop	; Automatically Added by addNops.pl
10591	213a	00000000		nop	; Automatically Added by addNops.pl
10592	213b	00000000		nop	; Automatically Added by addNops.pl
10593				; Automatically 16 NOPs removed by reduceNOPs.sh
10594	213c	afbefffc		sw	-4(%GPR29),%GPR30	
10595	213d	00000000		nop	; Automatically Added by addNops.pl
10596	213e	00000000		nop	; Automatically Added by addNops.pl
10597	213f	00000000		nop	; Automatically Added by addNops.pl
10598	2140	00000000		nop	; Automatically added by fix-stall-insns.pl
10599	2141	afbf0000		sw	0(%GPR29),%GPR31	
10600	2142	00000000		nop	; Automatically Added by addNops.pl
10601	2143	00000000		nop	; Automatically Added by addNops.pl
10602	2144	00000000		nop	; Automatically Added by addNops.pl
10603	2145	2fbe0004		subui	%GPR30,%GPR29,$4	
10604	2146	00000000		nop	; Automatically Added by addNops.pl
10605	2147	00000000		nop	; Automatically Added by addNops.pl
10606	2148	00000000		nop	; Automatically Added by addNops.pl
10607				; Automatically 4 NOPs removed by reduceNOPs.sh
10608	2149	2bbd000c		subi	%GPR29,%GPR29,$12	
10609	214a	00000000		nop	; Automatically Added by addNops.pl
10610	214b	00000000		nop	; Automatically Added by addNops.pl
10611	214c	00000000		nop	; Automatically Added by addNops.pl
10612				; Automatically 16 NOPs removed by reduceNOPs.sh
10613	214d	afc1fffc		sw	-4(%GPR30),%GPR1	
10614	214e	00000000		nop	; Automatically Added by addNops.pl
10615	214f	00000000		nop	; Automatically Added by addNops.pl
10616	2150	00000000		nop	; Automatically Added by addNops.pl
10617				; Automatically 28 NOPs removed by reduceNOPs.sh
10618	2151	2bbd0008		subi	%GPR29,%GPR29,$8	
10619	2152	00000000		nop	; Automatically Added by addNops.pl
10620	2153	00000000		nop	; Automatically Added by addNops.pl
10621	2154	00000000		nop	; Automatically Added by addNops.pl
10622				; Automatically 16 NOPs removed by reduceNOPs.sh
10623	2155	0ffff825		jal	strlength	
10624	2156	00000000		nop	; Automatically Added by addNops.pl
10625	2157	00000000		nop	; Automatically Added by addNops.pl
10626	2158	00000000		nop	; Automatically Added by addNops.pl
10627				; Automatically 16 NOPs removed by reduceNOPs.sh
10628	2159	23bd0008		addi	%GPR29,%GPR29,$8	
10629	215a	00000000		nop	; Automatically Added by addNops.pl
10630	215b	00000000		nop	; Automatically Added by addNops.pl
10631	215c	00000000		nop	; Automatically Added by addNops.pl
10632				; Automatically 40 NOPs removed by reduceNOPs.sh
10633	215d	8fc4fffc		lw	%GPR4,-4(%GPR30)	
10634	215e	00000000		nop	; Automatically Added by addNops.pl
10635	215f	00000000		nop	; Automatically Added by addNops.pl
10636	2160	00000000		nop	; Automatically Added by addNops.pl
10637	2161	03803020		add	%GPR6,%GPR28,%GPR0	
10638	2162	00000000		nop	; Automatically Added by addNops.pl
10639	2163	00000000		nop	; Automatically Added by addNops.pl
10640	2164	00000000		nop	; Automatically Added by addNops.pl
10641	2165	3c070000		lhi	%GPR7,$0	
10642	2166	00000000		nop	; Automatically Added by addNops.pl
10643	2167	00000000		nop	; Automatically Added by addNops.pl
10644	2168	00000000		nop	; Automatically Added by addNops.pl
10645				; Automatically 16 NOPs removed by reduceNOPs.sh
10646	2169	34e7006f		ori	%GPR7,%GPR7,$111	
10647	216a	00000000		nop	; Automatically Added by addNops.pl
10648	216b	00000000		nop	; Automatically Added by addNops.pl
10649	216c	00000000		nop	; Automatically Added by addNops.pl
10650	216d	3c050000		lhi	%GPR5,$0	
10651	216e	00000000		nop	; Automatically Added by addNops.pl
10652	216f	00000000		nop	; Automatically Added by addNops.pl
10653	2170	00000000		nop	; Automatically Added by addNops.pl
10654				; Automatically 16 NOPs removed by reduceNOPs.sh
10655	2171	34a50000		ori	%GPR5,%GPR5,$0	
10656	2172	00000000		nop	; Automatically Added by addNops.pl
10657	2173	00000000		nop	; Automatically Added by addNops.pl
10658	2174	00000000		nop	; Automatically Added by addNops.pl
10659	2175	3c020000		lhi	%GPR2,$0	
10660	2176	00000000		nop	; Automatically Added by addNops.pl
10661	2177	00000000		nop	; Automatically Added by addNops.pl
10662	2178	00000000		nop	; Automatically Added by addNops.pl
10663				; Automatically 16 NOPs removed by reduceNOPs.sh
10664	2179	34420054		ori	%GPR2,%GPR2,$84	
10665	217a	00000000		nop	; Automatically Added by addNops.pl
10666	217b	00000000		nop	; Automatically Added by addNops.pl
10667	217c	00000000		nop	; Automatically Added by addNops.pl
10668	217d	3c010000		lhi	%GPR1,$0	
10669	217e	00000000		nop	; Automatically Added by addNops.pl
10670	217f	00000000		nop	; Automatically Added by addNops.pl
10671	2180	00000000		nop	; Automatically Added by addNops.pl
10672				; Automatically 16 NOPs removed by reduceNOPs.sh
10673	2181	3421005a		ori	%GPR1,%GPR1,$90	
10674	2182	00000000		nop	; Automatically Added by addNops.pl
10675	2183	00000000		nop	; Automatically Added by addNops.pl
10676	2184	00000000		nop	; Automatically Added by addNops.pl
10677	2185	3c030000		lhi	%GPR3,$0	
10678	2186	00000000		nop	; Automatically Added by addNops.pl
10679	2187	00000000		nop	; Automatically Added by addNops.pl
10680	2188	00000000		nop	; Automatically Added by addNops.pl
10681				; Automatically 16 NOPs removed by reduceNOPs.sh
10682	2189	34630000		ori	%GPR3,%GPR3,$0	
10683	218a	00000000		nop	; Automatically Added by addNops.pl
10684	218b	00000000		nop	; Automatically Added by addNops.pl
10685	218c	00000000		nop	; Automatically Added by addNops.pl
10686				; Automatically 16 NOPs removed by reduceNOPs.sh
10687	218d	2bbd0008		subi	%GPR29,%GPR29,$8	
10688	218e	00000000		nop	; Automatically Added by addNops.pl
10689	218f	00000000		nop	; Automatically Added by addNops.pl
10690	2190	00000000		nop	; Automatically Added by addNops.pl
10691				; Automatically 16 NOPs removed by reduceNOPs.sh
10692	2191	0ffffd50		jal	sendcommand	
10693	2192	00000000		nop	; Automatically Added by addNops.pl
10694	2193	00000000		nop	; Automatically Added by addNops.pl
10695	2194	00000000		nop	; Automatically Added by addNops.pl
10696				; Automatically 16 NOPs removed by reduceNOPs.sh
10697	2195	23bd0008		addi	%GPR29,%GPR29,$8	
10698	2196	00000000		nop	; Automatically Added by addNops.pl
10699	2197	00000000		nop	; Automatically Added by addNops.pl
10700	2198	00000000		nop	; Automatically Added by addNops.pl
10701				; Automatically 36 NOPs removed by reduceNOPs.sh
10702	2199	3c1c0000		lhi	%GPR28,$0	
10703	219a	00000000		nop	; Automatically Added by addNops.pl
10704	219b	00000000		nop	; Automatically Added by addNops.pl
10705	219c	00000000		nop	; Automatically Added by addNops.pl
10706				; Automatically 16 NOPs removed by reduceNOPs.sh
10707	219d	379c0000		ori	%GPR28,%GPR28,$0	
10708	219e	00000000		nop	; Automatically Added by addNops.pl
10709	219f	00000000		nop	; Automatically Added by addNops.pl
10710	21a0	00000000		nop	; Automatically Added by addNops.pl
10711				; Automatically 16 NOPs removed by reduceNOPs.sh
10712	21a1	08000004		j	L_lib_lcd_40	
10713	21a2	00000000		nop	; Automatically Added by addNops.pl
10714	21a3	00000000		nop	; Automatically Added by addNops.pl
10715	21a4	00000000		nop	; Automatically Added by addNops.pl
10716				; Automatically 16 NOPs removed by reduceNOPs.sh
10717			L_lib_lcd_40:
10718	21a5	00000000		nop	; Automatically Added by addNops.pl
10719	21a6	00000000		nop	; Automatically Added by addNops.pl
10720	21a7	00000000		nop	; Automatically Added by addNops.pl
10721				; Automatically 16 NOPs removed by reduceNOPs.sh
10722	21a8	8fdf0004		lw	%GPR31,4(%GPR30)	
10723	21a9	00000000		nop	; Automatically Added by addNops.pl
10724	21aa	00000000		nop	; Automatically Added by addNops.pl
10725	21ab	00000000		nop	; Automatically Added by addNops.pl
10726	21ac	27dd0004		addui	%GPR29,%GPR30,$4	
10727	21ad	00000000		nop	; Automatically Added by addNops.pl
10728	21ae	00000000		nop	; Automatically Added by addNops.pl
10729	21af	00000000		nop	; Automatically Added by addNops.pl
10730	21b0	8fde0000		lw	%GPR30,0(%GPR30)	
10731	21b1	00000000		nop	; Automatically Added by addNops.pl
10732	21b2	00000000		nop	; Automatically Added by addNops.pl
10733	21b3	00000000		nop	; Automatically Added by addNops.pl
10734				; Automatically 8 NOPs removed by reduceNOPs.sh
10735	21b4	00000000		nop
10736	21b5	00000000		nop
10737	21b6	03e00008		jr	%GPR31	
10738	21b7	00000000		nop	; Automatically Added by addNops.pl
10739	21b8	00000000		nop	; Automatically Added by addNops.pl
10740	21b9	00000000		nop	; Automatically Added by addNops.pl
10741				; Automatically 16 NOPs removed by reduceNOPs.sh
10742			t_cursor:
10743			L_lib_lcd_41:
10744	21ba	00000000		nop	; Automatically Added by addNops.pl
10745	21bb	00000000		nop	; Automatically Added by addNops.pl
10746	21bc	00000000		nop	; Automatically Added by addNops.pl
10747				; Automatically 16 NOPs removed by reduceNOPs.sh
10748	21bd	afbefffc		sw	-4(%GPR29),%GPR30	
10749	21be	00000000		nop	; Automatically Added by addNops.pl
10750	21bf	00000000		nop	; Automatically Added by addNops.pl
10751	21c0	00000000		nop	; Automatically Added by addNops.pl
10752	21c1	00000000		nop	; Automatically added by fix-stall-insns.pl
10753	21c2	afbf0000		sw	0(%GPR29),%GPR31	
10754	21c3	00000000		nop	; Automatically Added by addNops.pl
10755	21c4	00000000		nop	; Automatically Added by addNops.pl
10756	21c5	00000000		nop	; Automatically Added by addNops.pl
10757	21c6	2fbe0004		subui	%GPR30,%GPR29,$4	
10758	21c7	00000000		nop	; Automatically Added by addNops.pl
10759	21c8	00000000		nop	; Automatically Added by addNops.pl
10760	21c9	00000000		nop	; Automatically Added by addNops.pl
10761				; Automatically 4 NOPs removed by reduceNOPs.sh
10762	21ca	2bbd000c		subi	%GPR29,%GPR29,$12	
10763	21cb	00000000		nop	; Automatically Added by addNops.pl
10764	21cc	00000000		nop	; Automatically Added by addNops.pl
10765	21cd	00000000		nop	; Automatically Added by addNops.pl
10766				; Automatically 16 NOPs removed by reduceNOPs.sh
10767	21ce	afc1fffc		sw	-4(%GPR30),%GPR1	
10768	21cf	00000000		nop	; Automatically Added by addNops.pl
10769	21d0	00000000		nop	; Automatically Added by addNops.pl
10770	21d1	00000000		nop	; Automatically Added by addNops.pl
10771				; Automatically 40 NOPs removed by reduceNOPs.sh
10772	21d2	2bc30004		subi	%GPR3,%GPR30,$4	
10773	21d3	00000000		nop	; Automatically Added by addNops.pl
10774	21d4	00000000		nop	; Automatically Added by addNops.pl
10775	21d5	00000000		nop	; Automatically Added by addNops.pl
10776	21d6	3c070000		lhi	%GPR7,$0	
10777	21d7	00000000		nop	; Automatically Added by addNops.pl
10778	21d8	00000000		nop	; Automatically Added by addNops.pl
10779	21d9	00000000		nop	; Automatically Added by addNops.pl
10780				; Automatically 16 NOPs removed by reduceNOPs.sh
10781	21da	34e7006f		ori	%GPR7,%GPR7,$111	
10782	21db	00000000		nop	; Automatically Added by addNops.pl
10783	21dc	00000000		nop	; Automatically Added by addNops.pl
10784	21dd	00000000		nop	; Automatically Added by addNops.pl
10785	21de	3c060000		lhi	%GPR6,$0	
10786	21df	00000000		nop	; Automatically Added by addNops.pl
10787	21e0	00000000		nop	; Automatically Added by addNops.pl
10788	21e1	00000000		nop	; Automatically Added by addNops.pl
10789				; Automatically 16 NOPs removed by reduceNOPs.sh
10790	21e2	34c60000		ori	%GPR6,%GPR6,$0	
10791	21e3	00000000		nop	; Automatically Added by addNops.pl
10792	21e4	00000000		nop	; Automatically Added by addNops.pl
10793	21e5	00000000		nop	; Automatically Added by addNops.pl
10794	21e6	3c050000		lhi	%GPR5,$0	
10795	21e7	00000000		nop	; Automatically Added by addNops.pl
10796	21e8	00000000		nop	; Automatically Added by addNops.pl
10797	21e9	00000000		nop	; Automatically Added by addNops.pl
10798				; Automatically 16 NOPs removed by reduceNOPs.sh
10799	21ea	34a50001		ori	%GPR5,%GPR5,$1	
10800	21eb	00000000		nop	; Automatically Added by addNops.pl
10801	21ec	00000000		nop	; Automatically Added by addNops.pl
10802	21ed	00000000		nop	; Automatically Added by addNops.pl
10803	21ee	3c020000		lhi	%GPR2,$0	
10804	21ef	00000000		nop	; Automatically Added by addNops.pl
10805	21f0	00000000		nop	; Automatically Added by addNops.pl
10806	21f1	00000000		nop	; Automatically Added by addNops.pl
10807				; Automatically 16 NOPs removed by reduceNOPs.sh
10808	21f2	34420043		ori	%GPR2,%GPR2,$67	
10809	21f3	00000000		nop	; Automatically Added by addNops.pl
10810	21f4	00000000		nop	; Automatically Added by addNops.pl
10811	21f5	00000000		nop	; Automatically Added by addNops.pl
10812	21f6	3c010000		lhi	%GPR1,$0	
10813	21f7	00000000		nop	; Automatically Added by addNops.pl
10814	21f8	00000000		nop	; Automatically Added by addNops.pl
10815	21f9	00000000		nop	; Automatically Added by addNops.pl
10816				; Automatically 16 NOPs removed by reduceNOPs.sh
10817	21fa	34210054		ori	%GPR1,%GPR1,$84	
10818	21fb	00000000		nop	; Automatically Added by addNops.pl
10819	21fc	00000000		nop	; Automatically Added by addNops.pl
10820	21fd	00000000		nop	; Automatically Added by addNops.pl
10821	21fe	3c040000		lhi	%GPR4,$0	
10822	21ff	00000000		nop	; Automatically Added by addNops.pl
10823	2200	00000000		nop	; Automatically Added by addNops.pl
10824	2201	00000000		nop	; Automatically Added by addNops.pl
10825				; Automatically 16 NOPs removed by reduceNOPs.sh
10826	2202	34840000		ori	%GPR4,%GPR4,$0	
10827	2203	00000000		nop	; Automatically Added by addNops.pl
10828	2204	00000000		nop	; Automatically Added by addNops.pl
10829	2205	00000000		nop	; Automatically Added by addNops.pl
10830				; Automatically 16 NOPs removed by reduceNOPs.sh
10831	2206	2bbd0008		subi	%GPR29,%GPR29,$8	
10832	2207	00000000		nop	; Automatically Added by addNops.pl
10833	2208	00000000		nop	; Automatically Added by addNops.pl
10834	2209	00000000		nop	; Automatically Added by addNops.pl
10835				; Automatically 16 NOPs removed by reduceNOPs.sh
10836	220a	0ffffcd7		jal	sendcommand	
10837	220b	00000000		nop	; Automatically Added by addNops.pl
10838	220c	00000000		nop	; Automatically Added by addNops.pl
10839	220d	00000000		nop	; Automatically Added by addNops.pl
10840				; Automatically 16 NOPs removed by reduceNOPs.sh
10841	220e	23bd0008		addi	%GPR29,%GPR29,$8	
10842	220f	00000000		nop	; Automatically Added by addNops.pl
10843	2210	00000000		nop	; Automatically Added by addNops.pl
10844	2211	00000000		nop	; Automatically Added by addNops.pl
10845				; Automatically 36 NOPs removed by reduceNOPs.sh
10846	2212	3c1c0000		lhi	%GPR28,$0	
10847	2213	00000000		nop	; Automatically Added by addNops.pl
10848	2214	00000000		nop	; Automatically Added by addNops.pl
10849	2215	00000000		nop	; Automatically Added by addNops.pl
10850				; Automatically 16 NOPs removed by reduceNOPs.sh
10851	2216	379c0000		ori	%GPR28,%GPR28,$0	
10852	2217	00000000		nop	; Automatically Added by addNops.pl
10853	2218	00000000		nop	; Automatically Added by addNops.pl
10854	2219	00000000		nop	; Automatically Added by addNops.pl
10855				; Automatically 16 NOPs removed by reduceNOPs.sh
10856	221a	08000004		j	L_lib_lcd_42	
10857	221b	00000000		nop	; Automatically Added by addNops.pl
10858	221c	00000000		nop	; Automatically Added by addNops.pl
10859	221d	00000000		nop	; Automatically Added by addNops.pl
10860				; Automatically 16 NOPs removed by reduceNOPs.sh
10861			L_lib_lcd_42:
10862	221e	00000000		nop	; Automatically Added by addNops.pl
10863	221f	00000000		nop	; Automatically Added by addNops.pl
10864	2220	00000000		nop	; Automatically Added by addNops.pl
10865				; Automatically 16 NOPs removed by reduceNOPs.sh
10866	2221	8fdf0004		lw	%GPR31,4(%GPR30)	
10867	2222	00000000		nop	; Automatically Added by addNops.pl
10868	2223	00000000		nop	; Automatically Added by addNops.pl
10869	2224	00000000		nop	; Automatically Added by addNops.pl
10870	2225	27dd0004		addui	%GPR29,%GPR30,$4	
10871	2226	00000000		nop	; Automatically Added by addNops.pl
10872	2227	00000000		nop	; Automatically Added by addNops.pl
10873	2228	00000000		nop	; Automatically Added by addNops.pl
10874	2229	8fde0000		lw	%GPR30,0(%GPR30)	
10875	222a	00000000		nop	; Automatically Added by addNops.pl
10876	222b	00000000		nop	; Automatically Added by addNops.pl
10877	222c	00000000		nop	; Automatically Added by addNops.pl
10878				; Automatically 8 NOPs removed by reduceNOPs.sh
10879	222d	00000000		nop
10880	222e	00000000		nop
10881	222f	03e00008		jr	%GPR31	
10882	2230	00000000		nop	; Automatically Added by addNops.pl
10883	2231	00000000		nop	; Automatically Added by addNops.pl
10884	2232	00000000		nop	; Automatically Added by addNops.pl
10885				; Automatically 16 NOPs removed by reduceNOPs.sh
10886			g_print:
10887			L_lib_lcd_43:
10888	2233	00000000		nop	; Automatically Added by addNops.pl
10889	2234	00000000		nop	; Automatically Added by addNops.pl
10890	2235	00000000		nop	; Automatically Added by addNops.pl
10891				; Automatically 16 NOPs removed by reduceNOPs.sh
10892	2236	afbefffc		sw	-4(%GPR29),%GPR30	
10893	2237	00000000		nop	; Automatically Added by addNops.pl
10894	2238	00000000		nop	; Automatically Added by addNops.pl
10895	2239	00000000		nop	; Automatically Added by addNops.pl
10896	223a	00000000		nop	; Automatically added by fix-stall-insns.pl
10897	223b	afbf0000		sw	0(%GPR29),%GPR31	
10898	223c	00000000		nop	; Automatically Added by addNops.pl
10899	223d	00000000		nop	; Automatically Added by addNops.pl
10900	223e	00000000		nop	; Automatically Added by addNops.pl
10901	223f	2fbe0004		subui	%GPR30,%GPR29,$4	
10902	2240	00000000		nop	; Automatically Added by addNops.pl
10903	2241	00000000		nop	; Automatically Added by addNops.pl
10904	2242	00000000		nop	; Automatically Added by addNops.pl
10905				; Automatically 4 NOPs removed by reduceNOPs.sh
10906	2243	2bbd0014		subi	%GPR29,%GPR29,$20	
10907	2244	00000000		nop	; Automatically Added by addNops.pl
10908	2245	00000000		nop	; Automatically Added by addNops.pl
10909	2246	00000000		nop	; Automatically Added by addNops.pl
10910				; Automatically 16 NOPs removed by reduceNOPs.sh
10911	2247	afc1fff4		sw	-12(%GPR30),%GPR1	
10912	2248	00000000		nop	; Automatically Added by addNops.pl
10913	2249	00000000		nop	; Automatically Added by addNops.pl
10914	224a	00000000		nop	; Automatically Added by addNops.pl
10915				; Automatically 20 NOPs removed by reduceNOPs.sh
10916	224b	00000000		nop	; Automatically added by fix-stall-insns.pl
10917	224c	afc2fff8		sw	-8(%GPR30),%GPR2	
10918	224d	00000000		nop	; Automatically Added by addNops.pl
10919	224e	00000000		nop	; Automatically Added by addNops.pl
10920	224f	00000000		nop	; Automatically Added by addNops.pl
10921	2250	2bc10008		subi	%GPR1,%GPR30,$8	
10922	2251	00000000		nop	; Automatically Added by addNops.pl
10923	2252	00000000		nop	; Automatically Added by addNops.pl
10924	2253	00000000		nop	; Automatically Added by addNops.pl
10925				; Automatically 8 NOPs removed by reduceNOPs.sh
10926	2254	3c020000		lhi	%GPR2,$0	
10927	2255	00000000		nop	; Automatically Added by addNops.pl
10928	2256	00000000		nop	; Automatically Added by addNops.pl
10929	2257	00000000		nop	; Automatically Added by addNops.pl
10930				; Automatically 16 NOPs removed by reduceNOPs.sh
10931	2258	34420004		ori	%GPR2,%GPR2,$4	
10932	2259	00000000		nop	; Automatically Added by addNops.pl
10933	225a	00000000		nop	; Automatically Added by addNops.pl
10934	225b	00000000		nop	; Automatically Added by addNops.pl
10935				; Automatically 16 NOPs removed by reduceNOPs.sh
10936	225c	00220820		add	%GPR1,%GPR1,%GPR2	
10937	225d	00000000		nop	; Automatically Added by addNops.pl
10938	225e	00000000		nop	; Automatically Added by addNops.pl
10939	225f	00000000		nop	; Automatically Added by addNops.pl
10940				; Automatically 16 NOPs removed by reduceNOPs.sh
10941	2260	ac230000		sw	0(%GPR1),%GPR3	
10942	2261	00000000		nop	; Automatically Added by addNops.pl
10943	2262	00000000		nop	; Automatically Added by addNops.pl
10944	2263	00000000		nop	; Automatically Added by addNops.pl
10945	2264	00000000		nop	; Automatically added by fix-stall-insns.pl
10946	2265	8fc1fff4		lw	%GPR1,-12(%GPR30)	
10947	2266	00000000		nop	; Automatically Added by addNops.pl
10948	2267	00000000		nop	; Automatically Added by addNops.pl
10949	2268	00000000		nop	; Automatically Added by addNops.pl
10950				; Automatically 16 NOPs removed by reduceNOPs.sh
10951	2269	2bbd0008		subi	%GPR29,%GPR29,$8	
10952	226a	00000000		nop	; Automatically Added by addNops.pl
10953	226b	00000000		nop	; Automatically Added by addNops.pl
10954	226c	00000000		nop	; Automatically Added by addNops.pl
10955				; Automatically 16 NOPs removed by reduceNOPs.sh
10956	226d	0ffff70d		jal	strlength	
10957	226e	00000000		nop	; Automatically Added by addNops.pl
10958	226f	00000000		nop	; Automatically Added by addNops.pl
10959	2270	00000000		nop	; Automatically Added by addNops.pl
10960				; Automatically 16 NOPs removed by reduceNOPs.sh
10961	2271	23bd0008		addi	%GPR29,%GPR29,$8	
10962	2272	00000000		nop	; Automatically Added by addNops.pl
10963	2273	00000000		nop	; Automatically Added by addNops.pl
10964	2274	00000000		nop	; Automatically Added by addNops.pl
10965				; Automatically 36 NOPs removed by reduceNOPs.sh
10966	2275	8fc4fff4		lw	%GPR4,-12(%GPR30)	
10967	2276	00000000		nop	; Automatically Added by addNops.pl
10968	2277	00000000		nop	; Automatically Added by addNops.pl
10969	2278	00000000		nop	; Automatically Added by addNops.pl
10970	2279	23860001		addi	%GPR6,%GPR28,$1	
10971	227a	00000000		nop	; Automatically Added by addNops.pl
10972	227b	00000000		nop	; Automatically Added by addNops.pl
10973	227c	00000000		nop	; Automatically Added by addNops.pl
10974	227d	2bc30008		subi	%GPR3,%GPR30,$8	
10975	227e	00000000		nop	; Automatically Added by addNops.pl
10976	227f	00000000		nop	; Automatically Added by addNops.pl
10977	2280	00000000		nop	; Automatically Added by addNops.pl
10978	2281	3c070000		lhi	%GPR7,$0	
10979	2282	00000000		nop	; Automatically Added by addNops.pl
10980	2283	00000000		nop	; Automatically Added by addNops.pl
10981	2284	00000000		nop	; Automatically Added by addNops.pl
10982				; Automatically 16 NOPs removed by reduceNOPs.sh
10983	2285	34e7006f		ori	%GPR7,%GPR7,$111	
10984	2286	00000000		nop	; Automatically Added by addNops.pl
10985	2287	00000000		nop	; Automatically Added by addNops.pl
10986	2288	00000000		nop	; Automatically Added by addNops.pl
10987	2289	3c050000		lhi	%GPR5,$0	
10988	228a	00000000		nop	; Automatically Added by addNops.pl
10989	228b	00000000		nop	; Automatically Added by addNops.pl
10990	228c	00000000		nop	; Automatically Added by addNops.pl
10991				; Automatically 16 NOPs removed by reduceNOPs.sh
10992	228d	34a50002		ori	%GPR5,%GPR5,$2	
10993	228e	00000000		nop	; Automatically Added by addNops.pl
10994	228f	00000000		nop	; Automatically Added by addNops.pl
10995	2290	00000000		nop	; Automatically Added by addNops.pl
10996	2291	3c020000		lhi	%GPR2,$0	
10997	2292	00000000		nop	; Automatically Added by addNops.pl
10998	2293	00000000		nop	; Automatically Added by addNops.pl
10999	2294	00000000		nop	; Automatically Added by addNops.pl
11000				; Automatically 16 NOPs removed by reduceNOPs.sh
11001	2295	3442004c		ori	%GPR2,%GPR2,$76	
11002	2296	00000000		nop	; Automatically Added by addNops.pl
11003	2297	00000000		nop	; Automatically Added by addNops.pl
11004	2298	00000000		nop	; Automatically Added by addNops.pl
11005	2299	3c010000		lhi	%GPR1,$0	
11006	229a	00000000		nop	; Automatically Added by addNops.pl
11007	229b	00000000		nop	; Automatically Added by addNops.pl
11008	229c	00000000		nop	; Automatically Added by addNops.pl
11009				; Automatically 16 NOPs removed by reduceNOPs.sh
11010	229d	3421005a		ori	%GPR1,%GPR1,$90	
11011	229e	00000000		nop	; Automatically Added by addNops.pl
11012	229f	00000000		nop	; Automatically Added by addNops.pl
11013	22a0	00000000		nop	; Automatically Added by addNops.pl
11014				; Automatically 16 NOPs removed by reduceNOPs.sh
11015	22a1	2bbd0008		subi	%GPR29,%GPR29,$8	
11016	22a2	00000000		nop	; Automatically Added by addNops.pl
11017	22a3	00000000		nop	; Automatically Added by addNops.pl
11018	22a4	00000000		nop	; Automatically Added by addNops.pl
11019				; Automatically 16 NOPs removed by reduceNOPs.sh
11020	22a5	0ffffc3c		jal	sendcommand	
11021	22a6	00000000		nop	; Automatically Added by addNops.pl
11022	22a7	00000000		nop	; Automatically Added by addNops.pl
11023	22a8	00000000		nop	; Automatically Added by addNops.pl
11024				; Automatically 16 NOPs removed by reduceNOPs.sh
11025	22a9	23bd0008		addi	%GPR29,%GPR29,$8	
11026	22aa	00000000		nop	; Automatically Added by addNops.pl
11027	22ab	00000000		nop	; Automatically Added by addNops.pl
11028	22ac	00000000		nop	; Automatically Added by addNops.pl
11029				; Automatically 36 NOPs removed by reduceNOPs.sh
11030	22ad	3c1c0000		lhi	%GPR28,$0	
11031	22ae	00000000		nop	; Automatically Added by addNops.pl
11032	22af	00000000		nop	; Automatically Added by addNops.pl
11033	22b0	00000000		nop	; Automatically Added by addNops.pl
11034				; Automatically 16 NOPs removed by reduceNOPs.sh
11035	22b1	379c0000		ori	%GPR28,%GPR28,$0	
11036	22b2	00000000		nop	; Automatically Added by addNops.pl
11037	22b3	00000000		nop	; Automatically Added by addNops.pl
11038	22b4	00000000		nop	; Automatically Added by addNops.pl
11039				; Automatically 16 NOPs removed by reduceNOPs.sh
11040	22b5	08000004		j	L_lib_lcd_44	
11041	22b6	00000000		nop	; Automatically Added by addNops.pl
11042	22b7	00000000		nop	; Automatically Added by addNops.pl
11043	22b8	00000000		nop	; Automatically Added by addNops.pl
11044				; Automatically 16 NOPs removed by reduceNOPs.sh
11045			L_lib_lcd_44:
11046	22b9	00000000		nop	; Automatically Added by addNops.pl
11047	22ba	00000000		nop	; Automatically Added by addNops.pl
11048	22bb	00000000		nop	; Automatically Added by addNops.pl
11049				; Automatically 16 NOPs removed by reduceNOPs.sh
11050	22bc	8fdf0004		lw	%GPR31,4(%GPR30)	
11051	22bd	00000000		nop	; Automatically Added by addNops.pl
11052	22be	00000000		nop	; Automatically Added by addNops.pl
11053	22bf	00000000		nop	; Automatically Added by addNops.pl
11054	22c0	27dd0004		addui	%GPR29,%GPR30,$4	
11055	22c1	00000000		nop	; Automatically Added by addNops.pl
11056	22c2	00000000		nop	; Automatically Added by addNops.pl
11057	22c3	00000000		nop	; Automatically Added by addNops.pl
11058	22c4	8fde0000		lw	%GPR30,0(%GPR30)	
11059	22c5	00000000		nop	; Automatically Added by addNops.pl
11060	22c6	00000000		nop	; Automatically Added by addNops.pl
11061	22c7	00000000		nop	; Automatically Added by addNops.pl
11062				; Automatically 8 NOPs removed by reduceNOPs.sh
11063	22c8	00000000		nop
11064	22c9	00000000		nop
11065	22ca	03e00008		jr	%GPR31	
11066	22cb	00000000		nop	; Automatically Added by addNops.pl
11067	22cc	00000000		nop	; Automatically Added by addNops.pl
11068	22cd	00000000		nop	; Automatically Added by addNops.pl
11069				; Automatically 16 NOPs removed by reduceNOPs.sh
11070			g_drawrect:
11071			L_lib_lcd_45:
11072	22ce	00000000		nop	; Automatically Added by addNops.pl
11073	22cf	00000000		nop	; Automatically Added by addNops.pl
11074	22d0	00000000		nop	; Automatically Added by addNops.pl
11075				; Automatically 16 NOPs removed by reduceNOPs.sh
11076	22d1	afbefffc		sw	-4(%GPR29),%GPR30	
11077	22d2	00000000		nop	; Automatically Added by addNops.pl
11078	22d3	00000000		nop	; Automatically Added by addNops.pl
11079	22d4	00000000		nop	; Automatically Added by addNops.pl
11080	22d5	00000000		nop	; Automatically added by fix-stall-insns.pl
11081	22d6	afbf0000		sw	0(%GPR29),%GPR31	
11082	22d7	00000000		nop	; Automatically Added by addNops.pl
11083	22d8	00000000		nop	; Automatically Added by addNops.pl
11084	22d9	00000000		nop	; Automatically Added by addNops.pl
11085	22da	2fbe0004		subui	%GPR30,%GPR29,$4	
11086	22db	00000000		nop	; Automatically Added by addNops.pl
11087	22dc	00000000		nop	; Automatically Added by addNops.pl
11088	22dd	00000000		nop	; Automatically Added by addNops.pl
11089				; Automatically 4 NOPs removed by reduceNOPs.sh
11090	22de	2bbd0008		subi	%GPR29,%GPR29,$8	
11091	22df	00000000		nop	; Automatically Added by addNops.pl
11092	22e0	00000000		nop	; Automatically Added by addNops.pl
11093	22e1	00000000		nop	; Automatically Added by addNops.pl
11094				; Automatically 56 NOPs removed by reduceNOPs.sh
11095	22e2	3c1c0000		lhi	%GPR28,$0	
11096	22e3	00000000		nop	; Automatically Added by addNops.pl
11097	22e4	00000000		nop	; Automatically Added by addNops.pl
11098	22e5	00000000		nop	; Automatically Added by addNops.pl
11099				; Automatically 16 NOPs removed by reduceNOPs.sh
11100	22e6	379c0000		ori	%GPR28,%GPR28,$0	
11101	22e7	00000000		nop	; Automatically Added by addNops.pl
11102	22e8	00000000		nop	; Automatically Added by addNops.pl
11103	22e9	00000000		nop	; Automatically Added by addNops.pl
11104				; Automatically 16 NOPs removed by reduceNOPs.sh
11105	22ea	08000004		j	L_lib_lcd_46	
11106	22eb	00000000		nop	; Automatically Added by addNops.pl
11107	22ec	00000000		nop	; Automatically Added by addNops.pl
11108	22ed	00000000		nop	; Automatically Added by addNops.pl
11109				; Automatically 16 NOPs removed by reduceNOPs.sh
11110			L_lib_lcd_46:
11111	22ee	00000000		nop	; Automatically Added by addNops.pl
11112	22ef	00000000		nop	; Automatically Added by addNops.pl
11113	22f0	00000000		nop	; Automatically Added by addNops.pl
11114				; Automatically 16 NOPs removed by reduceNOPs.sh
11115	22f1	8fdf0004		lw	%GPR31,4(%GPR30)	
11116	22f2	00000000		nop	; Automatically Added by addNops.pl
11117	22f3	00000000		nop	; Automatically Added by addNops.pl
11118	22f4	00000000		nop	; Automatically Added by addNops.pl
11119	22f5	27dd0004		addui	%GPR29,%GPR30,$4	
11120	22f6	00000000		nop	; Automatically Added by addNops.pl
11121	22f7	00000000		nop	; Automatically Added by addNops.pl
11122	22f8	00000000		nop	; Automatically Added by addNops.pl
11123	22f9	8fde0000		lw	%GPR30,0(%GPR30)	
11124	22fa	00000000		nop	; Automatically Added by addNops.pl
11125	22fb	00000000		nop	; Automatically Added by addNops.pl
11126	22fc	00000000		nop	; Automatically Added by addNops.pl
11127				; Automatically 8 NOPs removed by reduceNOPs.sh
11128	22fd	00000000		nop
11129	22fe	00000000		nop
11130	22ff	03e00008		jr	%GPR31	
11131	2300	00000000		nop	; Automatically Added by addNops.pl
11132	2301	00000000		nop	; Automatically Added by addNops.pl
11133	2302	00000000		nop	; Automatically Added by addNops.pl
11134				; Automatically 16 NOPs removed by reduceNOPs.sh
11135			g_drawline:
11136			L_lib_lcd_47:
11137	2303	00000000		nop	; Automatically Added by addNops.pl
11138	2304	00000000		nop	; Automatically Added by addNops.pl
11139	2305	00000000		nop	; Automatically Added by addNops.pl
11140				; Automatically 16 NOPs removed by reduceNOPs.sh
11141	2306	afbefffc		sw	-4(%GPR29),%GPR30	
11142	2307	00000000		nop	; Automatically Added by addNops.pl
11143	2308	00000000		nop	; Automatically Added by addNops.pl
11144	2309	00000000		nop	; Automatically Added by addNops.pl
11145	230a	00000000		nop	; Automatically added by fix-stall-insns.pl
11146	230b	afbf0000		sw	0(%GPR29),%GPR31	
11147	230c	00000000		nop	; Automatically Added by addNops.pl
11148	230d	00000000		nop	; Automatically Added by addNops.pl
11149	230e	00000000		nop	; Automatically Added by addNops.pl
11150	230f	2fbe0004		subui	%GPR30,%GPR29,$4	
11151	2310	00000000		nop	; Automatically Added by addNops.pl
11152	2311	00000000		nop	; Automatically Added by addNops.pl
11153	2312	00000000		nop	; Automatically Added by addNops.pl
11154				; Automatically 4 NOPs removed by reduceNOPs.sh
11155	2313	2bbd0008		subi	%GPR29,%GPR29,$8	
11156	2314	00000000		nop	; Automatically Added by addNops.pl
11157	2315	00000000		nop	; Automatically Added by addNops.pl
11158	2316	00000000		nop	; Automatically Added by addNops.pl
11159				; Automatically 56 NOPs removed by reduceNOPs.sh
11160	2317	3c1c0000		lhi	%GPR28,$0	
11161	2318	00000000		nop	; Automatically Added by addNops.pl
11162	2319	00000000		nop	; Automatically Added by addNops.pl
11163	231a	00000000		nop	; Automatically Added by addNops.pl
11164				; Automatically 16 NOPs removed by reduceNOPs.sh
11165	231b	379c0000		ori	%GPR28,%GPR28,$0	
11166	231c	00000000		nop	; Automatically Added by addNops.pl
11167	231d	00000000		nop	; Automatically Added by addNops.pl
11168	231e	00000000		nop	; Automatically Added by addNops.pl
11169				; Automatically 16 NOPs removed by reduceNOPs.sh
11170	231f	08000004		j	L_lib_lcd_48	
11171	2320	00000000		nop	; Automatically Added by addNops.pl
11172	2321	00000000		nop	; Automatically Added by addNops.pl
11173	2322	00000000		nop	; Automatically Added by addNops.pl
11174				; Automatically 16 NOPs removed by reduceNOPs.sh
11175			L_lib_lcd_48:
11176	2323	00000000		nop	; Automatically Added by addNops.pl
11177	2324	00000000		nop	; Automatically Added by addNops.pl
11178	2325	00000000		nop	; Automatically Added by addNops.pl
11179				; Automatically 16 NOPs removed by reduceNOPs.sh
11180	2326	8fdf0004		lw	%GPR31,4(%GPR30)	
11181	2327	00000000		nop	; Automatically Added by addNops.pl
11182	2328	00000000		nop	; Automatically Added by addNops.pl
11183	2329	00000000		nop	; Automatically Added by addNops.pl
11184	232a	27dd0004		addui	%GPR29,%GPR30,$4	
11185	232b	00000000		nop	; Automatically Added by addNops.pl
11186	232c	00000000		nop	; Automatically Added by addNops.pl
11187	232d	00000000		nop	; Automatically Added by addNops.pl
11188	232e	8fde0000		lw	%GPR30,0(%GPR30)	
11189	232f	00000000		nop	; Automatically Added by addNops.pl
11190	2330	00000000		nop	; Automatically Added by addNops.pl
11191	2331	00000000		nop	; Automatically Added by addNops.pl
11192				; Automatically 8 NOPs removed by reduceNOPs.sh
11193	2332	00000000		nop
11194	2333	00000000		nop
11195	2334	03e00008		jr	%GPR31	
11196	2335	00000000		nop	; Automatically Added by addNops.pl
11197	2336	00000000		nop	; Automatically Added by addNops.pl
11198	2337	00000000		nop	; Automatically Added by addNops.pl
11199				; Automatically 16 NOPs removed by reduceNOPs.sh
11200			g_makebar:
11201			L_lib_lcd_49:
11202	2338	00000000		nop	; Automatically Added by addNops.pl
11203	2339	00000000		nop	; Automatically Added by addNops.pl
11204	233a	00000000		nop	; Automatically Added by addNops.pl
11205				; Automatically 16 NOPs removed by reduceNOPs.sh
11206	233b	afbefffc		sw	-4(%GPR29),%GPR30	
11207	233c	00000000		nop	; Automatically Added by addNops.pl
11208	233d	00000000		nop	; Automatically Added by addNops.pl
11209	233e	00000000		nop	; Automatically Added by addNops.pl
11210	233f	00000000		nop	; Automatically added by fix-stall-insns.pl
11211	2340	afbf0000		sw	0(%GPR29),%GPR31	
11212	2341	00000000		nop	; Automatically Added by addNops.pl
11213	2342	00000000		nop	; Automatically Added by addNops.pl
11214	2343	00000000		nop	; Automatically Added by addNops.pl
11215	2344	2fbe0004		subui	%GPR30,%GPR29,$4	
11216	2345	00000000		nop	; Automatically Added by addNops.pl
11217	2346	00000000		nop	; Automatically Added by addNops.pl
11218	2347	00000000		nop	; Automatically Added by addNops.pl
11219				; Automatically 4 NOPs removed by reduceNOPs.sh
11220	2348	2bbd0034		subi	%GPR29,%GPR29,$52	
11221	2349	00000000		nop	; Automatically Added by addNops.pl
11222	234a	00000000		nop	; Automatically Added by addNops.pl
11223	234b	00000000		nop	; Automatically Added by addNops.pl
11224				; Automatically 16 NOPs removed by reduceNOPs.sh
11225	234c	afc7ffd8		sw	-40(%GPR30),%GPR7	
11226	234d	00000000		nop	; Automatically Added by addNops.pl
11227	234e	00000000		nop	; Automatically Added by addNops.pl
11228	234f	00000000		nop	; Automatically Added by addNops.pl
11229	2350	00000000		nop	; Automatically added by fix-stall-insns.pl
11230	2351	afcaffd4		sw	-44(%GPR30),%GPR10	
11231	2352	00000000		nop	; Automatically Added by addNops.pl
11232	2353	00000000		nop	; Automatically Added by addNops.pl
11233	2354	00000000		nop	; Automatically Added by addNops.pl
11234				; Automatically 12 NOPs removed by reduceNOPs.sh
11235	2355	3c070000		lhi	%GPR7,$( L_lib_lcd_1	/0x10000)
11236	2356	00000000		nop
11237	2357	00000000		nop
11238	2358	00000000		nop
11239	2359	34e707a0		ori	%GPR7,%GPR7,$( L_lib_lcd_1	%0x10000)
11240	235a	00000000		nop	; Automatically Added by addNops.pl
11241	235b	00000000		nop	; Automatically Added by addNops.pl
11242	235c	00000000		nop	; Automatically Added by addNops.pl
11243				; Automatically 16 NOPs removed by reduceNOPs.sh
11244	235d	8ce70000		lw	%GPR7,0(%GPR7)	
11245	235e	00000000		nop	; Automatically Added by addNops.pl
11246	235f	00000000		nop	; Automatically Added by addNops.pl
11247	2360	00000000		nop	; Automatically Added by addNops.pl
11248	2361	3c0a0000		lhi	%GPR10,$0	
11249	2362	00000000		nop	; Automatically Added by addNops.pl
11250	2363	00000000		nop	; Automatically Added by addNops.pl
11251	2364	00000000		nop	; Automatically Added by addNops.pl
11252				; Automatically 16 NOPs removed by reduceNOPs.sh
11253	2365	354a0020		ori	%GPR10,%GPR10,$32	
11254	2366	00000000		nop	; Automatically Added by addNops.pl
11255	2367	00000000		nop	; Automatically Added by addNops.pl
11256	2368	00000000		nop	; Automatically Added by addNops.pl
11257				; Automatically 16 NOPs removed by reduceNOPs.sh
11258	2369	00ead82a		slt	%GPR27,%GPR7,%GPR10	
11259	236a	00000000		nop	; Automatically Added by addNops.pl
11260	236b	00000000		nop	; Automatically Added by addNops.pl
11261	236c	00000000		nop	; Automatically Added by addNops.pl
11262	236d	17600008		bnez	%GPR27,L_lib_lcd_50	
11263	236e	00000000		nop	; Automatically Added by addNops.pl
11264	236f	00000000		nop	; Automatically Added by addNops.pl
11265	2370	00000000		nop	; Automatically Added by addNops.pl
11266				; Automatically 16 NOPs removed by reduceNOPs.sh
11267	2371	08000200		j	L_lib_lcd_53	
11268	2372	00000000		nop	; Automatically Added by addNops.pl
11269	2373	00000000		nop	; Automatically Added by addNops.pl
11270	2374	00000000		nop	; Automatically Added by addNops.pl
11271				; Automatically 16 NOPs removed by reduceNOPs.sh
11272			L_lib_lcd_50:
11273	2375	00000000		nop	; Automatically Added by addNops.pl
11274	2376	00000000		nop	; Automatically Added by addNops.pl
11275	2377	00000000		nop	; Automatically Added by addNops.pl
11276	2378	3c070000		lhi	%GPR7,$( L_lib_lcd_1	/0x10000)
11277	2379	00000000		nop
11278	237a	00000000		nop
11279	237b	00000000		nop
11280	237c	34e707a0		ori	%GPR7,%GPR7,$( L_lib_lcd_1	%0x10000)
11281	237d	00000000		nop	; Automatically Added by addNops.pl
11282	237e	00000000		nop	; Automatically Added by addNops.pl
11283	237f	00000000		nop	; Automatically Added by addNops.pl
11284				; Automatically 8 NOPs removed by reduceNOPs.sh
11285	2380	2bca0024		subi	%GPR10,%GPR30,$36	
11286	2381	00000000		nop	; Automatically Added by addNops.pl
11287	2382	00000000		nop	; Automatically Added by addNops.pl
11288	2383	00000000		nop	; Automatically Added by addNops.pl
11289				; Automatically 8 NOPs removed by reduceNOPs.sh
11290	2384	8ce70000		lw	%GPR7,0(%GPR7)	
11291	2385	00000000		nop	; Automatically Added by addNops.pl
11292	2386	00000000		nop	; Automatically Added by addNops.pl
11293	2387	00000000		nop	; Automatically Added by addNops.pl
11294	2388	3c0b0000		lhi	%GPR11,$0	
11295	2389	00000000		nop	; Automatically Added by addNops.pl
11296	238a	00000000		nop	; Automatically Added by addNops.pl
11297	238b	00000000		nop	; Automatically Added by addNops.pl
11298				; Automatically 16 NOPs removed by reduceNOPs.sh
11299	238c	356b0004		ori	%GPR11,%GPR11,$4	
11300	238d	00000000		nop	; Automatically Added by addNops.pl
11301	238e	00000000		nop	; Automatically Added by addNops.pl
11302	238f	00000000		nop	; Automatically Added by addNops.pl
11303	2390	2bcc0024		subi	%GPR12,%GPR30,$36	
11304	2391	00000000		nop	; Automatically Added by addNops.pl
11305	2392	00000000		nop	; Automatically Added by addNops.pl
11306	2393	00000000		nop	; Automatically Added by addNops.pl
11307				; Automatically 8 NOPs removed by reduceNOPs.sh
11308	2394	afc7ffdc		sw	-36(%GPR30),%GPR7	
11309	2395	00000000		nop	; Automatically Added by addNops.pl
11310	2396	00000000		nop	; Automatically Added by addNops.pl
11311	2397	00000000		nop	; Automatically Added by addNops.pl
11312	2398	014b5020		add	%GPR10,%GPR10,%GPR11	
11313	2399	00000000		nop	; Automatically Added by addNops.pl
11314	239a	00000000		nop	; Automatically Added by addNops.pl
11315	239b	00000000		nop	; Automatically Added by addNops.pl
11316	239c	3c070000		lhi	%GPR7,$0	
11317	239d	00000000		nop	; Automatically Added by addNops.pl
11318	239e	00000000		nop	; Automatically Added by addNops.pl
11319	239f	00000000		nop	; Automatically Added by addNops.pl
11320				; Automatically 16 NOPs removed by reduceNOPs.sh
11321	23a0	34e70008		ori	%GPR7,%GPR7,$8	
11322	23a1	00000000		nop	; Automatically Added by addNops.pl
11323	23a2	00000000		nop	; Automatically Added by addNops.pl
11324	23a3	00000000		nop	; Automatically Added by addNops.pl
11325	23a4	2bcb0024		subi	%GPR11,%GPR30,$36	
11326	23a5	00000000		nop	; Automatically Added by addNops.pl
11327	23a6	00000000		nop	; Automatically Added by addNops.pl
11328	23a7	00000000		nop	; Automatically Added by addNops.pl
11329	23a8	3c0d0000		lhi	%GPR13,$0	
11330	23a9	00000000		nop	; Automatically Added by addNops.pl
11331	23aa	00000000		nop	; Automatically Added by addNops.pl
11332	23ab	00000000		nop	; Automatically Added by addNops.pl
11333				; Automatically 16 NOPs removed by reduceNOPs.sh
11334	23ac	35ad000c		ori	%GPR13,%GPR13,$12	
11335	23ad	00000000		nop	; Automatically Added by addNops.pl
11336	23ae	00000000		nop	; Automatically Added by addNops.pl
11337	23af	00000000		nop	; Automatically Added by addNops.pl
11338	23b0	ad410000		sw	0(%GPR10),%GPR1	
11339	23b1	00000000		nop	; Automatically Added by addNops.pl
11340	23b2	00000000		nop	; Automatically Added by addNops.pl
11341	23b3	00000000		nop	; Automatically Added by addNops.pl
11342	23b4	01870820		add	%GPR1,%GPR12,%GPR7	
11343	23b5	00000000		nop	; Automatically Added by addNops.pl
11344	23b6	00000000		nop	; Automatically Added by addNops.pl
11345	23b7	00000000		nop	; Automatically Added by addNops.pl
11346				; Automatically 8 NOPs removed by reduceNOPs.sh
11347	23b8	2bc70024		subi	%GPR7,%GPR30,$36	
11348	23b9	00000000		nop	; Automatically Added by addNops.pl
11349	23ba	00000000		nop	; Automatically Added by addNops.pl
11350	23bb	00000000		nop	; Automatically Added by addNops.pl
11351				; Automatically 8 NOPs removed by reduceNOPs.sh
11352	23bc	ac220000		sw	0(%GPR1),%GPR2	
11353	23bd	00000000		nop	; Automatically Added by addNops.pl
11354	23be	00000000		nop	; Automatically Added by addNops.pl
11355	23bf	00000000		nop	; Automatically Added by addNops.pl
11356	23c0	016d0820		add	%GPR1,%GPR11,%GPR13	
11357	23c1	00000000		nop	; Automatically Added by addNops.pl
11358	23c2	00000000		nop	; Automatically Added by addNops.pl
11359	23c3	00000000		nop	; Automatically Added by addNops.pl
11360	23c4	3c0a0000		lhi	%GPR10,$0	
11361	23c5	00000000		nop	; Automatically Added by addNops.pl
11362	23c6	00000000		nop	; Automatically Added by addNops.pl
11363	23c7	00000000		nop	; Automatically Added by addNops.pl
11364				; Automatically 16 NOPs removed by reduceNOPs.sh
11365	23c8	354a0010		ori	%GPR10,%GPR10,$16	
11366	23c9	00000000		nop	; Automatically Added by addNops.pl
11367	23ca	00000000		nop	; Automatically Added by addNops.pl
11368	23cb	00000000		nop	; Automatically Added by addNops.pl
11369	23cc	2bc20024		subi	%GPR2,%GPR30,$36	
11370	23cd	00000000		nop	; Automatically Added by addNops.pl
11371	23ce	00000000		nop	; Automatically Added by addNops.pl
11372	23cf	00000000		nop	; Automatically Added by addNops.pl
11373	23d0	3c0b0000		lhi	%GPR11,$0	
11374	23d1	00000000		nop	; Automatically Added by addNops.pl
11375	23d2	00000000		nop	; Automatically Added by addNops.pl
11376	23d3	00000000		nop	; Automatically Added by addNops.pl
11377				; Automatically 16 NOPs removed by reduceNOPs.sh
11378	23d4	356b0014		ori	%GPR11,%GPR11,$20	
11379	23d5	00000000		nop	; Automatically Added by addNops.pl
11380	23d6	00000000		nop	; Automatically Added by addNops.pl
11381	23d7	00000000		nop	; Automatically Added by addNops.pl
11382	23d8	ac230000		sw	0(%GPR1),%GPR3	
11383	23d9	00000000		nop	; Automatically Added by addNops.pl
11384	23da	00000000		nop	; Automatically Added by addNops.pl
11385	23db	00000000		nop	; Automatically Added by addNops.pl
11386	23dc	00ea0820		add	%GPR1,%GPR7,%GPR10	
11387	23dd	00000000		nop	; Automatically Added by addNops.pl
11388	23de	00000000		nop	; Automatically Added by addNops.pl
11389	23df	00000000		nop	; Automatically Added by addNops.pl
11390				; Automatically 8 NOPs removed by reduceNOPs.sh
11391	23e0	2bc30024		subi	%GPR3,%GPR30,$36	
11392	23e1	00000000		nop	; Automatically Added by addNops.pl
11393	23e2	00000000		nop	; Automatically Added by addNops.pl
11394	23e3	00000000		nop	; Automatically Added by addNops.pl
11395				; Automatically 8 NOPs removed by reduceNOPs.sh
11396	23e4	ac240000		sw	0(%GPR1),%GPR4	
11397	23e5	00000000		nop	; Automatically Added by addNops.pl
11398	23e6	00000000		nop	; Automatically Added by addNops.pl
11399	23e7	00000000		nop	; Automatically Added by addNops.pl
11400	23e8	004b0820		add	%GPR1,%GPR2,%GPR11	
11401	23e9	00000000		nop	; Automatically Added by addNops.pl
11402	23ea	00000000		nop	; Automatically Added by addNops.pl
11403	23eb	00000000		nop	; Automatically Added by addNops.pl
11404	23ec	3c070000		lhi	%GPR7,$0	
11405	23ed	00000000		nop	; Automatically Added by addNops.pl
11406	23ee	00000000		nop	; Automatically Added by addNops.pl
11407	23ef	00000000		nop	; Automatically Added by addNops.pl
11408				; Automatically 16 NOPs removed by reduceNOPs.sh
11409	23f0	34e70018		ori	%GPR7,%GPR7,$24	
11410	23f1	00000000		nop	; Automatically Added by addNops.pl
11411	23f2	00000000		nop	; Automatically Added by addNops.pl
11412	23f3	00000000		nop	; Automatically Added by addNops.pl
11413	23f4	3c040000		lhi	%GPR4,$0	
11414	23f5	00000000		nop	; Automatically Added by addNops.pl
11415	23f6	00000000		nop	; Automatically Added by addNops.pl
11416	23f7	00000000		nop	; Automatically Added by addNops.pl
11417				; Automatically 16 NOPs removed by reduceNOPs.sh
11418	23f8	3484001c		ori	%GPR4,%GPR4,$28	
11419	23f9	00000000		nop	; Automatically Added by addNops.pl
11420	23fa	00000000		nop	; Automatically Added by addNops.pl
11421	23fb	00000000		nop	; Automatically Added by addNops.pl
11422	23fc	2bc20024		subi	%GPR2,%GPR30,$36	
11423	23fd	00000000		nop	; Automatically Added by addNops.pl
11424	23fe	00000000		nop	; Automatically Added by addNops.pl
11425	23ff	00000000		nop	; Automatically Added by addNops.pl
11426	2400	ac250000		sw	0(%GPR1),%GPR5	
11427	2401	00000000		nop	; Automatically Added by addNops.pl
11428	2402	00000000		nop	; Automatically Added by addNops.pl
11429	2403	00000000		nop	; Automatically Added by addNops.pl
11430	2404	00670820		add	%GPR1,%GPR3,%GPR7	
11431	2405	00000000		nop	; Automatically Added by addNops.pl
11432	2406	00000000		nop	; Automatically Added by addNops.pl
11433	2407	00000000		nop	; Automatically Added by addNops.pl
11434				; Automatically 8 NOPs removed by reduceNOPs.sh
11435	2408	00442020		add	%GPR4,%GPR2,%GPR4	
11436	2409	00000000		nop	; Automatically Added by addNops.pl
11437	240a	00000000		nop	; Automatically Added by addNops.pl
11438	240b	00000000		nop	; Automatically Added by addNops.pl
11439	240c	2bca0024		subi	%GPR10,%GPR30,$36	
11440	240d	00000000		nop	; Automatically Added by addNops.pl
11441	240e	00000000		nop	; Automatically Added by addNops.pl
11442	240f	00000000		nop	; Automatically Added by addNops.pl
11443	2410	ac260000		sw	0(%GPR1),%GPR6	
11444	2411	00000000		nop	; Automatically Added by addNops.pl
11445	2412	00000000		nop	; Automatically Added by addNops.pl
11446	2413	00000000		nop	; Automatically Added by addNops.pl
11447	2414	3c0b0000		lhi	%GPR11,$0	
11448	2415	00000000		nop	; Automatically Added by addNops.pl
11449	2416	00000000		nop	; Automatically Added by addNops.pl
11450	2417	00000000		nop	; Automatically Added by addNops.pl
11451				; Automatically 16 NOPs removed by reduceNOPs.sh
11452	2418	356b0020		ori	%GPR11,%GPR11,$32	
11453	2419	00000000		nop	; Automatically Added by addNops.pl
11454	241a	00000000		nop	; Automatically Added by addNops.pl
11455	241b	00000000		nop	; Automatically Added by addNops.pl
11456				; Automatically 12 NOPs removed by reduceNOPs.sh
11457	241c	ac880000		sw	0(%GPR4),%GPR8	
11458	241d	00000000		nop	; Automatically Added by addNops.pl
11459	241e	00000000		nop	; Automatically Added by addNops.pl
11460	241f	00000000		nop	; Automatically Added by addNops.pl
11461				; Automatically 16 NOPs removed by reduceNOPs.sh
11462	2420	014b5020		add	%GPR10,%GPR10,%GPR11	
11463	2421	00000000		nop	; Automatically Added by addNops.pl
11464	2422	00000000		nop	; Automatically Added by addNops.pl
11465	2423	00000000		nop	; Automatically Added by addNops.pl
11466				; Automatically 8 NOPs removed by reduceNOPs.sh
11467	2424	2bc30024		subi	%GPR3,%GPR30,$36	
11468	2425	00000000		nop	; Automatically Added by addNops.pl
11469	2426	00000000		nop	; Automatically Added by addNops.pl
11470	2427	00000000		nop	; Automatically Added by addNops.pl
11471	2428	3c070000		lhi	%GPR7,$0	
11472	2429	00000000		nop	; Automatically Added by addNops.pl
11473	242a	00000000		nop	; Automatically Added by addNops.pl
11474	242b	00000000		nop	; Automatically Added by addNops.pl
11475				; Automatically 16 NOPs removed by reduceNOPs.sh
11476	242c	34e7006f		ori	%GPR7,%GPR7,$111	
11477	242d	00000000		nop	; Automatically Added by addNops.pl
11478	242e	00000000		nop	; Automatically Added by addNops.pl
11479	242f	00000000		nop	; Automatically Added by addNops.pl
11480	2430	3c060000		lhi	%GPR6,$0	
11481	2431	00000000		nop	; Automatically Added by addNops.pl
11482	2432	00000000		nop	; Automatically Added by addNops.pl
11483	2433	00000000		nop	; Automatically Added by addNops.pl
11484				; Automatically 16 NOPs removed by reduceNOPs.sh
11485	2434	34c60000		ori	%GPR6,%GPR6,$0	
11486	2435	00000000		nop	; Automatically Added by addNops.pl
11487	2436	00000000		nop	; Automatically Added by addNops.pl
11488	2437	00000000		nop	; Automatically Added by addNops.pl
11489	2438	3c050000		lhi	%GPR5,$0	
11490	2439	00000000		nop	; Automatically Added by addNops.pl
11491	243a	00000000		nop	; Automatically Added by addNops.pl
11492	243b	00000000		nop	; Automatically Added by addNops.pl
11493				; Automatically 16 NOPs removed by reduceNOPs.sh
11494	243c	34a50009		ori	%GPR5,%GPR5,$9	
11495	243d	00000000		nop	; Automatically Added by addNops.pl
11496	243e	00000000		nop	; Automatically Added by addNops.pl
11497	243f	00000000		nop	; Automatically Added by addNops.pl
11498	2440	3c020000		lhi	%GPR2,$0	
11499	2441	00000000		nop	; Automatically Added by addNops.pl
11500	2442	00000000		nop	; Automatically Added by addNops.pl
11501	2443	00000000		nop	; Automatically Added by addNops.pl
11502				; Automatically 16 NOPs removed by reduceNOPs.sh
11503	2444	34420052		ori	%GPR2,%GPR2,$82	
11504	2445	00000000		nop	; Automatically Added by addNops.pl
11505	2446	00000000		nop	; Automatically Added by addNops.pl
11506	2447	00000000		nop	; Automatically Added by addNops.pl
11507	2448	3c010000		lhi	%GPR1,$0	
11508	2449	00000000		nop	; Automatically Added by addNops.pl
11509	244a	00000000		nop	; Automatically Added by addNops.pl
11510	244b	00000000		nop	; Automatically Added by addNops.pl
11511				; Automatically 16 NOPs removed by reduceNOPs.sh
11512	244c	34210042		ori	%GPR1,%GPR1,$66	
11513	244d	00000000		nop	; Automatically Added by addNops.pl
11514	244e	00000000		nop	; Automatically Added by addNops.pl
11515	244f	00000000		nop	; Automatically Added by addNops.pl
11516	2450	ad490000		sw	0(%GPR10),%GPR9	
11517	2451	00000000		nop	; Automatically Added by addNops.pl
11518	2452	00000000		nop	; Automatically Added by addNops.pl
11519	2453	00000000		nop	; Automatically Added by addNops.pl
11520	2454	3c040000		lhi	%GPR4,$0	
11521	2455	00000000		nop	; Automatically Added by addNops.pl
11522	2456	00000000		nop	; Automatically Added by addNops.pl
11523	2457	00000000		nop	; Automatically Added by addNops.pl
11524				; Automatically 16 NOPs removed by reduceNOPs.sh
11525	2458	34840000		ori	%GPR4,%GPR4,$0	
11526	2459	00000000		nop	; Automatically Added by addNops.pl
11527	245a	00000000		nop	; Automatically Added by addNops.pl
11528	245b	00000000		nop	; Automatically Added by addNops.pl
11529				; Automatically 16 NOPs removed by reduceNOPs.sh
11530	245c	2bbd0008		subi	%GPR29,%GPR29,$8	
11531	245d	00000000		nop	; Automatically Added by addNops.pl
11532	245e	00000000		nop	; Automatically Added by addNops.pl
11533	245f	00000000		nop	; Automatically Added by addNops.pl
11534				; Automatically 16 NOPs removed by reduceNOPs.sh
11535	2460	0ffffa81		jal	sendcommand	
11536	2461	00000000		nop	; Automatically Added by addNops.pl
11537	2462	00000000		nop	; Automatically Added by addNops.pl
11538	2463	00000000		nop	; Automatically Added by addNops.pl
11539				; Automatically 16 NOPs removed by reduceNOPs.sh
11540	2464	23bd0008		addi	%GPR29,%GPR29,$8	
11541	2465	00000000		nop	; Automatically Added by addNops.pl
11542	2466	00000000		nop	; Automatically Added by addNops.pl
11543	2467	00000000		nop	; Automatically Added by addNops.pl
11544				; Automatically 24 NOPs removed by reduceNOPs.sh
11545	2468	8fc2ffd4		lw	%GPR2,-44(%GPR30)	
11546	2469	00000000		nop	; Automatically Added by addNops.pl
11547	246a	00000000		nop	; Automatically Added by addNops.pl
11548	246b	00000000		nop	; Automatically Added by addNops.pl
11549				; Automatically 12 NOPs removed by reduceNOPs.sh
11550	246c	3c010000		lhi	%GPR1,$0	
11551	246d	00000000		nop	; Automatically Added by addNops.pl
11552	246e	00000000		nop	; Automatically Added by addNops.pl
11553	246f	00000000		nop	; Automatically Added by addNops.pl
11554				; Automatically 16 NOPs removed by reduceNOPs.sh
11555	2470	34210000		ori	%GPR1,%GPR1,$0	
11556	2471	00000000		nop	; Automatically Added by addNops.pl
11557	2472	00000000		nop	; Automatically Added by addNops.pl
11558	2473	00000000		nop	; Automatically Added by addNops.pl
11559				; Automatically 16 NOPs removed by reduceNOPs.sh
11560	2474	0041d82f		sne	%GPR27,%GPR2,%GPR1	
11561	2475	00000000		nop	; Automatically Added by addNops.pl
11562	2476	00000000		nop	; Automatically Added by addNops.pl
11563	2477	00000000		nop	; Automatically Added by addNops.pl
11564	2478	17600008		bnez	%GPR27,L_lib_lcd_51	
11565	2479	00000000		nop	; Automatically Added by addNops.pl
11566	247a	00000000		nop	; Automatically Added by addNops.pl
11567	247b	00000000		nop	; Automatically Added by addNops.pl
11568				; Automatically 16 NOPs removed by reduceNOPs.sh
11569	247c	08000057		j	L_lib_lcd_52	
11570	247d	00000000		nop	; Automatically Added by addNops.pl
11571	247e	00000000		nop	; Automatically Added by addNops.pl
11572	247f	00000000		nop	; Automatically Added by addNops.pl
11573				; Automatically 16 NOPs removed by reduceNOPs.sh
11574			L_lib_lcd_51:
11575	2480	00000000		nop	; Automatically Added by addNops.pl
11576	2481	00000000		nop	; Automatically Added by addNops.pl
11577	2482	00000000		nop	; Automatically Added by addNops.pl
11578	2483	3c010000		lhi	%GPR1,$( L_lib_lcd_1	/0x10000)
11579	2484	00000000		nop
11580	2485	00000000		nop
11581	2486	00000000		nop
11582	2487	342107a0		ori	%GPR1,%GPR1,$( L_lib_lcd_1	%0x10000)
11583	2488	00000000		nop	; Automatically Added by addNops.pl
11584	2489	00000000		nop	; Automatically Added by addNops.pl
11585	248a	00000000		nop	; Automatically Added by addNops.pl
11586				; Automatically 16 NOPs removed by reduceNOPs.sh
11587	248b	8c280000		lw	%GPR8,0(%GPR1)	
11588	248c	00000000		nop	; Automatically Added by addNops.pl
11589	248d	00000000		nop	; Automatically Added by addNops.pl
11590	248e	00000000		nop	; Automatically Added by addNops.pl
11591				; Automatically 16 NOPs removed by reduceNOPs.sh
11592	248f	2bc30024		subi	%GPR3,%GPR30,$36	
11593	2490	00000000		nop	; Automatically Added by addNops.pl
11594	2491	00000000		nop	; Automatically Added by addNops.pl
11595	2492	00000000		nop	; Automatically Added by addNops.pl
11596	2493	3c070000		lhi	%GPR7,$0	
11597	2494	00000000		nop	; Automatically Added by addNops.pl
11598	2495	00000000		nop	; Automatically Added by addNops.pl
11599	2496	00000000		nop	; Automatically Added by addNops.pl
11600				; Automatically 16 NOPs removed by reduceNOPs.sh
11601	2497	34e7006f		ori	%GPR7,%GPR7,$111	
11602	2498	00000000		nop	; Automatically Added by addNops.pl
11603	2499	00000000		nop	; Automatically Added by addNops.pl
11604	249a	00000000		nop	; Automatically Added by addNops.pl
11605	249b	3c060000		lhi	%GPR6,$0	
11606	249c	00000000		nop	; Automatically Added by addNops.pl
11607	249d	00000000		nop	; Automatically Added by addNops.pl
11608	249e	00000000		nop	; Automatically Added by addNops.pl
11609				; Automatically 16 NOPs removed by reduceNOPs.sh
11610	249f	34c60000		ori	%GPR6,%GPR6,$0	
11611	24a0	00000000		nop	; Automatically Added by addNops.pl
11612	24a1	00000000		nop	; Automatically Added by addNops.pl
11613	24a2	00000000		nop	; Automatically Added by addNops.pl
11614	24a3	3c050000		lhi	%GPR5,$0	
11615	24a4	00000000		nop	; Automatically Added by addNops.pl
11616	24a5	00000000		nop	; Automatically Added by addNops.pl
11617	24a6	00000000		nop	; Automatically Added by addNops.pl
11618				; Automatically 16 NOPs removed by reduceNOPs.sh
11619	24a7	34a50001		ori	%GPR5,%GPR5,$1	
11620	24a8	00000000		nop	; Automatically Added by addNops.pl
11621	24a9	00000000		nop	; Automatically Added by addNops.pl
11622	24aa	00000000		nop	; Automatically Added by addNops.pl
11623	24ab	afc8ffdc		sw	-36(%GPR30),%GPR8	
11624	24ac	00000000		nop	; Automatically Added by addNops.pl
11625	24ad	00000000		nop	; Automatically Added by addNops.pl
11626	24ae	00000000		nop	; Automatically Added by addNops.pl
11627	24af	3c020000		lhi	%GPR2,$0	
11628	24b0	00000000		nop	; Automatically Added by addNops.pl
11629	24b1	00000000		nop	; Automatically Added by addNops.pl
11630	24b2	00000000		nop	; Automatically Added by addNops.pl
11631				; Automatically 16 NOPs removed by reduceNOPs.sh
11632	24b3	34420042		ori	%GPR2,%GPR2,$66	
11633	24b4	00000000		nop	; Automatically Added by addNops.pl
11634	24b5	00000000		nop	; Automatically Added by addNops.pl
11635	24b6	00000000		nop	; Automatically Added by addNops.pl
11636	24b7	3c010000		lhi	%GPR1,$0	
11637	24b8	00000000		nop	; Automatically Added by addNops.pl
11638	24b9	00000000		nop	; Automatically Added by addNops.pl
11639	24ba	00000000		nop	; Automatically Added by addNops.pl
11640				; Automatically 16 NOPs removed by reduceNOPs.sh
11641	24bb	34210041		ori	%GPR1,%GPR1,$65	
11642	24bc	00000000		nop	; Automatically Added by addNops.pl
11643	24bd	00000000		nop	; Automatically Added by addNops.pl
11644	24be	00000000		nop	; Automatically Added by addNops.pl
11645	24bf	3c040000		lhi	%GPR4,$0	
11646	24c0	00000000		nop	; Automatically Added by addNops.pl
11647	24c1	00000000		nop	; Automatically Added by addNops.pl
11648	24c2	00000000		nop	; Automatically Added by addNops.pl
11649				; Automatically 16 NOPs removed by reduceNOPs.sh
11650	24c3	34840000		ori	%GPR4,%GPR4,$0	
11651	24c4	00000000		nop	; Automatically Added by addNops.pl
11652	24c5	00000000		nop	; Automatically Added by addNops.pl
11653	24c6	00000000		nop	; Automatically Added by addNops.pl
11654				; Automatically 16 NOPs removed by reduceNOPs.sh
11655	24c7	2bbd0008		subi	%GPR29,%GPR29,$8	
11656	24c8	00000000		nop	; Automatically Added by addNops.pl
11657	24c9	00000000		nop	; Automatically Added by addNops.pl
11658	24ca	00000000		nop	; Automatically Added by addNops.pl
11659				; Automatically 16 NOPs removed by reduceNOPs.sh
11660	24cb	0ffffa16		jal	sendcommand	
11661	24cc	00000000		nop	; Automatically Added by addNops.pl
11662	24cd	00000000		nop	; Automatically Added by addNops.pl
11663	24ce	00000000		nop	; Automatically Added by addNops.pl
11664				; Automatically 16 NOPs removed by reduceNOPs.sh
11665	24cf	23bd0008		addi	%GPR29,%GPR29,$8	
11666	24d0	00000000		nop	; Automatically Added by addNops.pl
11667	24d1	00000000		nop	; Automatically Added by addNops.pl
11668	24d2	00000000		nop	; Automatically Added by addNops.pl
11669				; Automatically 28 NOPs removed by reduceNOPs.sh
11670			L_lib_lcd_52:
11671	24d3	00000000		nop	; Automatically Added by addNops.pl
11672	24d4	00000000		nop	; Automatically Added by addNops.pl
11673	24d5	00000000		nop	; Automatically Added by addNops.pl
11674				; Automatically 12 NOPs removed by reduceNOPs.sh
11675	24d6	3c010000		lhi	%GPR1,$( L_lib_lcd_1	/0x10000)
11676	24d7	00000000		nop
11677	24d8	00000000		nop
11678	24d9	00000000		nop
11679	24da	342107a0		ori	%GPR1,%GPR1,$( L_lib_lcd_1	%0x10000)
11680	24db	00000000		nop	; Automatically Added by addNops.pl
11681	24dc	00000000		nop	; Automatically Added by addNops.pl
11682	24dd	00000000		nop	; Automatically Added by addNops.pl
11683	24de	3c020000		lhi	%GPR2,$( L_lib_lcd_1	/0x10000)
11684	24df	00000000		nop
11685	24e0	00000000		nop
11686	24e1	00000000		nop
11687	24e2	344207a0		ori	%GPR2,%GPR2,$( L_lib_lcd_1	%0x10000)
11688	24e3	00000000		nop	; Automatically Added by addNops.pl
11689	24e4	00000000		nop	; Automatically Added by addNops.pl
11690	24e5	00000000		nop	; Automatically Added by addNops.pl
11691				; Automatically 8 NOPs removed by reduceNOPs.sh
11692	24e6	3c030000		lhi	%GPR3,$( L_lib_lcd_1	/0x10000)
11693	24e7	00000000		nop
11694	24e8	00000000		nop
11695	24e9	00000000		nop
11696	24ea	346307a0		ori	%GPR3,%GPR3,$( L_lib_lcd_1	%0x10000)
11697	24eb	00000000		nop	; Automatically Added by addNops.pl
11698	24ec	00000000		nop	; Automatically Added by addNops.pl
11699	24ed	00000000		nop	; Automatically Added by addNops.pl
11700	24ee	8c240000		lw	%GPR4,0(%GPR1)	
11701	24ef	00000000		nop	; Automatically Added by addNops.pl
11702	24f0	00000000		nop	; Automatically Added by addNops.pl
11703	24f1	00000000		nop	; Automatically Added by addNops.pl
11704	24f2	00000000		nop	; Automatically added by fix-stall-insns.pl
11705	24f3	8c410000		lw	%GPR1,0(%GPR2)	
11706	24f4	00000000		nop	; Automatically Added by addNops.pl
11707	24f5	00000000		nop	; Automatically Added by addNops.pl
11708	24f6	00000000		nop	; Automatically Added by addNops.pl
11709	24f7	2bc80024		subi	%GPR8,%GPR30,$36	
11710	24f8	00000000		nop	; Automatically Added by addNops.pl
11711	24f9	00000000		nop	; Automatically Added by addNops.pl
11712	24fa	00000000		nop	; Automatically Added by addNops.pl
11713	24fb	3c090000		lhi	%GPR9,$0	
11714	24fc	00000000		nop	; Automatically Added by addNops.pl
11715	24fd	00000000		nop	; Automatically Added by addNops.pl
11716	24fe	00000000		nop	; Automatically Added by addNops.pl
11717				; Automatically 16 NOPs removed by reduceNOPs.sh
11718	24ff	35290004		ori	%GPR9,%GPR9,$4	
11719	2500	00000000		nop	; Automatically Added by addNops.pl
11720	2501	00000000		nop	; Automatically Added by addNops.pl
11721	2502	00000000		nop	; Automatically Added by addNops.pl
11722	2503	20820001		addi	%GPR2,%GPR4,$1	
11723	2504	00000000		nop	; Automatically Added by addNops.pl
11724	2505	00000000		nop	; Automatically Added by addNops.pl
11725	2506	00000000		nop	; Automatically Added by addNops.pl
11726				; Automatically 12 NOPs removed by reduceNOPs.sh
11727	2507	01094020		add	%GPR8,%GPR8,%GPR9	
11728	2508	00000000		nop	; Automatically Added by addNops.pl
11729	2509	00000000		nop	; Automatically Added by addNops.pl
11730	250a	00000000		nop	; Automatically Added by addNops.pl
11731	250b	ac620000		sw	0(%GPR3),%GPR2	
11732	250c	00000000		nop	; Automatically Added by addNops.pl
11733	250d	00000000		nop	; Automatically Added by addNops.pl
11734	250e	00000000		nop	; Automatically Added by addNops.pl
11735				; Automatically 16 NOPs removed by reduceNOPs.sh
11736	250f	00000000		nop	; Automatically added by fix-stall-insns.pl
11737	2510	afc1ffdc		sw	-36(%GPR30),%GPR1	
11738	2511	00000000		nop	; Automatically Added by addNops.pl
11739	2512	00000000		nop	; Automatically Added by addNops.pl
11740	2513	00000000		nop	; Automatically Added by addNops.pl
11741	2514	00000000		nop	; Automatically added by fix-stall-insns.pl
11742	2515	8fc9ffd8		lw	%GPR9,-40(%GPR30)	
11743	2516	00000000		nop	; Automatically Added by addNops.pl
11744	2517	00000000		nop	; Automatically Added by addNops.pl
11745	2518	00000000		nop	; Automatically Added by addNops.pl
11746	2519	3c040000		lhi	%GPR4,$0	
11747	251a	00000000		nop	; Automatically Added by addNops.pl
11748	251b	00000000		nop	; Automatically Added by addNops.pl
11749	251c	00000000		nop	; Automatically Added by addNops.pl
11750				; Automatically 16 NOPs removed by reduceNOPs.sh
11751	251d	34840000		ori	%GPR4,%GPR4,$0	
11752	251e	00000000		nop	; Automatically Added by addNops.pl
11753	251f	00000000		nop	; Automatically Added by addNops.pl
11754	2520	00000000		nop	; Automatically Added by addNops.pl
11755	2521	3c070000		lhi	%GPR7,$0	
11756	2522	00000000		nop	; Automatically Added by addNops.pl
11757	2523	00000000		nop	; Automatically Added by addNops.pl
11758	2524	00000000		nop	; Automatically Added by addNops.pl
11759				; Automatically 16 NOPs removed by reduceNOPs.sh
11760	2525	34e7006f		ori	%GPR7,%GPR7,$111	
11761	2526	00000000		nop	; Automatically Added by addNops.pl
11762	2527	00000000		nop	; Automatically Added by addNops.pl
11763	2528	00000000		nop	; Automatically Added by addNops.pl
11764	2529	3c060000		lhi	%GPR6,$0	
11765	252a	00000000		nop	; Automatically Added by addNops.pl
11766	252b	00000000		nop	; Automatically Added by addNops.pl
11767	252c	00000000		nop	; Automatically Added by addNops.pl
11768				; Automatically 16 NOPs removed by reduceNOPs.sh
11769	252d	34c60000		ori	%GPR6,%GPR6,$0	
11770	252e	00000000		nop	; Automatically Added by addNops.pl
11771	252f	00000000		nop	; Automatically Added by addNops.pl
11772	2530	00000000		nop	; Automatically Added by addNops.pl
11773	2531	2bc30024		subi	%GPR3,%GPR30,$36	
11774	2532	00000000		nop	; Automatically Added by addNops.pl
11775	2533	00000000		nop	; Automatically Added by addNops.pl
11776	2534	00000000		nop	; Automatically Added by addNops.pl
11777	2535	3c050000		lhi	%GPR5,$0	
11778	2536	00000000		nop	; Automatically Added by addNops.pl
11779	2537	00000000		nop	; Automatically Added by addNops.pl
11780	2538	00000000		nop	; Automatically Added by addNops.pl
11781				; Automatically 16 NOPs removed by reduceNOPs.sh
11782	2539	34a50002		ori	%GPR5,%GPR5,$2	
11783	253a	00000000		nop	; Automatically Added by addNops.pl
11784	253b	00000000		nop	; Automatically Added by addNops.pl
11785	253c	00000000		nop	; Automatically Added by addNops.pl
11786	253d	3c020000		lhi	%GPR2,$0	
11787	253e	00000000		nop	; Automatically Added by addNops.pl
11788	253f	00000000		nop	; Automatically Added by addNops.pl
11789	2540	00000000		nop	; Automatically Added by addNops.pl
11790				; Automatically 16 NOPs removed by reduceNOPs.sh
11791	2541	34420041		ori	%GPR2,%GPR2,$65	
11792	2542	00000000		nop	; Automatically Added by addNops.pl
11793	2543	00000000		nop	; Automatically Added by addNops.pl
11794	2544	00000000		nop	; Automatically Added by addNops.pl
11795	2545	3c010000		lhi	%GPR1,$0	
11796	2546	00000000		nop	; Automatically Added by addNops.pl
11797	2547	00000000		nop	; Automatically Added by addNops.pl
11798	2548	00000000		nop	; Automatically Added by addNops.pl
11799				; Automatically 16 NOPs removed by reduceNOPs.sh
11800	2549	34210042		ori	%GPR1,%GPR1,$66	
11801	254a	00000000		nop	; Automatically Added by addNops.pl
11802	254b	00000000		nop	; Automatically Added by addNops.pl
11803	254c	00000000		nop	; Automatically Added by addNops.pl
11804	254d	ad090000		sw	0(%GPR8),%GPR9	
11805	254e	00000000		nop	; Automatically Added by addNops.pl
11806	254f	00000000		nop	; Automatically Added by addNops.pl
11807	2550	00000000		nop	; Automatically Added by addNops.pl
11808				; Automatically 16 NOPs removed by reduceNOPs.sh
11809	2551	2bbd0008		subi	%GPR29,%GPR29,$8	
11810	2552	00000000		nop	; Automatically Added by addNops.pl
11811	2553	00000000		nop	; Automatically Added by addNops.pl
11812	2554	00000000		nop	; Automatically Added by addNops.pl
11813				; Automatically 16 NOPs removed by reduceNOPs.sh
11814	2555	0ffff98c		jal	sendcommand	
11815	2556	00000000		nop	; Automatically Added by addNops.pl
11816	2557	00000000		nop	; Automatically Added by addNops.pl
11817	2558	00000000		nop	; Automatically Added by addNops.pl
11818				; Automatically 16 NOPs removed by reduceNOPs.sh
11819	2559	23bd0008		addi	%GPR29,%GPR29,$8	
11820	255a	00000000		nop	; Automatically Added by addNops.pl
11821	255b	00000000		nop	; Automatically Added by addNops.pl
11822	255c	00000000		nop	; Automatically Added by addNops.pl
11823				; Automatically 16 NOPs removed by reduceNOPs.sh
11824	255d	3c010000		lhi	%GPR1,$( L_lib_lcd_1	/0x10000)
11825	255e	00000000		nop
11826	255f	00000000		nop
11827	2560	00000000		nop
11828	2561	342107a0		ori	%GPR1,%GPR1,$( L_lib_lcd_1	%0x10000)
11829	2562	00000000		nop	; Automatically Added by addNops.pl
11830	2563	00000000		nop	; Automatically Added by addNops.pl
11831	2564	00000000		nop	; Automatically Added by addNops.pl
11832				; Automatically 16 NOPs removed by reduceNOPs.sh
11833	2565	8c210000		lw	%GPR1,0(%GPR1)	
11834	2566	00000000		nop	; Automatically Added by addNops.pl
11835	2567	00000000		nop	; Automatically Added by addNops.pl
11836	2568	00000000		nop	; Automatically Added by addNops.pl
11837				; Automatically 16 NOPs removed by reduceNOPs.sh
11838	2569	283c0001		subi	%GPR28,%GPR1,$1	
11839	256a	00000000		nop	; Automatically Added by addNops.pl
11840	256b	00000000		nop	; Automatically Added by addNops.pl
11841	256c	00000000		nop	; Automatically Added by addNops.pl
11842				; Automatically 16 NOPs removed by reduceNOPs.sh
11843	256d	08000013		j	L_lib_lcd_54	
11844	256e	00000000		nop	; Automatically Added by addNops.pl
11845	256f	00000000		nop	; Automatically Added by addNops.pl
11846	2570	00000000		nop	; Automatically Added by addNops.pl
11847				; Automatically 16 NOPs removed by reduceNOPs.sh
11848			L_lib_lcd_53:
11849	2571	00000000		nop	; Automatically Added by addNops.pl
11850	2572	00000000		nop	; Automatically Added by addNops.pl
11851	2573	00000000		nop	; Automatically Added by addNops.pl
11852				; Automatically 16 NOPs removed by reduceNOPs.sh
11853	2574	3c1cffff		lhi	%GPR28,$65535	
11854	2575	00000000		nop	; Automatically Added by addNops.pl
11855	2576	00000000		nop	; Automatically Added by addNops.pl
11856	2577	00000000		nop	; Automatically Added by addNops.pl
11857				; Automatically 16 NOPs removed by reduceNOPs.sh
11858	2578	379cffff		ori	%GPR28,%GPR28,$-1	
11859	2579	00000000		nop	; Automatically Added by addNops.pl
11860	257a	00000000		nop	; Automatically Added by addNops.pl
11861	257b	00000000		nop	; Automatically Added by addNops.pl
11862				; Automatically 16 NOPs removed by reduceNOPs.sh
11863	257c	08000004		j	L_lib_lcd_54	
11864	257d	00000000		nop	; Automatically Added by addNops.pl
11865	257e	00000000		nop	; Automatically Added by addNops.pl
11866	257f	00000000		nop	; Automatically Added by addNops.pl
11867				; Automatically 16 NOPs removed by reduceNOPs.sh
11868			L_lib_lcd_54:
11869	2580	00000000		nop	; Automatically Added by addNops.pl
11870	2581	00000000		nop	; Automatically Added by addNops.pl
11871	2582	00000000		nop	; Automatically Added by addNops.pl
11872				; Automatically 16 NOPs removed by reduceNOPs.sh
11873	2583	8fdf0004		lw	%GPR31,4(%GPR30)	
11874	2584	00000000		nop	; Automatically Added by addNops.pl
11875	2585	00000000		nop	; Automatically Added by addNops.pl
11876	2586	00000000		nop	; Automatically Added by addNops.pl
11877	2587	27dd0004		addui	%GPR29,%GPR30,$4	
11878	2588	00000000		nop	; Automatically Added by addNops.pl
11879	2589	00000000		nop	; Automatically Added by addNops.pl
11880	258a	00000000		nop	; Automatically Added by addNops.pl
11881	258b	8fde0000		lw	%GPR30,0(%GPR30)	
11882	258c	00000000		nop	; Automatically Added by addNops.pl
11883	258d	00000000		nop	; Automatically Added by addNops.pl
11884	258e	00000000		nop	; Automatically Added by addNops.pl
11885				; Automatically 8 NOPs removed by reduceNOPs.sh
11886	258f	00000000		nop
11887	2590	00000000		nop
11888	2591	03e00008		jr	%GPR31	
11889	2592	00000000		nop	; Automatically Added by addNops.pl
11890	2593	00000000		nop	; Automatically Added by addNops.pl
11891	2594	00000000		nop	; Automatically Added by addNops.pl
11892				; Automatically 16 NOPs removed by reduceNOPs.sh
11893			g_setbar:
11894			L_lib_lcd_55:
11895	2595	00000000		nop	; Automatically Added by addNops.pl
11896	2596	00000000		nop	; Automatically Added by addNops.pl
11897	2597	00000000		nop	; Automatically Added by addNops.pl
11898				; Automatically 16 NOPs removed by reduceNOPs.sh
11899	2598	afbefffc		sw	-4(%GPR29),%GPR30	
11900	2599	00000000		nop	; Automatically Added by addNops.pl
11901	259a	00000000		nop	; Automatically Added by addNops.pl
11902	259b	00000000		nop	; Automatically Added by addNops.pl
11903	259c	00000000		nop	; Automatically added by fix-stall-insns.pl
11904	259d	afbf0000		sw	0(%GPR29),%GPR31	
11905	259e	00000000		nop	; Automatically Added by addNops.pl
11906	259f	00000000		nop	; Automatically Added by addNops.pl
11907	25a0	00000000		nop	; Automatically Added by addNops.pl
11908	25a1	2fbe0004		subui	%GPR30,%GPR29,$4	
11909	25a2	00000000		nop	; Automatically Added by addNops.pl
11910	25a3	00000000		nop	; Automatically Added by addNops.pl
11911	25a4	00000000		nop	; Automatically Added by addNops.pl
11912				; Automatically 4 NOPs removed by reduceNOPs.sh
11913	25a5	2bbd0010		subi	%GPR29,%GPR29,$16	
11914	25a6	00000000		nop	; Automatically Added by addNops.pl
11915	25a7	00000000		nop	; Automatically Added by addNops.pl
11916	25a8	00000000		nop	; Automatically Added by addNops.pl
11917				; Automatically 16 NOPs removed by reduceNOPs.sh
11918	25a9	00404020		add	%GPR8,%GPR2,%GPR0	
11919	25aa	00000000		nop	; Automatically Added by addNops.pl
11920	25ab	00000000		nop	; Automatically Added by addNops.pl
11921	25ac	00000000		nop	; Automatically Added by addNops.pl
11922				; Automatically 20 NOPs removed by reduceNOPs.sh
11923	25ad	2bc40008		subi	%GPR4,%GPR30,$8	
11924	25ae	00000000		nop	; Automatically Added by addNops.pl
11925	25af	00000000		nop	; Automatically Added by addNops.pl
11926	25b0	00000000		nop	; Automatically Added by addNops.pl
11927	25b1	afc1fff8		sw	-8(%GPR30),%GPR1	
11928	25b2	00000000		nop	; Automatically Added by addNops.pl
11929	25b3	00000000		nop	; Automatically Added by addNops.pl
11930	25b4	00000000		nop	; Automatically Added by addNops.pl
11931				; Automatically 8 NOPs removed by reduceNOPs.sh
11932	25b5	3c090000		lhi	%GPR9,$0	
11933	25b6	00000000		nop	; Automatically Added by addNops.pl
11934	25b7	00000000		nop	; Automatically Added by addNops.pl
11935	25b8	00000000		nop	; Automatically Added by addNops.pl
11936				; Automatically 16 NOPs removed by reduceNOPs.sh
11937	25b9	35290004		ori	%GPR9,%GPR9,$4	
11938	25ba	00000000		nop	; Automatically Added by addNops.pl
11939	25bb	00000000		nop	; Automatically Added by addNops.pl
11940	25bc	00000000		nop	; Automatically Added by addNops.pl
11941				; Automatically 16 NOPs removed by reduceNOPs.sh
11942	25bd	00894820		add	%GPR9,%GPR4,%GPR9	
11943	25be	00000000		nop	; Automatically Added by addNops.pl
11944	25bf	00000000		nop	; Automatically Added by addNops.pl
11945	25c0	00000000		nop	; Automatically Added by addNops.pl
11946				; Automatically 12 NOPs removed by reduceNOPs.sh
11947	25c1	2bc30008		subi	%GPR3,%GPR30,$8	
11948	25c2	00000000		nop	; Automatically Added by addNops.pl
11949	25c3	00000000		nop	; Automatically Added by addNops.pl
11950	25c4	00000000		nop	; Automatically Added by addNops.pl
11951	25c5	3c070000		lhi	%GPR7,$0	
11952	25c6	00000000		nop	; Automatically Added by addNops.pl
11953	25c7	00000000		nop	; Automatically Added by addNops.pl
11954	25c8	00000000		nop	; Automatically Added by addNops.pl
11955				; Automatically 16 NOPs removed by reduceNOPs.sh
11956	25c9	34e7006f		ori	%GPR7,%GPR7,$111	
11957	25ca	00000000		nop	; Automatically Added by addNops.pl
11958	25cb	00000000		nop	; Automatically Added by addNops.pl
11959	25cc	00000000		nop	; Automatically Added by addNops.pl
11960	25cd	3c060000		lhi	%GPR6,$0	
11961	25ce	00000000		nop	; Automatically Added by addNops.pl
11962	25cf	00000000		nop	; Automatically Added by addNops.pl
11963	25d0	00000000		nop	; Automatically Added by addNops.pl
11964				; Automatically 16 NOPs removed by reduceNOPs.sh
11965	25d1	34c60000		ori	%GPR6,%GPR6,$0	
11966	25d2	00000000		nop	; Automatically Added by addNops.pl
11967	25d3	00000000		nop	; Automatically Added by addNops.pl
11968	25d4	00000000		nop	; Automatically Added by addNops.pl
11969	25d5	3c050000		lhi	%GPR5,$0	
11970	25d6	00000000		nop	; Automatically Added by addNops.pl
11971	25d7	00000000		nop	; Automatically Added by addNops.pl
11972	25d8	00000000		nop	; Automatically Added by addNops.pl
11973				; Automatically 16 NOPs removed by reduceNOPs.sh
11974	25d9	34a50002		ori	%GPR5,%GPR5,$2	
11975	25da	00000000		nop	; Automatically Added by addNops.pl
11976	25db	00000000		nop	; Automatically Added by addNops.pl
11977	25dc	00000000		nop	; Automatically Added by addNops.pl
11978	25dd	3c020000		lhi	%GPR2,$0	
11979	25de	00000000		nop	; Automatically Added by addNops.pl
11980	25df	00000000		nop	; Automatically Added by addNops.pl
11981	25e0	00000000		nop	; Automatically Added by addNops.pl
11982				; Automatically 16 NOPs removed by reduceNOPs.sh
11983	25e1	34420041		ori	%GPR2,%GPR2,$65	
11984	25e2	00000000		nop	; Automatically Added by addNops.pl
11985	25e3	00000000		nop	; Automatically Added by addNops.pl
11986	25e4	00000000		nop	; Automatically Added by addNops.pl
11987	25e5	ad280000		sw	0(%GPR9),%GPR8	
11988	25e6	00000000		nop	; Automatically Added by addNops.pl
11989	25e7	00000000		nop	; Automatically Added by addNops.pl
11990	25e8	00000000		nop	; Automatically Added by addNops.pl
11991	25e9	3c010000		lhi	%GPR1,$0	
11992	25ea	00000000		nop	; Automatically Added by addNops.pl
11993	25eb	00000000		nop	; Automatically Added by addNops.pl
11994	25ec	00000000		nop	; Automatically Added by addNops.pl
11995				; Automatically 16 NOPs removed by reduceNOPs.sh
11996	25ed	34210042		ori	%GPR1,%GPR1,$66	
11997	25ee	00000000		nop	; Automatically Added by addNops.pl
11998	25ef	00000000		nop	; Automatically Added by addNops.pl
11999	25f0	00000000		nop	; Automatically Added by addNops.pl
12000	25f1	3c040000		lhi	%GPR4,$0	
12001	25f2	00000000		nop	; Automatically Added by addNops.pl
12002	25f3	00000000		nop	; Automatically Added by addNops.pl
12003	25f4	00000000		nop	; Automatically Added by addNops.pl
12004				; Automatically 16 NOPs removed by reduceNOPs.sh
12005	25f5	34840000		ori	%GPR4,%GPR4,$0	
12006	25f6	00000000		nop	; Automatically Added by addNops.pl
12007	25f7	00000000		nop	; Automatically Added by addNops.pl
12008	25f8	00000000		nop	; Automatically Added by addNops.pl
12009				; Automatically 16 NOPs removed by reduceNOPs.sh
12010	25f9	2bbd0008		subi	%GPR29,%GPR29,$8	
12011	25fa	00000000		nop	; Automatically Added by addNops.pl
12012	25fb	00000000		nop	; Automatically Added by addNops.pl
12013	25fc	00000000		nop	; Automatically Added by addNops.pl
12014				; Automatically 16 NOPs removed by reduceNOPs.sh
12015	25fd	0ffff8e4		jal	sendcommand	
12016	25fe	00000000		nop	; Automatically Added by addNops.pl
12017	25ff	00000000		nop	; Automatically Added by addNops.pl
12018	2600	00000000		nop	; Automatically Added by addNops.pl
12019				; Automatically 16 NOPs removed by reduceNOPs.sh
12020	2601	23bd0008		addi	%GPR29,%GPR29,$8	
12021	2602	00000000		nop	; Automatically Added by addNops.pl
12022	2603	00000000		nop	; Automatically Added by addNops.pl
12023	2604	00000000		nop	; Automatically Added by addNops.pl
12024				; Automatically 36 NOPs removed by reduceNOPs.sh
12025	2605	3c1c0000		lhi	%GPR28,$0	
12026	2606	00000000		nop	; Automatically Added by addNops.pl
12027	2607	00000000		nop	; Automatically Added by addNops.pl
12028	2608	00000000		nop	; Automatically Added by addNops.pl
12029				; Automatically 16 NOPs removed by reduceNOPs.sh
12030	2609	379c0000		ori	%GPR28,%GPR28,$0	
12031	260a	00000000		nop	; Automatically Added by addNops.pl
12032	260b	00000000		nop	; Automatically Added by addNops.pl
12033	260c	00000000		nop	; Automatically Added by addNops.pl
12034				; Automatically 16 NOPs removed by reduceNOPs.sh
12035	260d	08000004		j	L_lib_lcd_56	
12036	260e	00000000		nop	; Automatically Added by addNops.pl
12037	260f	00000000		nop	; Automatically Added by addNops.pl
12038	2610	00000000		nop	; Automatically Added by addNops.pl
12039				; Automatically 16 NOPs removed by reduceNOPs.sh
12040			L_lib_lcd_56:
12041	2611	00000000		nop	; Automatically Added by addNops.pl
12042	2612	00000000		nop	; Automatically Added by addNops.pl
12043	2613	00000000		nop	; Automatically Added by addNops.pl
12044				; Automatically 16 NOPs removed by reduceNOPs.sh
12045	2614	8fdf0004		lw	%GPR31,4(%GPR30)	
12046	2615	00000000		nop	; Automatically Added by addNops.pl
12047	2616	00000000		nop	; Automatically Added by addNops.pl
12048	2617	00000000		nop	; Automatically Added by addNops.pl
12049	2618	27dd0004		addui	%GPR29,%GPR30,$4	
12050	2619	00000000		nop	; Automatically Added by addNops.pl
12051	261a	00000000		nop	; Automatically Added by addNops.pl
12052	261b	00000000		nop	; Automatically Added by addNops.pl
12053	261c	8fde0000		lw	%GPR30,0(%GPR30)	
12054	261d	00000000		nop	; Automatically Added by addNops.pl
12055	261e	00000000		nop	; Automatically Added by addNops.pl
12056	261f	00000000		nop	; Automatically Added by addNops.pl
12057				; Automatically 8 NOPs removed by reduceNOPs.sh
12058	2620	00000000		nop
12059	2621	00000000		nop
12060	2622	03e00008		jr	%GPR31	
12061	2623	00000000		nop	; Automatically Added by addNops.pl
12062	2624	00000000		nop	; Automatically Added by addNops.pl
12063	2625	00000000		nop	; Automatically Added by addNops.pl
12064				; Automatically 16 NOPs removed by reduceNOPs.sh
12065			g_makeswitch:
12066			L_lib_lcd_57:
12067	2626	00000000		nop	; Automatically Added by addNops.pl
12068	2627	00000000		nop	; Automatically Added by addNops.pl
12069	2628	00000000		nop	; Automatically Added by addNops.pl
12070				; Automatically 16 NOPs removed by reduceNOPs.sh
12071	2629	afbefffc		sw	-4(%GPR29),%GPR30	
12072	262a	00000000		nop	; Automatically Added by addNops.pl
12073	262b	00000000		nop	; Automatically Added by addNops.pl
12074	262c	00000000		nop	; Automatically Added by addNops.pl
12075	262d	00000000		nop	; Automatically added by fix-stall-insns.pl
12076	262e	afbf0000		sw	0(%GPR29),%GPR31	
12077	262f	00000000		nop	; Automatically Added by addNops.pl
12078	2630	00000000		nop	; Automatically Added by addNops.pl
12079	2631	00000000		nop	; Automatically Added by addNops.pl
12080	2632	2fbe0004		subui	%GPR30,%GPR29,$4	
12081	2633	00000000		nop	; Automatically Added by addNops.pl
12082	2634	00000000		nop	; Automatically Added by addNops.pl
12083	2635	00000000		nop	; Automatically Added by addNops.pl
12084				; Automatically 4 NOPs removed by reduceNOPs.sh
12085	2636	2bbd0024		subi	%GPR29,%GPR29,$36	
12086	2637	00000000		nop	; Automatically Added by addNops.pl
12087	2638	00000000		nop	; Automatically Added by addNops.pl
12088	2639	00000000		nop	; Automatically Added by addNops.pl
12089				; Automatically 16 NOPs removed by reduceNOPs.sh
12090	263a	afc1ffe4		sw	-28(%GPR30),%GPR1	
12091	263b	00000000		nop	; Automatically Added by addNops.pl
12092	263c	00000000		nop	; Automatically Added by addNops.pl
12093	263d	00000000		nop	; Automatically Added by addNops.pl
12094				; Automatically 20 NOPs removed by reduceNOPs.sh
12095	263e	00000000		nop	; Automatically added by fix-stall-insns.pl
12096	263f	afc2ffe8		sw	-24(%GPR30),%GPR2	
12097	2640	00000000		nop	; Automatically Added by addNops.pl
12098	2641	00000000		nop	; Automatically Added by addNops.pl
12099	2642	00000000		nop	; Automatically Added by addNops.pl
12100	2643	2bc10018		subi	%GPR1,%GPR30,$24	
12101	2644	00000000		nop	; Automatically Added by addNops.pl
12102	2645	00000000		nop	; Automatically Added by addNops.pl
12103	2646	00000000		nop	; Automatically Added by addNops.pl
12104				; Automatically 8 NOPs removed by reduceNOPs.sh
12105	2647	3c020000		lhi	%GPR2,$0	
12106	2648	00000000		nop	; Automatically Added by addNops.pl
12107	2649	00000000		nop	; Automatically Added by addNops.pl
12108	264a	00000000		nop	; Automatically Added by addNops.pl
12109				; Automatically 16 NOPs removed by reduceNOPs.sh
12110	264b	34420004		ori	%GPR2,%GPR2,$4	
12111	264c	00000000		nop	; Automatically Added by addNops.pl
12112	264d	00000000		nop	; Automatically Added by addNops.pl
12113	264e	00000000		nop	; Automatically Added by addNops.pl
12114	264f	2bc80018		subi	%GPR8,%GPR30,$24	
12115	2650	00000000		nop	; Automatically Added by addNops.pl
12116	2651	00000000		nop	; Automatically Added by addNops.pl
12117	2652	00000000		nop	; Automatically Added by addNops.pl
12118				; Automatically 8 NOPs removed by reduceNOPs.sh
12119	2653	3c090000		lhi	%GPR9,$0	
12120	2654	00000000		nop	; Automatically Added by addNops.pl
12121	2655	00000000		nop	; Automatically Added by addNops.pl
12122	2656	00000000		nop	; Automatically Added by addNops.pl
12123				; Automatically 16 NOPs removed by reduceNOPs.sh
12124	2657	35290008		ori	%GPR9,%GPR9,$8	
12125	2658	00000000		nop	; Automatically Added by addNops.pl
12126	2659	00000000		nop	; Automatically Added by addNops.pl
12127	265a	00000000		nop	; Automatically Added by addNops.pl
12128	265b	00220820		add	%GPR1,%GPR1,%GPR2	
12129	265c	00000000		nop	; Automatically Added by addNops.pl
12130	265d	00000000		nop	; Automatically Added by addNops.pl
12131	265e	00000000		nop	; Automatically Added by addNops.pl
12132	265f	2bc20018		subi	%GPR2,%GPR30,$24	
12133	2660	00000000		nop	; Automatically Added by addNops.pl
12134	2661	00000000		nop	; Automatically Added by addNops.pl
12135	2662	00000000		nop	; Automatically Added by addNops.pl
12136				; Automatically 8 NOPs removed by reduceNOPs.sh
12137	2663	3c0a0000		lhi	%GPR10,$0	
12138	2664	00000000		nop	; Automatically Added by addNops.pl
12139	2665	00000000		nop	; Automatically Added by addNops.pl
12140	2666	00000000		nop	; Automatically Added by addNops.pl
12141				; Automatically 16 NOPs removed by reduceNOPs.sh
12142	2667	354a000c		ori	%GPR10,%GPR10,$12	
12143	2668	00000000		nop	; Automatically Added by addNops.pl
12144	2669	00000000		nop	; Automatically Added by addNops.pl
12145	266a	00000000		nop	; Automatically Added by addNops.pl
12146	266b	ac230000		sw	0(%GPR1),%GPR3	
12147	266c	00000000		nop	; Automatically Added by addNops.pl
12148	266d	00000000		nop	; Automatically Added by addNops.pl
12149	266e	00000000		nop	; Automatically Added by addNops.pl
12150	266f	01090820		add	%GPR1,%GPR8,%GPR9	
12151	2670	00000000		nop	; Automatically Added by addNops.pl
12152	2671	00000000		nop	; Automatically Added by addNops.pl
12153	2672	00000000		nop	; Automatically Added by addNops.pl
12154	2673	2bc30018		subi	%GPR3,%GPR30,$24	
12155	2674	00000000		nop	; Automatically Added by addNops.pl
12156	2675	00000000		nop	; Automatically Added by addNops.pl
12157	2676	00000000		nop	; Automatically Added by addNops.pl
12158				; Automatically 8 NOPs removed by reduceNOPs.sh
12159	2677	3c080000		lhi	%GPR8,$0	
12160	2678	00000000		nop	; Automatically Added by addNops.pl
12161	2679	00000000		nop	; Automatically Added by addNops.pl
12162	267a	00000000		nop	; Automatically Added by addNops.pl
12163				; Automatically 16 NOPs removed by reduceNOPs.sh
12164	267b	35080010		ori	%GPR8,%GPR8,$16	
12165	267c	00000000		nop	; Automatically Added by addNops.pl
12166	267d	00000000		nop	; Automatically Added by addNops.pl
12167	267e	00000000		nop	; Automatically Added by addNops.pl
12168	267f	ac240000		sw	0(%GPR1),%GPR4	
12169	2680	00000000		nop	; Automatically Added by addNops.pl
12170	2681	00000000		nop	; Automatically Added by addNops.pl
12171	2682	00000000		nop	; Automatically Added by addNops.pl
12172	2683	004a0820		add	%GPR1,%GPR2,%GPR10	
12173	2684	00000000		nop	; Automatically Added by addNops.pl
12174	2685	00000000		nop	; Automatically Added by addNops.pl
12175	2686	00000000		nop	; Automatically Added by addNops.pl
12176	2687	3c040000		lhi	%GPR4,$0	
12177	2688	00000000		nop	; Automatically Added by addNops.pl
12178	2689	00000000		nop	; Automatically Added by addNops.pl
12179	268a	00000000		nop	; Automatically Added by addNops.pl
12180				; Automatically 16 NOPs removed by reduceNOPs.sh
12181	268b	34840014		ori	%GPR4,%GPR4,$20	
12182	268c	00000000		nop	; Automatically Added by addNops.pl
12183	268d	00000000		nop	; Automatically Added by addNops.pl
12184	268e	00000000		nop	; Automatically Added by addNops.pl
12185	268f	00681820		add	%GPR3,%GPR3,%GPR8	
12186	2690	00000000		nop	; Automatically Added by addNops.pl
12187	2691	00000000		nop	; Automatically Added by addNops.pl
12188	2692	00000000		nop	; Automatically Added by addNops.pl
12189	2693	2bc20018		subi	%GPR2,%GPR30,$24	
12190	2694	00000000		nop	; Automatically Added by addNops.pl
12191	2695	00000000		nop	; Automatically Added by addNops.pl
12192	2696	00000000		nop	; Automatically Added by addNops.pl
12193	2697	ac250000		sw	0(%GPR1),%GPR5	
12194	2698	00000000		nop	; Automatically Added by addNops.pl
12195	2699	00000000		nop	; Automatically Added by addNops.pl
12196	269a	00000000		nop	; Automatically Added by addNops.pl
12197				; Automatically 12 NOPs removed by reduceNOPs.sh
12198	269b	00440820		add	%GPR1,%GPR2,%GPR4	
12199	269c	00000000		nop	; Automatically Added by addNops.pl
12200	269d	00000000		nop	; Automatically Added by addNops.pl
12201	269e	00000000		nop	; Automatically Added by addNops.pl
12202	269f	ac660000		sw	0(%GPR3),%GPR6	
12203	26a0	00000000		nop	; Automatically Added by addNops.pl
12204	26a1	00000000		nop	; Automatically Added by addNops.pl
12205	26a2	00000000		nop	; Automatically Added by addNops.pl
12206				; Automatically 16 NOPs removed by reduceNOPs.sh
12207	26a3	00000000		nop	; Automatically added by fix-stall-insns.pl
12208	26a4	ac270000		sw	0(%GPR1),%GPR7	
12209	26a5	00000000		nop	; Automatically Added by addNops.pl
12210	26a6	00000000		nop	; Automatically Added by addNops.pl
12211	26a7	00000000		nop	; Automatically Added by addNops.pl
12212	26a8	00000000		nop	; Automatically added by fix-stall-insns.pl
12213	26a9	8fc1ffe4		lw	%GPR1,-28(%GPR30)	
12214	26aa	00000000		nop	; Automatically Added by addNops.pl
12215	26ab	00000000		nop	; Automatically Added by addNops.pl
12216	26ac	00000000		nop	; Automatically Added by addNops.pl
12217				; Automatically 16 NOPs removed by reduceNOPs.sh
12218	26ad	2bbd0008		subi	%GPR29,%GPR29,$8	
12219	26ae	00000000		nop	; Automatically Added by addNops.pl
12220	26af	00000000		nop	; Automatically Added by addNops.pl
12221	26b0	00000000		nop	; Automatically Added by addNops.pl
12222				; Automatically 16 NOPs removed by reduceNOPs.sh
12223	26b1	0ffff2c9		jal	strlength	
12224	26b2	00000000		nop	; Automatically Added by addNops.pl
12225	26b3	00000000		nop	; Automatically Added by addNops.pl
12226	26b4	00000000		nop	; Automatically Added by addNops.pl
12227				; Automatically 16 NOPs removed by reduceNOPs.sh
12228	26b5	23bd0008		addi	%GPR29,%GPR29,$8	
12229	26b6	00000000		nop	; Automatically Added by addNops.pl
12230	26b7	00000000		nop	; Automatically Added by addNops.pl
12231	26b8	00000000		nop	; Automatically Added by addNops.pl
12232				; Automatically 36 NOPs removed by reduceNOPs.sh
12233	26b9	8fc4ffe4		lw	%GPR4,-28(%GPR30)	
12234	26ba	00000000		nop	; Automatically Added by addNops.pl
12235	26bb	00000000		nop	; Automatically Added by addNops.pl
12236	26bc	00000000		nop	; Automatically Added by addNops.pl
12237	26bd	23860001		addi	%GPR6,%GPR28,$1	
12238	26be	00000000		nop	; Automatically Added by addNops.pl
12239	26bf	00000000		nop	; Automatically Added by addNops.pl
12240	26c0	00000000		nop	; Automatically Added by addNops.pl
12241	26c1	2bc30018		subi	%GPR3,%GPR30,$24	
12242	26c2	00000000		nop	; Automatically Added by addNops.pl
12243	26c3	00000000		nop	; Automatically Added by addNops.pl
12244	26c4	00000000		nop	; Automatically Added by addNops.pl
12245	26c5	3c070000		lhi	%GPR7,$0	
12246	26c6	00000000		nop	; Automatically Added by addNops.pl
12247	26c7	00000000		nop	; Automatically Added by addNops.pl
12248	26c8	00000000		nop	; Automatically Added by addNops.pl
12249				; Automatically 16 NOPs removed by reduceNOPs.sh
12250	26c9	34e7006f		ori	%GPR7,%GPR7,$111	
12251	26ca	00000000		nop	; Automatically Added by addNops.pl
12252	26cb	00000000		nop	; Automatically Added by addNops.pl
12253	26cc	00000000		nop	; Automatically Added by addNops.pl
12254	26cd	3c050000		lhi	%GPR5,$0	
12255	26ce	00000000		nop	; Automatically Added by addNops.pl
12256	26cf	00000000		nop	; Automatically Added by addNops.pl
12257	26d0	00000000		nop	; Automatically Added by addNops.pl
12258				; Automatically 16 NOPs removed by reduceNOPs.sh
12259	26d1	34a50006		ori	%GPR5,%GPR5,$6	
12260	26d2	00000000		nop	; Automatically Added by addNops.pl
12261	26d3	00000000		nop	; Automatically Added by addNops.pl
12262	26d4	00000000		nop	; Automatically Added by addNops.pl
12263	26d5	3c020000		lhi	%GPR2,$0	
12264	26d6	00000000		nop	; Automatically Added by addNops.pl
12265	26d7	00000000		nop	; Automatically Added by addNops.pl
12266	26d8	00000000		nop	; Automatically Added by addNops.pl
12267				; Automatically 16 NOPs removed by reduceNOPs.sh
12268	26d9	3442004b		ori	%GPR2,%GPR2,$75	
12269	26da	00000000		nop	; Automatically Added by addNops.pl
12270	26db	00000000		nop	; Automatically Added by addNops.pl
12271	26dc	00000000		nop	; Automatically Added by addNops.pl
12272	26dd	3c010000		lhi	%GPR1,$0	
12273	26de	00000000		nop	; Automatically Added by addNops.pl
12274	26df	00000000		nop	; Automatically Added by addNops.pl
12275	26e0	00000000		nop	; Automatically Added by addNops.pl
12276				; Automatically 16 NOPs removed by reduceNOPs.sh
12277	26e1	34210041		ori	%GPR1,%GPR1,$65	
12278	26e2	00000000		nop	; Automatically Added by addNops.pl
12279	26e3	00000000		nop	; Automatically Added by addNops.pl
12280	26e4	00000000		nop	; Automatically Added by addNops.pl
12281				; Automatically 16 NOPs removed by reduceNOPs.sh
12282	26e5	2bbd0008		subi	%GPR29,%GPR29,$8	
12283	26e6	00000000		nop	; Automatically Added by addNops.pl
12284	26e7	00000000		nop	; Automatically Added by addNops.pl
12285	26e8	00000000		nop	; Automatically Added by addNops.pl
12286				; Automatically 16 NOPs removed by reduceNOPs.sh
12287	26e9	0ffff7f8		jal	sendcommand	
12288	26ea	00000000		nop	; Automatically Added by addNops.pl
12289	26eb	00000000		nop	; Automatically Added by addNops.pl
12290	26ec	00000000		nop	; Automatically Added by addNops.pl
12291				; Automatically 16 NOPs removed by reduceNOPs.sh
12292	26ed	23bd0008		addi	%GPR29,%GPR29,$8	
12293	26ee	00000000		nop	; Automatically Added by addNops.pl
12294	26ef	00000000		nop	; Automatically Added by addNops.pl
12295	26f0	00000000		nop	; Automatically Added by addNops.pl
12296				; Automatically 36 NOPs removed by reduceNOPs.sh
12297	26f1	3c1c0000		lhi	%GPR28,$0	
12298	26f2	00000000		nop	; Automatically Added by addNops.pl
12299	26f3	00000000		nop	; Automatically Added by addNops.pl
12300	26f4	00000000		nop	; Automatically Added by addNops.pl
12301				; Automatically 16 NOPs removed by reduceNOPs.sh
12302	26f5	379c0000		ori	%GPR28,%GPR28,$0	
12303	26f6	00000000		nop	; Automatically Added by addNops.pl
12304	26f7	00000000		nop	; Automatically Added by addNops.pl
12305	26f8	00000000		nop	; Automatically Added by addNops.pl
12306				; Automatically 16 NOPs removed by reduceNOPs.sh
12307	26f9	08000004		j	L_lib_lcd_58	
12308	26fa	00000000		nop	; Automatically Added by addNops.pl
12309	26fb	00000000		nop	; Automatically Added by addNops.pl
12310	26fc	00000000		nop	; Automatically Added by addNops.pl
12311				; Automatically 16 NOPs removed by reduceNOPs.sh
12312			L_lib_lcd_58:
12313	26fd	00000000		nop	; Automatically Added by addNops.pl
12314	26fe	00000000		nop	; Automatically Added by addNops.pl
12315	26ff	00000000		nop	; Automatically Added by addNops.pl
12316				; Automatically 16 NOPs removed by reduceNOPs.sh
12317	2700	8fdf0004		lw	%GPR31,4(%GPR30)	
12318	2701	00000000		nop	; Automatically Added by addNops.pl
12319	2702	00000000		nop	; Automatically Added by addNops.pl
12320	2703	00000000		nop	; Automatically Added by addNops.pl
12321	2704	27dd0004		addui	%GPR29,%GPR30,$4	
12322	2705	00000000		nop	; Automatically Added by addNops.pl
12323	2706	00000000		nop	; Automatically Added by addNops.pl
12324	2707	00000000		nop	; Automatically Added by addNops.pl
12325	2708	8fde0000		lw	%GPR30,0(%GPR30)	
12326	2709	00000000		nop	; Automatically Added by addNops.pl
12327	270a	00000000		nop	; Automatically Added by addNops.pl
12328	270b	00000000		nop	; Automatically Added by addNops.pl
12329				; Automatically 8 NOPs removed by reduceNOPs.sh
12330	270c	00000000		nop
12331	270d	00000000		nop
12332	270e	03e00008		jr	%GPR31	
12333	270f	00000000		nop	; Automatically Added by addNops.pl
12334	2710	00000000		nop	; Automatically Added by addNops.pl
12335	2711	00000000		nop	; Automatically Added by addNops.pl
12336				; Automatically 16 NOPs removed by reduceNOPs.sh
12337			g_makemenubutton:
12338			L_lib_lcd_59:
12339	2712	00000000		nop	; Automatically Added by addNops.pl
12340	2713	00000000		nop	; Automatically Added by addNops.pl
12341	2714	00000000		nop	; Automatically Added by addNops.pl
12342				; Automatically 16 NOPs removed by reduceNOPs.sh
12343	2715	afbefffc		sw	-4(%GPR29),%GPR30	
12344	2716	00000000		nop	; Automatically Added by addNops.pl
12345	2717	00000000		nop	; Automatically Added by addNops.pl
12346	2718	00000000		nop	; Automatically Added by addNops.pl
12347	2719	00000000		nop	; Automatically added by fix-stall-insns.pl
12348	271a	afbf0000		sw	0(%GPR29),%GPR31	
12349	271b	00000000		nop	; Automatically Added by addNops.pl
12350	271c	00000000		nop	; Automatically Added by addNops.pl
12351	271d	00000000		nop	; Automatically Added by addNops.pl
12352	271e	2fbe0004		subui	%GPR30,%GPR29,$4	
12353	271f	00000000		nop	; Automatically Added by addNops.pl
12354	2720	00000000		nop	; Automatically Added by addNops.pl
12355	2721	00000000		nop	; Automatically Added by addNops.pl
12356				; Automatically 4 NOPs removed by reduceNOPs.sh
12357	2722	2bbd002c		subi	%GPR29,%GPR29,$44	
12358	2723	00000000		nop	; Automatically Added by addNops.pl
12359	2724	00000000		nop	; Automatically Added by addNops.pl
12360	2725	00000000		nop	; Automatically Added by addNops.pl
12361				; Automatically 16 NOPs removed by reduceNOPs.sh
12362	2726	afc1ffdc		sw	-36(%GPR30),%GPR1	
12363	2727	00000000		nop	; Automatically Added by addNops.pl
12364	2728	00000000		nop	; Automatically Added by addNops.pl
12365	2729	00000000		nop	; Automatically Added by addNops.pl
12366	272a	00000000		nop	; Automatically added by fix-stall-insns.pl
12367	272b	afc9fffc		sw	-4(%GPR30),%GPR9	
12368	272c	00000000		nop	; Automatically Added by addNops.pl
12369	272d	00000000		nop	; Automatically Added by addNops.pl
12370	272e	00000000		nop	; Automatically Added by addNops.pl
12371				; Automatically 20 NOPs removed by reduceNOPs.sh
12372	272f	00000000		nop	; Automatically added by fix-stall-insns.pl
12373	2730	afc2ffe0		sw	-32(%GPR30),%GPR2	
12374	2731	00000000		nop	; Automatically Added by addNops.pl
12375	2732	00000000		nop	; Automatically Added by addNops.pl
12376	2733	00000000		nop	; Automatically Added by addNops.pl
12377	2734	2bc10020		subi	%GPR1,%GPR30,$32	
12378	2735	00000000		nop	; Automatically Added by addNops.pl
12379	2736	00000000		nop	; Automatically Added by addNops.pl
12380	2737	00000000		nop	; Automatically Added by addNops.pl
12381				; Automatically 8 NOPs removed by reduceNOPs.sh
12382	2738	3c020000		lhi	%GPR2,$0	
12383	2739	00000000		nop	; Automatically Added by addNops.pl
12384	273a	00000000		nop	; Automatically Added by addNops.pl
12385	273b	00000000		nop	; Automatically Added by addNops.pl
12386				; Automatically 16 NOPs removed by reduceNOPs.sh
12387	273c	34420004		ori	%GPR2,%GPR2,$4	
12388	273d	00000000		nop	; Automatically Added by addNops.pl
12389	273e	00000000		nop	; Automatically Added by addNops.pl
12390	273f	00000000		nop	; Automatically Added by addNops.pl
12391	2740	2bc90020		subi	%GPR9,%GPR30,$32	
12392	2741	00000000		nop	; Automatically Added by addNops.pl
12393	2742	00000000		nop	; Automatically Added by addNops.pl
12394	2743	00000000		nop	; Automatically Added by addNops.pl
12395				; Automatically 8 NOPs removed by reduceNOPs.sh
12396	2744	3c0a0000		lhi	%GPR10,$0	
12397	2745	00000000		nop	; Automatically Added by addNops.pl
12398	2746	00000000		nop	; Automatically Added by addNops.pl
12399	2747	00000000		nop	; Automatically Added by addNops.pl
12400				; Automatically 16 NOPs removed by reduceNOPs.sh
12401	2748	354a0008		ori	%GPR10,%GPR10,$8	
12402	2749	00000000		nop	; Automatically Added by addNops.pl
12403	274a	00000000		nop	; Automatically Added by addNops.pl
12404	274b	00000000		nop	; Automatically Added by addNops.pl
12405	274c	00220820		add	%GPR1,%GPR1,%GPR2	
12406	274d	00000000		nop	; Automatically Added by addNops.pl
12407	274e	00000000		nop	; Automatically Added by addNops.pl
12408	274f	00000000		nop	; Automatically Added by addNops.pl
12409	2750	2bc20020		subi	%GPR2,%GPR30,$32	
12410	2751	00000000		nop	; Automatically Added by addNops.pl
12411	2752	00000000		nop	; Automatically Added by addNops.pl
12412	2753	00000000		nop	; Automatically Added by addNops.pl
12413	2754	3c0b0000		lhi	%GPR11,$0	
12414	2755	00000000		nop	; Automatically Added by addNops.pl
12415	2756	00000000		nop	; Automatically Added by addNops.pl
12416	2757	00000000		nop	; Automatically Added by addNops.pl
12417				; Automatically 16 NOPs removed by reduceNOPs.sh
12418	2758	356b000c		ori	%GPR11,%GPR11,$12	
12419	2759	00000000		nop	; Automatically Added by addNops.pl
12420	275a	00000000		nop	; Automatically Added by addNops.pl
12421	275b	00000000		nop	; Automatically Added by addNops.pl
12422				; Automatically 8 NOPs removed by reduceNOPs.sh
12423	275c	ac230000		sw	0(%GPR1),%GPR3	
12424	275d	00000000		nop	; Automatically Added by addNops.pl
12425	275e	00000000		nop	; Automatically Added by addNops.pl
12426	275f	00000000		nop	; Automatically Added by addNops.pl
12427	2760	012a0820		add	%GPR1,%GPR9,%GPR10	
12428	2761	00000000		nop	; Automatically Added by addNops.pl
12429	2762	00000000		nop	; Automatically Added by addNops.pl
12430	2763	00000000		nop	; Automatically Added by addNops.pl
12431	2764	2bc30020		subi	%GPR3,%GPR30,$32	
12432	2765	00000000		nop	; Automatically Added by addNops.pl
12433	2766	00000000		nop	; Automatically Added by addNops.pl
12434	2767	00000000		nop	; Automatically Added by addNops.pl
12435				; Automatically 8 NOPs removed by reduceNOPs.sh
12436	2768	3c090000		lhi	%GPR9,$0	
12437	2769	00000000		nop	; Automatically Added by addNops.pl
12438	276a	00000000		nop	; Automatically Added by addNops.pl
12439	276b	00000000		nop	; Automatically Added by addNops.pl
12440				; Automatically 16 NOPs removed by reduceNOPs.sh
12441	276c	35290010		ori	%GPR9,%GPR9,$16	
12442	276d	00000000		nop	; Automatically Added by addNops.pl
12443	276e	00000000		nop	; Automatically Added by addNops.pl
12444	276f	00000000		nop	; Automatically Added by addNops.pl
12445	2770	ac240000		sw	0(%GPR1),%GPR4	
12446	2771	00000000		nop	; Automatically Added by addNops.pl
12447	2772	00000000		nop	; Automatically Added by addNops.pl
12448	2773	00000000		nop	; Automatically Added by addNops.pl
12449	2774	004b0820		add	%GPR1,%GPR2,%GPR11	
12450	2775	00000000		nop	; Automatically Added by addNops.pl
12451	2776	00000000		nop	; Automatically Added by addNops.pl
12452	2777	00000000		nop	; Automatically Added by addNops.pl
12453	2778	2bc20020		subi	%GPR2,%GPR30,$32	
12454	2779	00000000		nop	; Automatically Added by addNops.pl
12455	277a	00000000		nop	; Automatically Added by addNops.pl
12456	277b	00000000		nop	; Automatically Added by addNops.pl
12457				; Automatically 8 NOPs removed by reduceNOPs.sh
12458	277c	3c040000		lhi	%GPR4,$0	
12459	277d	00000000		nop	; Automatically Added by addNops.pl
12460	277e	00000000		nop	; Automatically Added by addNops.pl
12461	277f	00000000		nop	; Automatically Added by addNops.pl
12462				; Automatically 16 NOPs removed by reduceNOPs.sh
12463	2780	34840014		ori	%GPR4,%GPR4,$20	
12464	2781	00000000		nop	; Automatically Added by addNops.pl
12465	2782	00000000		nop	; Automatically Added by addNops.pl
12466	2783	00000000		nop	; Automatically Added by addNops.pl
12467	2784	ac250000		sw	0(%GPR1),%GPR5	
12468	2785	00000000		nop	; Automatically Added by addNops.pl
12469	2786	00000000		nop	; Automatically Added by addNops.pl
12470	2787	00000000		nop	; Automatically Added by addNops.pl
12471	2788	00690820		add	%GPR1,%GPR3,%GPR9	
12472	2789	00000000		nop	; Automatically Added by addNops.pl
12473	278a	00000000		nop	; Automatically Added by addNops.pl
12474	278b	00000000		nop	; Automatically Added by addNops.pl
12475	278c	3c050000		lhi	%GPR5,$0	
12476	278d	00000000		nop	; Automatically Added by addNops.pl
12477	278e	00000000		nop	; Automatically Added by addNops.pl
12478	278f	00000000		nop	; Automatically Added by addNops.pl
12479				; Automatically 16 NOPs removed by reduceNOPs.sh
12480	2790	34a50018		ori	%GPR5,%GPR5,$24	
12481	2791	00000000		nop	; Automatically Added by addNops.pl
12482	2792	00000000		nop	; Automatically Added by addNops.pl
12483	2793	00000000		nop	; Automatically Added by addNops.pl
12484	2794	00441020		add	%GPR2,%GPR2,%GPR4	
12485	2795	00000000		nop	; Automatically Added by addNops.pl
12486	2796	00000000		nop	; Automatically Added by addNops.pl
12487	2797	00000000		nop	; Automatically Added by addNops.pl
12488	2798	2bc30020		subi	%GPR3,%GPR30,$32	
12489	2799	00000000		nop	; Automatically Added by addNops.pl
12490	279a	00000000		nop	; Automatically Added by addNops.pl
12491	279b	00000000		nop	; Automatically Added by addNops.pl
12492	279c	ac260000		sw	0(%GPR1),%GPR6	
12493	279d	00000000		nop	; Automatically Added by addNops.pl
12494	279e	00000000		nop	; Automatically Added by addNops.pl
12495	279f	00000000		nop	; Automatically Added by addNops.pl
12496				; Automatically 12 NOPs removed by reduceNOPs.sh
12497	27a0	00650820		add	%GPR1,%GPR3,%GPR5	
12498	27a1	00000000		nop	; Automatically Added by addNops.pl
12499	27a2	00000000		nop	; Automatically Added by addNops.pl
12500	27a3	00000000		nop	; Automatically Added by addNops.pl
12501	27a4	ac470000		sw	0(%GPR2),%GPR7	
12502	27a5	00000000		nop	; Automatically Added by addNops.pl
12503	27a6	00000000		nop	; Automatically Added by addNops.pl
12504	27a7	00000000		nop	; Automatically Added by addNops.pl
12505				; Automatically 16 NOPs removed by reduceNOPs.sh
12506	27a8	00000000		nop	; Automatically added by fix-stall-insns.pl
12507	27a9	ac280000		sw	0(%GPR1),%GPR8	
12508	27aa	00000000		nop	; Automatically Added by addNops.pl
12509	27ab	00000000		nop	; Automatically Added by addNops.pl
12510	27ac	00000000		nop	; Automatically Added by addNops.pl
12511	27ad	00000000		nop	; Automatically added by fix-stall-insns.pl
12512	27ae	8fc1ffdc		lw	%GPR1,-36(%GPR30)	
12513	27af	00000000		nop	; Automatically Added by addNops.pl
12514	27b0	00000000		nop	; Automatically Added by addNops.pl
12515	27b1	00000000		nop	; Automatically Added by addNops.pl
12516				; Automatically 16 NOPs removed by reduceNOPs.sh
12517	27b2	2bbd0008		subi	%GPR29,%GPR29,$8	
12518	27b3	00000000		nop	; Automatically Added by addNops.pl
12519	27b4	00000000		nop	; Automatically Added by addNops.pl
12520	27b5	00000000		nop	; Automatically Added by addNops.pl
12521				; Automatically 16 NOPs removed by reduceNOPs.sh
12522	27b6	0ffff1c4		jal	strlength	
12523	27b7	00000000		nop	; Automatically Added by addNops.pl
12524	27b8	00000000		nop	; Automatically Added by addNops.pl
12525	27b9	00000000		nop	; Automatically Added by addNops.pl
12526				; Automatically 16 NOPs removed by reduceNOPs.sh
12527	27ba	23bd0008		addi	%GPR29,%GPR29,$8	
12528	27bb	00000000		nop	; Automatically Added by addNops.pl
12529	27bc	00000000		nop	; Automatically Added by addNops.pl
12530	27bd	00000000		nop	; Automatically Added by addNops.pl
12531				; Automatically 36 NOPs removed by reduceNOPs.sh
12532	27be	8fc4ffdc		lw	%GPR4,-36(%GPR30)	
12533	27bf	00000000		nop	; Automatically Added by addNops.pl
12534	27c0	00000000		nop	; Automatically Added by addNops.pl
12535	27c1	00000000		nop	; Automatically Added by addNops.pl
12536	27c2	23860001		addi	%GPR6,%GPR28,$1	
12537	27c3	00000000		nop	; Automatically Added by addNops.pl
12538	27c4	00000000		nop	; Automatically Added by addNops.pl
12539	27c5	00000000		nop	; Automatically Added by addNops.pl
12540	27c6	2bc30020		subi	%GPR3,%GPR30,$32	
12541	27c7	00000000		nop	; Automatically Added by addNops.pl
12542	27c8	00000000		nop	; Automatically Added by addNops.pl
12543	27c9	00000000		nop	; Automatically Added by addNops.pl
12544	27ca	3c070000		lhi	%GPR7,$0	
12545	27cb	00000000		nop	; Automatically Added by addNops.pl
12546	27cc	00000000		nop	; Automatically Added by addNops.pl
12547	27cd	00000000		nop	; Automatically Added by addNops.pl
12548				; Automatically 16 NOPs removed by reduceNOPs.sh
12549	27ce	34e7006f		ori	%GPR7,%GPR7,$111	
12550	27cf	00000000		nop	; Automatically Added by addNops.pl
12551	27d0	00000000		nop	; Automatically Added by addNops.pl
12552	27d1	00000000		nop	; Automatically Added by addNops.pl
12553	27d2	3c050000		lhi	%GPR5,$0	
12554	27d3	00000000		nop	; Automatically Added by addNops.pl
12555	27d4	00000000		nop	; Automatically Added by addNops.pl
12556	27d5	00000000		nop	; Automatically Added by addNops.pl
12557				; Automatically 16 NOPs removed by reduceNOPs.sh
12558	27d6	34a50007		ori	%GPR5,%GPR5,$7	
12559	27d7	00000000		nop	; Automatically Added by addNops.pl
12560	27d8	00000000		nop	; Automatically Added by addNops.pl
12561	27d9	00000000		nop	; Automatically Added by addNops.pl
12562	27da	3c020000		lhi	%GPR2,$0	
12563	27db	00000000		nop	; Automatically Added by addNops.pl
12564	27dc	00000000		nop	; Automatically Added by addNops.pl
12565	27dd	00000000		nop	; Automatically Added by addNops.pl
12566				; Automatically 16 NOPs removed by reduceNOPs.sh
12567	27de	3442004d		ori	%GPR2,%GPR2,$77	
12568	27df	00000000		nop	; Automatically Added by addNops.pl
12569	27e0	00000000		nop	; Automatically Added by addNops.pl
12570	27e1	00000000		nop	; Automatically Added by addNops.pl
12571	27e2	3c010000		lhi	%GPR1,$0	
12572	27e3	00000000		nop	; Automatically Added by addNops.pl
12573	27e4	00000000		nop	; Automatically Added by addNops.pl
12574	27e5	00000000		nop	; Automatically Added by addNops.pl
12575				; Automatically 16 NOPs removed by reduceNOPs.sh
12576	27e6	34210041		ori	%GPR1,%GPR1,$65	
12577	27e7	00000000		nop	; Automatically Added by addNops.pl
12578	27e8	00000000		nop	; Automatically Added by addNops.pl
12579	27e9	00000000		nop	; Automatically Added by addNops.pl
12580				; Automatically 16 NOPs removed by reduceNOPs.sh
12581	27ea	2bbd0008		subi	%GPR29,%GPR29,$8	
12582	27eb	00000000		nop	; Automatically Added by addNops.pl
12583	27ec	00000000		nop	; Automatically Added by addNops.pl
12584	27ed	00000000		nop	; Automatically Added by addNops.pl
12585				; Automatically 16 NOPs removed by reduceNOPs.sh
12586	27ee	0ffff6f3		jal	sendcommand	
12587	27ef	00000000		nop	; Automatically Added by addNops.pl
12588	27f0	00000000		nop	; Automatically Added by addNops.pl
12589	27f1	00000000		nop	; Automatically Added by addNops.pl
12590				; Automatically 16 NOPs removed by reduceNOPs.sh
12591	27f2	23bd0008		addi	%GPR29,%GPR29,$8	
12592	27f3	00000000		nop	; Automatically Added by addNops.pl
12593	27f4	00000000		nop	; Automatically Added by addNops.pl
12594	27f5	00000000		nop	; Automatically Added by addNops.pl
12595				; Automatically 24 NOPs removed by reduceNOPs.sh
12596	27f6	8fc1fffc		lw	%GPR1,-4(%GPR30)	
12597	27f7	00000000		nop	; Automatically Added by addNops.pl
12598	27f8	00000000		nop	; Automatically Added by addNops.pl
12599	27f9	00000000		nop	; Automatically Added by addNops.pl
12600				; Automatically 12 NOPs removed by reduceNOPs.sh
12601	27fa	3c020000		lhi	%GPR2,$0	
12602	27fb	00000000		nop	; Automatically Added by addNops.pl
12603	27fc	00000000		nop	; Automatically Added by addNops.pl
12604	27fd	00000000		nop	; Automatically Added by addNops.pl
12605				; Automatically 16 NOPs removed by reduceNOPs.sh
12606	27fe	34420000		ori	%GPR2,%GPR2,$0	
12607	27ff	00000000		nop	; Automatically Added by addNops.pl
12608	2800	00000000		nop	; Automatically Added by addNops.pl
12609	2801	00000000		nop	; Automatically Added by addNops.pl
12610				; Automatically 16 NOPs removed by reduceNOPs.sh
12611	2802	0022d82b		sgt	%GPR27,%GPR1,%GPR2	
12612	2803	00000000		nop	; Automatically Added by addNops.pl
12613	2804	00000000		nop	; Automatically Added by addNops.pl
12614	2805	00000000		nop	; Automatically Added by addNops.pl
12615	2806	17600008		bnez	%GPR27,L_lib_lcd_60	
12616	2807	00000000		nop	; Automatically Added by addNops.pl
12617	2808	00000000		nop	; Automatically Added by addNops.pl
12618	2809	00000000		nop	; Automatically Added by addNops.pl
12619				; Automatically 16 NOPs removed by reduceNOPs.sh
12620	280a	08000047		j	L_lib_lcd_61	
12621	280b	00000000		nop	; Automatically Added by addNops.pl
12622	280c	00000000		nop	; Automatically Added by addNops.pl
12623	280d	00000000		nop	; Automatically Added by addNops.pl
12624				; Automatically 16 NOPs removed by reduceNOPs.sh
12625			L_lib_lcd_60:
12626	280e	00000000		nop	; Automatically Added by addNops.pl
12627	280f	00000000		nop	; Automatically Added by addNops.pl
12628	2810	00000000		nop	; Automatically Added by addNops.pl
12629				; Automatically 24 NOPs removed by reduceNOPs.sh
12630	2811	2bc30004		subi	%GPR3,%GPR30,$4	
12631	2812	00000000		nop	; Automatically Added by addNops.pl
12632	2813	00000000		nop	; Automatically Added by addNops.pl
12633	2814	00000000		nop	; Automatically Added by addNops.pl
12634	2815	3c070000		lhi	%GPR7,$0	
12635	2816	00000000		nop	; Automatically Added by addNops.pl
12636	2817	00000000		nop	; Automatically Added by addNops.pl
12637	2818	00000000		nop	; Automatically Added by addNops.pl
12638				; Automatically 16 NOPs removed by reduceNOPs.sh
12639	2819	34e7006f		ori	%GPR7,%GPR7,$111	
12640	281a	00000000		nop	; Automatically Added by addNops.pl
12641	281b	00000000		nop	; Automatically Added by addNops.pl
12642	281c	00000000		nop	; Automatically Added by addNops.pl
12643	281d	3c060000		lhi	%GPR6,$0	
12644	281e	00000000		nop	; Automatically Added by addNops.pl
12645	281f	00000000		nop	; Automatically Added by addNops.pl
12646	2820	00000000		nop	; Automatically Added by addNops.pl
12647				; Automatically 16 NOPs removed by reduceNOPs.sh
12648	2821	34c60000		ori	%GPR6,%GPR6,$0	
12649	2822	00000000		nop	; Automatically Added by addNops.pl
12650	2823	00000000		nop	; Automatically Added by addNops.pl
12651	2824	00000000		nop	; Automatically Added by addNops.pl
12652	2825	3c050000		lhi	%GPR5,$0	
12653	2826	00000000		nop	; Automatically Added by addNops.pl
12654	2827	00000000		nop	; Automatically Added by addNops.pl
12655	2828	00000000		nop	; Automatically Added by addNops.pl
12656				; Automatically 16 NOPs removed by reduceNOPs.sh
12657	2829	34a50001		ori	%GPR5,%GPR5,$1	
12658	282a	00000000		nop	; Automatically Added by addNops.pl
12659	282b	00000000		nop	; Automatically Added by addNops.pl
12660	282c	00000000		nop	; Automatically Added by addNops.pl
12661	282d	3c020000		lhi	%GPR2,$0	
12662	282e	00000000		nop	; Automatically Added by addNops.pl
12663	282f	00000000		nop	; Automatically Added by addNops.pl
12664	2830	00000000		nop	; Automatically Added by addNops.pl
12665				; Automatically 16 NOPs removed by reduceNOPs.sh
12666	2831	34420059		ori	%GPR2,%GPR2,$89	
12667	2832	00000000		nop	; Automatically Added by addNops.pl
12668	2833	00000000		nop	; Automatically Added by addNops.pl
12669	2834	00000000		nop	; Automatically Added by addNops.pl
12670	2835	3c010000		lhi	%GPR1,$0	
12671	2836	00000000		nop	; Automatically Added by addNops.pl
12672	2837	00000000		nop	; Automatically Added by addNops.pl
12673	2838	00000000		nop	; Automatically Added by addNops.pl
12674				; Automatically 16 NOPs removed by reduceNOPs.sh
12675	2839	3421004e		ori	%GPR1,%GPR1,$78	
12676	283a	00000000		nop	; Automatically Added by addNops.pl
12677	283b	00000000		nop	; Automatically Added by addNops.pl
12678	283c	00000000		nop	; Automatically Added by addNops.pl
12679	283d	3c040000		lhi	%GPR4,$0	
12680	283e	00000000		nop	; Automatically Added by addNops.pl
12681	283f	00000000		nop	; Automatically Added by addNops.pl
12682	2840	00000000		nop	; Automatically Added by addNops.pl
12683				; Automatically 16 NOPs removed by reduceNOPs.sh
12684	2841	34840000		ori	%GPR4,%GPR4,$0	
12685	2842	00000000		nop	; Automatically Added by addNops.pl
12686	2843	00000000		nop	; Automatically Added by addNops.pl
12687	2844	00000000		nop	; Automatically Added by addNops.pl
12688				; Automatically 16 NOPs removed by reduceNOPs.sh
12689	2845	2bbd0008		subi	%GPR29,%GPR29,$8	
12690	2846	00000000		nop	; Automatically Added by addNops.pl
12691	2847	00000000		nop	; Automatically Added by addNops.pl
12692	2848	00000000		nop	; Automatically Added by addNops.pl
12693				; Automatically 16 NOPs removed by reduceNOPs.sh
12694	2849	0ffff698		jal	sendcommand	
12695	284a	00000000		nop	; Automatically Added by addNops.pl
12696	284b	00000000		nop	; Automatically Added by addNops.pl
12697	284c	00000000		nop	; Automatically Added by addNops.pl
12698				; Automatically 16 NOPs removed by reduceNOPs.sh
12699	284d	23bd0008		addi	%GPR29,%GPR29,$8	
12700	284e	00000000		nop	; Automatically Added by addNops.pl
12701	284f	00000000		nop	; Automatically Added by addNops.pl
12702	2850	00000000		nop	; Automatically Added by addNops.pl
12703				; Automatically 28 NOPs removed by reduceNOPs.sh
12704			L_lib_lcd_61:
12705	2851	00000000		nop	; Automatically Added by addNops.pl
12706	2852	00000000		nop	; Automatically Added by addNops.pl
12707	2853	00000000		nop	; Automatically Added by addNops.pl
12708				; Automatically 16 NOPs removed by reduceNOPs.sh
12709	2854	3c1c0000		lhi	%GPR28,$0	
12710	2855	00000000		nop	; Automatically Added by addNops.pl
12711	2856	00000000		nop	; Automatically Added by addNops.pl
12712	2857	00000000		nop	; Automatically Added by addNops.pl
12713				; Automatically 16 NOPs removed by reduceNOPs.sh
12714	2858	379c0000		ori	%GPR28,%GPR28,$0	
12715	2859	00000000		nop	; Automatically Added by addNops.pl
12716	285a	00000000		nop	; Automatically Added by addNops.pl
12717	285b	00000000		nop	; Automatically Added by addNops.pl
12718				; Automatically 16 NOPs removed by reduceNOPs.sh
12719	285c	08000004		j	L_lib_lcd_62	
12720	285d	00000000		nop	; Automatically Added by addNops.pl
12721	285e	00000000		nop	; Automatically Added by addNops.pl
12722	285f	00000000		nop	; Automatically Added by addNops.pl
12723				; Automatically 16 NOPs removed by reduceNOPs.sh
12724			L_lib_lcd_62:
12725	2860	00000000		nop	; Automatically Added by addNops.pl
12726	2861	00000000		nop	; Automatically Added by addNops.pl
12727	2862	00000000		nop	; Automatically Added by addNops.pl
12728				; Automatically 16 NOPs removed by reduceNOPs.sh
12729	2863	8fdf0004		lw	%GPR31,4(%GPR30)	
12730	2864	00000000		nop	; Automatically Added by addNops.pl
12731	2865	00000000		nop	; Automatically Added by addNops.pl
12732	2866	00000000		nop	; Automatically Added by addNops.pl
12733	2867	27dd0004		addui	%GPR29,%GPR30,$4	
12734	2868	00000000		nop	; Automatically Added by addNops.pl
12735	2869	00000000		nop	; Automatically Added by addNops.pl
12736	286a	00000000		nop	; Automatically Added by addNops.pl
12737	286b	8fde0000		lw	%GPR30,0(%GPR30)	
12738	286c	00000000		nop	; Automatically Added by addNops.pl
12739	286d	00000000		nop	; Automatically Added by addNops.pl
12740	286e	00000000		nop	; Automatically Added by addNops.pl
12741				; Automatically 8 NOPs removed by reduceNOPs.sh
12742	286f	00000000		nop
12743	2870	00000000		nop
12744	2871	03e00008		jr	%GPR31	
12745	2872	00000000		nop	; Automatically Added by addNops.pl
12746	2873	00000000		nop	; Automatically Added by addNops.pl
12747	2874	00000000		nop	; Automatically Added by addNops.pl
12748				; Automatically 16 NOPs removed by reduceNOPs.sh
12749			g_makeradiogroup:
12750			L_lib_lcd_63:
12751	2875	00000000		nop	; Automatically Added by addNops.pl
12752	2876	00000000		nop	; Automatically Added by addNops.pl
12753	2877	00000000		nop	; Automatically Added by addNops.pl
12754				; Automatically 16 NOPs removed by reduceNOPs.sh
12755	2878	afbefffc		sw	-4(%GPR29),%GPR30	
12756	2879	00000000		nop	; Automatically Added by addNops.pl
12757	287a	00000000		nop	; Automatically Added by addNops.pl
12758	287b	00000000		nop	; Automatically Added by addNops.pl
12759	287c	00000000		nop	; Automatically added by fix-stall-insns.pl
12760	287d	afbf0000		sw	0(%GPR29),%GPR31	
12761	287e	00000000		nop	; Automatically Added by addNops.pl
12762	287f	00000000		nop	; Automatically Added by addNops.pl
12763	2880	00000000		nop	; Automatically Added by addNops.pl
12764	2881	2fbe0004		subui	%GPR30,%GPR29,$4	
12765	2882	00000000		nop	; Automatically Added by addNops.pl
12766	2883	00000000		nop	; Automatically Added by addNops.pl
12767	2884	00000000		nop	; Automatically Added by addNops.pl
12768				; Automatically 4 NOPs removed by reduceNOPs.sh
12769	2885	2bbd000c		subi	%GPR29,%GPR29,$12	
12770	2886	00000000		nop	; Automatically Added by addNops.pl
12771	2887	00000000		nop	; Automatically Added by addNops.pl
12772	2888	00000000		nop	; Automatically Added by addNops.pl
12773				; Automatically 16 NOPs removed by reduceNOPs.sh
12774	2889	afc1fffc		sw	-4(%GPR30),%GPR1	
12775	288a	00000000		nop	; Automatically Added by addNops.pl
12776	288b	00000000		nop	; Automatically Added by addNops.pl
12777	288c	00000000		nop	; Automatically Added by addNops.pl
12778				; Automatically 40 NOPs removed by reduceNOPs.sh
12779	288d	2bc30004		subi	%GPR3,%GPR30,$4	
12780	288e	00000000		nop	; Automatically Added by addNops.pl
12781	288f	00000000		nop	; Automatically Added by addNops.pl
12782	2890	00000000		nop	; Automatically Added by addNops.pl
12783	2891	3c070000		lhi	%GPR7,$0	
12784	2892	00000000		nop	; Automatically Added by addNops.pl
12785	2893	00000000		nop	; Automatically Added by addNops.pl
12786	2894	00000000		nop	; Automatically Added by addNops.pl
12787				; Automatically 16 NOPs removed by reduceNOPs.sh
12788	2895	34e7006f		ori	%GPR7,%GPR7,$111	
12789	2896	00000000		nop	; Automatically Added by addNops.pl
12790	2897	00000000		nop	; Automatically Added by addNops.pl
12791	2898	00000000		nop	; Automatically Added by addNops.pl
12792	2899	3c060000		lhi	%GPR6,$0	
12793	289a	00000000		nop	; Automatically Added by addNops.pl
12794	289b	00000000		nop	; Automatically Added by addNops.pl
12795	289c	00000000		nop	; Automatically Added by addNops.pl
12796				; Automatically 16 NOPs removed by reduceNOPs.sh
12797	289d	34c60000		ori	%GPR6,%GPR6,$0	
12798	289e	00000000		nop	; Automatically Added by addNops.pl
12799	289f	00000000		nop	; Automatically Added by addNops.pl
12800	28a0	00000000		nop	; Automatically Added by addNops.pl
12801	28a1	3c050000		lhi	%GPR5,$0	
12802	28a2	00000000		nop	; Automatically Added by addNops.pl
12803	28a3	00000000		nop	; Automatically Added by addNops.pl
12804	28a4	00000000		nop	; Automatically Added by addNops.pl
12805				; Automatically 16 NOPs removed by reduceNOPs.sh
12806	28a5	34a50001		ori	%GPR5,%GPR5,$1	
12807	28a6	00000000		nop	; Automatically Added by addNops.pl
12808	28a7	00000000		nop	; Automatically Added by addNops.pl
12809	28a8	00000000		nop	; Automatically Added by addNops.pl
12810	28a9	3c020000		lhi	%GPR2,$0	
12811	28aa	00000000		nop	; Automatically Added by addNops.pl
12812	28ab	00000000		nop	; Automatically Added by addNops.pl
12813	28ac	00000000		nop	; Automatically Added by addNops.pl
12814				; Automatically 16 NOPs removed by reduceNOPs.sh
12815	28ad	34420052		ori	%GPR2,%GPR2,$82	
12816	28ae	00000000		nop	; Automatically Added by addNops.pl
12817	28af	00000000		nop	; Automatically Added by addNops.pl
12818	28b0	00000000		nop	; Automatically Added by addNops.pl
12819	28b1	3c010000		lhi	%GPR1,$0	
12820	28b2	00000000		nop	; Automatically Added by addNops.pl
12821	28b3	00000000		nop	; Automatically Added by addNops.pl
12822	28b4	00000000		nop	; Automatically Added by addNops.pl
12823				; Automatically 16 NOPs removed by reduceNOPs.sh
12824	28b5	34210041		ori	%GPR1,%GPR1,$65	
12825	28b6	00000000		nop	; Automatically Added by addNops.pl
12826	28b7	00000000		nop	; Automatically Added by addNops.pl
12827	28b8	00000000		nop	; Automatically Added by addNops.pl
12828	28b9	3c040000		lhi	%GPR4,$0	
12829	28ba	00000000		nop	; Automatically Added by addNops.pl
12830	28bb	00000000		nop	; Automatically Added by addNops.pl
12831	28bc	00000000		nop	; Automatically Added by addNops.pl
12832				; Automatically 16 NOPs removed by reduceNOPs.sh
12833	28bd	34840000		ori	%GPR4,%GPR4,$0	
12834	28be	00000000		nop	; Automatically Added by addNops.pl
12835	28bf	00000000		nop	; Automatically Added by addNops.pl
12836	28c0	00000000		nop	; Automatically Added by addNops.pl
12837				; Automatically 16 NOPs removed by reduceNOPs.sh
12838	28c1	2bbd0008		subi	%GPR29,%GPR29,$8	
12839	28c2	00000000		nop	; Automatically Added by addNops.pl
12840	28c3	00000000		nop	; Automatically Added by addNops.pl
12841	28c4	00000000		nop	; Automatically Added by addNops.pl
12842				; Automatically 16 NOPs removed by reduceNOPs.sh
12843	28c5	0ffff61c		jal	sendcommand	
12844	28c6	00000000		nop	; Automatically Added by addNops.pl
12845	28c7	00000000		nop	; Automatically Added by addNops.pl
12846	28c8	00000000		nop	; Automatically Added by addNops.pl
12847				; Automatically 16 NOPs removed by reduceNOPs.sh
12848	28c9	23bd0008		addi	%GPR29,%GPR29,$8	
12849	28ca	00000000		nop	; Automatically Added by addNops.pl
12850	28cb	00000000		nop	; Automatically Added by addNops.pl
12851	28cc	00000000		nop	; Automatically Added by addNops.pl
12852				; Automatically 36 NOPs removed by reduceNOPs.sh
12853	28cd	3c1c0000		lhi	%GPR28,$0	
12854	28ce	00000000		nop	; Automatically Added by addNops.pl
12855	28cf	00000000		nop	; Automatically Added by addNops.pl
12856	28d0	00000000		nop	; Automatically Added by addNops.pl
12857				; Automatically 16 NOPs removed by reduceNOPs.sh
12858	28d1	379c0000		ori	%GPR28,%GPR28,$0	
12859	28d2	00000000		nop	; Automatically Added by addNops.pl
12860	28d3	00000000		nop	; Automatically Added by addNops.pl
12861	28d4	00000000		nop	; Automatically Added by addNops.pl
12862				; Automatically 16 NOPs removed by reduceNOPs.sh
12863	28d5	08000004		j	L_lib_lcd_64	
12864	28d6	00000000		nop	; Automatically Added by addNops.pl
12865	28d7	00000000		nop	; Automatically Added by addNops.pl
12866	28d8	00000000		nop	; Automatically Added by addNops.pl
12867				; Automatically 16 NOPs removed by reduceNOPs.sh
12868			L_lib_lcd_64:
12869	28d9	00000000		nop	; Automatically Added by addNops.pl
12870	28da	00000000		nop	; Automatically Added by addNops.pl
12871	28db	00000000		nop	; Automatically Added by addNops.pl
12872				; Automatically 16 NOPs removed by reduceNOPs.sh
12873	28dc	8fdf0004		lw	%GPR31,4(%GPR30)	
12874	28dd	00000000		nop	; Automatically Added by addNops.pl
12875	28de	00000000		nop	; Automatically Added by addNops.pl
12876	28df	00000000		nop	; Automatically Added by addNops.pl
12877	28e0	27dd0004		addui	%GPR29,%GPR30,$4	
12878	28e1	00000000		nop	; Automatically Added by addNops.pl
12879	28e2	00000000		nop	; Automatically Added by addNops.pl
12880	28e3	00000000		nop	; Automatically Added by addNops.pl
12881	28e4	8fde0000		lw	%GPR30,0(%GPR30)	
12882	28e5	00000000		nop	; Automatically Added by addNops.pl
12883	28e6	00000000		nop	; Automatically Added by addNops.pl
12884	28e7	00000000		nop	; Automatically Added by addNops.pl
12885				; Automatically 8 NOPs removed by reduceNOPs.sh
12886	28e8	00000000		nop
12887	28e9	00000000		nop
12888	28ea	03e00008		jr	%GPR31	
12889	28eb	00000000		nop	; Automatically Added by addNops.pl
12890	28ec	00000000		nop	; Automatically Added by addNops.pl
12891	28ed	00000000		nop	; Automatically Added by addNops.pl
12892				.section	.data
12893				.section	.text
12894				.addressing	Word
12895				;.addressing	Word
12896	28ee	00000000		nop	; Automatically Added by addNops.pl
12897	28ef	00000000		nop	; Automatically Added by addNops.pl
12898	28f0	00000000		nop	; Automatically Added by addNops.pl
12899			loadByteUnsigned:
12900			L_loadStoreByte_1:
12901	28f1	00000000		nop	; Automatically Added by addNops.pl
12902	28f2	00000000		nop	; Automatically Added by addNops.pl
12903	28f3	00000000		nop	; Automatically Added by addNops.pl
12904				; Automatically 16 NOPs removed by reduceNOPs.sh
12905	28f4	afbefffc		sw	-4(%GPR29),%GPR30	
12906	28f5	00000000		nop	; Automatically Added by addNops.pl
12907	28f6	00000000		nop	; Automatically Added by addNops.pl
12908	28f7	00000000		nop	; Automatically Added by addNops.pl
12909	28f8	00000000		nop	; Automatically added by fix-stall-insns.pl
12910	28f9	afbf0000		sw	0(%GPR29),%GPR31	
12911	28fa	00000000		nop	; Automatically Added by addNops.pl
12912	28fb	00000000		nop	; Automatically Added by addNops.pl
12913	28fc	00000000		nop	; Automatically Added by addNops.pl
12914	28fd	2fbe0004		subui	%GPR30,%GPR29,$4	
12915	28fe	00000000		nop	; Automatically Added by addNops.pl
12916	28ff	00000000		nop	; Automatically Added by addNops.pl
12917	2900	00000000		nop	; Automatically Added by addNops.pl
12918				; Automatically 4 NOPs removed by reduceNOPs.sh
12919	2901	2bbd0008		subi	%GPR29,%GPR29,$8	
12920	2902	00000000		nop	; Automatically Added by addNops.pl
12921	2903	00000000		nop	; Automatically Added by addNops.pl
12922	2904	00000000		nop	; Automatically Added by addNops.pl
12923				; Automatically 36 NOPs removed by reduceNOPs.sh
12924	2905	30220003		andi	%GPR2,%GPR1,$3	
12925	2906	00000000		nop	; Automatically Added by addNops.pl
12926	2907	00000000		nop	; Automatically Added by addNops.pl
12927	2908	00000000		nop	; Automatically Added by addNops.pl
12928	2909	3021fffc		andi	%GPR1,%GPR1,$-4	
12929	290a	00000000		nop	; Automatically Added by addNops.pl
12930	290b	00000000		nop	; Automatically Added by addNops.pl
12931	290c	00000000		nop	; Automatically Added by addNops.pl
12932				; Automatically 12 NOPs removed by reduceNOPs.sh
12933	290d	20420001		addi	%GPR2,%GPR2,$1	
12934	290e	00000000		nop	; Automatically Added by addNops.pl
12935	290f	00000000		nop	; Automatically Added by addNops.pl
12936	2910	00000000		nop	; Automatically Added by addNops.pl
12937				; Automatically 16 NOPs removed by reduceNOPs.sh
12938	2911	00021023		subu	%GPR2,%GPR0,%GPR2	
12939	2912	00000000		nop	; Automatically Added by addNops.pl
12940	2913	00000000		nop	; Automatically Added by addNops.pl
12941	2914	00000000		nop	; Automatically Added by addNops.pl
12942	2915	8c210000		lw	%GPR1,0(%GPR1)	
12943	2916	00000000		nop	; Automatically Added by addNops.pl
12944	2917	00000000		nop	; Automatically Added by addNops.pl
12945	2918	00000000		nop	; Automatically Added by addNops.pl
12946				; Automatically 12 NOPs removed by reduceNOPs.sh
12947	2919	40420003		slli	%GPR2,%GPR2,$3	
12948	291a	00000000		nop	; Automatically Added by addNops.pl
12949	291b	00000000		nop	; Automatically Added by addNops.pl
12950	291c	00000000		nop	; Automatically Added by addNops.pl
12951				; Automatically 16 NOPs removed by reduceNOPs.sh
12952	291d	00220803		sra	%GPR1,%GPR1,%GPR2	
12953	291e	00000000		nop	; Automatically Added by addNops.pl
12954	291f	00000000		nop	; Automatically Added by addNops.pl
12955	2920	00000000		nop	; Automatically Added by addNops.pl
12956				; Automatically 16 NOPs removed by reduceNOPs.sh
12957	2921	303c00ff		andi	%GPR28,%GPR1,$255	
12958	2922	00000000		nop	; Automatically Added by addNops.pl
12959	2923	00000000		nop	; Automatically Added by addNops.pl
12960	2924	00000000		nop	; Automatically Added by addNops.pl
12961				; Automatically 16 NOPs removed by reduceNOPs.sh
12962	2925	08000004		j	L_loadStoreByte_2	
12963	2926	00000000		nop	; Automatically Added by addNops.pl
12964	2927	00000000		nop	; Automatically Added by addNops.pl
12965	2928	00000000		nop	; Automatically Added by addNops.pl
12966				; Automatically 16 NOPs removed by reduceNOPs.sh
12967			L_loadStoreByte_2:
12968	2929	00000000		nop	; Automatically Added by addNops.pl
12969	292a	00000000		nop	; Automatically Added by addNops.pl
12970	292b	00000000		nop	; Automatically Added by addNops.pl
12971				; Automatically 16 NOPs removed by reduceNOPs.sh
12972	292c	8fdf0004		lw	%GPR31,4(%GPR30)	
12973	292d	00000000		nop	; Automatically Added by addNops.pl
12974	292e	00000000		nop	; Automatically Added by addNops.pl
12975	292f	00000000		nop	; Automatically Added by addNops.pl
12976	2930	27dd0004		addui	%GPR29,%GPR30,$4	
12977	2931	00000000		nop	; Automatically Added by addNops.pl
12978	2932	00000000		nop	; Automatically Added by addNops.pl
12979	2933	00000000		nop	; Automatically Added by addNops.pl
12980	2934	8fde0000		lw	%GPR30,0(%GPR30)	
12981	2935	00000000		nop	; Automatically Added by addNops.pl
12982	2936	00000000		nop	; Automatically Added by addNops.pl
12983	2937	00000000		nop	; Automatically Added by addNops.pl
12984				; Automatically 8 NOPs removed by reduceNOPs.sh
12985	2938	00000000		nop
12986	2939	00000000		nop
12987	293a	03e00008		jr	%GPR31	
12988	293b	00000000		nop	; Automatically Added by addNops.pl
12989	293c	00000000		nop	; Automatically Added by addNops.pl
12990	293d	00000000		nop	; Automatically Added by addNops.pl
12991				; Automatically 16 NOPs removed by reduceNOPs.sh
12992			loadByteSigned:
12993			L_loadStoreByte_3:
12994	293e	00000000		nop	; Automatically Added by addNops.pl
12995	293f	00000000		nop	; Automatically Added by addNops.pl
12996	2940	00000000		nop	; Automatically Added by addNops.pl
12997				; Automatically 16 NOPs removed by reduceNOPs.sh
12998	2941	afbefffc		sw	-4(%GPR29),%GPR30	
12999	2942	00000000		nop	; Automatically Added by addNops.pl
13000	2943	00000000		nop	; Automatically Added by addNops.pl
13001	2944	00000000		nop	; Automatically Added by addNops.pl
13002	2945	00000000		nop	; Automatically added by fix-stall-insns.pl
13003	2946	afbf0000		sw	0(%GPR29),%GPR31	
13004	2947	00000000		nop	; Automatically Added by addNops.pl
13005	2948	00000000		nop	; Automatically Added by addNops.pl
13006	2949	00000000		nop	; Automatically Added by addNops.pl
13007	294a	2fbe0004		subui	%GPR30,%GPR29,$4	
13008	294b	00000000		nop	; Automatically Added by addNops.pl
13009	294c	00000000		nop	; Automatically Added by addNops.pl
13010	294d	00000000		nop	; Automatically Added by addNops.pl
13011				; Automatically 4 NOPs removed by reduceNOPs.sh
13012	294e	2bbd0008		subi	%GPR29,%GPR29,$8	
13013	294f	00000000		nop	; Automatically Added by addNops.pl
13014	2950	00000000		nop	; Automatically Added by addNops.pl
13015	2951	00000000		nop	; Automatically Added by addNops.pl
13016				; Automatically 36 NOPs removed by reduceNOPs.sh
13017	2952	30220003		andi	%GPR2,%GPR1,$3	
13018	2953	00000000		nop	; Automatically Added by addNops.pl
13019	2954	00000000		nop	; Automatically Added by addNops.pl
13020	2955	00000000		nop	; Automatically Added by addNops.pl
13021	2956	3021fffc		andi	%GPR1,%GPR1,$-4	
13022	2957	00000000		nop	; Automatically Added by addNops.pl
13023	2958	00000000		nop	; Automatically Added by addNops.pl
13024	2959	00000000		nop	; Automatically Added by addNops.pl
13025				; Automatically 12 NOPs removed by reduceNOPs.sh
13026	295a	20420001		addi	%GPR2,%GPR2,$1	
13027	295b	00000000		nop	; Automatically Added by addNops.pl
13028	295c	00000000		nop	; Automatically Added by addNops.pl
13029	295d	00000000		nop	; Automatically Added by addNops.pl
13030				; Automatically 16 NOPs removed by reduceNOPs.sh
13031	295e	00021023		subu	%GPR2,%GPR0,%GPR2	
13032	295f	00000000		nop	; Automatically Added by addNops.pl
13033	2960	00000000		nop	; Automatically Added by addNops.pl
13034	2961	00000000		nop	; Automatically Added by addNops.pl
13035	2962	8c210000		lw	%GPR1,0(%GPR1)	
13036	2963	00000000		nop	; Automatically Added by addNops.pl
13037	2964	00000000		nop	; Automatically Added by addNops.pl
13038	2965	00000000		nop	; Automatically Added by addNops.pl
13039				; Automatically 12 NOPs removed by reduceNOPs.sh
13040	2966	40420003		slli	%GPR2,%GPR2,$3	
13041	2967	00000000		nop	; Automatically Added by addNops.pl
13042	2968	00000000		nop	; Automatically Added by addNops.pl
13043	2969	00000000		nop	; Automatically Added by addNops.pl
13044				; Automatically 16 NOPs removed by reduceNOPs.sh
13045	296a	00220803		sra	%GPR1,%GPR1,%GPR2	
13046	296b	00000000		nop	; Automatically Added by addNops.pl
13047	296c	00000000		nop	; Automatically Added by addNops.pl
13048	296d	00000000		nop	; Automatically Added by addNops.pl
13049				; Automatically 16 NOPs removed by reduceNOPs.sh
13050	296e	302100ff		andi	%GPR1,%GPR1,$255	
13051	296f	00000000		nop	; Automatically Added by addNops.pl
13052	2970	00000000		nop	; Automatically Added by addNops.pl
13053	2971	00000000		nop	; Automatically Added by addNops.pl
13054				; Automatically 16 NOPs removed by reduceNOPs.sh
13055	2972	40210018		slli	%GPR1,%GPR1,$24	
13056	2973	00000000		nop	; Automatically Added by addNops.pl
13057	2974	00000000		nop	; Automatically Added by addNops.pl
13058	2975	00000000		nop	; Automatically Added by addNops.pl
13059				; Automatically 16 NOPs removed by reduceNOPs.sh
13060	2976	483c0018		srai	%GPR28,%GPR1,$24	
13061	2977	00000000		nop	; Automatically Added by addNops.pl
13062	2978	00000000		nop	; Automatically Added by addNops.pl
13063	2979	00000000		nop	; Automatically Added by addNops.pl
13064				; Automatically 16 NOPs removed by reduceNOPs.sh
13065	297a	08000004		j	L_loadStoreByte_4	
13066	297b	00000000		nop	; Automatically Added by addNops.pl
13067	297c	00000000		nop	; Automatically Added by addNops.pl
13068	297d	00000000		nop	; Automatically Added by addNops.pl
13069				; Automatically 16 NOPs removed by reduceNOPs.sh
13070			L_loadStoreByte_4:
13071	297e	00000000		nop	; Automatically Added by addNops.pl
13072	297f	00000000		nop	; Automatically Added by addNops.pl
13073	2980	00000000		nop	; Automatically Added by addNops.pl
13074				; Automatically 16 NOPs removed by reduceNOPs.sh
13075	2981	8fdf0004		lw	%GPR31,4(%GPR30)	
13076	2982	00000000		nop	; Automatically Added by addNops.pl
13077	2983	00000000		nop	; Automatically Added by addNops.pl
13078	2984	00000000		nop	; Automatically Added by addNops.pl
13079	2985	27dd0004		addui	%GPR29,%GPR30,$4	
13080	2986	00000000		nop	; Automatically Added by addNops.pl
13081	2987	00000000		nop	; Automatically Added by addNops.pl
13082	2988	00000000		nop	; Automatically Added by addNops.pl
13083	2989	8fde0000		lw	%GPR30,0(%GPR30)	
13084	298a	00000000		nop	; Automatically Added by addNops.pl
13085	298b	00000000		nop	; Automatically Added by addNops.pl
13086	298c	00000000		nop	; Automatically Added by addNops.pl
13087				; Automatically 8 NOPs removed by reduceNOPs.sh
13088	298d	00000000		nop
13089	298e	00000000		nop
13090	298f	03e00008		jr	%GPR31	
13091	2990	00000000		nop	; Automatically Added by addNops.pl
13092	2991	00000000		nop	; Automatically Added by addNops.pl
13093	2992	00000000		nop	; Automatically Added by addNops.pl
13094				; Automatically 16 NOPs removed by reduceNOPs.sh
13095			storeByte:
13096			L_loadStoreByte_5:
13097	2993	00000000		nop	; Automatically Added by addNops.pl
13098	2994	00000000		nop	; Automatically Added by addNops.pl
13099	2995	00000000		nop	; Automatically Added by addNops.pl
13100				; Automatically 16 NOPs removed by reduceNOPs.sh
13101	2996	afbefffc		sw	-4(%GPR29),%GPR30	
13102	2997	00000000		nop	; Automatically Added by addNops.pl
13103	2998	00000000		nop	; Automatically Added by addNops.pl
13104	2999	00000000		nop	; Automatically Added by addNops.pl
13105	299a	00000000		nop	; Automatically added by fix-stall-insns.pl
13106	299b	afbf0000		sw	0(%GPR29),%GPR31	
13107	299c	00000000		nop	; Automatically Added by addNops.pl
13108	299d	00000000		nop	; Automatically Added by addNops.pl
13109	299e	00000000		nop	; Automatically Added by addNops.pl
13110	299f	2fbe0004		subui	%GPR30,%GPR29,$4	
13111	29a0	00000000		nop	; Automatically Added by addNops.pl
13112	29a1	00000000		nop	; Automatically Added by addNops.pl
13113	29a2	00000000		nop	; Automatically Added by addNops.pl
13114				; Automatically 4 NOPs removed by reduceNOPs.sh
13115	29a3	2bbd0008		subi	%GPR29,%GPR29,$8	
13116	29a4	00000000		nop	; Automatically Added by addNops.pl
13117	29a5	00000000		nop	; Automatically Added by addNops.pl
13118	29a6	00000000		nop	; Automatically Added by addNops.pl
13119				; Automatically 44 NOPs removed by reduceNOPs.sh
13120	29a7	30230003		andi	%GPR3,%GPR1,$3	
13121	29a8	00000000		nop	; Automatically Added by addNops.pl
13122	29a9	00000000		nop	; Automatically Added by addNops.pl
13123	29aa	00000000		nop	; Automatically Added by addNops.pl
13124				; Automatically 8 NOPs removed by reduceNOPs.sh
13125	29ab	30240003		andi	%GPR4,%GPR1,$3	
13126	29ac	00000000		nop	; Automatically Added by addNops.pl
13127	29ad	00000000		nop	; Automatically Added by addNops.pl
13128	29ae	00000000		nop	; Automatically Added by addNops.pl
13129	29af	3c050000		lhi	%GPR5,$0	
13130	29b0	00000000		nop	; Automatically Added by addNops.pl
13131	29b1	00000000		nop	; Automatically Added by addNops.pl
13132	29b2	00000000		nop	; Automatically Added by addNops.pl
13133				; Automatically 16 NOPs removed by reduceNOPs.sh
13134	29b3	34a50003		ori	%GPR5,%GPR5,$3	
13135	29b4	00000000		nop	; Automatically Added by addNops.pl
13136	29b5	00000000		nop	; Automatically Added by addNops.pl
13137	29b6	00000000		nop	; Automatically Added by addNops.pl
13138	29b7	3021fffc		andi	%GPR1,%GPR1,$-4	
13139	29b8	00000000		nop	; Automatically Added by addNops.pl
13140	29b9	00000000		nop	; Automatically Added by addNops.pl
13141	29ba	00000000		nop	; Automatically Added by addNops.pl
13142	29bb	3c060000		lhi	%GPR6,$0	
13143	29bc	00000000		nop	; Automatically Added by addNops.pl
13144	29bd	00000000		nop	; Automatically Added by addNops.pl
13145	29be	00000000		nop	; Automatically Added by addNops.pl
13146				; Automatically 16 NOPs removed by reduceNOPs.sh
13147	29bf	34c600ff		ori	%GPR6,%GPR6,$255	
13148	29c0	00000000		nop	; Automatically Added by addNops.pl
13149	29c1	00000000		nop	; Automatically Added by addNops.pl
13150	29c2	00000000		nop	; Automatically Added by addNops.pl
13151	29c3	20840001		addi	%GPR4,%GPR4,$1	
13152	29c4	00000000		nop	; Automatically Added by addNops.pl
13153	29c5	00000000		nop	; Automatically Added by addNops.pl
13154	29c6	00000000		nop	; Automatically Added by addNops.pl
13155				; Automatically 16 NOPs removed by reduceNOPs.sh
13156	29c7	00042023		subu	%GPR4,%GPR0,%GPR4	
13157	29c8	00000000		nop	; Automatically Added by addNops.pl
13158	29c9	00000000		nop	; Automatically Added by addNops.pl
13159	29ca	00000000		nop	; Automatically Added by addNops.pl
13160	29cb	00a31822		sub	%GPR3,%GPR5,%GPR3	
13161	29cc	00000000		nop	; Automatically Added by addNops.pl
13162	29cd	00000000		nop	; Automatically Added by addNops.pl
13163	29ce	00000000		nop	; Automatically Added by addNops.pl
13164	29cf	8c3c0000		lw	%GPR28,0(%GPR1)	
13165	29d0	00000000		nop	; Automatically Added by addNops.pl
13166	29d1	00000000		nop	; Automatically Added by addNops.pl
13167	29d2	00000000		nop	; Automatically Added by addNops.pl
13168				; Automatically 8 NOPs removed by reduceNOPs.sh
13169	29d3	40840003		slli	%GPR4,%GPR4,$3	
13170	29d4	00000000		nop	; Automatically Added by addNops.pl
13171	29d5	00000000		nop	; Automatically Added by addNops.pl
13172	29d6	00000000		nop	; Automatically Added by addNops.pl
13173	29d7	40630003		slli	%GPR3,%GPR3,$3	
13174	29d8	00000000		nop	; Automatically Added by addNops.pl
13175	29d9	00000000		nop	; Automatically Added by addNops.pl
13176	29da	00000000		nop	; Automatically Added by addNops.pl
13177				; Automatically 12 NOPs removed by reduceNOPs.sh
13178	29db	00441000		sll	%GPR2,%GPR2,%GPR4	
13179	29dc	00000000		nop	; Automatically Added by addNops.pl
13180	29dd	00000000		nop	; Automatically Added by addNops.pl
13181	29de	00000000		nop	; Automatically Added by addNops.pl
13182	29df	00c31800		sll	%GPR3,%GPR6,%GPR3	
13183	29e0	00000000		nop	; Automatically Added by addNops.pl
13184	29e1	00000000		nop	; Automatically Added by addNops.pl
13185	29e2	00000000		nop	; Automatically Added by addNops.pl
13186				; Automatically 16 NOPs removed by reduceNOPs.sh
13187	29e3	20630001		addi	%GPR3,%GPR3,$1	
13188	29e4	00000000		nop	; Automatically Added by addNops.pl
13189	29e5	00000000		nop	; Automatically Added by addNops.pl
13190	29e6	00000000		nop	; Automatically Added by addNops.pl
13191				; Automatically 16 NOPs removed by reduceNOPs.sh
13192	29e7	00031823		subu	%GPR3,%GPR0,%GPR3	
13193	29e8	00000000		nop	; Automatically Added by addNops.pl
13194	29e9	00000000		nop	; Automatically Added by addNops.pl
13195	29ea	00000000		nop	; Automatically Added by addNops.pl
13196				; Automatically 16 NOPs removed by reduceNOPs.sh
13197	29eb	0383e024		and	%GPR28,%GPR28,%GPR3	
13198	29ec	00000000		nop	; Automatically Added by addNops.pl
13199	29ed	00000000		nop	; Automatically Added by addNops.pl
13200	29ee	00000000		nop	; Automatically Added by addNops.pl
13201				; Automatically 16 NOPs removed by reduceNOPs.sh
13202	29ef	0382e025		or	%GPR28,%GPR28,%GPR2	
13203	29f0	00000000		nop	; Automatically Added by addNops.pl
13204	29f1	00000000		nop	; Automatically Added by addNops.pl
13205	29f2	00000000		nop	; Automatically Added by addNops.pl
13206				; Automatically 16 NOPs removed by reduceNOPs.sh
13207	29f3	ac3c0000		sw	0(%GPR1),%GPR28	
13208	29f4	00000000		nop	; Automatically Added by addNops.pl
13209	29f5	00000000		nop	; Automatically Added by addNops.pl
13210	29f6	00000000		nop	; Automatically Added by addNops.pl
13211	29f7	08000004		j	L_loadStoreByte_6	
13212	29f8	00000000		nop	; Automatically Added by addNops.pl
13213	29f9	00000000		nop	; Automatically Added by addNops.pl
13214	29fa	00000000		nop	; Automatically Added by addNops.pl
13215				; Automatically 16 NOPs removed by reduceNOPs.sh
13216			L_loadStoreByte_6:
13217	29fb	00000000		nop	; Automatically Added by addNops.pl
13218	29fc	00000000		nop	; Automatically Added by addNops.pl
13219	29fd	00000000		nop	; Automatically Added by addNops.pl
13220				; Automatically 16 NOPs removed by reduceNOPs.sh
13221	29fe	8fdf0004		lw	%GPR31,4(%GPR30)	
13222	29ff	00000000		nop	; Automatically Added by addNops.pl
13223	2a00	00000000		nop	; Automatically Added by addNops.pl
13224	2a01	00000000		nop	; Automatically Added by addNops.pl
13225	2a02	27dd0004		addui	%GPR29,%GPR30,$4	
13226	2a03	00000000		nop	; Automatically Added by addNops.pl
13227	2a04	00000000		nop	; Automatically Added by addNops.pl
13228	2a05	00000000		nop	; Automatically Added by addNops.pl
13229	2a06	8fde0000		lw	%GPR30,0(%GPR30)	
13230	2a07	00000000		nop	; Automatically Added by addNops.pl
13231	2a08	00000000		nop	; Automatically Added by addNops.pl
13232	2a09	00000000		nop	; Automatically Added by addNops.pl
13233				; Automatically 8 NOPs removed by reduceNOPs.sh
13234	2a0a	00000000		nop
13235	2a0b	00000000		nop
13236	2a0c	03e00008		jr	%GPR31	
13237	2a0d	00000000		nop	; Automatically Added by addNops.pl
13238	2a0e	00000000		nop	; Automatically Added by addNops.pl
13239	2a0f	00000000		nop	; Automatically Added by addNops.pl
13240				.section	.data
13241			L_soundtest_1:
13242	07a4	43		.data.8	67
13243	07a5	53		.data.8	83
13244	07a6	6f		.data.8	111
13245	07a7	75		.data.8	117
13246	07a8	6e		.data.8	110
13247	07a9	64		.data.8	100
13248	07aa	00		.space	1
13249	07ab	00		.space	1
13250			L_soundtest_2:
13251	07ac	3a		.data.8	58
13252	07ad	00		.space	1
13253				.section	.text
13254				.addressing	Word
13255				;.addressing	Word
13256			soundtest:
13257			L_soundtest_3:
13258	2a10	00000000		nop	; Automatically Added by addNops.pl
13259	2a11	00000000		nop	; Automatically Added by addNops.pl
13260	2a12	00000000		nop	; Automatically Added by addNops.pl
13261				; Automatically 16 NOPs removed by reduceNOPs.sh
13262	2a13	afbefffc		sw	-4(%GPR29),%GPR30	
13263	2a14	00000000		nop	; Automatically Added by addNops.pl
13264	2a15	00000000		nop	; Automatically Added by addNops.pl
13265	2a16	00000000		nop	; Automatically Added by addNops.pl
13266	2a17	00000000		nop	; Automatically added by fix-stall-insns.pl
13267	2a18	afbf0000		sw	0(%GPR29),%GPR31	
13268	2a19	00000000		nop	; Automatically Added by addNops.pl
13269	2a1a	00000000		nop	; Automatically Added by addNops.pl
13270	2a1b	00000000		nop	; Automatically Added by addNops.pl
13271	2a1c	2fbe0004		subui	%GPR30,%GPR29,$4	
13272	2a1d	00000000		nop	; Automatically Added by addNops.pl
13273	2a1e	00000000		nop	; Automatically Added by addNops.pl
13274	2a1f	00000000		nop	; Automatically Added by addNops.pl
13275				; Automatically 4 NOPs removed by reduceNOPs.sh
13276	2a20	2bbd0028		subi	%GPR29,%GPR29,$40	
13277	2a21	00000000		nop	; Automatically Added by addNops.pl
13278	2a22	00000000		nop	; Automatically Added by addNops.pl
13279	2a23	00000000		nop	; Automatically Added by addNops.pl
13280				; Automatically 72 NOPs removed by reduceNOPs.sh
13281	2a24	3c0a0000		lhi	%GPR10,$0	
13282	2a25	00000000		nop	; Automatically Added by addNops.pl
13283	2a26	00000000		nop	; Automatically Added by addNops.pl
13284	2a27	00000000		nop	; Automatically Added by addNops.pl
13285				; Automatically 16 NOPs removed by reduceNOPs.sh
13286	2a28	354a0001		ori	%GPR10,%GPR10,$1	
13287	2a29	00000000		nop	; Automatically Added by addNops.pl
13288	2a2a	00000000		nop	; Automatically Added by addNops.pl
13289	2a2b	00000000		nop	; Automatically Added by addNops.pl
13290	2a2c	3c090000		lhi	%GPR9,$0	
13291	2a2d	00000000		nop	; Automatically Added by addNops.pl
13292	2a2e	00000000		nop	; Automatically Added by addNops.pl
13293	2a2f	00000000		nop	; Automatically Added by addNops.pl
13294				; Automatically 16 NOPs removed by reduceNOPs.sh
13295	2a30	35290001		ori	%GPR9,%GPR9,$1	
13296	2a31	00000000		nop	; Automatically Added by addNops.pl
13297	2a32	00000000		nop	; Automatically Added by addNops.pl
13298	2a33	00000000		nop	; Automatically Added by addNops.pl
13299	2a34	3c080000		lhi	%GPR8,$0	
13300	2a35	00000000		nop	; Automatically Added by addNops.pl
13301	2a36	00000000		nop	; Automatically Added by addNops.pl
13302	2a37	00000000		nop	; Automatically Added by addNops.pl
13303				; Automatically 16 NOPs removed by reduceNOPs.sh
13304	2a38	35080001		ori	%GPR8,%GPR8,$1	
13305	2a39	00000000		nop	; Automatically Added by addNops.pl
13306	2a3a	00000000		nop	; Automatically Added by addNops.pl
13307	2a3b	00000000		nop	; Automatically Added by addNops.pl
13308	2a3c	3c070000		lhi	%GPR7,$0	
13309	2a3d	00000000		nop	; Automatically Added by addNops.pl
13310	2a3e	00000000		nop	; Automatically Added by addNops.pl
13311	2a3f	00000000		nop	; Automatically Added by addNops.pl
13312				; Automatically 16 NOPs removed by reduceNOPs.sh
13313	2a40	34e70014		ori	%GPR7,%GPR7,$20	
13314	2a41	00000000		nop	; Automatically Added by addNops.pl
13315	2a42	00000000		nop	; Automatically Added by addNops.pl
13316	2a43	00000000		nop	; Automatically Added by addNops.pl
13317	2a44	3c060000		lhi	%GPR6,$0	
13318	2a45	00000000		nop	; Automatically Added by addNops.pl
13319	2a46	00000000		nop	; Automatically Added by addNops.pl
13320	2a47	00000000		nop	; Automatically Added by addNops.pl
13321				; Automatically 16 NOPs removed by reduceNOPs.sh
13322	2a48	34c6002a		ori	%GPR6,%GPR6,$42	
13323	2a49	00000000		nop	; Automatically Added by addNops.pl
13324	2a4a	00000000		nop	; Automatically Added by addNops.pl
13325	2a4b	00000000		nop	; Automatically Added by addNops.pl
13326	2a4c	3c050000		lhi	%GPR5,$0	
13327	2a4d	00000000		nop	; Automatically Added by addNops.pl
13328	2a4e	00000000		nop	; Automatically Added by addNops.pl
13329	2a4f	00000000		nop	; Automatically Added by addNops.pl
13330				; Automatically 16 NOPs removed by reduceNOPs.sh
13331	2a50	34a50008		ori	%GPR5,%GPR5,$8	
13332	2a51	00000000		nop	; Automatically Added by addNops.pl
13333	2a52	00000000		nop	; Automatically Added by addNops.pl
13334	2a53	00000000		nop	; Automatically Added by addNops.pl
13335	2a54	3c040000		lhi	%GPR4,$0	
13336	2a55	00000000		nop	; Automatically Added by addNops.pl
13337	2a56	00000000		nop	; Automatically Added by addNops.pl
13338	2a57	00000000		nop	; Automatically Added by addNops.pl
13339				; Automatically 16 NOPs removed by reduceNOPs.sh
13340	2a58	3484005a		ori	%GPR4,%GPR4,$90	
13341	2a59	00000000		nop	; Automatically Added by addNops.pl
13342	2a5a	00000000		nop	; Automatically Added by addNops.pl
13343	2a5b	00000000		nop	; Automatically Added by addNops.pl
13344	2a5c	3c030000		lhi	%GPR3,$0	
13345	2a5d	00000000		nop	; Automatically Added by addNops.pl
13346	2a5e	00000000		nop	; Automatically Added by addNops.pl
13347	2a5f	00000000		nop	; Automatically Added by addNops.pl
13348				; Automatically 16 NOPs removed by reduceNOPs.sh
13349	2a60	34630064		ori	%GPR3,%GPR3,$100	
13350	2a61	00000000		nop	; Automatically Added by addNops.pl
13351	2a62	00000000		nop	; Automatically Added by addNops.pl
13352	2a63	00000000		nop	; Automatically Added by addNops.pl
13353	2a64	3c020000		lhi	%GPR2,$0	
13354	2a65	00000000		nop	; Automatically Added by addNops.pl
13355	2a66	00000000		nop	; Automatically Added by addNops.pl
13356	2a67	00000000		nop	; Automatically Added by addNops.pl
13357				; Automatically 16 NOPs removed by reduceNOPs.sh
13358	2a68	34420050		ori	%GPR2,%GPR2,$80	
13359	2a69	00000000		nop	; Automatically Added by addNops.pl
13360	2a6a	00000000		nop	; Automatically Added by addNops.pl
13361	2a6b	00000000		nop	; Automatically Added by addNops.pl
13362	2a6c	3c010000		lhi	%GPR1,$0	
13363	2a6d	00000000		nop	; Automatically Added by addNops.pl
13364	2a6e	00000000		nop	; Automatically Added by addNops.pl
13365	2a6f	00000000		nop	; Automatically Added by addNops.pl
13366				; Automatically 16 NOPs removed by reduceNOPs.sh
13367	2a70	3421000a		ori	%GPR1,%GPR1,$10	
13368	2a71	00000000		nop	; Automatically Added by addNops.pl
13369	2a72	00000000		nop	; Automatically Added by addNops.pl
13370	2a73	00000000		nop	; Automatically Added by addNops.pl
13371				; Automatically 16 NOPs removed by reduceNOPs.sh
13372	2a74	2bbd0008		subi	%GPR29,%GPR29,$8	
13373	2a75	00000000		nop	; Automatically Added by addNops.pl
13374	2a76	00000000		nop	; Automatically Added by addNops.pl
13375	2a77	00000000		nop	; Automatically Added by addNops.pl
13376				; Automatically 16 NOPs removed by reduceNOPs.sh
13377	2a78	0fffee2e		jal	create_bar	
13378	2a79	00000000		nop	; Automatically Added by addNops.pl
13379	2a7a	00000000		nop	; Automatically Added by addNops.pl
13380	2a7b	00000000		nop	; Automatically Added by addNops.pl
13381				; Automatically 16 NOPs removed by reduceNOPs.sh
13382	2a7c	23bd0008		addi	%GPR29,%GPR29,$8	
13383	2a7d	00000000		nop	; Automatically Added by addNops.pl
13384	2a7e	00000000		nop	; Automatically Added by addNops.pl
13385	2a7f	00000000		nop	; Automatically Added by addNops.pl
13386				; Automatically 60 NOPs removed by reduceNOPs.sh
13387	2a80	afdcfff0		sw	-16(%GPR30),%GPR28	
13388	2a81	00000000		nop	; Automatically Added by addNops.pl
13389	2a82	00000000		nop	; Automatically Added by addNops.pl
13390	2a83	00000000		nop	; Automatically Added by addNops.pl
13391	2a84	3c0a0000		lhi	%GPR10,$0	
13392	2a85	00000000		nop	; Automatically Added by addNops.pl
13393	2a86	00000000		nop	; Automatically Added by addNops.pl
13394	2a87	00000000		nop	; Automatically Added by addNops.pl
13395				; Automatically 16 NOPs removed by reduceNOPs.sh
13396	2a88	354a0001		ori	%GPR10,%GPR10,$1	
13397	2a89	00000000		nop	; Automatically Added by addNops.pl
13398	2a8a	00000000		nop	; Automatically Added by addNops.pl
13399	2a8b	00000000		nop	; Automatically Added by addNops.pl
13400	2a8c	3c090000		lhi	%GPR9,$0	
13401	2a8d	00000000		nop	; Automatically Added by addNops.pl
13402	2a8e	00000000		nop	; Automatically Added by addNops.pl
13403	2a8f	00000000		nop	; Automatically Added by addNops.pl
13404				; Automatically 16 NOPs removed by reduceNOPs.sh
13405	2a90	35290001		ori	%GPR9,%GPR9,$1	
13406	2a91	00000000		nop	; Automatically Added by addNops.pl
13407	2a92	00000000		nop	; Automatically Added by addNops.pl
13408	2a93	00000000		nop	; Automatically Added by addNops.pl
13409	2a94	3c080000		lhi	%GPR8,$0	
13410	2a95	00000000		nop	; Automatically Added by addNops.pl
13411	2a96	00000000		nop	; Automatically Added by addNops.pl
13412	2a97	00000000		nop	; Automatically Added by addNops.pl
13413				; Automatically 16 NOPs removed by reduceNOPs.sh
13414	2a98	35080001		ori	%GPR8,%GPR8,$1	
13415	2a99	00000000		nop	; Automatically Added by addNops.pl
13416	2a9a	00000000		nop	; Automatically Added by addNops.pl
13417	2a9b	00000000		nop	; Automatically Added by addNops.pl
13418	2a9c	3c070000		lhi	%GPR7,$0	
13419	2a9d	00000000		nop	; Automatically Added by addNops.pl
13420	2a9e	00000000		nop	; Automatically Added by addNops.pl
13421	2a9f	00000000		nop	; Automatically Added by addNops.pl
13422				; Automatically 16 NOPs removed by reduceNOPs.sh
13423	2aa0	34e70014		ori	%GPR7,%GPR7,$20	
13424	2aa1	00000000		nop	; Automatically Added by addNops.pl
13425	2aa2	00000000		nop	; Automatically Added by addNops.pl
13426	2aa3	00000000		nop	; Automatically Added by addNops.pl
13427	2aa4	3c060000		lhi	%GPR6,$0	
13428	2aa5	00000000		nop	; Automatically Added by addNops.pl
13429	2aa6	00000000		nop	; Automatically Added by addNops.pl
13430	2aa7	00000000		nop	; Automatically Added by addNops.pl
13431				; Automatically 16 NOPs removed by reduceNOPs.sh
13432	2aa8	34c6002a		ori	%GPR6,%GPR6,$42	
13433	2aa9	00000000		nop	; Automatically Added by addNops.pl
13434	2aaa	00000000		nop	; Automatically Added by addNops.pl
13435	2aab	00000000		nop	; Automatically Added by addNops.pl
13436	2aac	3c050000		lhi	%GPR5,$0	
13437	2aad	00000000		nop	; Automatically Added by addNops.pl
13438	2aae	00000000		nop	; Automatically Added by addNops.pl
13439	2aaf	00000000		nop	; Automatically Added by addNops.pl
13440				; Automatically 16 NOPs removed by reduceNOPs.sh
13441	2ab0	34a50008		ori	%GPR5,%GPR5,$8	
13442	2ab1	00000000		nop	; Automatically Added by addNops.pl
13443	2ab2	00000000		nop	; Automatically Added by addNops.pl
13444	2ab3	00000000		nop	; Automatically Added by addNops.pl
13445	2ab4	3c040000		lhi	%GPR4,$0	
13446	2ab5	00000000		nop	; Automatically Added by addNops.pl
13447	2ab6	00000000		nop	; Automatically Added by addNops.pl
13448	2ab7	00000000		nop	; Automatically Added by addNops.pl
13449				; Automatically 16 NOPs removed by reduceNOPs.sh
13450	2ab8	3484005a		ori	%GPR4,%GPR4,$90	
13451	2ab9	00000000		nop	; Automatically Added by addNops.pl
13452	2aba	00000000		nop	; Automatically Added by addNops.pl
13453	2abb	00000000		nop	; Automatically Added by addNops.pl
13454	2abc	3c030000		lhi	%GPR3,$0	
13455	2abd	00000000		nop	; Automatically Added by addNops.pl
13456	2abe	00000000		nop	; Automatically Added by addNops.pl
13457	2abf	00000000		nop	; Automatically Added by addNops.pl
13458				; Automatically 16 NOPs removed by reduceNOPs.sh
13459	2ac0	346300d2		ori	%GPR3,%GPR3,$210	
13460	2ac1	00000000		nop	; Automatically Added by addNops.pl
13461	2ac2	00000000		nop	; Automatically Added by addNops.pl
13462	2ac3	00000000		nop	; Automatically Added by addNops.pl
13463	2ac4	3c020000		lhi	%GPR2,$0	
13464	2ac5	00000000		nop	; Automatically Added by addNops.pl
13465	2ac6	00000000		nop	; Automatically Added by addNops.pl
13466	2ac7	00000000		nop	; Automatically Added by addNops.pl
13467				; Automatically 16 NOPs removed by reduceNOPs.sh
13468	2ac8	34420050		ori	%GPR2,%GPR2,$80	
13469	2ac9	00000000		nop	; Automatically Added by addNops.pl
13470	2aca	00000000		nop	; Automatically Added by addNops.pl
13471	2acb	00000000		nop	; Automatically Added by addNops.pl
13472	2acc	3c010000		lhi	%GPR1,$0	
13473	2acd	00000000		nop	; Automatically Added by addNops.pl
13474	2ace	00000000		nop	; Automatically Added by addNops.pl
13475	2acf	00000000		nop	; Automatically Added by addNops.pl
13476				; Automatically 16 NOPs removed by reduceNOPs.sh
13477	2ad0	34210078		ori	%GPR1,%GPR1,$120	
13478	2ad1	00000000		nop	; Automatically Added by addNops.pl
13479	2ad2	00000000		nop	; Automatically Added by addNops.pl
13480	2ad3	00000000		nop	; Automatically Added by addNops.pl
13481				; Automatically 16 NOPs removed by reduceNOPs.sh
13482	2ad4	2bbd0008		subi	%GPR29,%GPR29,$8	
13483	2ad5	00000000		nop	; Automatically Added by addNops.pl
13484	2ad6	00000000		nop	; Automatically Added by addNops.pl
13485	2ad7	00000000		nop	; Automatically Added by addNops.pl
13486				; Automatically 16 NOPs removed by reduceNOPs.sh
13487	2ad8	0fffedce		jal	create_bar	
13488	2ad9	00000000		nop	; Automatically Added by addNops.pl
13489	2ada	00000000		nop	; Automatically Added by addNops.pl
13490	2adb	00000000		nop	; Automatically Added by addNops.pl
13491				; Automatically 16 NOPs removed by reduceNOPs.sh
13492	2adc	23bd0008		addi	%GPR29,%GPR29,$8	
13493	2add	00000000		nop	; Automatically Added by addNops.pl
13494	2ade	00000000		nop	; Automatically Added by addNops.pl
13495	2adf	00000000		nop	; Automatically Added by addNops.pl
13496				; Automatically 16 NOPs removed by reduceNOPs.sh
13497	2ae0	3c010000		lhi	%GPR1,$( L_soundtest_1	/0x10000)
13498	2ae1	00000000		nop
13499	2ae2	00000000		nop
13500	2ae3	00000000		nop
13501	2ae4	342107a4		ori	%GPR1,%GPR1,$( L_soundtest_1	%0x10000)
13502	2ae5	00000000		nop	; Automatically Added by addNops.pl
13503	2ae6	00000000		nop	; Automatically Added by addNops.pl
13504	2ae7	00000000		nop	; Automatically Added by addNops.pl
13505				; Automatically 24 NOPs removed by reduceNOPs.sh
13506	2ae8	afdcffec		sw	-20(%GPR30),%GPR28	
13507	2ae9	00000000		nop	; Automatically Added by addNops.pl
13508	2aea	00000000		nop	; Automatically Added by addNops.pl
13509	2aeb	00000000		nop	; Automatically Added by addNops.pl
13510				; Automatically 8 NOPs removed by reduceNOPs.sh
13511	2aec	3c060000		lhi	%GPR6,$0	
13512	2aed	00000000		nop	; Automatically Added by addNops.pl
13513	2aee	00000000		nop	; Automatically Added by addNops.pl
13514	2aef	00000000		nop	; Automatically Added by addNops.pl
13515				; Automatically 16 NOPs removed by reduceNOPs.sh
13516	2af0	34c60000		ori	%GPR6,%GPR6,$0	
13517	2af1	00000000		nop	; Automatically Added by addNops.pl
13518	2af2	00000000		nop	; Automatically Added by addNops.pl
13519	2af3	00000000		nop	; Automatically Added by addNops.pl
13520	2af4	3c050000		lhi	%GPR5,$0	
13521	2af5	00000000		nop	; Automatically Added by addNops.pl
13522	2af6	00000000		nop	; Automatically Added by addNops.pl
13523	2af7	00000000		nop	; Automatically Added by addNops.pl
13524				; Automatically 16 NOPs removed by reduceNOPs.sh
13525	2af8	34a50028		ori	%GPR5,%GPR5,$40	
13526	2af9	00000000		nop	; Automatically Added by addNops.pl
13527	2afa	00000000		nop	; Automatically Added by addNops.pl
13528	2afb	00000000		nop	; Automatically Added by addNops.pl
13529	2afc	3c040000		lhi	%GPR4,$0	
13530	2afd	00000000		nop	; Automatically Added by addNops.pl
13531	2afe	00000000		nop	; Automatically Added by addNops.pl
13532	2aff	00000000		nop	; Automatically Added by addNops.pl
13533				; Automatically 16 NOPs removed by reduceNOPs.sh
13534	2b00	34840046		ori	%GPR4,%GPR4,$70	
13535	2b01	00000000		nop	; Automatically Added by addNops.pl
13536	2b02	00000000		nop	; Automatically Added by addNops.pl
13537	2b03	00000000		nop	; Automatically Added by addNops.pl
13538	2b04	3c030000		lhi	%GPR3,$0	
13539	2b05	00000000		nop	; Automatically Added by addNops.pl
13540	2b06	00000000		nop	; Automatically Added by addNops.pl
13541	2b07	00000000		nop	; Automatically Added by addNops.pl
13542				; Automatically 16 NOPs removed by reduceNOPs.sh
13543	2b08	34630014		ori	%GPR3,%GPR3,$20	
13544	2b09	00000000		nop	; Automatically Added by addNops.pl
13545	2b0a	00000000		nop	; Automatically Added by addNops.pl
13546	2b0b	00000000		nop	; Automatically Added by addNops.pl
13547	2b0c	3c020000		lhi	%GPR2,$0	
13548	2b0d	00000000		nop	; Automatically Added by addNops.pl
13549	2b0e	00000000		nop	; Automatically Added by addNops.pl
13550	2b0f	00000000		nop	; Automatically Added by addNops.pl
13551				; Automatically 16 NOPs removed by reduceNOPs.sh
13552	2b10	34420014		ori	%GPR2,%GPR2,$20	
13553	2b11	00000000		nop	; Automatically Added by addNops.pl
13554	2b12	00000000		nop	; Automatically Added by addNops.pl
13555	2b13	00000000		nop	; Automatically Added by addNops.pl
13556				; Automatically 16 NOPs removed by reduceNOPs.sh
13557	2b14	2bbd0008		subi	%GPR29,%GPR29,$8	
13558	2b15	00000000		nop	; Automatically Added by addNops.pl
13559	2b16	00000000		nop	; Automatically Added by addNops.pl
13560	2b17	00000000		nop	; Automatically Added by addNops.pl
13561				; Automatically 16 NOPs removed by reduceNOPs.sh
13562	2b18	0fffe90d		jal	create_switch	
13563	2b19	00000000		nop	; Automatically Added by addNops.pl
13564	2b1a	00000000		nop	; Automatically Added by addNops.pl
13565	2b1b	00000000		nop	; Automatically Added by addNops.pl
13566				; Automatically 16 NOPs removed by reduceNOPs.sh
13567	2b1c	23bd0008		addi	%GPR29,%GPR29,$8	
13568	2b1d	00000000		nop	; Automatically Added by addNops.pl
13569	2b1e	00000000		nop	; Automatically Added by addNops.pl
13570	2b1f	00000000		nop	; Automatically Added by addNops.pl
13571				; Automatically 60 NOPs removed by reduceNOPs.sh
13572	2b20	afdcffe8		sw	-24(%GPR30),%GPR28	
13573	2b21	00000000		nop	; Automatically Added by addNops.pl
13574	2b22	00000000		nop	; Automatically Added by addNops.pl
13575	2b23	00000000		nop	; Automatically Added by addNops.pl
13576	2b24	3c0a0000		lhi	%GPR10,$0	
13577	2b25	00000000		nop	; Automatically Added by addNops.pl
13578	2b26	00000000		nop	; Automatically Added by addNops.pl
13579	2b27	00000000		nop	; Automatically Added by addNops.pl
13580				; Automatically 16 NOPs removed by reduceNOPs.sh
13581	2b28	354a0000		ori	%GPR10,%GPR10,$0	
13582	2b29	00000000		nop	; Automatically Added by addNops.pl
13583	2b2a	00000000		nop	; Automatically Added by addNops.pl
13584	2b2b	00000000		nop	; Automatically Added by addNops.pl
13585	2b2c	3c090000		lhi	%GPR9,$0	
13586	2b2d	00000000		nop	; Automatically Added by addNops.pl
13587	2b2e	00000000		nop	; Automatically Added by addNops.pl
13588	2b2f	00000000		nop	; Automatically Added by addNops.pl
13589				; Automatically 16 NOPs removed by reduceNOPs.sh
13590	2b30	35290001		ori	%GPR9,%GPR9,$1	
13591	2b31	00000000		nop	; Automatically Added by addNops.pl
13592	2b32	00000000		nop	; Automatically Added by addNops.pl
13593	2b33	00000000		nop	; Automatically Added by addNops.pl
13594	2b34	3c080000		lhi	%GPR8,$0	
13595	2b35	00000000		nop	; Automatically Added by addNops.pl
13596	2b36	00000000		nop	; Automatically Added by addNops.pl
13597	2b37	00000000		nop	; Automatically Added by addNops.pl
13598				; Automatically 16 NOPs removed by reduceNOPs.sh
13599	2b38	35080001		ori	%GPR8,%GPR8,$1	
13600	2b39	00000000		nop	; Automatically Added by addNops.pl
13601	2b3a	00000000		nop	; Automatically Added by addNops.pl
13602	2b3b	00000000		nop	; Automatically Added by addNops.pl
13603	2b3c	3c070000		lhi	%GPR7,$0	
13604	2b3d	00000000		nop	; Automatically Added by addNops.pl
13605	2b3e	00000000		nop	; Automatically Added by addNops.pl
13606	2b3f	00000000		nop	; Automatically Added by addNops.pl
13607				; Automatically 16 NOPs removed by reduceNOPs.sh
13608	2b40	34e70000		ori	%GPR7,%GPR7,$0	
13609	2b41	00000000		nop	; Automatically Added by addNops.pl
13610	2b42	00000000		nop	; Automatically Added by addNops.pl
13611	2b43	00000000		nop	; Automatically Added by addNops.pl
13612	2b44	3c060000		lhi	%GPR6,$0	
13613	2b45	00000000		nop	; Automatically Added by addNops.pl
13614	2b46	00000000		nop	; Automatically Added by addNops.pl
13615	2b47	00000000		nop	; Automatically Added by addNops.pl
13616				; Automatically 16 NOPs removed by reduceNOPs.sh
13617	2b48	34c60064		ori	%GPR6,%GPR6,$100	
13618	2b49	00000000		nop	; Automatically Added by addNops.pl
13619	2b4a	00000000		nop	; Automatically Added by addNops.pl
13620	2b4b	00000000		nop	; Automatically Added by addNops.pl
13621	2b4c	3c050000		lhi	%GPR5,$0	
13622	2b4d	00000000		nop	; Automatically Added by addNops.pl
13623	2b4e	00000000		nop	; Automatically Added by addNops.pl
13624	2b4f	00000000		nop	; Automatically Added by addNops.pl
13625				; Automatically 16 NOPs removed by reduceNOPs.sh
13626	2b50	34a50000		ori	%GPR5,%GPR5,$0	
13627	2b51	00000000		nop	; Automatically Added by addNops.pl
13628	2b52	00000000		nop	; Automatically Added by addNops.pl
13629	2b53	00000000		nop	; Automatically Added by addNops.pl
13630	2b54	3c040000		lhi	%GPR4,$0	
13631	2b55	00000000		nop	; Automatically Added by addNops.pl
13632	2b56	00000000		nop	; Automatically Added by addNops.pl
13633	2b57	00000000		nop	; Automatically Added by addNops.pl
13634				; Automatically 16 NOPs removed by reduceNOPs.sh
13635	2b58	3484006e		ori	%GPR4,%GPR4,$110	
13636	2b59	00000000		nop	; Automatically Added by addNops.pl
13637	2b5a	00000000		nop	; Automatically Added by addNops.pl
13638	2b5b	00000000		nop	; Automatically Added by addNops.pl
13639	2b5c	3c030000		lhi	%GPR3,$0	
13640	2b5d	00000000		nop	; Automatically Added by addNops.pl
13641	2b5e	00000000		nop	; Automatically Added by addNops.pl
13642	2b5f	00000000		nop	; Automatically Added by addNops.pl
13643				; Automatically 16 NOPs removed by reduceNOPs.sh
13644	2b60	3463006f		ori	%GPR3,%GPR3,$111	
13645	2b61	00000000		nop	; Automatically Added by addNops.pl
13646	2b62	00000000		nop	; Automatically Added by addNops.pl
13647	2b63	00000000		nop	; Automatically Added by addNops.pl
13648	2b64	3c020000		lhi	%GPR2,$0	
13649	2b65	00000000		nop	; Automatically Added by addNops.pl
13650	2b66	00000000		nop	; Automatically Added by addNops.pl
13651	2b67	00000000		nop	; Automatically Added by addNops.pl
13652				; Automatically 16 NOPs removed by reduceNOPs.sh
13653	2b68	34420064		ori	%GPR2,%GPR2,$100	
13654	2b69	00000000		nop	; Automatically Added by addNops.pl
13655	2b6a	00000000		nop	; Automatically Added by addNops.pl
13656	2b6b	00000000		nop	; Automatically Added by addNops.pl
13657	2b6c	3c010000		lhi	%GPR1,$0	
13658	2b6d	00000000		nop	; Automatically Added by addNops.pl
13659	2b6e	00000000		nop	; Automatically Added by addNops.pl
13660	2b6f	00000000		nop	; Automatically Added by addNops.pl
13661				; Automatically 16 NOPs removed by reduceNOPs.sh
13662	2b70	3421000a		ori	%GPR1,%GPR1,$10	
13663	2b71	00000000		nop	; Automatically Added by addNops.pl
13664	2b72	00000000		nop	; Automatically Added by addNops.pl
13665	2b73	00000000		nop	; Automatically Added by addNops.pl
13666				; Automatically 16 NOPs removed by reduceNOPs.sh
13667	2b74	2bbd0008		subi	%GPR29,%GPR29,$8	
13668	2b75	00000000		nop	; Automatically Added by addNops.pl
13669	2b76	00000000		nop	; Automatically Added by addNops.pl
13670	2b77	00000000		nop	; Automatically Added by addNops.pl
13671				; Automatically 16 NOPs removed by reduceNOPs.sh
13672	2b78	0fffed2e		jal	create_bar	
13673	2b79	00000000		nop	; Automatically Added by addNops.pl
13674	2b7a	00000000		nop	; Automatically Added by addNops.pl
13675	2b7b	00000000		nop	; Automatically Added by addNops.pl
13676				; Automatically 16 NOPs removed by reduceNOPs.sh
13677	2b7c	23bd0008		addi	%GPR29,%GPR29,$8	
13678	2b7d	00000000		nop	; Automatically Added by addNops.pl
13679	2b7e	00000000		nop	; Automatically Added by addNops.pl
13680	2b7f	00000000		nop	; Automatically Added by addNops.pl
13681				; Automatically 16 NOPs removed by reduceNOPs.sh
13682	2b80	afdcffe4		sw	-28(%GPR30),%GPR28	
13683	2b81	00000000		nop	; Automatically Added by addNops.pl
13684	2b82	00000000		nop	; Automatically Added by addNops.pl
13685	2b83	00000000		nop	; Automatically Added by addNops.pl
13686				; Automatically 12 NOPs removed by reduceNOPs.sh
13687			L_soundtest_4:
13688			
13689			
13690				; GET_COUNTER()
13691	2b84	00000000		nop	; Automatically Added by addNops.pl
13692	2b85	00000000		nop	; Automatically Added by addNops.pl
13693	2b86	00000000		nop	; Automatically Added by addNops.pl
13694	2b87	3c010280		lhi	%GPR1, $(0x280DE80/0x10000)
13695	2b88	00000000		nop	; Automatically Added by addNops.pl
13696	2b89	00000000		nop	; Automatically Added by addNops.pl
13697	2b8a	00000000		nop	; Automatically Added by addNops.pl
13698				; Automatically 16 NOPs removed by reduceNOPs.sh
13699	2b8b	3421de80		ori	%GPR1, %GPR1, $(0x280DE80%0x10000)
13700	2b8c	00000000		nop	; Automatically Added by addNops.pl
13701	2b8d	00000000		nop	; Automatically Added by addNops.pl
13702	2b8e	00000000		nop	; Automatically Added by addNops.pl
13703				; Automatically 16 NOPs removed by reduceNOPs.sh
13704	2b8f	8c220000		lw	%GPR2, 0(%GPR1)
13705	2b90	00000000		nop	; Automatically Added by addNops.pl
13706	2b91	00000000		nop	; Automatically Added by addNops.pl
13707	2b92	00000000		nop	; Automatically Added by addNops.pl
13708				; Automatically 13 NOPs removed by reduceNOPs.sh
13709			
13710	2b93	00000000		nop	; Automatically Added by addNops.pl
13711	2b94	00000000		nop	; Automatically Added by addNops.pl
13712	2b95	00000000		nop	; Automatically Added by addNops.pl
13713				; Automatically 8 NOPs removed by reduceNOPs.sh
13714	2b96	8fc5ffe8		lw	%GPR5,-24(%GPR30)	
13715	2b97	00000000		nop	; Automatically Added by addNops.pl
13716	2b98	00000000		nop	; Automatically Added by addNops.pl
13717	2b99	00000000		nop	; Automatically Added by addNops.pl
13718	2b9a	00000000		nop	; Automatically added by fix-stall-insns.pl
13719	2b9b	3c010000		lhi	%GPR1,$( _switches	/0x10000)
13720	2b9c	00000000		nop
13721	2b9d	00000000		nop
13722	2b9e	00000000		nop
13723	2b9f	342102ac		ori	%GPR1,%GPR1,$( _switches	%0x10000)
13724	2ba0	00000000		nop	; Automatically Added by addNops.pl
13725	2ba1	00000000		nop	; Automatically Added by addNops.pl
13726	2ba2	00000000		nop	; Automatically Added by addNops.pl
13727				; Automatically 8 NOPs removed by reduceNOPs.sh
13728	2ba3	3c030000		lhi	%GPR3,$0	
13729	2ba4	00000000		nop	; Automatically Added by addNops.pl
13730	2ba5	00000000		nop	; Automatically Added by addNops.pl
13731	2ba6	00000000		nop	; Automatically Added by addNops.pl
13732				; Automatically 16 NOPs removed by reduceNOPs.sh
13733	2ba7	34630010		ori	%GPR3,%GPR3,$16	
13734	2ba8	00000000		nop	; Automatically Added by addNops.pl
13735	2ba9	00000000		nop	; Automatically Added by addNops.pl
13736	2baa	00000000		nop	; Automatically Added by addNops.pl
13737				; Automatically 12 NOPs removed by reduceNOPs.sh
13738	2bab	3c040000		lhi	%GPR4,$0	
13739	2bac	00000000		nop	; Automatically Added by addNops.pl
13740	2bad	00000000		nop	; Automatically Added by addNops.pl
13741	2bae	00000000		nop	; Automatically Added by addNops.pl
13742				; Automatically 16 NOPs removed by reduceNOPs.sh
13743	2baf	34840001		ori	%GPR4,%GPR4,$1	
13744	2bb0	00000000		nop	; Automatically Added by addNops.pl
13745	2bb1	00000000		nop	; Automatically Added by addNops.pl
13746	2bb2	00000000		nop	; Automatically Added by addNops.pl
13747	2bb3	00a31818		mult	%GPR3,%GPR5,%GPR3	
13748	2bb4	00000000		nop	; Automatically Added by addNops.pl
13749	2bb5	00000000		nop	; Automatically Added by addNops.pl
13750	2bb6	00000000		nop	; Automatically Added by addNops.pl
13751				; Automatically 16 NOPs removed by reduceNOPs.sh
13752	2bb7	00230820		add	%GPR1,%GPR1,%GPR3	
13753	2bb8	00000000		nop	; Automatically Added by addNops.pl
13754	2bb9	00000000		nop	; Automatically Added by addNops.pl
13755	2bba	00000000		nop	; Automatically Added by addNops.pl
13756				; Automatically 16 NOPs removed by reduceNOPs.sh
13757	2bbb	8c210000		lw	%GPR1,0(%GPR1)	
13758	2bbc	00000000		nop	; Automatically Added by addNops.pl
13759	2bbd	00000000		nop	; Automatically Added by addNops.pl
13760	2bbe	00000000		nop	; Automatically Added by addNops.pl
13761				; Automatically 16 NOPs removed by reduceNOPs.sh
13762	2bbf	0024d82e		seq	%GPR27,%GPR1,%GPR4	
13763	2bc0	00000000		nop	; Automatically Added by addNops.pl
13764	2bc1	00000000		nop	; Automatically Added by addNops.pl
13765	2bc2	00000000		nop	; Automatically Added by addNops.pl
13766	2bc3	17600008		bnez	%GPR27,L_soundtest_5	
13767	2bc4	00000000		nop	; Automatically Added by addNops.pl
13768	2bc5	00000000		nop	; Automatically Added by addNops.pl
13769	2bc6	00000000		nop	; Automatically Added by addNops.pl
13770				; Automatically 16 NOPs removed by reduceNOPs.sh
13771	2bc7	080000eb		j	L_soundtest_13	
13772	2bc8	00000000		nop	; Automatically Added by addNops.pl
13773	2bc9	00000000		nop	; Automatically Added by addNops.pl
13774	2bca	00000000		nop	; Automatically Added by addNops.pl
13775				; Automatically 16 NOPs removed by reduceNOPs.sh
13776			L_soundtest_5:
13777	2bcb	00000000		nop	; Automatically Added by addNops.pl
13778	2bcc	00000000		nop	; Automatically Added by addNops.pl
13779	2bcd	00000000		nop	; Automatically Added by addNops.pl
13780	2bce	8fc6fff0		lw	%GPR6,-16(%GPR30)	
13781	2bcf	00000000		nop	; Automatically Added by addNops.pl
13782	2bd0	00000000		nop	; Automatically Added by addNops.pl
13783	2bd1	00000000		nop	; Automatically Added by addNops.pl
13784				; Automatically 8 NOPs removed by reduceNOPs.sh
13785	2bd2	3c010000		lhi	%GPR1,$( _bars	/0x10000)
13786	2bd3	00000000		nop
13787	2bd4	00000000		nop
13788	2bd5	00000000		nop
13789	2bd6	342106ac		ori	%GPR1,%GPR1,$( _bars	%0x10000)
13790	2bd7	00000000		nop	; Automatically Added by addNops.pl
13791	2bd8	00000000		nop	; Automatically Added by addNops.pl
13792	2bd9	00000000		nop	; Automatically Added by addNops.pl
13793	2bda	3c040000		lhi	%GPR4,$0	
13794	2bdb	00000000		nop	; Automatically Added by addNops.pl
13795	2bdc	00000000		nop	; Automatically Added by addNops.pl
13796	2bdd	00000000		nop	; Automatically Added by addNops.pl
13797				; Automatically 16 NOPs removed by reduceNOPs.sh
13798	2bde	34840008		ori	%GPR4,%GPR4,$8	
13799	2bdf	00000000		nop	; Automatically Added by addNops.pl
13800	2be0	00000000		nop	; Automatically Added by addNops.pl
13801	2be1	00000000		nop	; Automatically Added by addNops.pl
13802	2be2	3c030000		lhi	%GPR3,$( _bars	/0x10000)
13803	2be3	00000000		nop
13804	2be4	00000000		nop
13805	2be5	00000000		nop
13806	2be6	346306ac		ori	%GPR3,%GPR3,$( _bars	%0x10000)
13807	2be7	00000000		nop	; Automatically Added by addNops.pl
13808	2be8	00000000		nop	; Automatically Added by addNops.pl
13809	2be9	00000000		nop	; Automatically Added by addNops.pl
13810	2bea	3c050000		lhi	%GPR5,$0	
13811	2beb	00000000		nop	; Automatically Added by addNops.pl
13812	2bec	00000000		nop	; Automatically Added by addNops.pl
13813	2bed	00000000		nop	; Automatically Added by addNops.pl
13814				; Automatically 16 NOPs removed by reduceNOPs.sh
13815	2bee	34a50008		ori	%GPR5,%GPR5,$8	
13816	2bef	00000000		nop	; Automatically Added by addNops.pl
13817	2bf0	00000000		nop	; Automatically Added by addNops.pl
13818	2bf1	00000000		nop	; Automatically Added by addNops.pl
13819				; Automatically 8 NOPs removed by reduceNOPs.sh
13820	2bf2	00c42018		mult	%GPR4,%GPR6,%GPR4	
13821	2bf3	00000000		nop	; Automatically Added by addNops.pl
13822	2bf4	00000000		nop	; Automatically Added by addNops.pl
13823	2bf5	00000000		nop	; Automatically Added by addNops.pl
13824				; Automatically 16 NOPs removed by reduceNOPs.sh
13825	2bf6	8fc6ffec		lw	%GPR6,-20(%GPR30)	
13826	2bf7	00000000		nop	; Automatically Added by addNops.pl
13827	2bf8	00000000		nop	; Automatically Added by addNops.pl
13828	2bf9	00000000		nop	; Automatically Added by addNops.pl
13829	2bfa	00240820		add	%GPR1,%GPR1,%GPR4	
13830	2bfb	00000000		nop	; Automatically Added by addNops.pl
13831	2bfc	00000000		nop	; Automatically Added by addNops.pl
13832	2bfd	00000000		nop	; Automatically Added by addNops.pl
13833				; Automatically 12 NOPs removed by reduceNOPs.sh
13834	2bfe	00c52818		mult	%GPR5,%GPR6,%GPR5	
13835	2bff	00000000		nop	; Automatically Added by addNops.pl
13836	2c00	00000000		nop	; Automatically Added by addNops.pl
13837	2c01	00000000		nop	; Automatically Added by addNops.pl
13838				; Automatically 16 NOPs removed by reduceNOPs.sh
13839	2c02	00652020		add	%GPR4,%GPR3,%GPR5	
13840	2c03	00000000		nop	; Automatically Added by addNops.pl
13841	2c04	00000000		nop	; Automatically Added by addNops.pl
13842	2c05	00000000		nop	; Automatically Added by addNops.pl
13843	2c06	3c060000		lhi	%GPR6,$0	
13844	2c07	00000000		nop	; Automatically Added by addNops.pl
13845	2c08	00000000		nop	; Automatically Added by addNops.pl
13846	2c09	00000000		nop	; Automatically Added by addNops.pl
13847				; Automatically 16 NOPs removed by reduceNOPs.sh
13848	2c0a	34c60000		ori	%GPR6,%GPR6,$0	
13849	2c0b	00000000		nop	; Automatically Added by addNops.pl
13850	2c0c	00000000		nop	; Automatically Added by addNops.pl
13851	2c0d	00000000		nop	; Automatically Added by addNops.pl
13852	2c0e	8c230000		lw	%GPR3,0(%GPR1)	
13853	2c0f	00000000		nop	; Automatically Added by addNops.pl
13854	2c10	00000000		nop	; Automatically Added by addNops.pl
13855	2c11	00000000		nop	; Automatically Added by addNops.pl
13856				; Automatically 8 NOPs removed by reduceNOPs.sh
13857	2c12	00000000		nop	; Automatically added by fix-stall-insns.pl
13858	2c13	8c840000		lw	%GPR4,0(%GPR4)	
13859	2c14	00000000		nop	; Automatically Added by addNops.pl
13860	2c15	00000000		nop	; Automatically Added by addNops.pl
13861	2c16	00000000		nop	; Automatically Added by addNops.pl
13862				; Automatically 16 NOPs removed by reduceNOPs.sh
13863	2c17	0086d82e		seq	%GPR27,%GPR4,%GPR6	
13864	2c18	00000000		nop	; Automatically Added by addNops.pl
13865	2c19	00000000		nop	; Automatically Added by addNops.pl
13866	2c1a	00000000		nop	; Automatically Added by addNops.pl
13867	2c1b	17600008		bnez	%GPR27,L_soundtest_6	
13868	2c1c	00000000		nop	; Automatically Added by addNops.pl
13869	2c1d	00000000		nop	; Automatically Added by addNops.pl
13870	2c1e	00000000		nop	; Automatically Added by addNops.pl
13871				; Automatically 16 NOPs removed by reduceNOPs.sh
13872	2c1f	0800000f		j	L_soundtest_7	
13873	2c20	00000000		nop	; Automatically Added by addNops.pl
13874	2c21	00000000		nop	; Automatically Added by addNops.pl
13875	2c22	00000000		nop	; Automatically Added by addNops.pl
13876				; Automatically 16 NOPs removed by reduceNOPs.sh
13877			L_soundtest_6:
13878	2c23	00000000		nop	; Automatically Added by addNops.pl
13879	2c24	00000000		nop	; Automatically Added by addNops.pl
13880	2c25	00000000		nop	; Automatically Added by addNops.pl
13881				; Automatically 16 NOPs removed by reduceNOPs.sh
13882	2c26	3c040000		lhi	%GPR4,$0	
13883	2c27	00000000		nop	; Automatically Added by addNops.pl
13884	2c28	00000000		nop	; Automatically Added by addNops.pl
13885	2c29	00000000		nop	; Automatically Added by addNops.pl
13886				; Automatically 16 NOPs removed by reduceNOPs.sh
13887	2c2a	34840001		ori	%GPR4,%GPR4,$1	
13888	2c2b	00000000		nop	; Automatically Added by addNops.pl
13889	2c2c	00000000		nop	; Automatically Added by addNops.pl
13890	2c2d	00000000		nop	; Automatically Added by addNops.pl
13891				; Automatically 12 NOPs removed by reduceNOPs.sh
13892			L_soundtest_7:
13893	2c2e	00000000		nop	; Automatically Added by addNops.pl
13894	2c2f	00000000		nop	; Automatically Added by addNops.pl
13895	2c30	00000000		nop	; Automatically Added by addNops.pl
13896				; Automatically 16 NOPs removed by reduceNOPs.sh
13897	2c31	3c010000		lhi	%GPR1,$0	
13898	2c32	00000000		nop	; Automatically Added by addNops.pl
13899	2c33	00000000		nop	; Automatically Added by addNops.pl
13900	2c34	00000000		nop	; Automatically Added by addNops.pl
13901				; Automatically 16 NOPs removed by reduceNOPs.sh
13902	2c35	34210000		ori	%GPR1,%GPR1,$0	
13903	2c36	00000000		nop	; Automatically Added by addNops.pl
13904	2c37	00000000		nop	; Automatically Added by addNops.pl
13905	2c38	00000000		nop	; Automatically Added by addNops.pl
13906				; Automatically 12 NOPs removed by reduceNOPs.sh
13907			L_soundtest_8:
13908	2c39	00000000		nop	; Automatically Added by addNops.pl
13909	2c3a	00000000		nop	; Automatically Added by addNops.pl
13910	2c3b	00000000		nop	; Automatically Added by addNops.pl
13911	2c3c	0024d82a		slt	%GPR27,%GPR1,%GPR4	
13912	2c3d	00000000		nop	; Automatically Added by addNops.pl
13913	2c3e	00000000		nop	; Automatically Added by addNops.pl
13914	2c3f	00000000		nop	; Automatically Added by addNops.pl
13915	2c40	17600008		bnez	%GPR27,L_soundtest_9	
13916	2c41	00000000		nop	; Automatically Added by addNops.pl
13917	2c42	00000000		nop	; Automatically Added by addNops.pl
13918	2c43	00000000		nop	; Automatically Added by addNops.pl
13919				; Automatically 16 NOPs removed by reduceNOPs.sh
13920	2c44	0800006e		j	L_soundtest_13	
13921	2c45	00000000		nop	; Automatically Added by addNops.pl
13922	2c46	00000000		nop	; Automatically Added by addNops.pl
13923	2c47	00000000		nop	; Automatically Added by addNops.pl
13924				; Automatically 16 NOPs removed by reduceNOPs.sh
13925			L_soundtest_9:
13926	2c48	00000000		nop	; Automatically Added by addNops.pl
13927	2c49	00000000		nop	; Automatically Added by addNops.pl
13928	2c4a	00000000		nop	; Automatically Added by addNops.pl
13929				; Automatically 16 NOPs removed by reduceNOPs.sh
13930	2c4b	3c050000		lhi	%GPR5,$0	
13931	2c4c	00000000		nop	; Automatically Added by addNops.pl
13932	2c4d	00000000		nop	; Automatically Added by addNops.pl
13933	2c4e	00000000		nop	; Automatically Added by addNops.pl
13934				; Automatically 16 NOPs removed by reduceNOPs.sh
13935	2c4f	34a50000		ori	%GPR5,%GPR5,$0	
13936	2c50	00000000		nop	; Automatically Added by addNops.pl
13937	2c51	00000000		nop	; Automatically Added by addNops.pl
13938	2c52	00000000		nop	; Automatically Added by addNops.pl
13939				; Automatically 12 NOPs removed by reduceNOPs.sh
13940			L_soundtest_10:
13941			
13942			
13943				; SET_AUDIO(int value)
13944	2c53	00000000		nop	; Automatically Added by addNops.pl
13945	2c54	00000000		nop	; Automatically Added by addNops.pl
13946	2c55	00000000		nop	; Automatically Added by addNops.pl
13947	2c56	3c060262		lhi	%GPR6, $(0x2625A04/0x10000)
13948	2c57	00000000		nop	; Automatically Added by addNops.pl
13949	2c58	00000000		nop	; Automatically Added by addNops.pl
13950	2c59	00000000		nop	; Automatically Added by addNops.pl
13951				; Automatically 16 NOPs removed by reduceNOPs.sh
13952	2c5a	34c65a04		ori	%GPR6, %GPR6, $(0x2625A04%0x10000)
13953	2c5b	00000000		nop	; Automatically Added by addNops.pl
13954	2c5c	00000000		nop	; Automatically Added by addNops.pl
13955	2c5d	00000000		nop	; Automatically Added by addNops.pl
13956				; Automatically 16 NOPs removed by reduceNOPs.sh
13957	2c5e	acc50000		sw	0(%GPR6), %GPR5
13958	2c5f	00000000		nop	; Automatically Added by addNops.pl
13959	2c60	00000000		nop	; Automatically Added by addNops.pl
13960	2c61	00000000		nop	; Automatically Added by addNops.pl
13961				; Automatically 13 NOPs removed by reduceNOPs.sh
13962			
13963	2c62	00000000		nop	; Automatically Added by addNops.pl
13964	2c63	00000000		nop	; Automatically Added by addNops.pl
13965	2c64	00000000		nop	; Automatically Added by addNops.pl
13966				; Automatically 8 NOPs removed by reduceNOPs.sh
13967	2c65	00a32820		add	%GPR5,%GPR5,%GPR3	
13968	2c66	00000000		nop	; Automatically Added by addNops.pl
13969	2c67	00000000		nop	; Automatically Added by addNops.pl
13970	2c68	00000000		nop	; Automatically Added by addNops.pl
13971				; Automatically 12 NOPs removed by reduceNOPs.sh
13972	2c69	3c060000		lhi	%GPR6,$0	
13973	2c6a	00000000		nop	; Automatically Added by addNops.pl
13974	2c6b	00000000		nop	; Automatically Added by addNops.pl
13975	2c6c	00000000		nop	; Automatically Added by addNops.pl
13976				; Automatically 16 NOPs removed by reduceNOPs.sh
13977	2c6d	34c600ff		ori	%GPR6,%GPR6,$255	
13978	2c6e	00000000		nop	; Automatically Added by addNops.pl
13979	2c6f	00000000		nop	; Automatically Added by addNops.pl
13980	2c70	00000000		nop	; Automatically Added by addNops.pl
13981				; Automatically 16 NOPs removed by reduceNOPs.sh
13982	2c71	00a6d82a		slt	%GPR27,%GPR5,%GPR6	
13983	2c72	00000000		nop	; Automatically Added by addNops.pl
13984	2c73	00000000		nop	; Automatically Added by addNops.pl
13985	2c74	00000000		nop	; Automatically Added by addNops.pl
13986	2c75	1760ffde		bnez	%GPR27,L_soundtest_10	
13987	2c76	00000000		nop	; Automatically Added by addNops.pl
13988	2c77	00000000		nop	; Automatically Added by addNops.pl
13989	2c78	00000000		nop	; Automatically Added by addNops.pl
13990				; Automatically 16 NOPs removed by reduceNOPs.sh
13991	2c79	08000004		j	L_soundtest_11	
13992	2c7a	00000000		nop	; Automatically Added by addNops.pl
13993	2c7b	00000000		nop	; Automatically Added by addNops.pl
13994	2c7c	00000000		nop	; Automatically Added by addNops.pl
13995				; Automatically 16 NOPs removed by reduceNOPs.sh
13996			L_soundtest_11:
13997			
13998			
13999				; SET_AUDIO(int value)
14000	2c7d	00000000		nop	; Automatically Added by addNops.pl
14001	2c7e	00000000		nop	; Automatically Added by addNops.pl
14002	2c7f	00000000		nop	; Automatically Added by addNops.pl
14003	2c80	3c060262		lhi	%GPR6, $(0x2625A04/0x10000)
14004	2c81	00000000		nop	; Automatically Added by addNops.pl
14005	2c82	00000000		nop	; Automatically Added by addNops.pl
14006	2c83	00000000		nop	; Automatically Added by addNops.pl
14007				; Automatically 16 NOPs removed by reduceNOPs.sh
14008	2c84	34c65a04		ori	%GPR6, %GPR6, $(0x2625A04%0x10000)
14009	2c85	00000000		nop	; Automatically Added by addNops.pl
14010	2c86	00000000		nop	; Automatically Added by addNops.pl
14011	2c87	00000000		nop	; Automatically Added by addNops.pl
14012				; Automatically 16 NOPs removed by reduceNOPs.sh
14013	2c88	acc50000		sw	0(%GPR6), %GPR5
14014	2c89	00000000		nop	; Automatically Added by addNops.pl
14015	2c8a	00000000		nop	; Automatically Added by addNops.pl
14016	2c8b	00000000		nop	; Automatically Added by addNops.pl
14017				; Automatically 13 NOPs removed by reduceNOPs.sh
14018			
14019	2c8c	00000000		nop	; Automatically Added by addNops.pl
14020	2c8d	00000000		nop	; Automatically Added by addNops.pl
14021	2c8e	00000000		nop	; Automatically Added by addNops.pl
14022				; Automatically 8 NOPs removed by reduceNOPs.sh
14023	2c8f	00a32822		sub	%GPR5,%GPR5,%GPR3	
14024	2c90	00000000		nop	; Automatically Added by addNops.pl
14025	2c91	00000000		nop	; Automatically Added by addNops.pl
14026	2c92	00000000		nop	; Automatically Added by addNops.pl
14027				; Automatically 12 NOPs removed by reduceNOPs.sh
14028	2c93	3c060000		lhi	%GPR6,$0	
14029	2c94	00000000		nop	; Automatically Added by addNops.pl
14030	2c95	00000000		nop	; Automatically Added by addNops.pl
14031	2c96	00000000		nop	; Automatically Added by addNops.pl
14032				; Automatically 16 NOPs removed by reduceNOPs.sh
14033	2c97	34c60000		ori	%GPR6,%GPR6,$0	
14034	2c98	00000000		nop	; Automatically Added by addNops.pl
14035	2c99	00000000		nop	; Automatically Added by addNops.pl
14036	2c9a	00000000		nop	; Automatically Added by addNops.pl
14037				; Automatically 16 NOPs removed by reduceNOPs.sh
14038	2c9b	00a6d82b		sgt	%GPR27,%GPR5,%GPR6	
14039	2c9c	00000000		nop	; Automatically Added by addNops.pl
14040	2c9d	00000000		nop	; Automatically Added by addNops.pl
14041	2c9e	00000000		nop	; Automatically Added by addNops.pl
14042	2c9f	1760ffde		bnez	%GPR27,L_soundtest_11	
14043	2ca0	00000000		nop	; Automatically Added by addNops.pl
14044	2ca1	00000000		nop	; Automatically Added by addNops.pl
14045	2ca2	00000000		nop	; Automatically Added by addNops.pl
14046				; Automatically 16 NOPs removed by reduceNOPs.sh
14047	2ca3	08000004		j	L_soundtest_12	
14048	2ca4	00000000		nop	; Automatically Added by addNops.pl
14049	2ca5	00000000		nop	; Automatically Added by addNops.pl
14050	2ca6	00000000		nop	; Automatically Added by addNops.pl
14051				; Automatically 16 NOPs removed by reduceNOPs.sh
14052			L_soundtest_12:
14053	2ca7	00000000		nop	; Automatically Added by addNops.pl
14054	2ca8	00000000		nop	; Automatically Added by addNops.pl
14055	2ca9	00000000		nop	; Automatically Added by addNops.pl
14056	2caa	20210001		addi	%GPR1,%GPR1,$1	
14057	2cab	00000000		nop	; Automatically Added by addNops.pl
14058	2cac	00000000		nop	; Automatically Added by addNops.pl
14059	2cad	00000000		nop	; Automatically Added by addNops.pl
14060	2cae	0bffff8b		j	L_soundtest_8	
14061	2caf	00000000		nop	; Automatically Added by addNops.pl
14062	2cb0	00000000		nop	; Automatically Added by addNops.pl
14063	2cb1	00000000		nop	; Automatically Added by addNops.pl
14064				; Automatically 12 NOPs removed by reduceNOPs.sh
14065			L_soundtest_13:
14066			
14067			
14068				; GET_COUNTER()
14069	2cb2	00000000		nop	; Automatically Added by addNops.pl
14070	2cb3	00000000		nop	; Automatically Added by addNops.pl
14071	2cb4	00000000		nop	; Automatically Added by addNops.pl
14072	2cb5	3c010280		lhi	%GPR1, $(0x280DE80/0x10000)
14073	2cb6	00000000		nop	; Automatically Added by addNops.pl
14074	2cb7	00000000		nop	; Automatically Added by addNops.pl
14075	2cb8	00000000		nop	; Automatically Added by addNops.pl
14076				; Automatically 16 NOPs removed by reduceNOPs.sh
14077	2cb9	3421de80		ori	%GPR1, %GPR1, $(0x280DE80%0x10000)
14078	2cba	00000000		nop	; Automatically Added by addNops.pl
14079	2cbb	00000000		nop	; Automatically Added by addNops.pl
14080	2cbc	00000000		nop	; Automatically Added by addNops.pl
14081				; Automatically 16 NOPs removed by reduceNOPs.sh
14082	2cbd	8c230000		lw	%GPR3, 0(%GPR1)
14083	2cbe	00000000		nop	; Automatically Added by addNops.pl
14084	2cbf	00000000		nop	; Automatically Added by addNops.pl
14085	2cc0	00000000		nop	; Automatically Added by addNops.pl
14086				; Automatically 13 NOPs removed by reduceNOPs.sh
14087			
14088	2cc1	00000000		nop	; Automatically Added by addNops.pl
14089	2cc2	00000000		nop	; Automatically Added by addNops.pl
14090	2cc3	00000000		nop	; Automatically Added by addNops.pl
14091				; Automatically 8 NOPs removed by reduceNOPs.sh
14092	2cc4	00621022		sub	%GPR2,%GPR3,%GPR2	
14093	2cc5	00000000		nop	; Automatically Added by addNops.pl
14094	2cc6	00000000		nop	; Automatically Added by addNops.pl
14095	2cc7	00000000		nop	; Automatically Added by addNops.pl
14096				; Automatically 12 NOPs removed by reduceNOPs.sh
14097	2cc8	3c010000		lhi	%GPR1,$0	
14098	2cc9	00000000		nop	; Automatically Added by addNops.pl
14099	2cca	00000000		nop	; Automatically Added by addNops.pl
14100	2ccb	00000000		nop	; Automatically Added by addNops.pl
14101				; Automatically 16 NOPs removed by reduceNOPs.sh
14102	2ccc	34210000		ori	%GPR1,%GPR1,$0	
14103			
14104			
14105				; SET_COUNTER()
14106	2ccd	00000000		nop	; Automatically Added by addNops.pl
14107	2cce	00000000		nop	; Automatically Added by addNops.pl
14108	2ccf	00000000		nop	; Automatically Added by addNops.pl
14109	2cd0	3c040280		lhi	%GPR4, $(0x280DE80/0x10000)
14110	2cd1	00000000		nop	; Automatically Added by addNops.pl
14111	2cd2	00000000		nop	; Automatically Added by addNops.pl
14112	2cd3	00000000		nop	; Automatically Added by addNops.pl
14113				; Automatically 16 NOPs removed by reduceNOPs.sh
14114	2cd4	3484de80		ori	%GPR4, %GPR4, $(0x280DE80%0x10000)
14115	2cd5	00000000		nop	; Automatically Added by addNops.pl
14116	2cd6	00000000		nop	; Automatically Added by addNops.pl
14117	2cd7	00000000		nop	; Automatically Added by addNops.pl
14118				; Automatically 16 NOPs removed by reduceNOPs.sh
14119	2cd8	ac810000		sw	0(%GPR4), %GPR1
14120	2cd9	00000000		nop	; Automatically Added by addNops.pl
14121	2cda	00000000		nop	; Automatically Added by addNops.pl
14122	2cdb	00000000		nop	; Automatically Added by addNops.pl
14123				; Automatically 13 NOPs removed by reduceNOPs.sh
14124			
14125	2cdc	00000000		nop	; Automatically Added by addNops.pl
14126	2cdd	00000000		nop	; Automatically Added by addNops.pl
14127	2cde	00000000		nop	; Automatically Added by addNops.pl
14128				; Automatically 8 NOPs removed by reduceNOPs.sh
14129	2cdf	8fc1ffe4		lw	%GPR1,-28(%GPR30)	
14130	2ce0	00000000		nop	; Automatically Added by addNops.pl
14131	2ce1	00000000		nop	; Automatically Added by addNops.pl
14132	2ce2	00000000		nop	; Automatically Added by addNops.pl
14133				; Automatically 12 NOPs removed by reduceNOPs.sh
14134	2ce3	3c040000		lhi	%GPR4,$0	
14135	2ce4	00000000		nop	; Automatically Added by addNops.pl
14136	2ce5	00000000		nop	; Automatically Added by addNops.pl
14137	2ce6	00000000		nop	; Automatically Added by addNops.pl
14138				; Automatically 16 NOPs removed by reduceNOPs.sh
14139	2ce7	34840064		ori	%GPR4,%GPR4,$100	
14140	2ce8	00000000		nop	; Automatically Added by addNops.pl
14141	2ce9	00000000		nop	; Automatically Added by addNops.pl
14142	2cea	00000000		nop	; Automatically Added by addNops.pl
14143	2ceb	20210001		addi	%GPR1,%GPR1,$1	
14144	2cec	00000000		nop	; Automatically Added by addNops.pl
14145	2ced	00000000		nop	; Automatically Added by addNops.pl
14146	2cee	00000000		nop	; Automatically Added by addNops.pl
14147				; Automatically 12 NOPs removed by reduceNOPs.sh
14148	2cef	00441018		mult	%GPR2,%GPR2,%GPR4	
14149	2cf0	00000000		nop	; Automatically Added by addNops.pl
14150	2cf1	00000000		nop	; Automatically Added by addNops.pl
14151	2cf2	00000000		nop	; Automatically Added by addNops.pl
14152				; Automatically 16 NOPs removed by reduceNOPs.sh
14153	2cf3	0043101a		div	%GPR2,%GPR2,%GPR3	
14154	2cf4	00000000		nop	; Automatically Added by addNops.pl
14155	2cf5	00000000		nop	; Automatically Added by addNops.pl
14156	2cf6	00000000		nop	; Automatically Added by addNops.pl
14157				; Automatically 16 NOPs removed by reduceNOPs.sh
14158	2cf7	afc2ffe0		sw	-32(%GPR30),%GPR2	
14159	2cf8	00000000		nop	; Automatically Added by addNops.pl
14160	2cf9	00000000		nop	; Automatically Added by addNops.pl
14161	2cfa	00000000		nop	; Automatically Added by addNops.pl
14162				; Automatically 16 NOPs removed by reduceNOPs.sh
14163	2cfb	2bbd0008		subi	%GPR29,%GPR29,$8	
14164	2cfc	00000000		nop	; Automatically Added by addNops.pl
14165	2cfd	00000000		nop	; Automatically Added by addNops.pl
14166	2cfe	00000000		nop	; Automatically Added by addNops.pl
14167				; Automatically 16 NOPs removed by reduceNOPs.sh
14168	2cff	0ffff896		jal	g_setbar	
14169	2d00	00000000		nop	; Automatically Added by addNops.pl
14170	2d01	00000000		nop	; Automatically Added by addNops.pl
14171	2d02	00000000		nop	; Automatically Added by addNops.pl
14172				; Automatically 16 NOPs removed by reduceNOPs.sh
14173	2d03	23bd0008		addi	%GPR29,%GPR29,$8	
14174	2d04	00000000		nop	; Automatically Added by addNops.pl
14175	2d05	00000000		nop	; Automatically Added by addNops.pl
14176	2d06	00000000		nop	; Automatically Added by addNops.pl
14177				; Automatically 16 NOPs removed by reduceNOPs.sh
14178	2d07	8fc1ffe0		lw	%GPR1,-32(%GPR30)	
14179	2d08	00000000		nop	; Automatically Added by addNops.pl
14180	2d09	00000000		nop	; Automatically Added by addNops.pl
14181	2d0a	00000000		nop	; Automatically Added by addNops.pl
14182	2d0b	2bc2000c		subi	%GPR2,%GPR30,$12	
14183	2d0c	00000000		nop	; Automatically Added by addNops.pl
14184	2d0d	00000000		nop	; Automatically Added by addNops.pl
14185	2d0e	00000000		nop	; Automatically Added by addNops.pl
14186				; Automatically 16 NOPs removed by reduceNOPs.sh
14187	2d0f	2bbd0008		subi	%GPR29,%GPR29,$8	
14188	2d10	00000000		nop	; Automatically Added by addNops.pl
14189	2d11	00000000		nop	; Automatically Added by addNops.pl
14190	2d12	00000000		nop	; Automatically Added by addNops.pl
14191				; Automatically 16 NOPs removed by reduceNOPs.sh
14192	2d13	0fffd30d		jal	intToStr	
14193	2d14	00000000		nop	; Automatically Added by addNops.pl
14194	2d15	00000000		nop	; Automatically Added by addNops.pl
14195	2d16	00000000		nop	; Automatically Added by addNops.pl
14196				; Automatically 16 NOPs removed by reduceNOPs.sh
14197	2d17	23bd0008		addi	%GPR29,%GPR29,$8	
14198	2d18	00000000		nop	; Automatically Added by addNops.pl
14199	2d19	00000000		nop	; Automatically Added by addNops.pl
14200	2d1a	00000000		nop	; Automatically Added by addNops.pl
14201				; Automatically 28 NOPs removed by reduceNOPs.sh
14202	2d1b	2bc1000c		subi	%GPR1,%GPR30,$12	
14203	2d1c	00000000		nop	; Automatically Added by addNops.pl
14204	2d1d	00000000		nop	; Automatically Added by addNops.pl
14205	2d1e	00000000		nop	; Automatically Added by addNops.pl
14206				; Automatically 8 NOPs removed by reduceNOPs.sh
14207	2d1f	3c030000		lhi	%GPR3,$0	
14208	2d20	00000000		nop	; Automatically Added by addNops.pl
14209	2d21	00000000		nop	; Automatically Added by addNops.pl
14210	2d22	00000000		nop	; Automatically Added by addNops.pl
14211				; Automatically 16 NOPs removed by reduceNOPs.sh
14212	2d23	34630078		ori	%GPR3,%GPR3,$120	
14213	2d24	00000000		nop	; Automatically Added by addNops.pl
14214	2d25	00000000		nop	; Automatically Added by addNops.pl
14215	2d26	00000000		nop	; Automatically Added by addNops.pl
14216	2d27	3c020000		lhi	%GPR2,$0	
14217	2d28	00000000		nop	; Automatically Added by addNops.pl
14218	2d29	00000000		nop	; Automatically Added by addNops.pl
14219	2d2a	00000000		nop	; Automatically Added by addNops.pl
14220				; Automatically 16 NOPs removed by reduceNOPs.sh
14221	2d2b	34420046		ori	%GPR2,%GPR2,$70	
14222	2d2c	00000000		nop	; Automatically Added by addNops.pl
14223	2d2d	00000000		nop	; Automatically Added by addNops.pl
14224	2d2e	00000000		nop	; Automatically Added by addNops.pl
14225				; Automatically 16 NOPs removed by reduceNOPs.sh
14226	2d2f	2bbd0008		subi	%GPR29,%GPR29,$8	
14227	2d30	00000000		nop	; Automatically Added by addNops.pl
14228	2d31	00000000		nop	; Automatically Added by addNops.pl
14229	2d32	00000000		nop	; Automatically Added by addNops.pl
14230				; Automatically 16 NOPs removed by reduceNOPs.sh
14231	2d33	0ffff500		jal	g_print	
14232	2d34	00000000		nop	; Automatically Added by addNops.pl
14233	2d35	00000000		nop	; Automatically Added by addNops.pl
14234	2d36	00000000		nop	; Automatically Added by addNops.pl
14235				; Automatically 16 NOPs removed by reduceNOPs.sh
14236	2d37	23bd0008		addi	%GPR29,%GPR29,$8	
14237	2d38	00000000		nop	; Automatically Added by addNops.pl
14238	2d39	00000000		nop	; Automatically Added by addNops.pl
14239	2d3a	00000000		nop	; Automatically Added by addNops.pl
14240				; Automatically 32 NOPs removed by reduceNOPs.sh
14241	2d3b	2bbd0008		subi	%GPR29,%GPR29,$8	
14242	2d3c	00000000		nop	; Automatically Added by addNops.pl
14243	2d3d	00000000		nop	; Automatically Added by addNops.pl
14244	2d3e	00000000		nop	; Automatically Added by addNops.pl
14245				; Automatically 16 NOPs removed by reduceNOPs.sh
14246	2d3f	0fffd61e		jal	switchThread	
14247	2d40	00000000		nop	; Automatically Added by addNops.pl
14248	2d41	00000000		nop	; Automatically Added by addNops.pl
14249	2d42	00000000		nop	; Automatically Added by addNops.pl
14250				; Automatically 16 NOPs removed by reduceNOPs.sh
14251	2d43	23bd0008		addi	%GPR29,%GPR29,$8	
14252	2d44	00000000		nop	; Automatically Added by addNops.pl
14253	2d45	00000000		nop	; Automatically Added by addNops.pl
14254	2d46	00000000		nop	; Automatically Added by addNops.pl
14255				; Automatically 16 NOPs removed by reduceNOPs.sh
14256	2d47	0bfffe3d		j	L_soundtest_4	
14257	2d48	00000000		nop	; Automatically Added by addNops.pl
14258	2d49	00000000		nop	; Automatically Added by addNops.pl
14259	2d4a	00000000		nop	; Automatically Added by addNops.pl
14260				; Automatically 12 NOPs removed by reduceNOPs.sh
14261			L_soundtest_14:
14262	2d4b	00000000		nop	; Automatically Added by addNops.pl
14263	2d4c	00000000		nop	; Automatically Added by addNops.pl
14264	2d4d	00000000		nop	; Automatically Added by addNops.pl
14265				; Automatically 16 NOPs removed by reduceNOPs.sh
14266	2d4e	8fdf0004		lw	%GPR31,4(%GPR30)	
14267	2d4f	00000000		nop	; Automatically Added by addNops.pl
14268	2d50	00000000		nop	; Automatically Added by addNops.pl
14269	2d51	00000000		nop	; Automatically Added by addNops.pl
14270	2d52	27dd0004		addui	%GPR29,%GPR30,$4	
14271	2d53	00000000		nop	; Automatically Added by addNops.pl
14272	2d54	00000000		nop	; Automatically Added by addNops.pl
14273	2d55	00000000		nop	; Automatically Added by addNops.pl
14274	2d56	8fde0000		lw	%GPR30,0(%GPR30)	
14275	2d57	00000000		nop	; Automatically Added by addNops.pl
14276	2d58	00000000		nop	; Automatically Added by addNops.pl
14277	2d59	00000000		nop	; Automatically Added by addNops.pl
14278				; Automatically 8 NOPs removed by reduceNOPs.sh
14279	2d5a	00000000		nop
14280	2d5b	00000000		nop
14281	2d5c	03e00008		jr	%GPR31	
14282	2d5d	00000000		nop	; Automatically Added by addNops.pl
14283	2d5e	00000000		nop	; Automatically Added by addNops.pl
14284	2d5f	00000000		nop	; Automatically Added by addNops.pl
14285				; Automatically 16 NOPs removed by reduceNOPs.sh
14286			countertest:
14287			L_soundtest_15:
14288	2d60	00000000		nop	; Automatically Added by addNops.pl
14289	2d61	00000000		nop	; Automatically Added by addNops.pl
14290	2d62	00000000		nop	; Automatically Added by addNops.pl
14291				; Automatically 16 NOPs removed by reduceNOPs.sh
14292	2d63	afbefffc		sw	-4(%GPR29),%GPR30	
14293	2d64	00000000		nop	; Automatically Added by addNops.pl
14294	2d65	00000000		nop	; Automatically Added by addNops.pl
14295	2d66	00000000		nop	; Automatically Added by addNops.pl
14296	2d67	00000000		nop	; Automatically added by fix-stall-insns.pl
14297	2d68	afbf0000		sw	0(%GPR29),%GPR31	
14298	2d69	00000000		nop	; Automatically Added by addNops.pl
14299	2d6a	00000000		nop	; Automatically Added by addNops.pl
14300	2d6b	00000000		nop	; Automatically Added by addNops.pl
14301	2d6c	2fbe0004		subui	%GPR30,%GPR29,$4	
14302	2d6d	00000000		nop	; Automatically Added by addNops.pl
14303	2d6e	00000000		nop	; Automatically Added by addNops.pl
14304	2d6f	00000000		nop	; Automatically Added by addNops.pl
14305				; Automatically 4 NOPs removed by reduceNOPs.sh
14306	2d70	2bbd0014		subi	%GPR29,%GPR29,$20	
14307	2d71	00000000		nop	; Automatically Added by addNops.pl
14308	2d72	00000000		nop	; Automatically Added by addNops.pl
14309	2d73	00000000		nop	; Automatically Added by addNops.pl
14310				; Automatically 40 NOPs removed by reduceNOPs.sh
14311			L_soundtest_16:
14312	2d74	00000000		nop	; Automatically Added by addNops.pl
14313	2d75	00000000		nop	; Automatically Added by addNops.pl
14314	2d76	00000000		nop	; Automatically Added by addNops.pl
14315	2d77	3c010000		lhi	%GPR1,$( L_soundtest_2	/0x10000)
14316	2d78	00000000		nop
14317	2d79	00000000		nop
14318	2d7a	00000000		nop
14319	2d7b	342107ac		ori	%GPR1,%GPR1,$( L_soundtest_2	%0x10000)
14320	2d7c	00000000		nop	; Automatically Added by addNops.pl
14321	2d7d	00000000		nop	; Automatically Added by addNops.pl
14322	2d7e	00000000		nop	; Automatically Added by addNops.pl
14323				; Automatically 36 NOPs removed by reduceNOPs.sh
14324	2d7f	2bbd0008		subi	%GPR29,%GPR29,$8	
14325	2d80	00000000		nop	; Automatically Added by addNops.pl
14326	2d81	00000000		nop	; Automatically Added by addNops.pl
14327	2d82	00000000		nop	; Automatically Added by addNops.pl
14328				; Automatically 16 NOPs removed by reduceNOPs.sh
14329	2d83	0ffff3b6		jal	t_print	
14330	2d84	00000000		nop	; Automatically Added by addNops.pl
14331	2d85	00000000		nop	; Automatically Added by addNops.pl
14332	2d86	00000000		nop	; Automatically Added by addNops.pl
14333				; Automatically 16 NOPs removed by reduceNOPs.sh
14334	2d87	23bd0008		addi	%GPR29,%GPR29,$8	
14335	2d88	00000000		nop	; Automatically Added by addNops.pl
14336	2d89	00000000		nop	; Automatically Added by addNops.pl
14337	2d8a	00000000		nop	; Automatically Added by addNops.pl
14338				; Automatically 13 NOPs removed by reduceNOPs.sh
14339			
14340			
14341				; GET_COUNTER()
14342	2d8b	00000000		nop	; Automatically Added by addNops.pl
14343	2d8c	00000000		nop	; Automatically Added by addNops.pl
14344	2d8d	00000000		nop	; Automatically Added by addNops.pl
14345	2d8e	3c010280		lhi	%GPR1, $(0x280DE80/0x10000)
14346	2d8f	00000000		nop	; Automatically Added by addNops.pl
14347	2d90	00000000		nop	; Automatically Added by addNops.pl
14348	2d91	00000000		nop	; Automatically Added by addNops.pl
14349				; Automatically 16 NOPs removed by reduceNOPs.sh
14350	2d92	3421de80		ori	%GPR1, %GPR1, $(0x280DE80%0x10000)
14351	2d93	00000000		nop	; Automatically Added by addNops.pl
14352	2d94	00000000		nop	; Automatically Added by addNops.pl
14353	2d95	00000000		nop	; Automatically Added by addNops.pl
14354				; Automatically 16 NOPs removed by reduceNOPs.sh
14355	2d96	8c210000		lw	%GPR1, 0(%GPR1)
14356	2d97	00000000		nop	; Automatically Added by addNops.pl
14357	2d98	00000000		nop	; Automatically Added by addNops.pl
14358	2d99	00000000		nop	; Automatically Added by addNops.pl
14359				; Automatically 13 NOPs removed by reduceNOPs.sh
14360			
14361	2d9a	00000000		nop	; Automatically Added by addNops.pl
14362	2d9b	00000000		nop	; Automatically Added by addNops.pl
14363	2d9c	00000000		nop	; Automatically Added by addNops.pl
14364	2d9d	2bc2000c		subi	%GPR2,%GPR30,$12	
14365	2d9e	00000000		nop	; Automatically Added by addNops.pl
14366	2d9f	00000000		nop	; Automatically Added by addNops.pl
14367	2da0	00000000		nop	; Automatically Added by addNops.pl
14368				; Automatically 16 NOPs removed by reduceNOPs.sh
14369	2da1	2bbd0008		subi	%GPR29,%GPR29,$8	
14370	2da2	00000000		nop	; Automatically Added by addNops.pl
14371	2da3	00000000		nop	; Automatically Added by addNops.pl
14372	2da4	00000000		nop	; Automatically Added by addNops.pl
14373				; Automatically 16 NOPs removed by reduceNOPs.sh
14374	2da5	0fffd27b		jal	intToStr	
14375	2da6	00000000		nop	; Automatically Added by addNops.pl
14376	2da7	00000000		nop	; Automatically Added by addNops.pl
14377	2da8	00000000		nop	; Automatically Added by addNops.pl
14378				; Automatically 16 NOPs removed by reduceNOPs.sh
14379	2da9	23bd0008		addi	%GPR29,%GPR29,$8	
14380	2daa	00000000		nop	; Automatically Added by addNops.pl
14381	2dab	00000000		nop	; Automatically Added by addNops.pl
14382	2dac	00000000		nop	; Automatically Added by addNops.pl
14383				; Automatically 28 NOPs removed by reduceNOPs.sh
14384	2dad	2bc1000c		subi	%GPR1,%GPR30,$12	
14385	2dae	00000000		nop	; Automatically Added by addNops.pl
14386	2daf	00000000		nop	; Automatically Added by addNops.pl
14387	2db0	00000000		nop	; Automatically Added by addNops.pl
14388				; Automatically 8 NOPs removed by reduceNOPs.sh
14389	2db1	3c030000		lhi	%GPR3,$0	
14390	2db2	00000000		nop	; Automatically Added by addNops.pl
14391	2db3	00000000		nop	; Automatically Added by addNops.pl
14392	2db4	00000000		nop	; Automatically Added by addNops.pl
14393				; Automatically 16 NOPs removed by reduceNOPs.sh
14394	2db5	34630000		ori	%GPR3,%GPR3,$0	
14395	2db6	00000000		nop	; Automatically Added by addNops.pl
14396	2db7	00000000		nop	; Automatically Added by addNops.pl
14397	2db8	00000000		nop	; Automatically Added by addNops.pl
14398	2db9	3c020000		lhi	%GPR2,$0	
14399	2dba	00000000		nop	; Automatically Added by addNops.pl
14400	2dbb	00000000		nop	; Automatically Added by addNops.pl
14401	2dbc	00000000		nop	; Automatically Added by addNops.pl
14402				; Automatically 16 NOPs removed by reduceNOPs.sh
14403	2dbd	34420032		ori	%GPR2,%GPR2,$50	
14404	2dbe	00000000		nop	; Automatically Added by addNops.pl
14405	2dbf	00000000		nop	; Automatically Added by addNops.pl
14406	2dc0	00000000		nop	; Automatically Added by addNops.pl
14407				; Automatically 16 NOPs removed by reduceNOPs.sh
14408	2dc1	2bbd0008		subi	%GPR29,%GPR29,$8	
14409	2dc2	00000000		nop	; Automatically Added by addNops.pl
14410	2dc3	00000000		nop	; Automatically Added by addNops.pl
14411	2dc4	00000000		nop	; Automatically Added by addNops.pl
14412				; Automatically 16 NOPs removed by reduceNOPs.sh
14413	2dc5	0ffff46e		jal	g_print	
14414	2dc6	00000000		nop	; Automatically Added by addNops.pl
14415	2dc7	00000000		nop	; Automatically Added by addNops.pl
14416	2dc8	00000000		nop	; Automatically Added by addNops.pl
14417				; Automatically 16 NOPs removed by reduceNOPs.sh
14418	2dc9	23bd0008		addi	%GPR29,%GPR29,$8	
14419	2dca	00000000		nop	; Automatically Added by addNops.pl
14420	2dcb	00000000		nop	; Automatically Added by addNops.pl
14421	2dcc	00000000		nop	; Automatically Added by addNops.pl
14422				; Automatically 32 NOPs removed by reduceNOPs.sh
14423	2dcd	2bbd0008		subi	%GPR29,%GPR29,$8	
14424	2dce	00000000		nop	; Automatically Added by addNops.pl
14425	2dcf	00000000		nop	; Automatically Added by addNops.pl
14426	2dd0	00000000		nop	; Automatically Added by addNops.pl
14427				; Automatically 16 NOPs removed by reduceNOPs.sh
14428	2dd1	0fffd58c		jal	switchThread	
14429	2dd2	00000000		nop	; Automatically Added by addNops.pl
14430	2dd3	00000000		nop	; Automatically Added by addNops.pl
14431	2dd4	00000000		nop	; Automatically Added by addNops.pl
14432				; Automatically 16 NOPs removed by reduceNOPs.sh
14433	2dd5	23bd0008		addi	%GPR29,%GPR29,$8	
14434	2dd6	00000000		nop	; Automatically Added by addNops.pl
14435	2dd7	00000000		nop	; Automatically Added by addNops.pl
14436	2dd8	00000000		nop	; Automatically Added by addNops.pl
14437				; Automatically 16 NOPs removed by reduceNOPs.sh
14438	2dd9	0bffff9b		j	L_soundtest_16	
14439	2dda	00000000		nop	; Automatically Added by addNops.pl
14440	2ddb	00000000		nop	; Automatically Added by addNops.pl
14441	2ddc	00000000		nop	; Automatically Added by addNops.pl
14442				; Automatically 12 NOPs removed by reduceNOPs.sh
14443			L_soundtest_17:
14444	2ddd	00000000		nop	; Automatically Added by addNops.pl
14445	2dde	00000000		nop	; Automatically Added by addNops.pl
14446	2ddf	00000000		nop	; Automatically Added by addNops.pl
14447				; Automatically 16 NOPs removed by reduceNOPs.sh
14448	2de0	8fdf0004		lw	%GPR31,4(%GPR30)	
14449	2de1	00000000		nop	; Automatically Added by addNops.pl
14450	2de2	00000000		nop	; Automatically Added by addNops.pl
14451	2de3	00000000		nop	; Automatically Added by addNops.pl
14452	2de4	27dd0004		addui	%GPR29,%GPR30,$4	
14453	2de5	00000000		nop	; Automatically Added by addNops.pl
14454	2de6	00000000		nop	; Automatically Added by addNops.pl
14455	2de7	00000000		nop	; Automatically Added by addNops.pl
14456	2de8	8fde0000		lw	%GPR30,0(%GPR30)	
14457	2de9	00000000		nop	; Automatically Added by addNops.pl
14458	2dea	00000000		nop	; Automatically Added by addNops.pl
14459	2deb	00000000		nop	; Automatically Added by addNops.pl
14460				; Automatically 8 NOPs removed by reduceNOPs.sh
14461	2dec	00000000		nop
14462	2ded	00000000		nop
14463	2dee	03e00008		jr	%GPR31	
14464	2def	00000000		nop	; Automatically Added by addNops.pl
14465	2df0	00000000		nop	; Automatically Added by addNops.pl
14466	2df1	00000000		nop	; Automatically Added by addNops.pl
14467	2df2	00000000		nop
14468			exit:
14469	2df3	00000000		nop
14470	2df4	00000000		nop


******** Cross Reference List ********
Defined Symbol
name   	section	lc     	attr   	value  	lineno 
L_loadStoreByte_2	.text	2929	Label	2929	12967 
L_lib_lcd_larsix_16	.text	1754	Label	1754	7323 
L_larsix_31	.text	0651	Label	651	2007 
L_loadStoreByte_3	.text	293e	Label	293e	12993 
g_makeradiogroup	.text	2875	Label	2875	12749 
L_lib_lcd_larsix_17	.text	1872	Label	1872	7646 
L_larsix_32	.text	0665	Label	665	2031 
L_loadStoreByte_4	.text	297e	Label	297e	13070 
L_lib_lcd_larsix_18	.text	1891	Label	1891	7682 
L_larsix_33	.text	0678	Label	678	2056 
L_loadStoreByte_5	.text	2993	Label	2993	13096 
L_lib_lcd_larsix_19	.text	18a6	Label	18a6	7708 
L_larsix_34	.text	068d	Label	68d	2082 
L_loadStoreByte_6	.text	29fb	Label	29fb	13216 
loadByteSigned	.text	293e	Label	293e	12992 
L_larsix_35	.text	06ad	Label	6ad	2121 
L_lcd_thread_70	.text	13fd	Label	13fd	6312 
L_larsix_36	.text	0766	Label	766	2333 
L_soundtest_1	.data	07a4	Label	7a4	13241 
L_lcd_thread_71	.text	1410	Label	1410	6337 
L_larsix_37	.text	0775	Label	775	2353 
L_soundtest_2	.data	07ac	Label	7ac	13250 
_switches	.data	02ac	Label	2ac	2524 
L_larsix_38	.text	078a	Label	78a	2379 
L_soundtest_3	.text	2a10	Label	2a10	13257 
sendcommand	.text	1ee1	Label	1ee1	9831 
L_larsix_39	.text	07ea	Label	7ea	2497 
L_soundtest_4	.text	2b84	Label	2b84	13687 
L_soundtest_5	.text	2bcb	Label	2bcb	13776 
L_soundtest_6	.text	2c23	Label	2c23	13877 
L_soundtest_7	.text	2c2e	Label	2c2e	13892 
L_lib_lcd_50	.text	2375	Label	2375	11272 
L_soundtest_8	.text	2c39	Label	2c39	13907 
loadByteUnsigned	.text	28f1	Label	28f1	12899 
L_lib_lcd_51	.text	2480	Label	2480	11574 
L_lcd_thread_40	.text	0e86	Label	e86	4624 
L_soundtest_9	.text	2c48	Label	2c48	13925 
L_lib_lcd_52	.text	24d3	Label	24d3	11670 
L_lcd_thread_41	.text	0ec5	Label	ec5	4700 
L_lib_lcd_53	.text	2571	Label	2571	11848 
L_lcd_thread_42	.text	0edc	Label	edc	4729 
exit	.text	2df3	Label	2df3	14468 
L_lib_lcd_54	.text	2580	Label	2580	11868 
L_lcd_thread_43	.text	0ef3	Label	ef3	4758 
L_lib_lcd_55	.text	2595	Label	2595	11894 
L_lcd_thread_44	.text	0f0a	Label	f0a	4787 
L_lib_lcd_56	.text	2611	Label	2611	12040 
L_lcd_thread_45	.text	0f21	Label	f21	4816 
L_lib_lcd_57	.text	2626	Label	2626	12066 
getbytes	.text	1c7e	Label	1c7e	9014 
L_lcd_thread_46	.text	0f30	Label	f30	4836 
thread0	.text	0563	Label	563	1712 
L_lib_lcd_58	.text	26fd	Label	26fd	12312 
L_lib_lcd_20	.text	1c69	Label	1c69	8989 
L_lcd_thread_47	.text	0f3f	Label	f3f	4856 
thread1	.text	05e7	Label	5e7	1876 
L_lib_lcd_59	.text	2712	Label	2712	12338 
L_lib_lcd_21	.text	1c7e	Label	1c7e	9015 
L_lcd_thread_48	.text	0f52	Label	f52	4881 
L_lcd_thread_10	.text	07ff	Label	7ff	2651 
thread2	.text	061c	Label	61c	1941 
L_lib_lcd_22	.text	1d45	Label	1d45	9277 
L_lcd_thread_49	.text	0f67	Label	f67	4907 
L_lcd_thread_11	.text	081f	Label	81f	2690 
thread3	.text	0651	Label	651	2006 
L_lib_lcd_23	.text	1d96	Label	1d96	9401 
L_lcd_thread_12	.text	084a	Label	84a	2743 
L_lib_lcd_24	.text	1dae	Label	1dae	9429 
L_lcd_thread_13	.text	08d1	Label	8d1	2904 
initialize	.text	068d	Label	68d	2081 
L_lib_lcd_25	.text	1dfc	Label	1dfc	9524 
L_lib_lcd_larsix_20	.text	1965	Label	1965	7928 
L_lcd_thread_14	.text	08dc	Label	8dc	2918 
soundtest	.text	2a10	Label	2a10	13256 
L_lib_lcd_26	.text	1e1e	Label	1e1e	9569 
L_lcd_thread_15	.text	08f4	Label	8f4	2946 
L_lib_lcd_27	.text	1ea6	Label	1ea6	9759 
L_lcd_thread_16	.text	0933	Label	933	3022 
L_lib_lcd_28	.text	1ec1	Label	1ec1	9792 
checkbuffer	.text	1aea	Label	1aea	8429 
L_lcd_thread_17	.text	0942	Label	942	3042 
L_lib_lcd_29	.text	1ecc	Label	1ecc	9806 
L_lcd_thread_18	.text	09a5	Label	9a5	3161 
L_lcd_thread_19	.text	09b4	Label	9b4	3181 
g_drawline	.text	2303	Label	2303	11135 
_threadDummyRegisters	.data	0230	Label	230	724 
_threadRegisters	.data	005c	Label	5c	716 
g_makeswitch	.text	2626	Label	2626	12065 
t_cursor	.text	21ba	Label	21ba	10742 
L_larsix_10	.text	0299	Label	299	909 
_threadCurrent	.data	022c	Label	22c	720 
L_larsix_11	.text	02a8	Label	2a8	926 
L_larsix_12	.text	02b7	Label	2b7	943 
L_larsix_13	.text	02e2	Label	2e2	995 
getNextThread	.text	02fe	Label	2fe	1029 
L_larsix_14	.text	02e9	Label	2e9	1004 
L_lib_lcd_60	.text	280e	Label	280e	12625 
L_larsix_15	.text	02fe	Label	2fe	1030 
L_lib_lcd_61	.text	2851	Label	2851	12704 
L_lib_lcd_larsix_1	.data	0798	Label	798	6363 
L_lcd_thread_50	.text	0fe3	Label	fe3	5053 
_activeswitches	.data	0730	Label	730	2536 
L_larsix_16	.text	0336	Label	336	1096 
L_lib_lcd_62	.text	2860	Label	2860	12724 
L_lib_lcd_larsix_2	.data	079c	Label	79c	6366 
L_lcd_thread_51	.text	1012	Label	1012	5110 
L_larsix_17	.text	0341	Label	341	1111 
L_lib_lcd_63	.text	2875	Label	2875	12750 
L_lib_lcd_larsix_3	.text	1425	Label	1425	6372 
L_lcd_thread_52	.text	10a1	Label	10a1	5283 
L_larsix_18	.text	0348	Label	348	1120 
L_lib_lcd_64	.text	28d9	Label	28d9	12868 
L_lib_lcd_larsix_4	.text	146e	Label	146e	6454 
L_lcd_thread_53	.text	10b0	Label	10b0	5303 
L_larsix_19	.text	035d	Label	35d	1146 
L_lib_lcd_larsix_5	.text	1489	Label	1489	6487 
L_lcd_thread_54	.text	10d0	Label	10d0	5340 
g_print	.text	2233	Label	2233	10886 
L_lib_lcd_larsix_6	.text	14a0	Label	14a0	6516 
L_lcd_thread_55	.text	1114	Label	1114	5420 
L_lib_lcd_larsix_7	.text	14c7	Label	14c7	6562 
L_lcd_thread_56	.text	1158	Label	1158	5500 
L_lib_lcd_30	.text	1ee1	Label	1ee1	9832 
L_lib_lcd_larsix_8	.text	14eb	Label	14eb	6605 
L_lcd_thread_57	.text	1198	Label	1198	5577 
L_lib_lcd_31	.text	1f2a	Label	1f2a	9914 
L_lib_lcd_larsix_9	.text	164c	Label	164c	7005 
L_lcd_thread_58	.text	11f7	Label	11f7	5692 
L_lcd_thread_20	.text	0a1c	Label	a1c	3302 
t_print	.text	2139	Label	2139	10588 
L_lib_lcd_32	.text	2014	Label	2014	10221 
L_lib_lcd_1	.data	07a0	Label	7a0	7954 
L_lcd_thread_59	.text	122f	Label	122f	5758 
L_lcd_thread_21	.text	0a48	Label	a48	3354 
intToStr	.text	0020	Label	20	46 
L_lib_lcd_33	.text	2033	Label	2033	10258 
L_lib_lcd_2	.text	197a	Label	197a	7960 
L_lcd_thread_22	.text	0a8d	Label	a8d	3431 
L_lib_lcd_34	.text	2070	Label	2070	10334 
L_lib_lcd_3	.text	199e	Label	199e	8004 
create_switch	.text	1425	Label	1425	6371 
L_lcd_thread_23	.text	0aa9	Label	aa9	3464 
L_lib_lcd_35	.text	2097	Label	2097	10381 
L_lib_lcd_4	.text	19d9	Label	19d9	8076 
L_lcd_thread_24	.text	0ab8	Label	ab8	3484 
_bars	.data	06ac	Label	6ac	2528 
L_lib_lcd_36	.text	20e0	Label	20e0	10474 
L_lib_lcd_5	.text	19ec	Label	19ec	8099 
L_lcd_thread_25	.text	0af0	Label	af0	3550 
_activebars	.data	072c	Label	72c	2532 
L_lib_lcd_37	.text	2115	Label	2115	10543 
L_lib_lcd_6	.text	19f7	Label	19f7	8113 
L_lcd_thread_26	.text	0b20	Label	b20	3606 
L_soundtest_10	.text	2c53	Label	2c53	13940 
L_lib_lcd_38	.text	2124	Label	2124	10563 
L_lib_lcd_7	.text	1a0c	Label	1a0c	8139 
L_lcd_thread_27	.text	0b2f	Label	b2f	3626 
_threadStackStart	.data	0000	Label	0	634 
L_soundtest_11	.text	2c7d	Label	2c7d	13996 
L_lib_lcd_39	.text	2139	Label	2139	10589 
L_lib_lcd_8	.text	1a28	Label	1a28	8173 
L_lcd_thread_28	.text	0b92	Label	b92	3745 
L_soundtest_12	.text	2ca7	Label	2ca7	14052 
L_lib_lcd_9	.text	1a3f	Label	1a3f	8200 
wait	.text	1a0c	Label	1a0c	8138 
L_lcd_thread_29	.text	0ba1	Label	ba1	3765 
L_soundtest_13	.text	2cb2	Label	2cb2	14065 
L_soundtest_14	.text	2d4b	Label	2d4b	14261 
L_soundtest_15	.text	2d60	Label	2d60	14287 
L_intToStr_10	.text	01f2	Label	1f2	607 
L_soundtest_16	.text	2d74	Label	2d74	14311 
L_intToStr_1	.text	0020	Label	20	47 
L_soundtest_17	.text	2ddd	Label	2ddd	14443 
L_intToStr_2	.text	006e	Label	6e	139 
g_makebar	.text	2338	Label	2338	11200 
L_intToStr_3	.text	00a6	Label	a6	206 
getack	.text	1a5f	Label	1a5f	8239 
L_intToStr_4	.text	00c1	Label	c1	239 
L_larsix_20	.text	0391	Label	391	1207 
L_intToStr_5	.text	00e8	Label	e8	288 
L_larsix_21	.text	03a4	Label	3a4	1229 
L_intToStr_6	.text	0103	Label	103	321 
L_larsix_22	.text	03cf	Label	3cf	1280 
L_intToStr_7	.text	0157	Label	157	421 
test_poll	.text	0f67	Label	f67	4906 
L_lcd_thread_1	.data	0734	Label	734	2538 
L_larsix_23	.text	054e	Label	54e	1687 
L_intToStr_8	.text	0172	Label	172	454 
L_lcd_thread_2	.data	0739	Label	739	2544 
L_larsix_24	.text	0563	Label	563	1713 
L_intToStr_9	.text	01c2	Label	1c2	549 
L_lcd_thread_3	.data	073b	Label	73b	2547 
L_larsix_25	.text	05bf	Label	5bf	1826 
L_lcd_thread_60	.text	1242	Label	1242	5781 
L_lcd_thread_4	.data	073d	Label	73d	2550 
L_larsix_26	.text	05d2	Label	5d2	1851 
L_lcd_thread_61	.text	1251	Label	1251	5800 
L_lcd_thread_5	.data	073f	Label	73f	2553 
L_larsix_27	.text	05e7	Label	5e7	1877 
switchThread	.text	035d	Label	35d	1145 
L_lcd_thread_62	.text	1260	Label	1260	5820 
L_lcd_thread_6	.data	0763	Label	763	2590 
L_larsix_28	.text	0607	Label	607	1916 
create_menu_switch	.text	1661	Label	1661	7030 
L_lcd_thread_63	.text	1280	Label	1280	5857 
L_lcd_thread_7	.data	0787	Label	787	2627 
L_larsix_29	.text	061c	Label	61c	1942 
L_larsix_1	.data	0010	Label	10	639 
L_lcd_thread_64	.text	12c4	Label	12c4	5937 
L_lcd_thread_8	.data	078c	Label	78c	2633 
L_larsix_2	.data	0048	Label	48	696 
L_lcd_thread_65	.text	1308	Label	1308	6017 
L_lcd_thread_9	.data	0792	Label	792	2640 
L_larsix_3	.text	0207	Label	207	730 
g_drawrect	.text	22ce	Label	22ce	11070 
L_lcd_thread_66	.text	1348	Label	1348	6094 
L_larsix_4	.text	022f	Label	22f	778 
L_lib_lcd_40	.text	21a5	Label	21a5	10717 
strlength	.text	197a	Label	197a	7959 
L_lcd_thread_67	.text	13a3	Label	13a3	6204 
L_larsix_5	.text	0246	Label	246	807 
L_lib_lcd_41	.text	21ba	Label	21ba	10743 
L_lcd_thread_68	.text	13db	Label	13db	6270 
L_lcd_thread_30	.text	0c07	Label	c07	3882 
L_larsix_6	.text	025d	Label	25d	836 
determineStartAddress	.text	0207	Label	207	729 
L_lib_lcd_42	.text	221e	Label	221e	10861 
L_lcd_thread_69	.text	13ee	Label	13ee	6293 
L_lcd_thread_31	.text	0c22	Label	c22	3914 
L_larsix_7	.text	0274	Label	274	865 
g_makemenubutton	.text	2712	Label	2712	12337 
L_lib_lcd_43	.text	2233	Label	2233	10887 
L_lcd_thread_32	.text	0c87	Label	c87	4028 
L_larsix_8	.text	0283	Label	283	882 
L_lib_lcd_44	.text	22b9	Label	22b9	11045 
L_lcd_thread_33	.text	0c9a	Label	c9a	4051 
L_larsix_9	.text	028e	Label	28e	895 
L_lib_lcd_45	.text	22ce	Label	22ce	11071 
L_lcd_thread_34	.text	0cfd	Label	cfd	4164 
L_lib_lcd_46	.text	22ee	Label	22ee	11110 
L_lcd_thread_35	.text	0d08	Label	d08	4179 
L_lib_lcd_47	.text	2303	Label	2303	11136 
L_lcd_thread_36	.text	0d13	Label	d13	4192 
L_lib_lcd_48	.text	2323	Label	2323	11175 
L_lib_lcd_10	.text	1a4a	Label	1a4a	8214 
create_bar	.text	18a6	Label	18a6	7707 
L_lcd_thread_37	.text	0d5c	Label	d5c	4273 
L_lib_lcd_49	.text	2338	Label	2338	11201 
L_lib_lcd_11	.text	1a5f	Label	1a5f	8240 
L_lcd_thread_38	.text	0dbf	Label	dbf	4392 
L_lib_lcd_12	.text	1ab7	Label	1ab7	8364 
L_lcd_thread_39	.text	0dce	Label	dce	4412 
L_lib_lcd_13	.text	1ac6	Label	1ac6	8384 
L_lib_lcd_14	.text	1ad5	Label	1ad5	8404 
L_lib_lcd_15	.text	1aea	Label	1aea	8430 
L_lib_lcd_larsix_10	.text	1661	Label	1661	7031 
main	.text	078a	Label	78a	2378 
L_lib_lcd_16	.text	1b70	Label	1b70	8618 
L_lib_lcd_larsix_11	.text	16cb	Label	16cb	7155 
countertest	.text	2d60	Label	2d60	14286 
storeByte	.text	2993	Label	2993	13095 
L_lib_lcd_17	.text	1bea	Label	1bea	8805 
L_lib_lcd_larsix_12	.text	1707	Label	1707	7227 
poll_display	.text	07ff	Label	7ff	2650 
L_lib_lcd_18	.text	1c47	Label	1c47	8946 
L_lib_lcd_larsix_13	.text	1716	Label	1716	7246 
g_setbar	.text	2595	Label	2595	11893 
L_lib_lcd_19	.text	1c5e	Label	1c5e	8975 
L_lib_lcd_larsix_14	.text	172d	Label	172d	7275 
L_loadStoreByte_1	.text	28f1	Label	28f1	12900 
L_lib_lcd_larsix_15	.text	173c	Label	173c	7295 
L_larsix_30	.text	063c	Label	63c	1981 


Undefined Symbol
name   	section	lc     	attr   	value  	lineno 


Multiple Defined Symbol
name   	section	lc     	attr   	value  	lineno 


******* Section Data List ******* 
Sec	Attr		Size
.text 	Writable 	2df5 
addr_space : 16 
addressing : Word 
bitwidth per byte : 8 
word alignment : 4 
.data 	Data		7ae 
addr_space : 16 
addressing : Byte 
bitwidth per byte : 8 
word alignment : 4 
