****** Source Program List ******
LineNo	LC	Code		Source Program 
1				.section	.data
2				.section	.text
3				.addressing	Word
4				.section	.text
5				.addressing	Word
6				;.addressing	Word
7			
8	0000	03def026		xor	%GPR30, %GPR30, %GPR30
9	0001	03bde826		xor	%GPR29, %GPR29, %GPR29
10	0002	039ce026		xor	%GPR28, %GPR28, %GPR28
11	0003	00000000		nop
12	0004	3c1e000f		lhi	%GPR30, $(0xFFFFC/0x10000)
13	0005	3c1d000f		lhi	%GPR29, $(0xFFFFC/0x10000)
14	0006	00000000		nop
15	0007	00000000		nop
16	0008	37defffc		ori	%GPR30, %GPR30, $(0xFFFFC%0x10000)
17	0009	37bdfffc		ori	%GPR29, %GPR29, $(0xFFFFC%0x10000)
18	000a	00000000		nop
19	000b	00000000		nop
20	000c	00000000		nop
21	000d	afbefffc		sw	-4(%GPR29), %GPR30
22	000e	afbffff8		sw	-8(%GPR29), %GPR31
23	000f	23ddfff8		addi	%GPR29, %GPR30, $-8
24	0010	00000000		nop
25	0011	00000000		nop
26	0012	00000000		nop
27	0013	0c0015b6		jal	main	
28	0014	00000000		nop
29	0015	00000000		nop
30	0016	00000000		nop
31	0017	00000000		nop
32	0018	00000000		nop
33	0019	afa10000		sw	0(%GPR29), %GPR1
34	001a	0c0017fe		jal	exit
35	001b	00000000		nop
36	001c	00000000		nop
37			
38				;.addressing	Word
39	001d	00000000		nop	; Automatically Added by addNops.pl
40	001e	00000000		nop	; Automatically Added by addNops.pl
41	001f	00000000		nop	; Automatically Added by addNops.pl
42			intToStr:
43			L_intToStr_1:
44	0020	00000000		nop	; Automatically Added by addNops.pl
45	0021	00000000		nop	; Automatically Added by addNops.pl
46	0022	00000000		nop	; Automatically Added by addNops.pl
47				; Automatically 16 NOPs removed by reduceNOPs.sh
48	0023	afbefffc		sw	-4(%GPR29),%GPR30	
49	0024	00000000		nop	; Automatically Added by addNops.pl
50	0025	00000000		nop	; Automatically Added by addNops.pl
51	0026	00000000		nop	; Automatically Added by addNops.pl
52	0027	00000000		nop	; Automatically added by fix-stall-insns.pl
53	0028	afbf0000		sw	0(%GPR29),%GPR31	
54	0029	00000000		nop	; Automatically Added by addNops.pl
55	002a	00000000		nop	; Automatically Added by addNops.pl
56	002b	00000000		nop	; Automatically Added by addNops.pl
57	002c	2fbe0004		subui	%GPR30,%GPR29,$4	
58	002d	00000000		nop	; Automatically Added by addNops.pl
59	002e	00000000		nop	; Automatically Added by addNops.pl
60	002f	00000000		nop	; Automatically Added by addNops.pl
61				; Automatically 4 NOPs removed by reduceNOPs.sh
62	0030	2bbd0038		subi	%GPR29,%GPR29,$56	
63	0031	00000000		nop	; Automatically Added by addNops.pl
64	0032	00000000		nop	; Automatically Added by addNops.pl
65	0033	00000000		nop	; Automatically Added by addNops.pl
66				; Automatically 16 NOPs removed by reduceNOPs.sh
67	0034	afc1ffdc		sw	-36(%GPR30),%GPR1	
68	0035	00000000		nop	; Automatically Added by addNops.pl
69	0036	00000000		nop	; Automatically Added by addNops.pl
70	0037	00000000		nop	; Automatically Added by addNops.pl
71	0038	00000000		nop	; Automatically added by fix-stall-insns.pl
72	0039	afc2ffd8		sw	-40(%GPR30),%GPR2	
73	003a	00000000		nop	; Automatically Added by addNops.pl
74	003b	00000000		nop	; Automatically Added by addNops.pl
75	003c	00000000		nop	; Automatically Added by addNops.pl
76				; Automatically 32 NOPs removed by reduceNOPs.sh
77	003d	3c020000		lhi	%GPR2,$0	
78	003e	00000000		nop	; Automatically Added by addNops.pl
79	003f	00000000		nop	; Automatically Added by addNops.pl
80	0040	00000000		nop	; Automatically Added by addNops.pl
81				; Automatically 16 NOPs removed by reduceNOPs.sh
82	0041	34420000		ori	%GPR2,%GPR2,$0	
83	0042	00000000		nop	; Automatically Added by addNops.pl
84	0043	00000000		nop	; Automatically Added by addNops.pl
85	0044	00000000		nop	; Automatically Added by addNops.pl
86				; Automatically 8 NOPs removed by reduceNOPs.sh
87	0045	3c010000		lhi	%GPR1,$0	
88	0046	00000000		nop	; Automatically Added by addNops.pl
89	0047	00000000		nop	; Automatically Added by addNops.pl
90	0048	00000000		nop	; Automatically Added by addNops.pl
91				; Automatically 16 NOPs removed by reduceNOPs.sh
92	0049	34210000		ori	%GPR1,%GPR1,$0	
93	004a	00000000		nop	; Automatically Added by addNops.pl
94	004b	00000000		nop	; Automatically Added by addNops.pl
95	004c	00000000		nop	; Automatically Added by addNops.pl
96				; Automatically 8 NOPs removed by reduceNOPs.sh
97	004d	afc2ffd4		sw	-44(%GPR30),%GPR2	
98	004e	00000000		nop	; Automatically Added by addNops.pl
99	004f	00000000		nop	; Automatically Added by addNops.pl
100	0050	00000000		nop	; Automatically Added by addNops.pl
101	0051	3c020000		lhi	%GPR2,$0	
102	0052	00000000		nop	; Automatically Added by addNops.pl
103	0053	00000000		nop	; Automatically Added by addNops.pl
104	0054	00000000		nop	; Automatically Added by addNops.pl
105				; Automatically 16 NOPs removed by reduceNOPs.sh
106	0055	34420000		ori	%GPR2,%GPR2,$0	
107	0056	00000000		nop	; Automatically Added by addNops.pl
108	0057	00000000		nop	; Automatically Added by addNops.pl
109	0058	00000000		nop	; Automatically Added by addNops.pl
110				; Automatically 16 NOPs removed by reduceNOPs.sh
111	0059	afc2ffd0		sw	-48(%GPR30),%GPR2	
112	005a	00000000		nop	; Automatically Added by addNops.pl
113	005b	00000000		nop	; Automatically Added by addNops.pl
114	005c	00000000		nop	; Automatically Added by addNops.pl
115	005d	00000000		nop	; Automatically added by fix-stall-insns.pl
116	005e	8fc2ffdc		lw	%GPR2,-36(%GPR30)	
117	005f	00000000		nop	; Automatically Added by addNops.pl
118	0060	00000000		nop	; Automatically Added by addNops.pl
119	0061	00000000		nop	; Automatically Added by addNops.pl
120				; Automatically 16 NOPs removed by reduceNOPs.sh
121	0062	0041d82a		slt	%GPR27,%GPR2,%GPR1	
122	0063	00000000		nop	; Automatically Added by addNops.pl
123	0064	00000000		nop	; Automatically Added by addNops.pl
124	0065	00000000		nop	; Automatically Added by addNops.pl
125	0066	17600008		bnez	%GPR27,L_intToStr_2	
126	0067	00000000		nop	; Automatically Added by addNops.pl
127	0068	00000000		nop	; Automatically Added by addNops.pl
128	0069	00000000		nop	; Automatically Added by addNops.pl
129				; Automatically 16 NOPs removed by reduceNOPs.sh
130	006a	0800003c		j	L_intToStr_3	
131	006b	00000000		nop	; Automatically Added by addNops.pl
132	006c	00000000		nop	; Automatically Added by addNops.pl
133	006d	00000000		nop	; Automatically Added by addNops.pl
134				; Automatically 16 NOPs removed by reduceNOPs.sh
135			L_intToStr_2:
136	006e	00000000		nop	; Automatically Added by addNops.pl
137	006f	00000000		nop	; Automatically Added by addNops.pl
138	0070	00000000		nop	; Automatically Added by addNops.pl
139	0071	8fc1ffdc		lw	%GPR1,-36(%GPR30)	
140	0072	00000000		nop	; Automatically Added by addNops.pl
141	0073	00000000		nop	; Automatically Added by addNops.pl
142	0074	00000000		nop	; Automatically Added by addNops.pl
143				; Automatically 16 NOPs removed by reduceNOPs.sh
144	0075	00010822		sub	%GPR1,%GPR0,%GPR1	
145	0076	00000000		nop	; Automatically Added by addNops.pl
146	0077	00000000		nop	; Automatically Added by addNops.pl
147	0078	00000000		nop	; Automatically Added by addNops.pl
148	0079	3c020000		lhi	%GPR2,$0	
149	007a	00000000		nop	; Automatically Added by addNops.pl
150	007b	00000000		nop	; Automatically Added by addNops.pl
151	007c	00000000		nop	; Automatically Added by addNops.pl
152				; Automatically 16 NOPs removed by reduceNOPs.sh
153	007d	3442002d		ori	%GPR2,%GPR2,$45	
154	007e	00000000		nop	; Automatically Added by addNops.pl
155	007f	00000000		nop	; Automatically Added by addNops.pl
156	0080	00000000		nop	; Automatically Added by addNops.pl
157				; Automatically 12 NOPs removed by reduceNOPs.sh
158	0081	afc1ffdc		sw	-36(%GPR30),%GPR1	
159	0082	00000000		nop	; Automatically Added by addNops.pl
160	0083	00000000		nop	; Automatically Added by addNops.pl
161	0084	00000000		nop	; Automatically Added by addNops.pl
162	0085	00000000		nop	; Automatically added by fix-stall-insns.pl
163	0086	8fc1ffd8		lw	%GPR1,-40(%GPR30)	
164	0087	00000000		nop	; Automatically Added by addNops.pl
165	0088	00000000		nop	; Automatically Added by addNops.pl
166	0089	00000000		nop	; Automatically Added by addNops.pl
167				; Automatically 16 NOPs removed by reduceNOPs.sh
168	008a	2bbd0008		subi	%GPR29,%GPR29,$8	
169	008b	00000000		nop	; Automatically Added by addNops.pl
170	008c	00000000		nop	; Automatically Added by addNops.pl
171	008d	00000000		nop	; Automatically Added by addNops.pl
172				; Automatically 16 NOPs removed by reduceNOPs.sh
173	008e	0c0013fb		jal	storeByte	
174	008f	00000000		nop	; Automatically Added by addNops.pl
175	0090	00000000		nop	; Automatically Added by addNops.pl
176	0091	00000000		nop	; Automatically Added by addNops.pl
177				; Automatically 16 NOPs removed by reduceNOPs.sh
178	0092	23bd0008		addi	%GPR29,%GPR29,$8	
179	0093	00000000		nop	; Automatically Added by addNops.pl
180	0094	00000000		nop	; Automatically Added by addNops.pl
181	0095	00000000		nop	; Automatically Added by addNops.pl
182				; Automatically 16 NOPs removed by reduceNOPs.sh
183	0096	8fc1ffd4		lw	%GPR1,-44(%GPR30)	
184	0097	00000000		nop	; Automatically Added by addNops.pl
185	0098	00000000		nop	; Automatically Added by addNops.pl
186	0099	00000000		nop	; Automatically Added by addNops.pl
187				; Automatically 16 NOPs removed by reduceNOPs.sh
188	009a	20210001		addi	%GPR1,%GPR1,$1	
189	009b	00000000		nop	; Automatically Added by addNops.pl
190	009c	00000000		nop	; Automatically Added by addNops.pl
191	009d	00000000		nop	; Automatically Added by addNops.pl
192				; Automatically 16 NOPs removed by reduceNOPs.sh
193	009e	afc1ffd4		sw	-44(%GPR30),%GPR1	
194	009f	00000000		nop	; Automatically Added by addNops.pl
195	00a0	00000000		nop	; Automatically Added by addNops.pl
196	00a1	00000000		nop	; Automatically Added by addNops.pl
197	00a2	08000046		j	L_intToStr_5	
198	00a3	00000000		nop	; Automatically Added by addNops.pl
199	00a4	00000000		nop	; Automatically Added by addNops.pl
200	00a5	00000000		nop	; Automatically Added by addNops.pl
201				; Automatically 12 NOPs removed by reduceNOPs.sh
202			L_intToStr_3:
203	00a6	00000000		nop	; Automatically Added by addNops.pl
204	00a7	00000000		nop	; Automatically Added by addNops.pl
205	00a8	00000000		nop	; Automatically Added by addNops.pl
206	00a9	8fc2ffdc		lw	%GPR2,-36(%GPR30)	
207	00aa	00000000		nop	; Automatically Added by addNops.pl
208	00ab	00000000		nop	; Automatically Added by addNops.pl
209	00ac	00000000		nop	; Automatically Added by addNops.pl
210				; Automatically 12 NOPs removed by reduceNOPs.sh
211	00ad	3c010000		lhi	%GPR1,$0	
212	00ae	00000000		nop	; Automatically Added by addNops.pl
213	00af	00000000		nop	; Automatically Added by addNops.pl
214	00b0	00000000		nop	; Automatically Added by addNops.pl
215				; Automatically 16 NOPs removed by reduceNOPs.sh
216	00b1	34210000		ori	%GPR1,%GPR1,$0	
217	00b2	00000000		nop	; Automatically Added by addNops.pl
218	00b3	00000000		nop	; Automatically Added by addNops.pl
219	00b4	00000000		nop	; Automatically Added by addNops.pl
220				; Automatically 16 NOPs removed by reduceNOPs.sh
221	00b5	0041d82e		seq	%GPR27,%GPR2,%GPR1	
222	00b6	00000000		nop	; Automatically Added by addNops.pl
223	00b7	00000000		nop	; Automatically Added by addNops.pl
224	00b8	00000000		nop	; Automatically Added by addNops.pl
225	00b9	17600008		bnez	%GPR27,L_intToStr_4	
226	00ba	00000000		nop	; Automatically Added by addNops.pl
227	00bb	00000000		nop	; Automatically Added by addNops.pl
228	00bc	00000000		nop	; Automatically Added by addNops.pl
229				; Automatically 16 NOPs removed by reduceNOPs.sh
230	00bd	08000046		j	L_intToStr_6	
231	00be	00000000		nop	; Automatically Added by addNops.pl
232	00bf	00000000		nop	; Automatically Added by addNops.pl
233	00c0	00000000		nop	; Automatically Added by addNops.pl
234				; Automatically 16 NOPs removed by reduceNOPs.sh
235			L_intToStr_4:
236	00c1	00000000		nop	; Automatically Added by addNops.pl
237	00c2	00000000		nop	; Automatically Added by addNops.pl
238	00c3	00000000		nop	; Automatically Added by addNops.pl
239	00c4	8fc1ffd8		lw	%GPR1,-40(%GPR30)	
240	00c5	00000000		nop	; Automatically Added by addNops.pl
241	00c6	00000000		nop	; Automatically Added by addNops.pl
242	00c7	00000000		nop	; Automatically Added by addNops.pl
243				; Automatically 12 NOPs removed by reduceNOPs.sh
244	00c8	3c020000		lhi	%GPR2,$0	
245	00c9	00000000		nop	; Automatically Added by addNops.pl
246	00ca	00000000		nop	; Automatically Added by addNops.pl
247	00cb	00000000		nop	; Automatically Added by addNops.pl
248				; Automatically 16 NOPs removed by reduceNOPs.sh
249	00cc	34420030		ori	%GPR2,%GPR2,$48	
250	00cd	00000000		nop	; Automatically Added by addNops.pl
251	00ce	00000000		nop	; Automatically Added by addNops.pl
252	00cf	00000000		nop	; Automatically Added by addNops.pl
253				; Automatically 16 NOPs removed by reduceNOPs.sh
254	00d0	2bbd0008		subi	%GPR29,%GPR29,$8	
255	00d1	00000000		nop	; Automatically Added by addNops.pl
256	00d2	00000000		nop	; Automatically Added by addNops.pl
257	00d3	00000000		nop	; Automatically Added by addNops.pl
258				; Automatically 16 NOPs removed by reduceNOPs.sh
259	00d4	0c0013b5		jal	storeByte	
260	00d5	00000000		nop	; Automatically Added by addNops.pl
261	00d6	00000000		nop	; Automatically Added by addNops.pl
262	00d7	00000000		nop	; Automatically Added by addNops.pl
263				; Automatically 16 NOPs removed by reduceNOPs.sh
264	00d8	23bd0008		addi	%GPR29,%GPR29,$8	
265	00d9	00000000		nop	; Automatically Added by addNops.pl
266	00da	00000000		nop	; Automatically Added by addNops.pl
267	00db	00000000		nop	; Automatically Added by addNops.pl
268				; Automatically 16 NOPs removed by reduceNOPs.sh
269	00dc	8fc1ffd4		lw	%GPR1,-44(%GPR30)	
270	00dd	00000000		nop	; Automatically Added by addNops.pl
271	00de	00000000		nop	; Automatically Added by addNops.pl
272	00df	00000000		nop	; Automatically Added by addNops.pl
273				; Automatically 16 NOPs removed by reduceNOPs.sh
274	00e0	20210001		addi	%GPR1,%GPR1,$1	
275	00e1	00000000		nop	; Automatically Added by addNops.pl
276	00e2	00000000		nop	; Automatically Added by addNops.pl
277	00e3	00000000		nop	; Automatically Added by addNops.pl
278				; Automatically 16 NOPs removed by reduceNOPs.sh
279	00e4	afc1ffd4		sw	-44(%GPR30),%GPR1	
280	00e5	00000000		nop	; Automatically Added by addNops.pl
281	00e6	00000000		nop	; Automatically Added by addNops.pl
282	00e7	00000000		nop	; Automatically Added by addNops.pl
283				; Automatically 12 NOPs removed by reduceNOPs.sh
284			L_intToStr_5:
285	00e8	00000000		nop	; Automatically Added by addNops.pl
286	00e9	00000000		nop	; Automatically Added by addNops.pl
287	00ea	00000000		nop	; Automatically Added by addNops.pl
288	00eb	8fc2ffdc		lw	%GPR2,-36(%GPR30)	
289	00ec	00000000		nop	; Automatically Added by addNops.pl
290	00ed	00000000		nop	; Automatically Added by addNops.pl
291	00ee	00000000		nop	; Automatically Added by addNops.pl
292				; Automatically 12 NOPs removed by reduceNOPs.sh
293	00ef	3c010000		lhi	%GPR1,$0	
294	00f0	00000000		nop	; Automatically Added by addNops.pl
295	00f1	00000000		nop	; Automatically Added by addNops.pl
296	00f2	00000000		nop	; Automatically Added by addNops.pl
297				; Automatically 16 NOPs removed by reduceNOPs.sh
298	00f3	34210000		ori	%GPR1,%GPR1,$0	
299	00f4	00000000		nop	; Automatically Added by addNops.pl
300	00f5	00000000		nop	; Automatically Added by addNops.pl
301	00f6	00000000		nop	; Automatically Added by addNops.pl
302				; Automatically 16 NOPs removed by reduceNOPs.sh
303	00f7	0041d82f		sne	%GPR27,%GPR2,%GPR1	
304	00f8	00000000		nop	; Automatically Added by addNops.pl
305	00f9	00000000		nop	; Automatically Added by addNops.pl
306	00fa	00000000		nop	; Automatically Added by addNops.pl
307	00fb	17600008		bnez	%GPR27,L_intToStr_6	
308	00fc	00000000		nop	; Automatically Added by addNops.pl
309	00fd	00000000		nop	; Automatically Added by addNops.pl
310	00fe	00000000		nop	; Automatically Added by addNops.pl
311				; Automatically 16 NOPs removed by reduceNOPs.sh
312	00ff	08000058		j	L_intToStr_7	
313	0100	00000000		nop	; Automatically Added by addNops.pl
314	0101	00000000		nop	; Automatically Added by addNops.pl
315	0102	00000000		nop	; Automatically Added by addNops.pl
316				; Automatically 16 NOPs removed by reduceNOPs.sh
317			L_intToStr_6:
318	0103	00000000		nop	; Automatically Added by addNops.pl
319	0104	00000000		nop	; Automatically Added by addNops.pl
320	0105	00000000		nop	; Automatically Added by addNops.pl
321	0106	2bc10020		subi	%GPR1,%GPR30,$32	
322	0107	00000000		nop	; Automatically Added by addNops.pl
323	0108	00000000		nop	; Automatically Added by addNops.pl
324	0109	00000000		nop	; Automatically Added by addNops.pl
325	010a	8fc3ffd0		lw	%GPR3,-48(%GPR30)	
326	010b	00000000		nop	; Automatically Added by addNops.pl
327	010c	00000000		nop	; Automatically Added by addNops.pl
328	010d	00000000		nop	; Automatically Added by addNops.pl
329				; Automatically 16 NOPs removed by reduceNOPs.sh
330	010e	00230820		add	%GPR1,%GPR1,%GPR3	
331	010f	00000000		nop	; Automatically Added by addNops.pl
332	0110	00000000		nop	; Automatically Added by addNops.pl
333	0111	00000000		nop	; Automatically Added by addNops.pl
334	0112	3c020000		lhi	%GPR2,$0	
335	0113	00000000		nop	; Automatically Added by addNops.pl
336	0114	00000000		nop	; Automatically Added by addNops.pl
337	0115	00000000		nop	; Automatically Added by addNops.pl
338				; Automatically 16 NOPs removed by reduceNOPs.sh
339	0116	3442000a		ori	%GPR2,%GPR2,$10	
340	0117	00000000		nop	; Automatically Added by addNops.pl
341	0118	00000000		nop	; Automatically Added by addNops.pl
342	0119	00000000		nop	; Automatically Added by addNops.pl
343	011a	8fc3ffdc		lw	%GPR3,-36(%GPR30)	
344	011b	00000000		nop	; Automatically Added by addNops.pl
345	011c	00000000		nop	; Automatically Added by addNops.pl
346	011d	00000000		nop	; Automatically Added by addNops.pl
347				; Automatically 16 NOPs removed by reduceNOPs.sh
348	011e	0062101c		MOD	%GPR2,%GPR3,%GPR2	
349	011f	00000000		nop	; Automatically Added by addNops.pl
350	0120	00000000		nop	; Automatically Added by addNops.pl
351	0121	00000000		nop	; Automatically Added by addNops.pl
352				; Automatically 16 NOPs removed by reduceNOPs.sh
353	0122	20420030		addi	%GPR2,%GPR2,$48	
354	0123	00000000		nop	; Automatically Added by addNops.pl
355	0124	00000000		nop	; Automatically Added by addNops.pl
356	0125	00000000		nop	; Automatically Added by addNops.pl
357				; Automatically 16 NOPs removed by reduceNOPs.sh
358	0126	2bbd0008		subi	%GPR29,%GPR29,$8	
359	0127	00000000		nop	; Automatically Added by addNops.pl
360	0128	00000000		nop	; Automatically Added by addNops.pl
361	0129	00000000		nop	; Automatically Added by addNops.pl
362				; Automatically 16 NOPs removed by reduceNOPs.sh
363	012a	0c00135f		jal	storeByte	
364	012b	00000000		nop	; Automatically Added by addNops.pl
365	012c	00000000		nop	; Automatically Added by addNops.pl
366	012d	00000000		nop	; Automatically Added by addNops.pl
367				; Automatically 16 NOPs removed by reduceNOPs.sh
368	012e	23bd0008		addi	%GPR29,%GPR29,$8	
369	012f	00000000		nop	; Automatically Added by addNops.pl
370	0130	00000000		nop	; Automatically Added by addNops.pl
371	0131	00000000		nop	; Automatically Added by addNops.pl
372				; Automatically 16 NOPs removed by reduceNOPs.sh
373	0132	8fc1ffd0		lw	%GPR1,-48(%GPR30)	
374	0133	00000000		nop	; Automatically Added by addNops.pl
375	0134	00000000		nop	; Automatically Added by addNops.pl
376	0135	00000000		nop	; Automatically Added by addNops.pl
377				; Automatically 8 NOPs removed by reduceNOPs.sh
378	0136	00000000		nop	; Automatically added by fix-stall-insns.pl
379	0137	8fc2ffdc		lw	%GPR2,-36(%GPR30)	
380	0138	00000000		nop	; Automatically Added by addNops.pl
381	0139	00000000		nop	; Automatically Added by addNops.pl
382	013a	00000000		nop	; Automatically Added by addNops.pl
383				; Automatically 8 NOPs removed by reduceNOPs.sh
384	013b	20210001		addi	%GPR1,%GPR1,$1	
385	013c	00000000		nop	; Automatically Added by addNops.pl
386	013d	00000000		nop	; Automatically Added by addNops.pl
387	013e	00000000		nop	; Automatically Added by addNops.pl
388				; Automatically 16 NOPs removed by reduceNOPs.sh
389	013f	afc1ffd0		sw	-48(%GPR30),%GPR1	
390	0140	00000000		nop	; Automatically Added by addNops.pl
391	0141	00000000		nop	; Automatically Added by addNops.pl
392	0142	00000000		nop	; Automatically Added by addNops.pl
393	0143	3c010000		lhi	%GPR1,$0	
394	0144	00000000		nop	; Automatically Added by addNops.pl
395	0145	00000000		nop	; Automatically Added by addNops.pl
396	0146	00000000		nop	; Automatically Added by addNops.pl
397				; Automatically 16 NOPs removed by reduceNOPs.sh
398	0147	3421000a		ori	%GPR1,%GPR1,$10	
399	0148	00000000		nop	; Automatically Added by addNops.pl
400	0149	00000000		nop	; Automatically Added by addNops.pl
401	014a	00000000		nop	; Automatically Added by addNops.pl
402				; Automatically 16 NOPs removed by reduceNOPs.sh
403	014b	0041081a		div	%GPR1,%GPR2,%GPR1	
404	014c	00000000		nop	; Automatically Added by addNops.pl
405	014d	00000000		nop	; Automatically Added by addNops.pl
406	014e	00000000		nop	; Automatically Added by addNops.pl
407				; Automatically 16 NOPs removed by reduceNOPs.sh
408	014f	afc1ffdc		sw	-36(%GPR30),%GPR1	
409	0150	00000000		nop	; Automatically Added by addNops.pl
410	0151	00000000		nop	; Automatically Added by addNops.pl
411	0152	00000000		nop	; Automatically Added by addNops.pl
412	0153	0bffff95		j	L_intToStr_5	
413	0154	00000000		nop	; Automatically Added by addNops.pl
414	0155	00000000		nop	; Automatically Added by addNops.pl
415	0156	00000000		nop	; Automatically Added by addNops.pl
416				; Automatically 12 NOPs removed by reduceNOPs.sh
417			L_intToStr_7:
418	0157	00000000		nop	; Automatically Added by addNops.pl
419	0158	00000000		nop	; Automatically Added by addNops.pl
420	0159	00000000		nop	; Automatically Added by addNops.pl
421	015a	8fc2ffd0		lw	%GPR2,-48(%GPR30)	
422	015b	00000000		nop	; Automatically Added by addNops.pl
423	015c	00000000		nop	; Automatically Added by addNops.pl
424	015d	00000000		nop	; Automatically Added by addNops.pl
425				; Automatically 12 NOPs removed by reduceNOPs.sh
426	015e	3c010000		lhi	%GPR1,$0	
427	015f	00000000		nop	; Automatically Added by addNops.pl
428	0160	00000000		nop	; Automatically Added by addNops.pl
429	0161	00000000		nop	; Automatically Added by addNops.pl
430				; Automatically 16 NOPs removed by reduceNOPs.sh
431	0162	34210000		ori	%GPR1,%GPR1,$0	
432	0163	00000000		nop	; Automatically Added by addNops.pl
433	0164	00000000		nop	; Automatically Added by addNops.pl
434	0165	00000000		nop	; Automatically Added by addNops.pl
435				; Automatically 16 NOPs removed by reduceNOPs.sh
436	0166	0041d82b		sgt	%GPR27,%GPR2,%GPR1	
437	0167	00000000		nop	; Automatically Added by addNops.pl
438	0168	00000000		nop	; Automatically Added by addNops.pl
439	0169	00000000		nop	; Automatically Added by addNops.pl
440	016a	17600008		bnez	%GPR27,L_intToStr_8	
441	016b	00000000		nop	; Automatically Added by addNops.pl
442	016c	00000000		nop	; Automatically Added by addNops.pl
443	016d	00000000		nop	; Automatically Added by addNops.pl
444				; Automatically 16 NOPs removed by reduceNOPs.sh
445	016e	08000054		j	L_intToStr_9	
446	016f	00000000		nop	; Automatically Added by addNops.pl
447	0170	00000000		nop	; Automatically Added by addNops.pl
448	0171	00000000		nop	; Automatically Added by addNops.pl
449				; Automatically 16 NOPs removed by reduceNOPs.sh
450			L_intToStr_8:
451	0172	00000000		nop	; Automatically Added by addNops.pl
452	0173	00000000		nop	; Automatically Added by addNops.pl
453	0174	00000000		nop	; Automatically Added by addNops.pl
454	0175	8fc2ffd0		lw	%GPR2,-48(%GPR30)	
455	0176	00000000		nop	; Automatically Added by addNops.pl
456	0177	00000000		nop	; Automatically Added by addNops.pl
457	0178	00000000		nop	; Automatically Added by addNops.pl
458	0179	2bc10020		subi	%GPR1,%GPR30,$32	
459	017a	00000000		nop	; Automatically Added by addNops.pl
460	017b	00000000		nop	; Automatically Added by addNops.pl
461	017c	00000000		nop	; Automatically Added by addNops.pl
462				; Automatically 12 NOPs removed by reduceNOPs.sh
463	017d	28420001		subi	%GPR2,%GPR2,$1	
464	017e	00000000		nop	; Automatically Added by addNops.pl
465	017f	00000000		nop	; Automatically Added by addNops.pl
466	0180	00000000		nop	; Automatically Added by addNops.pl
467				; Automatically 16 NOPs removed by reduceNOPs.sh
468	0181	00220820		add	%GPR1,%GPR1,%GPR2	
469	0182	00000000		nop	; Automatically Added by addNops.pl
470	0183	00000000		nop	; Automatically Added by addNops.pl
471	0184	00000000		nop	; Automatically Added by addNops.pl
472	0185	afc2ffd0		sw	-48(%GPR30),%GPR2	
473	0186	00000000		nop	; Automatically Added by addNops.pl
474	0187	00000000		nop	; Automatically Added by addNops.pl
475	0188	00000000		nop	; Automatically Added by addNops.pl
476				; Automatically 32 NOPs removed by reduceNOPs.sh
477	0189	2bbd0008		subi	%GPR29,%GPR29,$8	
478	018a	00000000		nop	; Automatically Added by addNops.pl
479	018b	00000000		nop	; Automatically Added by addNops.pl
480	018c	00000000		nop	; Automatically Added by addNops.pl
481				; Automatically 16 NOPs removed by reduceNOPs.sh
482	018d	0c00125a		jal	loadByteUnsigned	
483	018e	00000000		nop	; Automatically Added by addNops.pl
484	018f	00000000		nop	; Automatically Added by addNops.pl
485	0190	00000000		nop	; Automatically Added by addNops.pl
486				; Automatically 16 NOPs removed by reduceNOPs.sh
487	0191	23bd0008		addi	%GPR29,%GPR29,$8	
488	0192	00000000		nop	; Automatically Added by addNops.pl
489	0193	00000000		nop	; Automatically Added by addNops.pl
490	0194	00000000		nop	; Automatically Added by addNops.pl
491				; Automatically 16 NOPs removed by reduceNOPs.sh
492	0195	8fc1ffd8		lw	%GPR1,-40(%GPR30)	
493	0196	00000000		nop	; Automatically Added by addNops.pl
494	0197	00000000		nop	; Automatically Added by addNops.pl
495	0198	00000000		nop	; Automatically Added by addNops.pl
496	0199	00000000		nop	; Automatically added by fix-stall-insns.pl
497	019a	8fc3ffd4		lw	%GPR3,-44(%GPR30)	
498	019b	00000000		nop	; Automatically Added by addNops.pl
499	019c	00000000		nop	; Automatically Added by addNops.pl
500	019d	00000000		nop	; Automatically Added by addNops.pl
501	019e	03801020		add	%GPR2,%GPR28,%GPR0	
502	019f	00000000		nop	; Automatically Added by addNops.pl
503	01a0	00000000		nop	; Automatically Added by addNops.pl
504	01a1	00000000		nop	; Automatically Added by addNops.pl
505				; Automatically 12 NOPs removed by reduceNOPs.sh
506	01a2	00230820		add	%GPR1,%GPR1,%GPR3	
507	01a3	00000000		nop	; Automatically Added by addNops.pl
508	01a4	00000000		nop	; Automatically Added by addNops.pl
509	01a5	00000000		nop	; Automatically Added by addNops.pl
510				; Automatically 16 NOPs removed by reduceNOPs.sh
511	01a6	2bbd0008		subi	%GPR29,%GPR29,$8	
512	01a7	00000000		nop	; Automatically Added by addNops.pl
513	01a8	00000000		nop	; Automatically Added by addNops.pl
514	01a9	00000000		nop	; Automatically Added by addNops.pl
515				; Automatically 16 NOPs removed by reduceNOPs.sh
516	01aa	0c0012df		jal	storeByte	
517	01ab	00000000		nop	; Automatically Added by addNops.pl
518	01ac	00000000		nop	; Automatically Added by addNops.pl
519	01ad	00000000		nop	; Automatically Added by addNops.pl
520				; Automatically 16 NOPs removed by reduceNOPs.sh
521	01ae	23bd0008		addi	%GPR29,%GPR29,$8	
522	01af	00000000		nop	; Automatically Added by addNops.pl
523	01b0	00000000		nop	; Automatically Added by addNops.pl
524	01b1	00000000		nop	; Automatically Added by addNops.pl
525				; Automatically 16 NOPs removed by reduceNOPs.sh
526	01b2	8fc1ffd4		lw	%GPR1,-44(%GPR30)	
527	01b3	00000000		nop	; Automatically Added by addNops.pl
528	01b4	00000000		nop	; Automatically Added by addNops.pl
529	01b5	00000000		nop	; Automatically Added by addNops.pl
530				; Automatically 16 NOPs removed by reduceNOPs.sh
531	01b6	20210001		addi	%GPR1,%GPR1,$1	
532	01b7	00000000		nop	; Automatically Added by addNops.pl
533	01b8	00000000		nop	; Automatically Added by addNops.pl
534	01b9	00000000		nop	; Automatically Added by addNops.pl
535				; Automatically 16 NOPs removed by reduceNOPs.sh
536	01ba	afc1ffd4		sw	-44(%GPR30),%GPR1	
537	01bb	00000000		nop	; Automatically Added by addNops.pl
538	01bc	00000000		nop	; Automatically Added by addNops.pl
539	01bd	00000000		nop	; Automatically Added by addNops.pl
540	01be	0bffff99		j	L_intToStr_7	
541	01bf	00000000		nop	; Automatically Added by addNops.pl
542	01c0	00000000		nop	; Automatically Added by addNops.pl
543	01c1	00000000		nop	; Automatically Added by addNops.pl
544				; Automatically 12 NOPs removed by reduceNOPs.sh
545			L_intToStr_9:
546	01c2	00000000		nop	; Automatically Added by addNops.pl
547	01c3	00000000		nop	; Automatically Added by addNops.pl
548	01c4	00000000		nop	; Automatically Added by addNops.pl
549	01c5	8fc1ffd8		lw	%GPR1,-40(%GPR30)	
550	01c6	00000000		nop	; Automatically Added by addNops.pl
551	01c7	00000000		nop	; Automatically Added by addNops.pl
552	01c8	00000000		nop	; Automatically Added by addNops.pl
553	01c9	00000000		nop	; Automatically added by fix-stall-insns.pl
554	01ca	8fc2ffd4		lw	%GPR2,-44(%GPR30)	
555	01cb	00000000		nop	; Automatically Added by addNops.pl
556	01cc	00000000		nop	; Automatically Added by addNops.pl
557	01cd	00000000		nop	; Automatically Added by addNops.pl
558				; Automatically 16 NOPs removed by reduceNOPs.sh
559	01ce	00220820		add	%GPR1,%GPR1,%GPR2	
560	01cf	00000000		nop	; Automatically Added by addNops.pl
561	01d0	00000000		nop	; Automatically Added by addNops.pl
562	01d1	00000000		nop	; Automatically Added by addNops.pl
563	01d2	3c020000		lhi	%GPR2,$0	
564	01d3	00000000		nop	; Automatically Added by addNops.pl
565	01d4	00000000		nop	; Automatically Added by addNops.pl
566	01d5	00000000		nop	; Automatically Added by addNops.pl
567				; Automatically 16 NOPs removed by reduceNOPs.sh
568	01d6	34420000		ori	%GPR2,%GPR2,$0	
569	01d7	00000000		nop	; Automatically Added by addNops.pl
570	01d8	00000000		nop	; Automatically Added by addNops.pl
571	01d9	00000000		nop	; Automatically Added by addNops.pl
572				; Automatically 16 NOPs removed by reduceNOPs.sh
573	01da	2bbd0008		subi	%GPR29,%GPR29,$8	
574	01db	00000000		nop	; Automatically Added by addNops.pl
575	01dc	00000000		nop	; Automatically Added by addNops.pl
576	01dd	00000000		nop	; Automatically Added by addNops.pl
577				; Automatically 16 NOPs removed by reduceNOPs.sh
578	01de	0c0012ab		jal	storeByte	
579	01df	00000000		nop	; Automatically Added by addNops.pl
580	01e0	00000000		nop	; Automatically Added by addNops.pl
581	01e1	00000000		nop	; Automatically Added by addNops.pl
582				; Automatically 16 NOPs removed by reduceNOPs.sh
583	01e2	23bd0008		addi	%GPR29,%GPR29,$8	
584	01e3	00000000		nop	; Automatically Added by addNops.pl
585	01e4	00000000		nop	; Automatically Added by addNops.pl
586	01e5	00000000		nop	; Automatically Added by addNops.pl
587				; Automatically 36 NOPs removed by reduceNOPs.sh
588	01e6	3c1c0000		lhi	%GPR28,$0	
589	01e7	00000000		nop	; Automatically Added by addNops.pl
590	01e8	00000000		nop	; Automatically Added by addNops.pl
591	01e9	00000000		nop	; Automatically Added by addNops.pl
592				; Automatically 16 NOPs removed by reduceNOPs.sh
593	01ea	379c002a		ori	%GPR28,%GPR28,$42	
594	01eb	00000000		nop	; Automatically Added by addNops.pl
595	01ec	00000000		nop	; Automatically Added by addNops.pl
596	01ed	00000000		nop	; Automatically Added by addNops.pl
597				; Automatically 16 NOPs removed by reduceNOPs.sh
598	01ee	08000004		j	L_intToStr_10	
599	01ef	00000000		nop	; Automatically Added by addNops.pl
600	01f0	00000000		nop	; Automatically Added by addNops.pl
601	01f1	00000000		nop	; Automatically Added by addNops.pl
602				; Automatically 16 NOPs removed by reduceNOPs.sh
603			L_intToStr_10:
604	01f2	00000000		nop	; Automatically Added by addNops.pl
605	01f3	00000000		nop	; Automatically Added by addNops.pl
606	01f4	00000000		nop	; Automatically Added by addNops.pl
607				; Automatically 16 NOPs removed by reduceNOPs.sh
608	01f5	8fdf0004		lw	%GPR31,4(%GPR30)	
609	01f6	00000000		nop	; Automatically Added by addNops.pl
610	01f7	00000000		nop	; Automatically Added by addNops.pl
611	01f8	00000000		nop	; Automatically Added by addNops.pl
612	01f9	27dd0004		addui	%GPR29,%GPR30,$4	
613	01fa	00000000		nop	; Automatically Added by addNops.pl
614	01fb	00000000		nop	; Automatically Added by addNops.pl
615	01fc	00000000		nop	; Automatically Added by addNops.pl
616	01fd	8fde0000		lw	%GPR30,0(%GPR30)	
617	01fe	00000000		nop	; Automatically Added by addNops.pl
618	01ff	00000000		nop	; Automatically Added by addNops.pl
619	0200	00000000		nop	; Automatically Added by addNops.pl
620				; Automatically 8 NOPs removed by reduceNOPs.sh
621	0201	00000000		nop
622	0202	00000000		nop
623	0203	03e00008		jr	%GPR31	
624	0204	00000000		nop	; Automatically Added by addNops.pl
625	0205	00000000		nop	; Automatically Added by addNops.pl
626	0206	00000000		nop	; Automatically Added by addNops.pl
627				.section	.data
628				.align	4
629			L_lib_lcd_1:
630	0000	00000001		.data.32	1
631				.section	.text
632				.addressing	Word
633				;.addressing	Word
634			strlength:
635			L_lib_lcd_2:
636	0207	00000000		nop	; Automatically Added by addNops.pl
637	0208	00000000		nop	; Automatically Added by addNops.pl
638	0209	00000000		nop	; Automatically Added by addNops.pl
639				; Automatically 16 NOPs removed by reduceNOPs.sh
640	020a	afbefffc		sw	-4(%GPR29),%GPR30	
641	020b	00000000		nop	; Automatically Added by addNops.pl
642	020c	00000000		nop	; Automatically Added by addNops.pl
643	020d	00000000		nop	; Automatically Added by addNops.pl
644	020e	00000000		nop	; Automatically added by fix-stall-insns.pl
645	020f	afbf0000		sw	0(%GPR29),%GPR31	
646	0210	00000000		nop	; Automatically Added by addNops.pl
647	0211	00000000		nop	; Automatically Added by addNops.pl
648	0212	00000000		nop	; Automatically Added by addNops.pl
649	0213	2fbe0004		subui	%GPR30,%GPR29,$4	
650	0214	00000000		nop	; Automatically Added by addNops.pl
651	0215	00000000		nop	; Automatically Added by addNops.pl
652	0216	00000000		nop	; Automatically Added by addNops.pl
653				; Automatically 4 NOPs removed by reduceNOPs.sh
654	0217	2bbd0010		subi	%GPR29,%GPR29,$16	
655	0218	00000000		nop	; Automatically Added by addNops.pl
656	0219	00000000		nop	; Automatically Added by addNops.pl
657	021a	00000000		nop	; Automatically Added by addNops.pl
658				; Automatically 44 NOPs removed by reduceNOPs.sh
659	021b	afc1fffc		sw	-4(%GPR30),%GPR1	
660	021c	00000000		nop	; Automatically Added by addNops.pl
661	021d	00000000		nop	; Automatically Added by addNops.pl
662	021e	00000000		nop	; Automatically Added by addNops.pl
663				; Automatically 12 NOPs removed by reduceNOPs.sh
664	021f	3c010000		lhi	%GPR1,$0	
665	0220	00000000		nop	; Automatically Added by addNops.pl
666	0221	00000000		nop	; Automatically Added by addNops.pl
667	0222	00000000		nop	; Automatically Added by addNops.pl
668				; Automatically 16 NOPs removed by reduceNOPs.sh
669	0223	34210000		ori	%GPR1,%GPR1,$0	
670	0224	00000000		nop	; Automatically Added by addNops.pl
671	0225	00000000		nop	; Automatically Added by addNops.pl
672	0226	00000000		nop	; Automatically Added by addNops.pl
673				; Automatically 16 NOPs removed by reduceNOPs.sh
674	0227	afc1fff8		sw	-8(%GPR30),%GPR1	
675	0228	00000000		nop	; Automatically Added by addNops.pl
676	0229	00000000		nop	; Automatically Added by addNops.pl
677	022a	00000000		nop	; Automatically Added by addNops.pl
678				; Automatically 12 NOPs removed by reduceNOPs.sh
679			L_lib_lcd_3:
680	022b	00000000		nop	; Automatically Added by addNops.pl
681	022c	00000000		nop	; Automatically Added by addNops.pl
682	022d	00000000		nop	; Automatically Added by addNops.pl
683	022e	8fc1fffc		lw	%GPR1,-4(%GPR30)	
684	022f	00000000		nop	; Automatically Added by addNops.pl
685	0230	00000000		nop	; Automatically Added by addNops.pl
686	0231	00000000		nop	; Automatically Added by addNops.pl
687				; Automatically 16 NOPs removed by reduceNOPs.sh
688	0232	00201820		add	%GPR3,%GPR1,%GPR0	
689	0233	00000000		nop	; Automatically Added by addNops.pl
690	0234	00000000		nop	; Automatically Added by addNops.pl
691	0235	00000000		nop	; Automatically Added by addNops.pl
692	0236	3c020000		lhi	%GPR2,$0	
693	0237	00000000		nop	; Automatically Added by addNops.pl
694	0238	00000000		nop	; Automatically Added by addNops.pl
695	0239	00000000		nop	; Automatically Added by addNops.pl
696				; Automatically 16 NOPs removed by reduceNOPs.sh
697	023a	34420001		ori	%GPR2,%GPR2,$1	
698	023b	00000000		nop	; Automatically Added by addNops.pl
699	023c	00000000		nop	; Automatically Added by addNops.pl
700	023d	00000000		nop	; Automatically Added by addNops.pl
701				; Automatically 16 NOPs removed by reduceNOPs.sh
702	023e	00621020		add	%GPR2,%GPR3,%GPR2	
703	023f	00000000		nop	; Automatically Added by addNops.pl
704	0240	00000000		nop	; Automatically Added by addNops.pl
705	0241	00000000		nop	; Automatically Added by addNops.pl
706				; Automatically 16 NOPs removed by reduceNOPs.sh
707	0242	afc2fffc		sw	-4(%GPR30),%GPR2	
708	0243	00000000		nop	; Automatically Added by addNops.pl
709	0244	00000000		nop	; Automatically Added by addNops.pl
710	0245	00000000		nop	; Automatically Added by addNops.pl
711				; Automatically 16 NOPs removed by reduceNOPs.sh
712	0246	2bbd0008		subi	%GPR29,%GPR29,$8	
713	0247	00000000		nop	; Automatically Added by addNops.pl
714	0248	00000000		nop	; Automatically Added by addNops.pl
715	0249	00000000		nop	; Automatically Added by addNops.pl
716				; Automatically 16 NOPs removed by reduceNOPs.sh
717	024a	0c00119d		jal	loadByteUnsigned	
718	024b	00000000		nop	; Automatically Added by addNops.pl
719	024c	00000000		nop	; Automatically Added by addNops.pl
720	024d	00000000		nop	; Automatically Added by addNops.pl
721				; Automatically 16 NOPs removed by reduceNOPs.sh
722	024e	23bd0008		addi	%GPR29,%GPR29,$8	
723	024f	00000000		nop	; Automatically Added by addNops.pl
724	0250	00000000		nop	; Automatically Added by addNops.pl
725	0251	00000000		nop	; Automatically Added by addNops.pl
726				; Automatically 36 NOPs removed by reduceNOPs.sh
727	0252	3c010000		lhi	%GPR1,$0	
728	0253	00000000		nop	; Automatically Added by addNops.pl
729	0254	00000000		nop	; Automatically Added by addNops.pl
730	0255	00000000		nop	; Automatically Added by addNops.pl
731				; Automatically 16 NOPs removed by reduceNOPs.sh
732	0256	34210000		ori	%GPR1,%GPR1,$0	
733	0257	00000000		nop	; Automatically Added by addNops.pl
734	0258	00000000		nop	; Automatically Added by addNops.pl
735	0259	00000000		nop	; Automatically Added by addNops.pl
736				; Automatically 16 NOPs removed by reduceNOPs.sh
737	025a	0381d82f		sne	%GPR27,%GPR28,%GPR1	
738	025b	00000000		nop	; Automatically Added by addNops.pl
739	025c	00000000		nop	; Automatically Added by addNops.pl
740	025d	00000000		nop	; Automatically Added by addNops.pl
741	025e	17600008		bnez	%GPR27,L_lib_lcd_4	
742	025f	00000000		nop	; Automatically Added by addNops.pl
743	0260	00000000		nop	; Automatically Added by addNops.pl
744	0261	00000000		nop	; Automatically Added by addNops.pl
745				; Automatically 16 NOPs removed by reduceNOPs.sh
746	0262	08000017		j	L_lib_lcd_5	
747	0263	00000000		nop	; Automatically Added by addNops.pl
748	0264	00000000		nop	; Automatically Added by addNops.pl
749	0265	00000000		nop	; Automatically Added by addNops.pl
750				; Automatically 16 NOPs removed by reduceNOPs.sh
751			L_lib_lcd_4:
752	0266	00000000		nop	; Automatically Added by addNops.pl
753	0267	00000000		nop	; Automatically Added by addNops.pl
754	0268	00000000		nop	; Automatically Added by addNops.pl
755	0269	8fc1fff8		lw	%GPR1,-8(%GPR30)	
756	026a	00000000		nop	; Automatically Added by addNops.pl
757	026b	00000000		nop	; Automatically Added by addNops.pl
758	026c	00000000		nop	; Automatically Added by addNops.pl
759				; Automatically 16 NOPs removed by reduceNOPs.sh
760	026d	20210001		addi	%GPR1,%GPR1,$1	
761	026e	00000000		nop	; Automatically Added by addNops.pl
762	026f	00000000		nop	; Automatically Added by addNops.pl
763	0270	00000000		nop	; Automatically Added by addNops.pl
764				; Automatically 16 NOPs removed by reduceNOPs.sh
765	0271	afc1fff8		sw	-8(%GPR30),%GPR1	
766	0272	00000000		nop	; Automatically Added by addNops.pl
767	0273	00000000		nop	; Automatically Added by addNops.pl
768	0274	00000000		nop	; Automatically Added by addNops.pl
769	0275	0bffffb6		j	L_lib_lcd_3	
770	0276	00000000		nop	; Automatically Added by addNops.pl
771	0277	00000000		nop	; Automatically Added by addNops.pl
772	0278	00000000		nop	; Automatically Added by addNops.pl
773				; Automatically 12 NOPs removed by reduceNOPs.sh
774			L_lib_lcd_5:
775	0279	00000000		nop	; Automatically Added by addNops.pl
776	027a	00000000		nop	; Automatically Added by addNops.pl
777	027b	00000000		nop	; Automatically Added by addNops.pl
778	027c	8fdcfff8		lw	%GPR28,-8(%GPR30)	
779	027d	00000000		nop	; Automatically Added by addNops.pl
780	027e	00000000		nop	; Automatically Added by addNops.pl
781	027f	00000000		nop	; Automatically Added by addNops.pl
782				; Automatically 32 NOPs removed by reduceNOPs.sh
783	0280	08000004		j	L_lib_lcd_6	
784	0281	00000000		nop	; Automatically Added by addNops.pl
785	0282	00000000		nop	; Automatically Added by addNops.pl
786	0283	00000000		nop	; Automatically Added by addNops.pl
787				; Automatically 16 NOPs removed by reduceNOPs.sh
788			L_lib_lcd_6:
789	0284	00000000		nop	; Automatically Added by addNops.pl
790	0285	00000000		nop	; Automatically Added by addNops.pl
791	0286	00000000		nop	; Automatically Added by addNops.pl
792				; Automatically 16 NOPs removed by reduceNOPs.sh
793	0287	8fdf0004		lw	%GPR31,4(%GPR30)	
794	0288	00000000		nop	; Automatically Added by addNops.pl
795	0289	00000000		nop	; Automatically Added by addNops.pl
796	028a	00000000		nop	; Automatically Added by addNops.pl
797	028b	27dd0004		addui	%GPR29,%GPR30,$4	
798	028c	00000000		nop	; Automatically Added by addNops.pl
799	028d	00000000		nop	; Automatically Added by addNops.pl
800	028e	00000000		nop	; Automatically Added by addNops.pl
801	028f	8fde0000		lw	%GPR30,0(%GPR30)	
802	0290	00000000		nop	; Automatically Added by addNops.pl
803	0291	00000000		nop	; Automatically Added by addNops.pl
804	0292	00000000		nop	; Automatically Added by addNops.pl
805				; Automatically 8 NOPs removed by reduceNOPs.sh
806	0293	00000000		nop
807	0294	00000000		nop
808	0295	03e00008		jr	%GPR31	
809	0296	00000000		nop	; Automatically Added by addNops.pl
810	0297	00000000		nop	; Automatically Added by addNops.pl
811	0298	00000000		nop	; Automatically Added by addNops.pl
812				; Automatically 16 NOPs removed by reduceNOPs.sh
813			wait:
814			L_lib_lcd_7:
815	0299	00000000		nop	; Automatically Added by addNops.pl
816	029a	00000000		nop	; Automatically Added by addNops.pl
817	029b	00000000		nop	; Automatically Added by addNops.pl
818				; Automatically 16 NOPs removed by reduceNOPs.sh
819	029c	afbefffc		sw	-4(%GPR29),%GPR30	
820	029d	00000000		nop	; Automatically Added by addNops.pl
821	029e	00000000		nop	; Automatically Added by addNops.pl
822	029f	00000000		nop	; Automatically Added by addNops.pl
823	02a0	00000000		nop	; Automatically added by fix-stall-insns.pl
824	02a1	afbf0000		sw	0(%GPR29),%GPR31	
825	02a2	00000000		nop	; Automatically Added by addNops.pl
826	02a3	00000000		nop	; Automatically Added by addNops.pl
827	02a4	00000000		nop	; Automatically Added by addNops.pl
828	02a5	2fbe0004		subui	%GPR30,%GPR29,$4	
829	02a6	00000000		nop	; Automatically Added by addNops.pl
830	02a7	00000000		nop	; Automatically Added by addNops.pl
831	02a8	00000000		nop	; Automatically Added by addNops.pl
832				; Automatically 4 NOPs removed by reduceNOPs.sh
833	02a9	2bbd0008		subi	%GPR29,%GPR29,$8	
834	02aa	00000000		nop	; Automatically Added by addNops.pl
835	02ab	00000000		nop	; Automatically Added by addNops.pl
836	02ac	00000000		nop	; Automatically Added by addNops.pl
837				; Automatically 56 NOPs removed by reduceNOPs.sh
838	02ad	3c020000		lhi	%GPR2,$0	
839	02ae	00000000		nop	; Automatically Added by addNops.pl
840	02af	00000000		nop	; Automatically Added by addNops.pl
841	02b0	00000000		nop	; Automatically Added by addNops.pl
842				; Automatically 16 NOPs removed by reduceNOPs.sh
843	02b1	34420000		ori	%GPR2,%GPR2,$0	
844	02b2	00000000		nop	; Automatically Added by addNops.pl
845	02b3	00000000		nop	; Automatically Added by addNops.pl
846	02b4	00000000		nop	; Automatically Added by addNops.pl
847				; Automatically 12 NOPs removed by reduceNOPs.sh
848			L_lib_lcd_8:
849	02b5	00000000		nop	; Automatically Added by addNops.pl
850	02b6	00000000		nop	; Automatically Added by addNops.pl
851	02b7	00000000		nop	; Automatically Added by addNops.pl
852	02b8	00401820		add	%GPR3,%GPR2,%GPR0	
853	02b9	00000000		nop	; Automatically Added by addNops.pl
854	02ba	00000000		nop	; Automatically Added by addNops.pl
855	02bb	00000000		nop	; Automatically Added by addNops.pl
856	02bc	20420001		addi	%GPR2,%GPR2,$1	
857	02bd	00000000		nop	; Automatically Added by addNops.pl
858	02be	00000000		nop	; Automatically Added by addNops.pl
859	02bf	00000000		nop	; Automatically Added by addNops.pl
860				; Automatically 12 NOPs removed by reduceNOPs.sh
861	02c0	0061d82f		sne	%GPR27,%GPR3,%GPR1	
862	02c1	00000000		nop	; Automatically Added by addNops.pl
863	02c2	00000000		nop	; Automatically Added by addNops.pl
864	02c3	00000000		nop	; Automatically Added by addNops.pl
865	02c4	1760fff1		bnez	%GPR27,L_lib_lcd_8	
866	02c5	00000000		nop	; Automatically Added by addNops.pl
867	02c6	00000000		nop	; Automatically Added by addNops.pl
868	02c7	00000000		nop	; Automatically Added by addNops.pl
869				; Automatically 16 NOPs removed by reduceNOPs.sh
870	02c8	08000004		j	L_lib_lcd_9	
871	02c9	00000000		nop	; Automatically Added by addNops.pl
872	02ca	00000000		nop	; Automatically Added by addNops.pl
873	02cb	00000000		nop	; Automatically Added by addNops.pl
874				; Automatically 16 NOPs removed by reduceNOPs.sh
875			L_lib_lcd_9:
876	02cc	00000000		nop	; Automatically Added by addNops.pl
877	02cd	00000000		nop	; Automatically Added by addNops.pl
878	02ce	00000000		nop	; Automatically Added by addNops.pl
879	02cf	285c0001		subi	%GPR28,%GPR2,$1	
880	02d0	00000000		nop	; Automatically Added by addNops.pl
881	02d1	00000000		nop	; Automatically Added by addNops.pl
882	02d2	00000000		nop	; Automatically Added by addNops.pl
883				; Automatically 16 NOPs removed by reduceNOPs.sh
884	02d3	08000004		j	L_lib_lcd_10	
885	02d4	00000000		nop	; Automatically Added by addNops.pl
886	02d5	00000000		nop	; Automatically Added by addNops.pl
887	02d6	00000000		nop	; Automatically Added by addNops.pl
888				; Automatically 16 NOPs removed by reduceNOPs.sh
889			L_lib_lcd_10:
890	02d7	00000000		nop	; Automatically Added by addNops.pl
891	02d8	00000000		nop	; Automatically Added by addNops.pl
892	02d9	00000000		nop	; Automatically Added by addNops.pl
893				; Automatically 16 NOPs removed by reduceNOPs.sh
894	02da	8fdf0004		lw	%GPR31,4(%GPR30)	
895	02db	00000000		nop	; Automatically Added by addNops.pl
896	02dc	00000000		nop	; Automatically Added by addNops.pl
897	02dd	00000000		nop	; Automatically Added by addNops.pl
898	02de	27dd0004		addui	%GPR29,%GPR30,$4	
899	02df	00000000		nop	; Automatically Added by addNops.pl
900	02e0	00000000		nop	; Automatically Added by addNops.pl
901	02e1	00000000		nop	; Automatically Added by addNops.pl
902	02e2	8fde0000		lw	%GPR30,0(%GPR30)	
903	02e3	00000000		nop	; Automatically Added by addNops.pl
904	02e4	00000000		nop	; Automatically Added by addNops.pl
905	02e5	00000000		nop	; Automatically Added by addNops.pl
906				; Automatically 8 NOPs removed by reduceNOPs.sh
907	02e6	00000000		nop
908	02e7	00000000		nop
909	02e8	03e00008		jr	%GPR31	
910	02e9	00000000		nop	; Automatically Added by addNops.pl
911	02ea	00000000		nop	; Automatically Added by addNops.pl
912	02eb	00000000		nop	; Automatically Added by addNops.pl
913				; Automatically 16 NOPs removed by reduceNOPs.sh
914			getack:
915			L_lib_lcd_11:
916	02ec	00000000		nop	; Automatically Added by addNops.pl
917	02ed	00000000		nop	; Automatically Added by addNops.pl
918	02ee	00000000		nop	; Automatically Added by addNops.pl
919				; Automatically 16 NOPs removed by reduceNOPs.sh
920	02ef	afbefffc		sw	-4(%GPR29),%GPR30	
921	02f0	00000000		nop	; Automatically Added by addNops.pl
922	02f1	00000000		nop	; Automatically Added by addNops.pl
923	02f2	00000000		nop	; Automatically Added by addNops.pl
924	02f3	00000000		nop	; Automatically added by fix-stall-insns.pl
925	02f4	afbf0000		sw	0(%GPR29),%GPR31	
926	02f5	00000000		nop	; Automatically Added by addNops.pl
927	02f6	00000000		nop	; Automatically Added by addNops.pl
928	02f7	00000000		nop	; Automatically Added by addNops.pl
929	02f8	2fbe0004		subui	%GPR30,%GPR29,$4	
930	02f9	00000000		nop	; Automatically Added by addNops.pl
931	02fa	00000000		nop	; Automatically Added by addNops.pl
932	02fb	00000000		nop	; Automatically Added by addNops.pl
933				; Automatically 4 NOPs removed by reduceNOPs.sh
934	02fc	2bbd0008		subi	%GPR29,%GPR29,$8	
935	02fd	00000000		nop	; Automatically Added by addNops.pl
936	02fe	00000000		nop	; Automatically Added by addNops.pl
937	02ff	00000000		nop	; Automatically Added by addNops.pl
938				; Automatically 56 NOPs removed by reduceNOPs.sh
939	0300	3c020000		lhi	%GPR2,$0	
940	0301	00000000		nop	; Automatically Added by addNops.pl
941	0302	00000000		nop	; Automatically Added by addNops.pl
942	0303	00000000		nop	; Automatically Added by addNops.pl
943				; Automatically 16 NOPs removed by reduceNOPs.sh
944	0304	34420000		ori	%GPR2,%GPR2,$0	
945			
946			
947			
948	0305	00000000		nop	; Automatically Added by addNops.pl
949	0306	00000000		nop	; Automatically Added by addNops.pl
950	0307	00000000		nop	; Automatically Added by addNops.pl
951				; Automatically 12 NOPs removed by reduceNOPs.sh
952	0308	0040000a		putc	%GPR2
953	0309	00000000		nop	; Automatically Added by addNops.pl
954	030a	00000000		nop	; Automatically Added by addNops.pl
955	030b	00000000		nop	; Automatically Added by addNops.pl
956				; Automatically 9 NOPs removed by reduceNOPs.sh
957			
958	030c	00000000		nop	; Automatically Added by addNops.pl
959	030d	00000000		nop	; Automatically Added by addNops.pl
960	030e	00000000		nop	; Automatically Added by addNops.pl
961	030f	20210001		addi	%GPR1,%GPR1,$1	
962			
963			
964			
965	0310	00000000		nop	; Automatically Added by addNops.pl
966	0311	00000000		nop	; Automatically Added by addNops.pl
967	0312	00000000		nop	; Automatically Added by addNops.pl
968				; Automatically 12 NOPs removed by reduceNOPs.sh
969	0313	0020000a		putc	%GPR1
970	0314	00000000		nop	; Automatically Added by addNops.pl
971	0315	00000000		nop	; Automatically Added by addNops.pl
972	0316	00000000		nop	; Automatically Added by addNops.pl
973				; Automatically 9 NOPs removed by reduceNOPs.sh
974			
975	0317	00000000		nop	; Automatically Added by addNops.pl
976	0318	00000000		nop	; Automatically Added by addNops.pl
977	0319	00000000		nop	; Automatically Added by addNops.pl
978				; Automatically 20 NOPs removed by reduceNOPs.sh
979	031a	3c010000		lhi	%GPR1,$0	
980	031b	00000000		nop	; Automatically Added by addNops.pl
981	031c	00000000		nop	; Automatically Added by addNops.pl
982	031d	00000000		nop	; Automatically Added by addNops.pl
983				; Automatically 16 NOPs removed by reduceNOPs.sh
984	031e	34210001		ori	%GPR1,%GPR1,$1	
985			
986			
987			
988	031f	00000000		nop	; Automatically Added by addNops.pl
989	0320	00000000		nop	; Automatically Added by addNops.pl
990	0321	00000000		nop	; Automatically Added by addNops.pl
991				; Automatically 12 NOPs removed by reduceNOPs.sh
992	0322	0020000a		putc	%GPR1
993	0323	00000000		nop	; Automatically Added by addNops.pl
994	0324	00000000		nop	; Automatically Added by addNops.pl
995	0325	00000000		nop	; Automatically Added by addNops.pl
996				; Automatically 9 NOPs removed by reduceNOPs.sh
997			
998			
999			
1000			
1001	0326	00000000		nop	; Automatically Added by addNops.pl
1002	0327	00000000		nop	; Automatically Added by addNops.pl
1003	0328	00000000		nop	; Automatically Added by addNops.pl
1004				; Automatically 12 NOPs removed by reduceNOPs.sh
1005	0329	0020000b		getc	%GPR1
1006	032a	00000000		nop	; Automatically Added by addNops.pl
1007	032b	00000000		nop	; Automatically Added by addNops.pl
1008	032c	00000000		nop	; Automatically Added by addNops.pl
1009				; Automatically 9 NOPs removed by reduceNOPs.sh
1010			
1011	032d	00000000		nop	; Automatically Added by addNops.pl
1012	032e	00000000		nop	; Automatically Added by addNops.pl
1013	032f	00000000		nop	; Automatically Added by addNops.pl
1014				; Automatically 20 NOPs removed by reduceNOPs.sh
1015	0330	3c020000		lhi	%GPR2,$0	
1016	0331	00000000		nop	; Automatically Added by addNops.pl
1017	0332	00000000		nop	; Automatically Added by addNops.pl
1018	0333	00000000		nop	; Automatically Added by addNops.pl
1019				; Automatically 16 NOPs removed by reduceNOPs.sh
1020	0334	3442000f		ori	%GPR2,%GPR2,$15	
1021	0335	00000000		nop	; Automatically Added by addNops.pl
1022	0336	00000000		nop	; Automatically Added by addNops.pl
1023	0337	00000000		nop	; Automatically Added by addNops.pl
1024				; Automatically 16 NOPs removed by reduceNOPs.sh
1025	0338	0022d82e		seq	%GPR27,%GPR1,%GPR2	
1026	0339	00000000		nop	; Automatically Added by addNops.pl
1027	033a	00000000		nop	; Automatically Added by addNops.pl
1028	033b	00000000		nop	; Automatically Added by addNops.pl
1029	033c	17600008		bnez	%GPR27,L_lib_lcd_12	
1030	033d	00000000		nop	; Automatically Added by addNops.pl
1031	033e	00000000		nop	; Automatically Added by addNops.pl
1032	033f	00000000		nop	; Automatically Added by addNops.pl
1033				; Automatically 16 NOPs removed by reduceNOPs.sh
1034	0340	08000013		j	L_lib_lcd_13	
1035	0341	00000000		nop	; Automatically Added by addNops.pl
1036	0342	00000000		nop	; Automatically Added by addNops.pl
1037	0343	00000000		nop	; Automatically Added by addNops.pl
1038				; Automatically 16 NOPs removed by reduceNOPs.sh
1039			L_lib_lcd_12:
1040	0344	00000000		nop	; Automatically Added by addNops.pl
1041	0345	00000000		nop	; Automatically Added by addNops.pl
1042	0346	00000000		nop	; Automatically Added by addNops.pl
1043				; Automatically 16 NOPs removed by reduceNOPs.sh
1044	0347	3c1c0000		lhi	%GPR28,$0	
1045	0348	00000000		nop	; Automatically Added by addNops.pl
1046	0349	00000000		nop	; Automatically Added by addNops.pl
1047	034a	00000000		nop	; Automatically Added by addNops.pl
1048				; Automatically 16 NOPs removed by reduceNOPs.sh
1049	034b	379c0001		ori	%GPR28,%GPR28,$1	
1050	034c	00000000		nop	; Automatically Added by addNops.pl
1051	034d	00000000		nop	; Automatically Added by addNops.pl
1052	034e	00000000		nop	; Automatically Added by addNops.pl
1053				; Automatically 16 NOPs removed by reduceNOPs.sh
1054	034f	08000013		j	L_lib_lcd_14	
1055	0350	00000000		nop	; Automatically Added by addNops.pl
1056	0351	00000000		nop	; Automatically Added by addNops.pl
1057	0352	00000000		nop	; Automatically Added by addNops.pl
1058				; Automatically 16 NOPs removed by reduceNOPs.sh
1059			L_lib_lcd_13:
1060	0353	00000000		nop	; Automatically Added by addNops.pl
1061	0354	00000000		nop	; Automatically Added by addNops.pl
1062	0355	00000000		nop	; Automatically Added by addNops.pl
1063				; Automatically 16 NOPs removed by reduceNOPs.sh
1064	0356	3c1c0000		lhi	%GPR28,$0	
1065	0357	00000000		nop	; Automatically Added by addNops.pl
1066	0358	00000000		nop	; Automatically Added by addNops.pl
1067	0359	00000000		nop	; Automatically Added by addNops.pl
1068				; Automatically 16 NOPs removed by reduceNOPs.sh
1069	035a	379c0000		ori	%GPR28,%GPR28,$0	
1070	035b	00000000		nop	; Automatically Added by addNops.pl
1071	035c	00000000		nop	; Automatically Added by addNops.pl
1072	035d	00000000		nop	; Automatically Added by addNops.pl
1073				; Automatically 16 NOPs removed by reduceNOPs.sh
1074	035e	08000004		j	L_lib_lcd_14	
1075	035f	00000000		nop	; Automatically Added by addNops.pl
1076	0360	00000000		nop	; Automatically Added by addNops.pl
1077	0361	00000000		nop	; Automatically Added by addNops.pl
1078				; Automatically 16 NOPs removed by reduceNOPs.sh
1079			L_lib_lcd_14:
1080	0362	00000000		nop	; Automatically Added by addNops.pl
1081	0363	00000000		nop	; Automatically Added by addNops.pl
1082	0364	00000000		nop	; Automatically Added by addNops.pl
1083				; Automatically 16 NOPs removed by reduceNOPs.sh
1084	0365	8fdf0004		lw	%GPR31,4(%GPR30)	
1085	0366	00000000		nop	; Automatically Added by addNops.pl
1086	0367	00000000		nop	; Automatically Added by addNops.pl
1087	0368	00000000		nop	; Automatically Added by addNops.pl
1088	0369	27dd0004		addui	%GPR29,%GPR30,$4	
1089	036a	00000000		nop	; Automatically Added by addNops.pl
1090	036b	00000000		nop	; Automatically Added by addNops.pl
1091	036c	00000000		nop	; Automatically Added by addNops.pl
1092	036d	8fde0000		lw	%GPR30,0(%GPR30)	
1093	036e	00000000		nop	; Automatically Added by addNops.pl
1094	036f	00000000		nop	; Automatically Added by addNops.pl
1095	0370	00000000		nop	; Automatically Added by addNops.pl
1096				; Automatically 8 NOPs removed by reduceNOPs.sh
1097	0371	00000000		nop
1098	0372	00000000		nop
1099	0373	03e00008		jr	%GPR31	
1100	0374	00000000		nop	; Automatically Added by addNops.pl
1101	0375	00000000		nop	; Automatically Added by addNops.pl
1102	0376	00000000		nop	; Automatically Added by addNops.pl
1103				; Automatically 16 NOPs removed by reduceNOPs.sh
1104			checkbuffer:
1105			L_lib_lcd_15:
1106	0377	00000000		nop	; Automatically Added by addNops.pl
1107	0378	00000000		nop	; Automatically Added by addNops.pl
1108	0379	00000000		nop	; Automatically Added by addNops.pl
1109				; Automatically 16 NOPs removed by reduceNOPs.sh
1110	037a	afbefffc		sw	-4(%GPR29),%GPR30	
1111	037b	00000000		nop	; Automatically Added by addNops.pl
1112	037c	00000000		nop	; Automatically Added by addNops.pl
1113	037d	00000000		nop	; Automatically Added by addNops.pl
1114	037e	00000000		nop	; Automatically added by fix-stall-insns.pl
1115	037f	afbf0000		sw	0(%GPR29),%GPR31	
1116	0380	00000000		nop	; Automatically Added by addNops.pl
1117	0381	00000000		nop	; Automatically Added by addNops.pl
1118	0382	00000000		nop	; Automatically Added by addNops.pl
1119	0383	2fbe0004		subui	%GPR30,%GPR29,$4	
1120	0384	00000000		nop	; Automatically Added by addNops.pl
1121	0385	00000000		nop	; Automatically Added by addNops.pl
1122	0386	00000000		nop	; Automatically Added by addNops.pl
1123				; Automatically 4 NOPs removed by reduceNOPs.sh
1124	0387	2bbd0008		subi	%GPR29,%GPR29,$8	
1125	0388	00000000		nop	; Automatically Added by addNops.pl
1126	0389	00000000		nop	; Automatically Added by addNops.pl
1127	038a	00000000		nop	; Automatically Added by addNops.pl
1128				; Automatically 48 NOPs removed by reduceNOPs.sh
1129	038b	3c010000		lhi	%GPR1,$0	
1130	038c	00000000		nop	; Automatically Added by addNops.pl
1131	038d	00000000		nop	; Automatically Added by addNops.pl
1132	038e	00000000		nop	; Automatically Added by addNops.pl
1133				; Automatically 16 NOPs removed by reduceNOPs.sh
1134	038f	34210000		ori	%GPR1,%GPR1,$0	
1135	0390	00000000		nop	; Automatically Added by addNops.pl
1136	0391	00000000		nop	; Automatically Added by addNops.pl
1137	0392	00000000		nop	; Automatically Added by addNops.pl
1138	0393	3c040000		lhi	%GPR4,$0	
1139	0394	00000000		nop	; Automatically Added by addNops.pl
1140	0395	00000000		nop	; Automatically Added by addNops.pl
1141	0396	00000000		nop	; Automatically Added by addNops.pl
1142				; Automatically 16 NOPs removed by reduceNOPs.sh
1143	0397	348400de		ori	%GPR4,%GPR4,$222	
1144	0398	00000000		nop	; Automatically Added by addNops.pl
1145	0399	00000000		nop	; Automatically Added by addNops.pl
1146	039a	00000000		nop	; Automatically Added by addNops.pl
1147	039b	3c020000		lhi	%GPR2,$0	
1148	039c	00000000		nop	; Automatically Added by addNops.pl
1149	039d	00000000		nop	; Automatically Added by addNops.pl
1150	039e	00000000		nop	; Automatically Added by addNops.pl
1151				; Automatically 16 NOPs removed by reduceNOPs.sh
1152	039f	34420004		ori	%GPR2,%GPR2,$4	
1153			
1154			
1155			
1156	03a0	00000000		nop	; Automatically Added by addNops.pl
1157	03a1	00000000		nop	; Automatically Added by addNops.pl
1158	03a2	00000000		nop	; Automatically Added by addNops.pl
1159				; Automatically 12 NOPs removed by reduceNOPs.sh
1160	03a3	0040000a		putc	%GPR2
1161	03a4	00000000		nop	; Automatically Added by addNops.pl
1162	03a5	00000000		nop	; Automatically Added by addNops.pl
1163	03a6	00000000		nop	; Automatically Added by addNops.pl
1164				; Automatically 9 NOPs removed by reduceNOPs.sh
1165			
1166			
1167			
1168			
1169	03a7	00000000		nop	; Automatically Added by addNops.pl
1170	03a8	00000000		nop	; Automatically Added by addNops.pl
1171	03a9	00000000		nop	; Automatically Added by addNops.pl
1172				; Automatically 12 NOPs removed by reduceNOPs.sh
1173	03aa	0080000a		putc	%GPR4
1174	03ab	00000000		nop	; Automatically Added by addNops.pl
1175	03ac	00000000		nop	; Automatically Added by addNops.pl
1176	03ad	00000000		nop	; Automatically Added by addNops.pl
1177				; Automatically 9 NOPs removed by reduceNOPs.sh
1178			
1179	03ae	00000000		nop	; Automatically Added by addNops.pl
1180	03af	00000000		nop	; Automatically Added by addNops.pl
1181	03b0	00000000		nop	; Automatically Added by addNops.pl
1182				; Automatically 20 NOPs removed by reduceNOPs.sh
1183	03b1	3c020000		lhi	%GPR2,$0	
1184	03b2	00000000		nop	; Automatically Added by addNops.pl
1185	03b3	00000000		nop	; Automatically Added by addNops.pl
1186	03b4	00000000		nop	; Automatically Added by addNops.pl
1187				; Automatically 16 NOPs removed by reduceNOPs.sh
1188	03b5	34420012		ori	%GPR2,%GPR2,$18	
1189			
1190			
1191			
1192	03b6	00000000		nop	; Automatically Added by addNops.pl
1193	03b7	00000000		nop	; Automatically Added by addNops.pl
1194	03b8	00000000		nop	; Automatically Added by addNops.pl
1195				; Automatically 12 NOPs removed by reduceNOPs.sh
1196	03b9	0040000a		putc	%GPR2
1197	03ba	00000000		nop	; Automatically Added by addNops.pl
1198	03bb	00000000		nop	; Automatically Added by addNops.pl
1199	03bc	00000000		nop	; Automatically Added by addNops.pl
1200				; Automatically 9 NOPs removed by reduceNOPs.sh
1201			
1202	03bd	00000000		nop	; Automatically Added by addNops.pl
1203	03be	00000000		nop	; Automatically Added by addNops.pl
1204	03bf	00000000		nop	; Automatically Added by addNops.pl
1205				; Automatically 20 NOPs removed by reduceNOPs.sh
1206	03c0	3c030000		lhi	%GPR3,$0	
1207	03c1	00000000		nop	; Automatically Added by addNops.pl
1208	03c2	00000000		nop	; Automatically Added by addNops.pl
1209	03c3	00000000		nop	; Automatically Added by addNops.pl
1210				; Automatically 16 NOPs removed by reduceNOPs.sh
1211	03c4	34630012		ori	%GPR3,%GPR3,$18	
1212	03c5	00000000		nop	; Automatically Added by addNops.pl
1213	03c6	00000000		nop	; Automatically Added by addNops.pl
1214	03c7	00000000		nop	; Automatically Added by addNops.pl
1215	03c8	3c020000		lhi	%GPR2,$0	
1216	03c9	00000000		nop	; Automatically Added by addNops.pl
1217	03ca	00000000		nop	; Automatically Added by addNops.pl
1218	03cb	00000000		nop	; Automatically Added by addNops.pl
1219				; Automatically 16 NOPs removed by reduceNOPs.sh
1220	03cc	34420001		ori	%GPR2,%GPR2,$1	
1221			
1222			
1223			
1224	03cd	00000000		nop	; Automatically Added by addNops.pl
1225	03ce	00000000		nop	; Automatically Added by addNops.pl
1226	03cf	00000000		nop	; Automatically Added by addNops.pl
1227				; Automatically 12 NOPs removed by reduceNOPs.sh
1228	03d0	0040000a		putc	%GPR2
1229	03d1	00000000		nop	; Automatically Added by addNops.pl
1230	03d2	00000000		nop	; Automatically Added by addNops.pl
1231	03d3	00000000		nop	; Automatically Added by addNops.pl
1232				; Automatically 9 NOPs removed by reduceNOPs.sh
1233			
1234	03d4	00000000		nop	; Automatically Added by addNops.pl
1235	03d5	00000000		nop	; Automatically Added by addNops.pl
1236	03d6	00000000		nop	; Automatically Added by addNops.pl
1237				; Automatically 8 NOPs removed by reduceNOPs.sh
1238	03d7	00621820		add	%GPR3,%GPR3,%GPR2	
1239	03d8	00000000		nop	; Automatically Added by addNops.pl
1240	03d9	00000000		nop	; Automatically Added by addNops.pl
1241	03da	00000000		nop	; Automatically Added by addNops.pl
1242				; Automatically 12 NOPs removed by reduceNOPs.sh
1243	03db	3c020000		lhi	%GPR2,$0	
1244	03dc	00000000		nop	; Automatically Added by addNops.pl
1245	03dd	00000000		nop	; Automatically Added by addNops.pl
1246	03de	00000000		nop	; Automatically Added by addNops.pl
1247				; Automatically 16 NOPs removed by reduceNOPs.sh
1248	03df	34420049		ori	%GPR2,%GPR2,$73	
1249			
1250			
1251			
1252	03e0	00000000		nop	; Automatically Added by addNops.pl
1253	03e1	00000000		nop	; Automatically Added by addNops.pl
1254	03e2	00000000		nop	; Automatically Added by addNops.pl
1255				; Automatically 12 NOPs removed by reduceNOPs.sh
1256	03e3	0040000a		putc	%GPR2
1257	03e4	00000000		nop	; Automatically Added by addNops.pl
1258	03e5	00000000		nop	; Automatically Added by addNops.pl
1259	03e6	00000000		nop	; Automatically Added by addNops.pl
1260				; Automatically 9 NOPs removed by reduceNOPs.sh
1261			
1262	03e7	00000000		nop	; Automatically Added by addNops.pl
1263	03e8	00000000		nop	; Automatically Added by addNops.pl
1264	03e9	00000000		nop	; Automatically Added by addNops.pl
1265	03ea	00621820		add	%GPR3,%GPR3,%GPR2	
1266			
1267			
1268			
1269	03eb	00000000		nop	; Automatically Added by addNops.pl
1270	03ec	00000000		nop	; Automatically Added by addNops.pl
1271	03ed	00000000		nop	; Automatically Added by addNops.pl
1272				; Automatically 12 NOPs removed by reduceNOPs.sh
1273	03ee	0060000a		putc	%GPR3
1274	03ef	00000000		nop	; Automatically Added by addNops.pl
1275	03f0	00000000		nop	; Automatically Added by addNops.pl
1276	03f1	00000000		nop	; Automatically Added by addNops.pl
1277				; Automatically 9 NOPs removed by reduceNOPs.sh
1278			
1279	03f2	00000000		nop	; Automatically Added by addNops.pl
1280	03f3	00000000		nop	; Automatically Added by addNops.pl
1281	03f4	00000000		nop	; Automatically Added by addNops.pl
1282				; Automatically 20 NOPs removed by reduceNOPs.sh
1283	03f5	3c03ffff		lhi	%GPR3,$65535	
1284	03f6	00000000		nop	; Automatically Added by addNops.pl
1285	03f7	00000000		nop	; Automatically Added by addNops.pl
1286	03f8	00000000		nop	; Automatically Added by addNops.pl
1287				; Automatically 16 NOPs removed by reduceNOPs.sh
1288	03f9	3463ffff		ori	%GPR3,%GPR3,$-1	
1289	03fa	00000000		nop	; Automatically Added by addNops.pl
1290	03fb	00000000		nop	; Automatically Added by addNops.pl
1291	03fc	00000000		nop	; Automatically Added by addNops.pl
1292				; Automatically 12 NOPs removed by reduceNOPs.sh
1293			L_lib_lcd_16:
1294	03fd	00000000		nop	; Automatically Added by addNops.pl
1295	03fe	00000000		nop	; Automatically Added by addNops.pl
1296	03ff	00000000		nop	; Automatically Added by addNops.pl
1297				; Automatically 16 NOPs removed by reduceNOPs.sh
1298	0400	3c010000		lhi	%GPR1,$0	
1299	0401	00000000		nop	; Automatically Added by addNops.pl
1300	0402	00000000		nop	; Automatically Added by addNops.pl
1301	0403	00000000		nop	; Automatically Added by addNops.pl
1302				; Automatically 16 NOPs removed by reduceNOPs.sh
1303	0404	34210000		ori	%GPR1,%GPR1,$0	
1304			
1305			
1306			
1307	0405	00000000		nop	; Automatically Added by addNops.pl
1308	0406	00000000		nop	; Automatically Added by addNops.pl
1309	0407	00000000		nop	; Automatically Added by addNops.pl
1310				; Automatically 12 NOPs removed by reduceNOPs.sh
1311	0408	0020000a		putc	%GPR1
1312	0409	00000000		nop	; Automatically Added by addNops.pl
1313	040a	00000000		nop	; Automatically Added by addNops.pl
1314	040b	00000000		nop	; Automatically Added by addNops.pl
1315				; Automatically 9 NOPs removed by reduceNOPs.sh
1316			
1317	040c	00000000		nop	; Automatically Added by addNops.pl
1318	040d	00000000		nop	; Automatically Added by addNops.pl
1319	040e	00000000		nop	; Automatically Added by addNops.pl
1320	040f	20820001		addi	%GPR2,%GPR4,$1	
1321			
1322			
1323			
1324	0410	00000000		nop	; Automatically Added by addNops.pl
1325	0411	00000000		nop	; Automatically Added by addNops.pl
1326	0412	00000000		nop	; Automatically Added by addNops.pl
1327				; Automatically 12 NOPs removed by reduceNOPs.sh
1328	0413	0040000a		putc	%GPR2
1329	0414	00000000		nop	; Automatically Added by addNops.pl
1330	0415	00000000		nop	; Automatically Added by addNops.pl
1331	0416	00000000		nop	; Automatically Added by addNops.pl
1332				; Automatically 9 NOPs removed by reduceNOPs.sh
1333			
1334	0417	00000000		nop	; Automatically Added by addNops.pl
1335	0418	00000000		nop	; Automatically Added by addNops.pl
1336	0419	00000000		nop	; Automatically Added by addNops.pl
1337				; Automatically 20 NOPs removed by reduceNOPs.sh
1338	041a	3c010000		lhi	%GPR1,$0	
1339	041b	00000000		nop	; Automatically Added by addNops.pl
1340	041c	00000000		nop	; Automatically Added by addNops.pl
1341	041d	00000000		nop	; Automatically Added by addNops.pl
1342				; Automatically 16 NOPs removed by reduceNOPs.sh
1343	041e	34210006		ori	%GPR1,%GPR1,$6	
1344			
1345			
1346			
1347	041f	00000000		nop	; Automatically Added by addNops.pl
1348	0420	00000000		nop	; Automatically Added by addNops.pl
1349	0421	00000000		nop	; Automatically Added by addNops.pl
1350				; Automatically 12 NOPs removed by reduceNOPs.sh
1351	0422	0020000a		putc	%GPR1
1352	0423	00000000		nop	; Automatically Added by addNops.pl
1353	0424	00000000		nop	; Automatically Added by addNops.pl
1354	0425	00000000		nop	; Automatically Added by addNops.pl
1355				; Automatically 9 NOPs removed by reduceNOPs.sh
1356			
1357			
1358			
1359			
1360	0426	00000000		nop	; Automatically Added by addNops.pl
1361	0427	00000000		nop	; Automatically Added by addNops.pl
1362	0428	00000000		nop	; Automatically Added by addNops.pl
1363				; Automatically 12 NOPs removed by reduceNOPs.sh
1364	0429	0040000b		getc	%GPR2
1365	042a	00000000		nop	; Automatically Added by addNops.pl
1366	042b	00000000		nop	; Automatically Added by addNops.pl
1367	042c	00000000		nop	; Automatically Added by addNops.pl
1368				; Automatically 9 NOPs removed by reduceNOPs.sh
1369			
1370			
1371			
1372			
1373	042d	00000000		nop	; Automatically Added by addNops.pl
1374	042e	00000000		nop	; Automatically Added by addNops.pl
1375	042f	00000000		nop	; Automatically Added by addNops.pl
1376				; Automatically 12 NOPs removed by reduceNOPs.sh
1377	0430	0040000b		getc	%GPR2
1378	0431	00000000		nop	; Automatically Added by addNops.pl
1379	0432	00000000		nop	; Automatically Added by addNops.pl
1380	0433	00000000		nop	; Automatically Added by addNops.pl
1381				; Automatically 9 NOPs removed by reduceNOPs.sh
1382			
1383			
1384			
1385			
1386	0434	00000000		nop	; Automatically Added by addNops.pl
1387	0435	00000000		nop	; Automatically Added by addNops.pl
1388	0436	00000000		nop	; Automatically Added by addNops.pl
1389				; Automatically 12 NOPs removed by reduceNOPs.sh
1390	0437	0020000b		getc	%GPR1
1391	0438	00000000		nop	; Automatically Added by addNops.pl
1392	0439	00000000		nop	; Automatically Added by addNops.pl
1393	043a	00000000		nop	; Automatically Added by addNops.pl
1394				; Automatically 9 NOPs removed by reduceNOPs.sh
1395			
1396	043b	00000000		nop	; Automatically Added by addNops.pl
1397	043c	00000000		nop	; Automatically Added by addNops.pl
1398	043d	00000000		nop	; Automatically Added by addNops.pl
1399	043e	00411820		add	%GPR3,%GPR2,%GPR1	
1400			
1401			
1402			
1403	043f	00000000		nop	; Automatically Added by addNops.pl
1404	0440	00000000		nop	; Automatically Added by addNops.pl
1405	0441	00000000		nop	; Automatically Added by addNops.pl
1406				; Automatically 12 NOPs removed by reduceNOPs.sh
1407	0442	0020000b		getc	%GPR1
1408	0443	00000000		nop	; Automatically Added by addNops.pl
1409	0444	00000000		nop	; Automatically Added by addNops.pl
1410	0445	00000000		nop	; Automatically Added by addNops.pl
1411				; Automatically 9 NOPs removed by reduceNOPs.sh
1412			
1413	0446	00000000		nop	; Automatically Added by addNops.pl
1414	0447	00000000		nop	; Automatically Added by addNops.pl
1415	0448	00000000		nop	; Automatically Added by addNops.pl
1416	0449	00611820		add	%GPR3,%GPR3,%GPR1	
1417			
1418			
1419			
1420	044a	00000000		nop	; Automatically Added by addNops.pl
1421	044b	00000000		nop	; Automatically Added by addNops.pl
1422	044c	00000000		nop	; Automatically Added by addNops.pl
1423				; Automatically 12 NOPs removed by reduceNOPs.sh
1424	044d	0040000b		getc	%GPR2
1425	044e	00000000		nop	; Automatically Added by addNops.pl
1426	044f	00000000		nop	; Automatically Added by addNops.pl
1427	0450	00000000		nop	; Automatically Added by addNops.pl
1428				; Automatically 9 NOPs removed by reduceNOPs.sh
1429			
1430	0451	00000000		nop	; Automatically Added by addNops.pl
1431	0452	00000000		nop	; Automatically Added by addNops.pl
1432	0453	00000000		nop	; Automatically Added by addNops.pl
1433	0454	00621820		add	%GPR3,%GPR3,%GPR2	
1434			
1435			
1436			
1437	0455	00000000		nop	; Automatically Added by addNops.pl
1438	0456	00000000		nop	; Automatically Added by addNops.pl
1439	0457	00000000		nop	; Automatically Added by addNops.pl
1440				; Automatically 12 NOPs removed by reduceNOPs.sh
1441	0458	0040000b		getc	%GPR2
1442	0459	00000000		nop	; Automatically Added by addNops.pl
1443	045a	00000000		nop	; Automatically Added by addNops.pl
1444	045b	00000000		nop	; Automatically Added by addNops.pl
1445				; Automatically 9 NOPs removed by reduceNOPs.sh
1446			
1447	045c	00000000		nop	; Automatically Added by addNops.pl
1448	045d	00000000		nop	; Automatically Added by addNops.pl
1449	045e	00000000		nop	; Automatically Added by addNops.pl
1450				; Automatically 20 NOPs removed by reduceNOPs.sh
1451	045f	3c050000		lhi	%GPR5,$0	
1452	0460	00000000		nop	; Automatically Added by addNops.pl
1453	0461	00000000		nop	; Automatically Added by addNops.pl
1454	0462	00000000		nop	; Automatically Added by addNops.pl
1455				; Automatically 16 NOPs removed by reduceNOPs.sh
1456	0463	34a50100		ori	%GPR5,%GPR5,$256	
1457	0464	00000000		nop	; Automatically Added by addNops.pl
1458	0465	00000000		nop	; Automatically Added by addNops.pl
1459	0466	00000000		nop	; Automatically Added by addNops.pl
1460				; Automatically 16 NOPs removed by reduceNOPs.sh
1461	0467	0065181c		MOD	%GPR3,%GPR3,%GPR5	
1462	0468	00000000		nop	; Automatically Added by addNops.pl
1463	0469	00000000		nop	; Automatically Added by addNops.pl
1464	046a	00000000		nop	; Automatically Added by addNops.pl
1465				; Automatically 16 NOPs removed by reduceNOPs.sh
1466	046b	0062d82f		sne	%GPR27,%GPR3,%GPR2	
1467	046c	00000000		nop	; Automatically Added by addNops.pl
1468	046d	00000000		nop	; Automatically Added by addNops.pl
1469	046e	00000000		nop	; Automatically Added by addNops.pl
1470	046f	17600008		bnez	%GPR27,L_lib_lcd_17	
1471	0470	00000000		nop	; Automatically Added by addNops.pl
1472	0471	00000000		nop	; Automatically Added by addNops.pl
1473	0472	00000000		nop	; Automatically Added by addNops.pl
1474				; Automatically 16 NOPs removed by reduceNOPs.sh
1475	0473	08000061		j	L_lib_lcd_18	
1476	0474	00000000		nop	; Automatically Added by addNops.pl
1477	0475	00000000		nop	; Automatically Added by addNops.pl
1478	0476	00000000		nop	; Automatically Added by addNops.pl
1479				; Automatically 16 NOPs removed by reduceNOPs.sh
1480			L_lib_lcd_17:
1481	0477	00000000		nop	; Automatically Added by addNops.pl
1482	0478	00000000		nop	; Automatically Added by addNops.pl
1483	0479	00000000		nop	; Automatically Added by addNops.pl
1484				; Automatically 16 NOPs removed by reduceNOPs.sh
1485	047a	3c020000		lhi	%GPR2,$0	
1486	047b	00000000		nop	; Automatically Added by addNops.pl
1487	047c	00000000		nop	; Automatically Added by addNops.pl
1488	047d	00000000		nop	; Automatically Added by addNops.pl
1489				; Automatically 16 NOPs removed by reduceNOPs.sh
1490	047e	34420004		ori	%GPR2,%GPR2,$4	
1491			
1492			
1493			
1494	047f	00000000		nop	; Automatically Added by addNops.pl
1495	0480	00000000		nop	; Automatically Added by addNops.pl
1496	0481	00000000		nop	; Automatically Added by addNops.pl
1497				; Automatically 12 NOPs removed by reduceNOPs.sh
1498	0482	0040000a		putc	%GPR2
1499	0483	00000000		nop	; Automatically Added by addNops.pl
1500	0484	00000000		nop	; Automatically Added by addNops.pl
1501	0485	00000000		nop	; Automatically Added by addNops.pl
1502				; Automatically 9 NOPs removed by reduceNOPs.sh
1503			
1504			
1505			
1506			
1507	0486	00000000		nop	; Automatically Added by addNops.pl
1508	0487	00000000		nop	; Automatically Added by addNops.pl
1509	0488	00000000		nop	; Automatically Added by addNops.pl
1510				; Automatically 12 NOPs removed by reduceNOPs.sh
1511	0489	0080000a		putc	%GPR4
1512	048a	00000000		nop	; Automatically Added by addNops.pl
1513	048b	00000000		nop	; Automatically Added by addNops.pl
1514	048c	00000000		nop	; Automatically Added by addNops.pl
1515				; Automatically 9 NOPs removed by reduceNOPs.sh
1516			
1517	048d	00000000		nop	; Automatically Added by addNops.pl
1518	048e	00000000		nop	; Automatically Added by addNops.pl
1519	048f	00000000		nop	; Automatically Added by addNops.pl
1520				; Automatically 20 NOPs removed by reduceNOPs.sh
1521	0490	3c020000		lhi	%GPR2,$0	
1522	0491	00000000		nop	; Automatically Added by addNops.pl
1523	0492	00000000		nop	; Automatically Added by addNops.pl
1524	0493	00000000		nop	; Automatically Added by addNops.pl
1525				; Automatically 16 NOPs removed by reduceNOPs.sh
1526	0494	34420012		ori	%GPR2,%GPR2,$18	
1527			
1528			
1529			
1530	0495	00000000		nop	; Automatically Added by addNops.pl
1531	0496	00000000		nop	; Automatically Added by addNops.pl
1532	0497	00000000		nop	; Automatically Added by addNops.pl
1533				; Automatically 12 NOPs removed by reduceNOPs.sh
1534	0498	0040000a		putc	%GPR2
1535	0499	00000000		nop	; Automatically Added by addNops.pl
1536	049a	00000000		nop	; Automatically Added by addNops.pl
1537	049b	00000000		nop	; Automatically Added by addNops.pl
1538				; Automatically 9 NOPs removed by reduceNOPs.sh
1539			
1540	049c	00000000		nop	; Automatically Added by addNops.pl
1541	049d	00000000		nop	; Automatically Added by addNops.pl
1542	049e	00000000		nop	; Automatically Added by addNops.pl
1543				; Automatically 20 NOPs removed by reduceNOPs.sh
1544	049f	3c030000		lhi	%GPR3,$0	
1545	04a0	00000000		nop	; Automatically Added by addNops.pl
1546	04a1	00000000		nop	; Automatically Added by addNops.pl
1547	04a2	00000000		nop	; Automatically Added by addNops.pl
1548				; Automatically 16 NOPs removed by reduceNOPs.sh
1549	04a3	34630012		ori	%GPR3,%GPR3,$18	
1550	04a4	00000000		nop	; Automatically Added by addNops.pl
1551	04a5	00000000		nop	; Automatically Added by addNops.pl
1552	04a6	00000000		nop	; Automatically Added by addNops.pl
1553	04a7	3c020000		lhi	%GPR2,$0	
1554	04a8	00000000		nop	; Automatically Added by addNops.pl
1555	04a9	00000000		nop	; Automatically Added by addNops.pl
1556	04aa	00000000		nop	; Automatically Added by addNops.pl
1557				; Automatically 16 NOPs removed by reduceNOPs.sh
1558	04ab	34420001		ori	%GPR2,%GPR2,$1	
1559			
1560			
1561			
1562	04ac	00000000		nop	; Automatically Added by addNops.pl
1563	04ad	00000000		nop	; Automatically Added by addNops.pl
1564	04ae	00000000		nop	; Automatically Added by addNops.pl
1565				; Automatically 12 NOPs removed by reduceNOPs.sh
1566	04af	0040000a		putc	%GPR2
1567	04b0	00000000		nop	; Automatically Added by addNops.pl
1568	04b1	00000000		nop	; Automatically Added by addNops.pl
1569	04b2	00000000		nop	; Automatically Added by addNops.pl
1570				; Automatically 9 NOPs removed by reduceNOPs.sh
1571			
1572	04b3	00000000		nop	; Automatically Added by addNops.pl
1573	04b4	00000000		nop	; Automatically Added by addNops.pl
1574	04b5	00000000		nop	; Automatically Added by addNops.pl
1575				; Automatically 8 NOPs removed by reduceNOPs.sh
1576	04b6	00621820		add	%GPR3,%GPR3,%GPR2	
1577	04b7	00000000		nop	; Automatically Added by addNops.pl
1578	04b8	00000000		nop	; Automatically Added by addNops.pl
1579	04b9	00000000		nop	; Automatically Added by addNops.pl
1580				; Automatically 12 NOPs removed by reduceNOPs.sh
1581	04ba	3c020000		lhi	%GPR2,$0	
1582	04bb	00000000		nop	; Automatically Added by addNops.pl
1583	04bc	00000000		nop	; Automatically Added by addNops.pl
1584	04bd	00000000		nop	; Automatically Added by addNops.pl
1585				; Automatically 16 NOPs removed by reduceNOPs.sh
1586	04be	34420052		ori	%GPR2,%GPR2,$82	
1587			
1588			
1589			
1590	04bf	00000000		nop	; Automatically Added by addNops.pl
1591	04c0	00000000		nop	; Automatically Added by addNops.pl
1592	04c1	00000000		nop	; Automatically Added by addNops.pl
1593				; Automatically 12 NOPs removed by reduceNOPs.sh
1594	04c2	0040000a		putc	%GPR2
1595	04c3	00000000		nop	; Automatically Added by addNops.pl
1596	04c4	00000000		nop	; Automatically Added by addNops.pl
1597	04c5	00000000		nop	; Automatically Added by addNops.pl
1598				; Automatically 9 NOPs removed by reduceNOPs.sh
1599			
1600	04c6	00000000		nop	; Automatically Added by addNops.pl
1601	04c7	00000000		nop	; Automatically Added by addNops.pl
1602	04c8	00000000		nop	; Automatically Added by addNops.pl
1603	04c9	00621820		add	%GPR3,%GPR3,%GPR2	
1604			
1605			
1606			
1607	04ca	00000000		nop	; Automatically Added by addNops.pl
1608	04cb	00000000		nop	; Automatically Added by addNops.pl
1609	04cc	00000000		nop	; Automatically Added by addNops.pl
1610				; Automatically 12 NOPs removed by reduceNOPs.sh
1611	04cd	0060000a		putc	%GPR3
1612	04ce	00000000		nop	; Automatically Added by addNops.pl
1613	04cf	00000000		nop	; Automatically Added by addNops.pl
1614	04d0	00000000		nop	; Automatically Added by addNops.pl
1615				; Automatically 9 NOPs removed by reduceNOPs.sh
1616			
1617	04d1	00000000		nop	; Automatically Added by addNops.pl
1618	04d2	00000000		nop	; Automatically Added by addNops.pl
1619	04d3	00000000		nop	; Automatically Added by addNops.pl
1620				; Automatically 12 NOPs removed by reduceNOPs.sh
1621			L_lib_lcd_18:
1622	04d4	00000000		nop	; Automatically Added by addNops.pl
1623	04d5	00000000		nop	; Automatically Added by addNops.pl
1624	04d6	00000000		nop	; Automatically Added by addNops.pl
1625				; Automatically 16 NOPs removed by reduceNOPs.sh
1626	04d7	3c02ffff		lhi	%GPR2,$65535	
1627	04d8	00000000		nop	; Automatically Added by addNops.pl
1628	04d9	00000000		nop	; Automatically Added by addNops.pl
1629	04da	00000000		nop	; Automatically Added by addNops.pl
1630				; Automatically 16 NOPs removed by reduceNOPs.sh
1631	04db	3442ffff		ori	%GPR2,%GPR2,$-1	
1632	04dc	00000000		nop	; Automatically Added by addNops.pl
1633	04dd	00000000		nop	; Automatically Added by addNops.pl
1634	04de	00000000		nop	; Automatically Added by addNops.pl
1635				; Automatically 16 NOPs removed by reduceNOPs.sh
1636	04df	0062d82e		seq	%GPR27,%GPR3,%GPR2	
1637	04e0	00000000		nop	; Automatically Added by addNops.pl
1638	04e1	00000000		nop	; Automatically Added by addNops.pl
1639	04e2	00000000		nop	; Automatically Added by addNops.pl
1640	04e3	1760ff1a		bnez	%GPR27,L_lib_lcd_16	
1641	04e4	00000000		nop	; Automatically Added by addNops.pl
1642	04e5	00000000		nop	; Automatically Added by addNops.pl
1643	04e6	00000000		nop	; Automatically Added by addNops.pl
1644				; Automatically 16 NOPs removed by reduceNOPs.sh
1645	04e7	08000004		j	L_lib_lcd_19	
1646	04e8	00000000		nop	; Automatically Added by addNops.pl
1647	04e9	00000000		nop	; Automatically Added by addNops.pl
1648	04ea	00000000		nop	; Automatically Added by addNops.pl
1649				; Automatically 16 NOPs removed by reduceNOPs.sh
1650			L_lib_lcd_19:
1651	04eb	00000000		nop	; Automatically Added by addNops.pl
1652	04ec	00000000		nop	; Automatically Added by addNops.pl
1653	04ed	00000000		nop	; Automatically Added by addNops.pl
1654	04ee	0020e020		add	%GPR28,%GPR1,%GPR0	
1655	04ef	00000000		nop	; Automatically Added by addNops.pl
1656	04f0	00000000		nop	; Automatically Added by addNops.pl
1657	04f1	00000000		nop	; Automatically Added by addNops.pl
1658				; Automatically 16 NOPs removed by reduceNOPs.sh
1659	04f2	08000004		j	L_lib_lcd_20	
1660	04f3	00000000		nop	; Automatically Added by addNops.pl
1661	04f4	00000000		nop	; Automatically Added by addNops.pl
1662	04f5	00000000		nop	; Automatically Added by addNops.pl
1663				; Automatically 16 NOPs removed by reduceNOPs.sh
1664			L_lib_lcd_20:
1665	04f6	00000000		nop	; Automatically Added by addNops.pl
1666	04f7	00000000		nop	; Automatically Added by addNops.pl
1667	04f8	00000000		nop	; Automatically Added by addNops.pl
1668				; Automatically 16 NOPs removed by reduceNOPs.sh
1669	04f9	8fdf0004		lw	%GPR31,4(%GPR30)	
1670	04fa	00000000		nop	; Automatically Added by addNops.pl
1671	04fb	00000000		nop	; Automatically Added by addNops.pl
1672	04fc	00000000		nop	; Automatically Added by addNops.pl
1673	04fd	27dd0004		addui	%GPR29,%GPR30,$4	
1674	04fe	00000000		nop	; Automatically Added by addNops.pl
1675	04ff	00000000		nop	; Automatically Added by addNops.pl
1676	0500	00000000		nop	; Automatically Added by addNops.pl
1677	0501	8fde0000		lw	%GPR30,0(%GPR30)	
1678	0502	00000000		nop	; Automatically Added by addNops.pl
1679	0503	00000000		nop	; Automatically Added by addNops.pl
1680	0504	00000000		nop	; Automatically Added by addNops.pl
1681				; Automatically 8 NOPs removed by reduceNOPs.sh
1682	0505	00000000		nop
1683	0506	00000000		nop
1684	0507	03e00008		jr	%GPR31	
1685	0508	00000000		nop	; Automatically Added by addNops.pl
1686	0509	00000000		nop	; Automatically Added by addNops.pl
1687	050a	00000000		nop	; Automatically Added by addNops.pl
1688				; Automatically 16 NOPs removed by reduceNOPs.sh
1689			getbytes:
1690			L_lib_lcd_21:
1691	050b	00000000		nop	; Automatically Added by addNops.pl
1692	050c	00000000		nop	; Automatically Added by addNops.pl
1693	050d	00000000		nop	; Automatically Added by addNops.pl
1694				; Automatically 16 NOPs removed by reduceNOPs.sh
1695	050e	afbefffc		sw	-4(%GPR29),%GPR30	
1696	050f	00000000		nop	; Automatically Added by addNops.pl
1697	0510	00000000		nop	; Automatically Added by addNops.pl
1698	0511	00000000		nop	; Automatically Added by addNops.pl
1699	0512	00000000		nop	; Automatically added by fix-stall-insns.pl
1700	0513	afbf0000		sw	0(%GPR29),%GPR31	
1701	0514	00000000		nop	; Automatically Added by addNops.pl
1702	0515	00000000		nop	; Automatically Added by addNops.pl
1703	0516	00000000		nop	; Automatically Added by addNops.pl
1704	0517	2fbe0004		subui	%GPR30,%GPR29,$4	
1705	0518	00000000		nop	; Automatically Added by addNops.pl
1706	0519	00000000		nop	; Automatically Added by addNops.pl
1707	051a	00000000		nop	; Automatically Added by addNops.pl
1708				; Automatically 4 NOPs removed by reduceNOPs.sh
1709	051b	2bbd0020		subi	%GPR29,%GPR29,$32	
1710	051c	00000000		nop	; Automatically Added by addNops.pl
1711	051d	00000000		nop	; Automatically Added by addNops.pl
1712	051e	00000000		nop	; Automatically Added by addNops.pl
1713				; Automatically 16 NOPs removed by reduceNOPs.sh
1714	051f	afc1fffc		sw	-4(%GPR30),%GPR1	
1715	0520	00000000		nop	; Automatically Added by addNops.pl
1716	0521	00000000		nop	; Automatically Added by addNops.pl
1717	0522	00000000		nop	; Automatically Added by addNops.pl
1718	0523	00000000		nop	; Automatically added by fix-stall-insns.pl
1719	0524	afc2fff8		sw	-8(%GPR30),%GPR2	
1720	0525	00000000		nop	; Automatically Added by addNops.pl
1721	0526	00000000		nop	; Automatically Added by addNops.pl
1722	0527	00000000		nop	; Automatically Added by addNops.pl
1723				; Automatically 32 NOPs removed by reduceNOPs.sh
1724	0528	3c010000		lhi	%GPR1,$0	
1725	0529	00000000		nop	; Automatically Added by addNops.pl
1726	052a	00000000		nop	; Automatically Added by addNops.pl
1727	052b	00000000		nop	; Automatically Added by addNops.pl
1728				; Automatically 16 NOPs removed by reduceNOPs.sh
1729	052c	34210004		ori	%GPR1,%GPR1,$4	
1730	052d	00000000		nop	; Automatically Added by addNops.pl
1731	052e	00000000		nop	; Automatically Added by addNops.pl
1732	052f	00000000		nop	; Automatically Added by addNops.pl
1733				; Automatically 16 NOPs removed by reduceNOPs.sh
1734	0530	afc1fff4		sw	-12(%GPR30),%GPR1	
1735	0531	00000000		nop	; Automatically Added by addNops.pl
1736	0532	00000000		nop	; Automatically Added by addNops.pl
1737	0533	00000000		nop	; Automatically Added by addNops.pl
1738	0534	3c010000		lhi	%GPR1,$0	
1739	0535	00000000		nop	; Automatically Added by addNops.pl
1740	0536	00000000		nop	; Automatically Added by addNops.pl
1741	0537	00000000		nop	; Automatically Added by addNops.pl
1742				; Automatically 16 NOPs removed by reduceNOPs.sh
1743	0538	342100de		ori	%GPR1,%GPR1,$222	
1744	0539	00000000		nop	; Automatically Added by addNops.pl
1745	053a	00000000		nop	; Automatically Added by addNops.pl
1746	053b	00000000		nop	; Automatically Added by addNops.pl
1747				; Automatically 16 NOPs removed by reduceNOPs.sh
1748	053c	afc1fff0		sw	-16(%GPR30),%GPR1	
1749	053d	00000000		nop	; Automatically Added by addNops.pl
1750	053e	00000000		nop	; Automatically Added by addNops.pl
1751	053f	00000000		nop	; Automatically Added by addNops.pl
1752	0540	3c010000		lhi	%GPR1,$0	
1753	0541	00000000		nop	; Automatically Added by addNops.pl
1754	0542	00000000		nop	; Automatically Added by addNops.pl
1755	0543	00000000		nop	; Automatically Added by addNops.pl
1756				; Automatically 16 NOPs removed by reduceNOPs.sh
1757	0544	34210000		ori	%GPR1,%GPR1,$0	
1758	0545	00000000		nop	; Automatically Added by addNops.pl
1759	0546	00000000		nop	; Automatically Added by addNops.pl
1760	0547	00000000		nop	; Automatically Added by addNops.pl
1761				; Automatically 16 NOPs removed by reduceNOPs.sh
1762	0548	afc1ffec		sw	-20(%GPR30),%GPR1	
1763	0549	00000000		nop	; Automatically Added by addNops.pl
1764	054a	00000000		nop	; Automatically Added by addNops.pl
1765	054b	00000000		nop	; Automatically Added by addNops.pl
1766	054c	00000000		nop	; Automatically added by fix-stall-insns.pl
1767	054d	8fc1fff4		lw	%GPR1,-12(%GPR30)	
1768			
1769			
1770			
1771	054e	00000000		nop	; Automatically Added by addNops.pl
1772	054f	00000000		nop	; Automatically Added by addNops.pl
1773	0550	00000000		nop	; Automatically Added by addNops.pl
1774				; Automatically 12 NOPs removed by reduceNOPs.sh
1775	0551	00000000		nop	; Automatically added by fix-stall-insns.pl
1776	0552	0020000a		putc	%GPR1
1777	0553	00000000		nop	; Automatically Added by addNops.pl
1778	0554	00000000		nop	; Automatically Added by addNops.pl
1779	0555	00000000		nop	; Automatically Added by addNops.pl
1780				; Automatically 9 NOPs removed by reduceNOPs.sh
1781			
1782	0556	00000000		nop	; Automatically Added by addNops.pl
1783	0557	00000000		nop	; Automatically Added by addNops.pl
1784	0558	00000000		nop	; Automatically Added by addNops.pl
1785	0559	8fc1fff0		lw	%GPR1,-16(%GPR30)	
1786			
1787			
1788			
1789	055a	00000000		nop	; Automatically Added by addNops.pl
1790	055b	00000000		nop	; Automatically Added by addNops.pl
1791	055c	00000000		nop	; Automatically Added by addNops.pl
1792				; Automatically 12 NOPs removed by reduceNOPs.sh
1793	055d	00000000		nop	; Automatically added by fix-stall-insns.pl
1794	055e	0020000a		putc	%GPR1
1795	055f	00000000		nop	; Automatically Added by addNops.pl
1796	0560	00000000		nop	; Automatically Added by addNops.pl
1797	0561	00000000		nop	; Automatically Added by addNops.pl
1798				; Automatically 9 NOPs removed by reduceNOPs.sh
1799			
1800	0562	00000000		nop	; Automatically Added by addNops.pl
1801	0563	00000000		nop	; Automatically Added by addNops.pl
1802	0564	00000000		nop	; Automatically Added by addNops.pl
1803				; Automatically 20 NOPs removed by reduceNOPs.sh
1804	0565	3c010000		lhi	%GPR1,$0	
1805	0566	00000000		nop	; Automatically Added by addNops.pl
1806	0567	00000000		nop	; Automatically Added by addNops.pl
1807	0568	00000000		nop	; Automatically Added by addNops.pl
1808				; Automatically 16 NOPs removed by reduceNOPs.sh
1809	0569	34210012		ori	%GPR1,%GPR1,$18	
1810			
1811			
1812			
1813	056a	00000000		nop	; Automatically Added by addNops.pl
1814	056b	00000000		nop	; Automatically Added by addNops.pl
1815	056c	00000000		nop	; Automatically Added by addNops.pl
1816				; Automatically 12 NOPs removed by reduceNOPs.sh
1817	056d	0020000a		putc	%GPR1
1818	056e	00000000		nop	; Automatically Added by addNops.pl
1819	056f	00000000		nop	; Automatically Added by addNops.pl
1820	0570	00000000		nop	; Automatically Added by addNops.pl
1821				; Automatically 9 NOPs removed by reduceNOPs.sh
1822			
1823	0571	00000000		nop	; Automatically Added by addNops.pl
1824	0572	00000000		nop	; Automatically Added by addNops.pl
1825	0573	00000000		nop	; Automatically Added by addNops.pl
1826				; Automatically 20 NOPs removed by reduceNOPs.sh
1827	0574	3c010000		lhi	%GPR1,$0	
1828	0575	00000000		nop	; Automatically Added by addNops.pl
1829	0576	00000000		nop	; Automatically Added by addNops.pl
1830	0577	00000000		nop	; Automatically Added by addNops.pl
1831				; Automatically 16 NOPs removed by reduceNOPs.sh
1832	0578	34210001		ori	%GPR1,%GPR1,$1	
1833	0579	00000000		nop	; Automatically Added by addNops.pl
1834	057a	00000000		nop	; Automatically Added by addNops.pl
1835	057b	00000000		nop	; Automatically Added by addNops.pl
1836				; Automatically 16 NOPs removed by reduceNOPs.sh
1837	057c	afc1fff4		sw	-12(%GPR30),%GPR1	
1838	057d	00000000		nop	; Automatically Added by addNops.pl
1839	057e	00000000		nop	; Automatically Added by addNops.pl
1840	057f	00000000		nop	; Automatically Added by addNops.pl
1841	0580	3c010000		lhi	%GPR1,$0	
1842	0581	00000000		nop	; Automatically Added by addNops.pl
1843	0582	00000000		nop	; Automatically Added by addNops.pl
1844	0583	00000000		nop	; Automatically Added by addNops.pl
1845				; Automatically 16 NOPs removed by reduceNOPs.sh
1846	0584	34210012		ori	%GPR1,%GPR1,$18	
1847	0585	00000000		nop	; Automatically Added by addNops.pl
1848	0586	00000000		nop	; Automatically Added by addNops.pl
1849	0587	00000000		nop	; Automatically Added by addNops.pl
1850				; Automatically 16 NOPs removed by reduceNOPs.sh
1851	0588	afc1ffe8		sw	-24(%GPR30),%GPR1	
1852	0589	00000000		nop	; Automatically Added by addNops.pl
1853	058a	00000000		nop	; Automatically Added by addNops.pl
1854	058b	00000000		nop	; Automatically Added by addNops.pl
1855	058c	00000000		nop	; Automatically added by fix-stall-insns.pl
1856	058d	8fc1fff4		lw	%GPR1,-12(%GPR30)	
1857	058e	00000000		nop	; Automatically Added by addNops.pl
1858	058f	00000000		nop	; Automatically Added by addNops.pl
1859	0590	00000000		nop	; Automatically Added by addNops.pl
1860				; Automatically 16 NOPs removed by reduceNOPs.sh
1861	0591	00201020		add	%GPR2,%GPR1,%GPR0	
1862			
1863			
1864			
1865	0592	00000000		nop	; Automatically Added by addNops.pl
1866	0593	00000000		nop	; Automatically Added by addNops.pl
1867	0594	00000000		nop	; Automatically Added by addNops.pl
1868				; Automatically 12 NOPs removed by reduceNOPs.sh
1869	0595	0020000a		putc	%GPR1
1870	0596	00000000		nop	; Automatically Added by addNops.pl
1871	0597	00000000		nop	; Automatically Added by addNops.pl
1872	0598	00000000		nop	; Automatically Added by addNops.pl
1873				; Automatically 9 NOPs removed by reduceNOPs.sh
1874			
1875	0599	00000000		nop	; Automatically Added by addNops.pl
1876	059a	00000000		nop	; Automatically Added by addNops.pl
1877	059b	00000000		nop	; Automatically Added by addNops.pl
1878	059c	8fc1ffe8		lw	%GPR1,-24(%GPR30)	
1879	059d	00000000		nop	; Automatically Added by addNops.pl
1880	059e	00000000		nop	; Automatically Added by addNops.pl
1881	059f	00000000		nop	; Automatically Added by addNops.pl
1882				; Automatically 16 NOPs removed by reduceNOPs.sh
1883	05a0	00220820		add	%GPR1,%GPR1,%GPR2	
1884	05a1	00000000		nop	; Automatically Added by addNops.pl
1885	05a2	00000000		nop	; Automatically Added by addNops.pl
1886	05a3	00000000		nop	; Automatically Added by addNops.pl
1887				; Automatically 16 NOPs removed by reduceNOPs.sh
1888	05a4	afc1ffe8		sw	-24(%GPR30),%GPR1	
1889	05a5	00000000		nop	; Automatically Added by addNops.pl
1890	05a6	00000000		nop	; Automatically Added by addNops.pl
1891	05a7	00000000		nop	; Automatically Added by addNops.pl
1892	05a8	3c010000		lhi	%GPR1,$0	
1893	05a9	00000000		nop	; Automatically Added by addNops.pl
1894	05aa	00000000		nop	; Automatically Added by addNops.pl
1895	05ab	00000000		nop	; Automatically Added by addNops.pl
1896				; Automatically 16 NOPs removed by reduceNOPs.sh
1897	05ac	34210053		ori	%GPR1,%GPR1,$83	
1898	05ad	00000000		nop	; Automatically Added by addNops.pl
1899	05ae	00000000		nop	; Automatically Added by addNops.pl
1900	05af	00000000		nop	; Automatically Added by addNops.pl
1901				; Automatically 16 NOPs removed by reduceNOPs.sh
1902	05b0	00201020		add	%GPR2,%GPR1,%GPR0	
1903			
1904			
1905			
1906	05b1	00000000		nop	; Automatically Added by addNops.pl
1907	05b2	00000000		nop	; Automatically Added by addNops.pl
1908	05b3	00000000		nop	; Automatically Added by addNops.pl
1909				; Automatically 12 NOPs removed by reduceNOPs.sh
1910	05b4	0020000a		putc	%GPR1
1911	05b5	00000000		nop	; Automatically Added by addNops.pl
1912	05b6	00000000		nop	; Automatically Added by addNops.pl
1913	05b7	00000000		nop	; Automatically Added by addNops.pl
1914				; Automatically 9 NOPs removed by reduceNOPs.sh
1915			
1916	05b8	00000000		nop	; Automatically Added by addNops.pl
1917	05b9	00000000		nop	; Automatically Added by addNops.pl
1918	05ba	00000000		nop	; Automatically Added by addNops.pl
1919	05bb	8fc1ffe8		lw	%GPR1,-24(%GPR30)	
1920	05bc	00000000		nop	; Automatically Added by addNops.pl
1921	05bd	00000000		nop	; Automatically Added by addNops.pl
1922	05be	00000000		nop	; Automatically Added by addNops.pl
1923				; Automatically 16 NOPs removed by reduceNOPs.sh
1924	05bf	00220820		add	%GPR1,%GPR1,%GPR2	
1925			
1926			
1927			
1928	05c0	00000000		nop	; Automatically Added by addNops.pl
1929	05c1	00000000		nop	; Automatically Added by addNops.pl
1930	05c2	00000000		nop	; Automatically Added by addNops.pl
1931				; Automatically 12 NOPs removed by reduceNOPs.sh
1932	05c3	0020000a		putc	%GPR1
1933	05c4	00000000		nop	; Automatically Added by addNops.pl
1934	05c5	00000000		nop	; Automatically Added by addNops.pl
1935	05c6	00000000		nop	; Automatically Added by addNops.pl
1936				; Automatically 9 NOPs removed by reduceNOPs.sh
1937			
1938	05c7	00000000		nop	; Automatically Added by addNops.pl
1939	05c8	00000000		nop	; Automatically Added by addNops.pl
1940	05c9	00000000		nop	; Automatically Added by addNops.pl
1941				; Automatically 20 NOPs removed by reduceNOPs.sh
1942	05ca	3c01ffff		lhi	%GPR1,$65535	
1943	05cb	00000000		nop	; Automatically Added by addNops.pl
1944	05cc	00000000		nop	; Automatically Added by addNops.pl
1945	05cd	00000000		nop	; Automatically Added by addNops.pl
1946				; Automatically 16 NOPs removed by reduceNOPs.sh
1947	05ce	3421ffff		ori	%GPR1,%GPR1,$-1	
1948	05cf	00000000		nop	; Automatically Added by addNops.pl
1949	05d0	00000000		nop	; Automatically Added by addNops.pl
1950	05d1	00000000		nop	; Automatically Added by addNops.pl
1951				; Automatically 12 NOPs removed by reduceNOPs.sh
1952			L_lib_lcd_22:
1953	05d2	00000000		nop	; Automatically Added by addNops.pl
1954	05d3	00000000		nop	; Automatically Added by addNops.pl
1955	05d4	00000000		nop	; Automatically Added by addNops.pl
1956				; Automatically 16 NOPs removed by reduceNOPs.sh
1957	05d5	3c010000		lhi	%GPR1,$0	
1958	05d6	00000000		nop	; Automatically Added by addNops.pl
1959	05d7	00000000		nop	; Automatically Added by addNops.pl
1960	05d8	00000000		nop	; Automatically Added by addNops.pl
1961				; Automatically 16 NOPs removed by reduceNOPs.sh
1962	05d9	34210000		ori	%GPR1,%GPR1,$0	
1963			
1964			
1965			
1966	05da	00000000		nop	; Automatically Added by addNops.pl
1967	05db	00000000		nop	; Automatically Added by addNops.pl
1968	05dc	00000000		nop	; Automatically Added by addNops.pl
1969				; Automatically 12 NOPs removed by reduceNOPs.sh
1970	05dd	0020000a		putc	%GPR1
1971	05de	00000000		nop	; Automatically Added by addNops.pl
1972	05df	00000000		nop	; Automatically Added by addNops.pl
1973	05e0	00000000		nop	; Automatically Added by addNops.pl
1974				; Automatically 9 NOPs removed by reduceNOPs.sh
1975			
1976	05e1	00000000		nop	; Automatically Added by addNops.pl
1977	05e2	00000000		nop	; Automatically Added by addNops.pl
1978	05e3	00000000		nop	; Automatically Added by addNops.pl
1979	05e4	8fc1fff0		lw	%GPR1,-16(%GPR30)	
1980	05e5	00000000		nop	; Automatically Added by addNops.pl
1981	05e6	00000000		nop	; Automatically Added by addNops.pl
1982	05e7	00000000		nop	; Automatically Added by addNops.pl
1983				; Automatically 16 NOPs removed by reduceNOPs.sh
1984	05e8	20210001		addi	%GPR1,%GPR1,$1	
1985			
1986			
1987			
1988	05e9	00000000		nop	; Automatically Added by addNops.pl
1989	05ea	00000000		nop	; Automatically Added by addNops.pl
1990	05eb	00000000		nop	; Automatically Added by addNops.pl
1991				; Automatically 12 NOPs removed by reduceNOPs.sh
1992	05ec	0020000a		putc	%GPR1
1993	05ed	00000000		nop	; Automatically Added by addNops.pl
1994	05ee	00000000		nop	; Automatically Added by addNops.pl
1995	05ef	00000000		nop	; Automatically Added by addNops.pl
1996				; Automatically 9 NOPs removed by reduceNOPs.sh
1997			
1998	05f0	00000000		nop	; Automatically Added by addNops.pl
1999	05f1	00000000		nop	; Automatically Added by addNops.pl
2000	05f2	00000000		nop	; Automatically Added by addNops.pl
2001	05f3	8fc1fff8		lw	%GPR1,-8(%GPR30)	
2002	05f4	00000000		nop	; Automatically Added by addNops.pl
2003	05f5	00000000		nop	; Automatically Added by addNops.pl
2004	05f6	00000000		nop	; Automatically Added by addNops.pl
2005				; Automatically 16 NOPs removed by reduceNOPs.sh
2006	05f7	20210004		addi	%GPR1,%GPR1,$4	
2007			
2008			
2009			
2010	05f8	00000000		nop	; Automatically Added by addNops.pl
2011	05f9	00000000		nop	; Automatically Added by addNops.pl
2012	05fa	00000000		nop	; Automatically Added by addNops.pl
2013				; Automatically 12 NOPs removed by reduceNOPs.sh
2014	05fb	0020000a		putc	%GPR1
2015	05fc	00000000		nop	; Automatically Added by addNops.pl
2016	05fd	00000000		nop	; Automatically Added by addNops.pl
2017	05fe	00000000		nop	; Automatically Added by addNops.pl
2018				; Automatically 9 NOPs removed by reduceNOPs.sh
2019			
2020			
2021			
2022			
2023	05ff	00000000		nop	; Automatically Added by addNops.pl
2024	0600	00000000		nop	; Automatically Added by addNops.pl
2025	0601	00000000		nop	; Automatically Added by addNops.pl
2026				; Automatically 12 NOPs removed by reduceNOPs.sh
2027	0602	0020000b		getc	%GPR1
2028	0603	00000000		nop	; Automatically Added by addNops.pl
2029	0604	00000000		nop	; Automatically Added by addNops.pl
2030	0605	00000000		nop	; Automatically Added by addNops.pl
2031				; Automatically 9 NOPs removed by reduceNOPs.sh
2032			
2033			
2034			
2035			
2036	0606	00000000		nop	; Automatically Added by addNops.pl
2037	0607	00000000		nop	; Automatically Added by addNops.pl
2038	0608	00000000		nop	; Automatically Added by addNops.pl
2039				; Automatically 12 NOPs removed by reduceNOPs.sh
2040	0609	0020000b		getc	%GPR1
2041	060a	00000000		nop	; Automatically Added by addNops.pl
2042	060b	00000000		nop	; Automatically Added by addNops.pl
2043	060c	00000000		nop	; Automatically Added by addNops.pl
2044				; Automatically 9 NOPs removed by reduceNOPs.sh
2045			
2046	060d	00000000		nop	; Automatically Added by addNops.pl
2047	060e	00000000		nop	; Automatically Added by addNops.pl
2048	060f	00000000		nop	; Automatically Added by addNops.pl
2049	0610	00201020		add	%GPR2,%GPR1,%GPR0	
2050			
2051			
2052			
2053	0611	00000000		nop	; Automatically Added by addNops.pl
2054	0612	00000000		nop	; Automatically Added by addNops.pl
2055	0613	00000000		nop	; Automatically Added by addNops.pl
2056				; Automatically 12 NOPs removed by reduceNOPs.sh
2057	0614	0020000b		getc	%GPR1
2058	0615	00000000		nop	; Automatically Added by addNops.pl
2059	0616	00000000		nop	; Automatically Added by addNops.pl
2060	0617	00000000		nop	; Automatically Added by addNops.pl
2061				; Automatically 9 NOPs removed by reduceNOPs.sh
2062			
2063	0618	00000000		nop	; Automatically Added by addNops.pl
2064	0619	00000000		nop	; Automatically Added by addNops.pl
2065	061a	00000000		nop	; Automatically Added by addNops.pl
2066	061b	00410820		add	%GPR1,%GPR2,%GPR1	
2067	061c	00000000		nop	; Automatically Added by addNops.pl
2068	061d	00000000		nop	; Automatically Added by addNops.pl
2069	061e	00000000		nop	; Automatically Added by addNops.pl
2070				; Automatically 16 NOPs removed by reduceNOPs.sh
2071	061f	afc1ffe8		sw	-24(%GPR30),%GPR1	
2072	0620	00000000		nop	; Automatically Added by addNops.pl
2073	0621	00000000		nop	; Automatically Added by addNops.pl
2074	0622	00000000		nop	; Automatically Added by addNops.pl
2075				; Automatically 12 NOPs removed by reduceNOPs.sh
2076			L_lib_lcd_23:
2077	0623	00000000		nop	; Automatically Added by addNops.pl
2078	0624	00000000		nop	; Automatically Added by addNops.pl
2079	0625	00000000		nop	; Automatically Added by addNops.pl
2080	0626	8fc1ffec		lw	%GPR1,-20(%GPR30)	
2081	0627	00000000		nop	; Automatically Added by addNops.pl
2082	0628	00000000		nop	; Automatically Added by addNops.pl
2083	0629	00000000		nop	; Automatically Added by addNops.pl
2084	062a	00000000		nop	; Automatically added by fix-stall-insns.pl
2085	062b	8fc2fff8		lw	%GPR2,-8(%GPR30)	
2086	062c	00000000		nop	; Automatically Added by addNops.pl
2087	062d	00000000		nop	; Automatically Added by addNops.pl
2088	062e	00000000		nop	; Automatically Added by addNops.pl
2089				; Automatically 16 NOPs removed by reduceNOPs.sh
2090	062f	0022d82f		sne	%GPR27,%GPR1,%GPR2	
2091	0630	00000000		nop	; Automatically Added by addNops.pl
2092	0631	00000000		nop	; Automatically Added by addNops.pl
2093	0632	00000000		nop	; Automatically Added by addNops.pl
2094	0633	17600008		bnez	%GPR27,L_lib_lcd_24	
2095	0634	00000000		nop	; Automatically Added by addNops.pl
2096	0635	00000000		nop	; Automatically Added by addNops.pl
2097	0636	00000000		nop	; Automatically Added by addNops.pl
2098				; Automatically 16 NOPs removed by reduceNOPs.sh
2099	0637	08000052		j	L_lib_lcd_25	
2100	0638	00000000		nop	; Automatically Added by addNops.pl
2101	0639	00000000		nop	; Automatically Added by addNops.pl
2102	063a	00000000		nop	; Automatically Added by addNops.pl
2103				; Automatically 16 NOPs removed by reduceNOPs.sh
2104			L_lib_lcd_24:
2105			
2106			
2107			
2108	063b	00000000		nop	; Automatically Added by addNops.pl
2109	063c	00000000		nop	; Automatically Added by addNops.pl
2110	063d	00000000		nop	; Automatically Added by addNops.pl
2111				; Automatically 12 NOPs removed by reduceNOPs.sh
2112	063e	0020000b		getc	%GPR1
2113	063f	00000000		nop	; Automatically Added by addNops.pl
2114	0640	00000000		nop	; Automatically Added by addNops.pl
2115	0641	00000000		nop	; Automatically Added by addNops.pl
2116				; Automatically 9 NOPs removed by reduceNOPs.sh
2117			
2118	0642	00000000		nop	; Automatically Added by addNops.pl
2119	0643	00000000		nop	; Automatically Added by addNops.pl
2120	0644	00000000		nop	; Automatically Added by addNops.pl
2121	0645	afc1fff4		sw	-12(%GPR30),%GPR1	
2122	0646	00000000		nop	; Automatically Added by addNops.pl
2123	0647	00000000		nop	; Automatically Added by addNops.pl
2124	0648	00000000		nop	; Automatically Added by addNops.pl
2125	0649	00000000		nop	; Automatically added by fix-stall-insns.pl
2126	064a	8fc2ffec		lw	%GPR2,-20(%GPR30)	
2127	064b	00000000		nop	; Automatically Added by addNops.pl
2128	064c	00000000		nop	; Automatically Added by addNops.pl
2129	064d	00000000		nop	; Automatically Added by addNops.pl
2130	064e	00000000		nop	; Automatically added by fix-stall-insns.pl
2131	064f	8fc1fffc		lw	%GPR1,-4(%GPR30)	
2132	0650	00000000		nop	; Automatically Added by addNops.pl
2133	0651	00000000		nop	; Automatically Added by addNops.pl
2134	0652	00000000		nop	; Automatically Added by addNops.pl
2135				; Automatically 16 NOPs removed by reduceNOPs.sh
2136	0653	00220820		add	%GPR1,%GPR1,%GPR2	
2137	0654	00000000		nop	; Automatically Added by addNops.pl
2138	0655	00000000		nop	; Automatically Added by addNops.pl
2139	0656	00000000		nop	; Automatically Added by addNops.pl
2140	0657	8fc2fff4		lw	%GPR2,-12(%GPR30)	
2141	0658	00000000		nop	; Automatically Added by addNops.pl
2142	0659	00000000		nop	; Automatically Added by addNops.pl
2143	065a	00000000		nop	; Automatically Added by addNops.pl
2144				; Automatically 16 NOPs removed by reduceNOPs.sh
2145	065b	2bbd0008		subi	%GPR29,%GPR29,$8	
2146	065c	00000000		nop	; Automatically Added by addNops.pl
2147	065d	00000000		nop	; Automatically Added by addNops.pl
2148	065e	00000000		nop	; Automatically Added by addNops.pl
2149				; Automatically 16 NOPs removed by reduceNOPs.sh
2150	065f	0c000e2a		jal	storeByte	
2151	0660	00000000		nop	; Automatically Added by addNops.pl
2152	0661	00000000		nop	; Automatically Added by addNops.pl
2153	0662	00000000		nop	; Automatically Added by addNops.pl
2154				; Automatically 16 NOPs removed by reduceNOPs.sh
2155	0663	23bd0008		addi	%GPR29,%GPR29,$8	
2156	0664	00000000		nop	; Automatically Added by addNops.pl
2157	0665	00000000		nop	; Automatically Added by addNops.pl
2158	0666	00000000		nop	; Automatically Added by addNops.pl
2159				; Automatically 16 NOPs removed by reduceNOPs.sh
2160	0667	8fc1ffe8		lw	%GPR1,-24(%GPR30)	
2161	0668	00000000		nop	; Automatically Added by addNops.pl
2162	0669	00000000		nop	; Automatically Added by addNops.pl
2163	066a	00000000		nop	; Automatically Added by addNops.pl
2164	066b	00000000		nop	; Automatically added by fix-stall-insns.pl
2165	066c	8fc2fff4		lw	%GPR2,-12(%GPR30)	
2166	066d	00000000		nop	; Automatically Added by addNops.pl
2167	066e	00000000		nop	; Automatically Added by addNops.pl
2168	066f	00000000		nop	; Automatically Added by addNops.pl
2169				; Automatically 16 NOPs removed by reduceNOPs.sh
2170	0670	00220820		add	%GPR1,%GPR1,%GPR2	
2171	0671	00000000		nop	; Automatically Added by addNops.pl
2172	0672	00000000		nop	; Automatically Added by addNops.pl
2173	0673	00000000		nop	; Automatically Added by addNops.pl
2174				; Automatically 16 NOPs removed by reduceNOPs.sh
2175	0674	afc1ffe8		sw	-24(%GPR30),%GPR1	
2176	0675	00000000		nop	; Automatically Added by addNops.pl
2177	0676	00000000		nop	; Automatically Added by addNops.pl
2178	0677	00000000		nop	; Automatically Added by addNops.pl
2179	0678	00000000		nop	; Automatically added by fix-stall-insns.pl
2180	0679	8fc1ffec		lw	%GPR1,-20(%GPR30)	
2181	067a	00000000		nop	; Automatically Added by addNops.pl
2182	067b	00000000		nop	; Automatically Added by addNops.pl
2183	067c	00000000		nop	; Automatically Added by addNops.pl
2184				; Automatically 16 NOPs removed by reduceNOPs.sh
2185	067d	20210001		addi	%GPR1,%GPR1,$1	
2186	067e	00000000		nop	; Automatically Added by addNops.pl
2187	067f	00000000		nop	; Automatically Added by addNops.pl
2188	0680	00000000		nop	; Automatically Added by addNops.pl
2189				; Automatically 16 NOPs removed by reduceNOPs.sh
2190	0681	afc1ffec		sw	-20(%GPR30),%GPR1	
2191	0682	00000000		nop	; Automatically Added by addNops.pl
2192	0683	00000000		nop	; Automatically Added by addNops.pl
2193	0684	00000000		nop	; Automatically Added by addNops.pl
2194	0685	0bffff9e		j	L_lib_lcd_23	
2195	0686	00000000		nop	; Automatically Added by addNops.pl
2196	0687	00000000		nop	; Automatically Added by addNops.pl
2197	0688	00000000		nop	; Automatically Added by addNops.pl
2198				; Automatically 12 NOPs removed by reduceNOPs.sh
2199			L_lib_lcd_25:
2200			
2201			
2202			
2203	0689	00000000		nop	; Automatically Added by addNops.pl
2204	068a	00000000		nop	; Automatically Added by addNops.pl
2205	068b	00000000		nop	; Automatically Added by addNops.pl
2206				; Automatically 12 NOPs removed by reduceNOPs.sh
2207	068c	0020000b		getc	%GPR1
2208	068d	00000000		nop	; Automatically Added by addNops.pl
2209	068e	00000000		nop	; Automatically Added by addNops.pl
2210	068f	00000000		nop	; Automatically Added by addNops.pl
2211				; Automatically 9 NOPs removed by reduceNOPs.sh
2212			
2213	0690	00000000		nop	; Automatically Added by addNops.pl
2214	0691	00000000		nop	; Automatically Added by addNops.pl
2215	0692	00000000		nop	; Automatically Added by addNops.pl
2216	0693	8fc2ffe8		lw	%GPR2,-24(%GPR30)	
2217	0694	00000000		nop	; Automatically Added by addNops.pl
2218	0695	00000000		nop	; Automatically Added by addNops.pl
2219	0696	00000000		nop	; Automatically Added by addNops.pl
2220				; Automatically 16 NOPs removed by reduceNOPs.sh
2221	0697	304200ff		andi	%GPR2,%GPR2,$255	
2222	0698	00000000		nop	; Automatically Added by addNops.pl
2223	0699	00000000		nop	; Automatically Added by addNops.pl
2224	069a	00000000		nop	; Automatically Added by addNops.pl
2225				; Automatically 16 NOPs removed by reduceNOPs.sh
2226	069b	afc2ffe8		sw	-24(%GPR30),%GPR2	
2227	069c	00000000		nop	; Automatically Added by addNops.pl
2228	069d	00000000		nop	; Automatically Added by addNops.pl
2229	069e	00000000		nop	; Automatically Added by addNops.pl
2230	069f	0041d82f		sne	%GPR27,%GPR2,%GPR1	
2231	06a0	00000000		nop	; Automatically Added by addNops.pl
2232	06a1	00000000		nop	; Automatically Added by addNops.pl
2233	06a2	00000000		nop	; Automatically Added by addNops.pl
2234	06a3	17600008		bnez	%GPR27,L_lib_lcd_26	
2235	06a4	00000000		nop	; Automatically Added by addNops.pl
2236	06a5	00000000		nop	; Automatically Added by addNops.pl
2237	06a6	00000000		nop	; Automatically Added by addNops.pl
2238				; Automatically 16 NOPs removed by reduceNOPs.sh
2239	06a7	0800008c		j	L_lib_lcd_27	
2240	06a8	00000000		nop	; Automatically Added by addNops.pl
2241	06a9	00000000		nop	; Automatically Added by addNops.pl
2242	06aa	00000000		nop	; Automatically Added by addNops.pl
2243				; Automatically 16 NOPs removed by reduceNOPs.sh
2244			L_lib_lcd_26:
2245	06ab	00000000		nop	; Automatically Added by addNops.pl
2246	06ac	00000000		nop	; Automatically Added by addNops.pl
2247	06ad	00000000		nop	; Automatically Added by addNops.pl
2248				; Automatically 16 NOPs removed by reduceNOPs.sh
2249	06ae	3c010000		lhi	%GPR1,$0	
2250	06af	00000000		nop	; Automatically Added by addNops.pl
2251	06b0	00000000		nop	; Automatically Added by addNops.pl
2252	06b1	00000000		nop	; Automatically Added by addNops.pl
2253				; Automatically 16 NOPs removed by reduceNOPs.sh
2254	06b2	34210004		ori	%GPR1,%GPR1,$4	
2255			
2256			
2257			
2258	06b3	00000000		nop	; Automatically Added by addNops.pl
2259	06b4	00000000		nop	; Automatically Added by addNops.pl
2260	06b5	00000000		nop	; Automatically Added by addNops.pl
2261				; Automatically 12 NOPs removed by reduceNOPs.sh
2262	06b6	0020000a		putc	%GPR1
2263	06b7	00000000		nop	; Automatically Added by addNops.pl
2264	06b8	00000000		nop	; Automatically Added by addNops.pl
2265	06b9	00000000		nop	; Automatically Added by addNops.pl
2266				; Automatically 9 NOPs removed by reduceNOPs.sh
2267			
2268	06ba	00000000		nop	; Automatically Added by addNops.pl
2269	06bb	00000000		nop	; Automatically Added by addNops.pl
2270	06bc	00000000		nop	; Automatically Added by addNops.pl
2271	06bd	8fc1fff0		lw	%GPR1,-16(%GPR30)	
2272			
2273			
2274			
2275	06be	00000000		nop	; Automatically Added by addNops.pl
2276	06bf	00000000		nop	; Automatically Added by addNops.pl
2277	06c0	00000000		nop	; Automatically Added by addNops.pl
2278				; Automatically 12 NOPs removed by reduceNOPs.sh
2279	06c1	00000000		nop	; Automatically added by fix-stall-insns.pl
2280	06c2	0020000a		putc	%GPR1
2281	06c3	00000000		nop	; Automatically Added by addNops.pl
2282	06c4	00000000		nop	; Automatically Added by addNops.pl
2283	06c5	00000000		nop	; Automatically Added by addNops.pl
2284				; Automatically 9 NOPs removed by reduceNOPs.sh
2285			
2286	06c6	00000000		nop	; Automatically Added by addNops.pl
2287	06c7	00000000		nop	; Automatically Added by addNops.pl
2288	06c8	00000000		nop	; Automatically Added by addNops.pl
2289				; Automatically 20 NOPs removed by reduceNOPs.sh
2290	06c9	3c010000		lhi	%GPR1,$0	
2291	06ca	00000000		nop	; Automatically Added by addNops.pl
2292	06cb	00000000		nop	; Automatically Added by addNops.pl
2293	06cc	00000000		nop	; Automatically Added by addNops.pl
2294				; Automatically 16 NOPs removed by reduceNOPs.sh
2295	06cd	34210012		ori	%GPR1,%GPR1,$18	
2296			
2297			
2298			
2299	06ce	00000000		nop	; Automatically Added by addNops.pl
2300	06cf	00000000		nop	; Automatically Added by addNops.pl
2301	06d0	00000000		nop	; Automatically Added by addNops.pl
2302				; Automatically 12 NOPs removed by reduceNOPs.sh
2303	06d1	0020000a		putc	%GPR1
2304	06d2	00000000		nop	; Automatically Added by addNops.pl
2305	06d3	00000000		nop	; Automatically Added by addNops.pl
2306	06d4	00000000		nop	; Automatically Added by addNops.pl
2307				; Automatically 9 NOPs removed by reduceNOPs.sh
2308			
2309	06d5	00000000		nop	; Automatically Added by addNops.pl
2310	06d6	00000000		nop	; Automatically Added by addNops.pl
2311	06d7	00000000		nop	; Automatically Added by addNops.pl
2312				; Automatically 20 NOPs removed by reduceNOPs.sh
2313	06d8	3c010000		lhi	%GPR1,$0	
2314	06d9	00000000		nop	; Automatically Added by addNops.pl
2315	06da	00000000		nop	; Automatically Added by addNops.pl
2316	06db	00000000		nop	; Automatically Added by addNops.pl
2317				; Automatically 16 NOPs removed by reduceNOPs.sh
2318	06dc	34210001		ori	%GPR1,%GPR1,$1	
2319	06dd	00000000		nop	; Automatically Added by addNops.pl
2320	06de	00000000		nop	; Automatically Added by addNops.pl
2321	06df	00000000		nop	; Automatically Added by addNops.pl
2322				; Automatically 16 NOPs removed by reduceNOPs.sh
2323	06e0	afc1fff4		sw	-12(%GPR30),%GPR1	
2324	06e1	00000000		nop	; Automatically Added by addNops.pl
2325	06e2	00000000		nop	; Automatically Added by addNops.pl
2326	06e3	00000000		nop	; Automatically Added by addNops.pl
2327	06e4	3c010000		lhi	%GPR1,$0	
2328	06e5	00000000		nop	; Automatically Added by addNops.pl
2329	06e6	00000000		nop	; Automatically Added by addNops.pl
2330	06e7	00000000		nop	; Automatically Added by addNops.pl
2331				; Automatically 16 NOPs removed by reduceNOPs.sh
2332	06e8	34210012		ori	%GPR1,%GPR1,$18	
2333	06e9	00000000		nop	; Automatically Added by addNops.pl
2334	06ea	00000000		nop	; Automatically Added by addNops.pl
2335	06eb	00000000		nop	; Automatically Added by addNops.pl
2336				; Automatically 16 NOPs removed by reduceNOPs.sh
2337	06ec	afc1ffe8		sw	-24(%GPR30),%GPR1	
2338	06ed	00000000		nop	; Automatically Added by addNops.pl
2339	06ee	00000000		nop	; Automatically Added by addNops.pl
2340	06ef	00000000		nop	; Automatically Added by addNops.pl
2341	06f0	00000000		nop	; Automatically added by fix-stall-insns.pl
2342	06f1	8fc1fff4		lw	%GPR1,-12(%GPR30)	
2343	06f2	00000000		nop	; Automatically Added by addNops.pl
2344	06f3	00000000		nop	; Automatically Added by addNops.pl
2345	06f4	00000000		nop	; Automatically Added by addNops.pl
2346				; Automatically 16 NOPs removed by reduceNOPs.sh
2347	06f5	00201020		add	%GPR2,%GPR1,%GPR0	
2348			
2349			
2350			
2351	06f6	00000000		nop	; Automatically Added by addNops.pl
2352	06f7	00000000		nop	; Automatically Added by addNops.pl
2353	06f8	00000000		nop	; Automatically Added by addNops.pl
2354				; Automatically 12 NOPs removed by reduceNOPs.sh
2355	06f9	0020000a		putc	%GPR1
2356	06fa	00000000		nop	; Automatically Added by addNops.pl
2357	06fb	00000000		nop	; Automatically Added by addNops.pl
2358	06fc	00000000		nop	; Automatically Added by addNops.pl
2359				; Automatically 9 NOPs removed by reduceNOPs.sh
2360			
2361	06fd	00000000		nop	; Automatically Added by addNops.pl
2362	06fe	00000000		nop	; Automatically Added by addNops.pl
2363	06ff	00000000		nop	; Automatically Added by addNops.pl
2364	0700	8fc1ffe8		lw	%GPR1,-24(%GPR30)	
2365	0701	00000000		nop	; Automatically Added by addNops.pl
2366	0702	00000000		nop	; Automatically Added by addNops.pl
2367	0703	00000000		nop	; Automatically Added by addNops.pl
2368				; Automatically 16 NOPs removed by reduceNOPs.sh
2369	0704	00220820		add	%GPR1,%GPR1,%GPR2	
2370	0705	00000000		nop	; Automatically Added by addNops.pl
2371	0706	00000000		nop	; Automatically Added by addNops.pl
2372	0707	00000000		nop	; Automatically Added by addNops.pl
2373				; Automatically 16 NOPs removed by reduceNOPs.sh
2374	0708	afc1ffe8		sw	-24(%GPR30),%GPR1	
2375	0709	00000000		nop	; Automatically Added by addNops.pl
2376	070a	00000000		nop	; Automatically Added by addNops.pl
2377	070b	00000000		nop	; Automatically Added by addNops.pl
2378	070c	3c010000		lhi	%GPR1,$0	
2379	070d	00000000		nop	; Automatically Added by addNops.pl
2380	070e	00000000		nop	; Automatically Added by addNops.pl
2381	070f	00000000		nop	; Automatically Added by addNops.pl
2382				; Automatically 16 NOPs removed by reduceNOPs.sh
2383	0710	34210052		ori	%GPR1,%GPR1,$82	
2384	0711	00000000		nop	; Automatically Added by addNops.pl
2385	0712	00000000		nop	; Automatically Added by addNops.pl
2386	0713	00000000		nop	; Automatically Added by addNops.pl
2387				; Automatically 16 NOPs removed by reduceNOPs.sh
2388	0714	00201020		add	%GPR2,%GPR1,%GPR0	
2389			
2390			
2391			
2392	0715	00000000		nop	; Automatically Added by addNops.pl
2393	0716	00000000		nop	; Automatically Added by addNops.pl
2394	0717	00000000		nop	; Automatically Added by addNops.pl
2395				; Automatically 12 NOPs removed by reduceNOPs.sh
2396	0718	0020000a		putc	%GPR1
2397	0719	00000000		nop	; Automatically Added by addNops.pl
2398	071a	00000000		nop	; Automatically Added by addNops.pl
2399	071b	00000000		nop	; Automatically Added by addNops.pl
2400				; Automatically 9 NOPs removed by reduceNOPs.sh
2401			
2402	071c	00000000		nop	; Automatically Added by addNops.pl
2403	071d	00000000		nop	; Automatically Added by addNops.pl
2404	071e	00000000		nop	; Automatically Added by addNops.pl
2405	071f	8fc1ffe8		lw	%GPR1,-24(%GPR30)	
2406	0720	00000000		nop	; Automatically Added by addNops.pl
2407	0721	00000000		nop	; Automatically Added by addNops.pl
2408	0722	00000000		nop	; Automatically Added by addNops.pl
2409				; Automatically 16 NOPs removed by reduceNOPs.sh
2410	0723	00220820		add	%GPR1,%GPR1,%GPR2	
2411	0724	00000000		nop	; Automatically Added by addNops.pl
2412	0725	00000000		nop	; Automatically Added by addNops.pl
2413	0726	00000000		nop	; Automatically Added by addNops.pl
2414				; Automatically 16 NOPs removed by reduceNOPs.sh
2415	0727	afc1ffe8		sw	-24(%GPR30),%GPR1	
2416			
2417			
2418			
2419	0728	00000000		nop	; Automatically Added by addNops.pl
2420	0729	00000000		nop	; Automatically Added by addNops.pl
2421	072a	00000000		nop	; Automatically Added by addNops.pl
2422				; Automatically 12 NOPs removed by reduceNOPs.sh
2423	072b	00000000		nop	; Automatically added by fix-stall-insns.pl
2424	072c	0020000a		putc	%GPR1
2425	072d	00000000		nop	; Automatically Added by addNops.pl
2426	072e	00000000		nop	; Automatically Added by addNops.pl
2427	072f	00000000		nop	; Automatically Added by addNops.pl
2428				; Automatically 9 NOPs removed by reduceNOPs.sh
2429			
2430	0730	00000000		nop	; Automatically Added by addNops.pl
2431	0731	00000000		nop	; Automatically Added by addNops.pl
2432	0732	00000000		nop	; Automatically Added by addNops.pl
2433				; Automatically 12 NOPs removed by reduceNOPs.sh
2434			L_lib_lcd_27:
2435	0733	00000000		nop	; Automatically Added by addNops.pl
2436	0734	00000000		nop	; Automatically Added by addNops.pl
2437	0735	00000000		nop	; Automatically Added by addNops.pl
2438	0736	8fc2ffe8		lw	%GPR2,-24(%GPR30)	
2439	0737	00000000		nop	; Automatically Added by addNops.pl
2440	0738	00000000		nop	; Automatically Added by addNops.pl
2441	0739	00000000		nop	; Automatically Added by addNops.pl
2442				; Automatically 12 NOPs removed by reduceNOPs.sh
2443	073a	3c01ffff		lhi	%GPR1,$65535	
2444	073b	00000000		nop	; Automatically Added by addNops.pl
2445	073c	00000000		nop	; Automatically Added by addNops.pl
2446	073d	00000000		nop	; Automatically Added by addNops.pl
2447				; Automatically 16 NOPs removed by reduceNOPs.sh
2448	073e	3421ffff		ori	%GPR1,%GPR1,$-1	
2449	073f	00000000		nop	; Automatically Added by addNops.pl
2450	0740	00000000		nop	; Automatically Added by addNops.pl
2451	0741	00000000		nop	; Automatically Added by addNops.pl
2452				; Automatically 16 NOPs removed by reduceNOPs.sh
2453	0742	0041d82e		seq	%GPR27,%GPR2,%GPR1	
2454	0743	00000000		nop	; Automatically Added by addNops.pl
2455	0744	00000000		nop	; Automatically Added by addNops.pl
2456	0745	00000000		nop	; Automatically Added by addNops.pl
2457	0746	1760fe8c		bnez	%GPR27,L_lib_lcd_22	
2458	0747	00000000		nop	; Automatically Added by addNops.pl
2459	0748	00000000		nop	; Automatically Added by addNops.pl
2460	0749	00000000		nop	; Automatically Added by addNops.pl
2461				; Automatically 16 NOPs removed by reduceNOPs.sh
2462	074a	08000004		j	L_lib_lcd_28	
2463	074b	00000000		nop	; Automatically Added by addNops.pl
2464	074c	00000000		nop	; Automatically Added by addNops.pl
2465	074d	00000000		nop	; Automatically Added by addNops.pl
2466				; Automatically 16 NOPs removed by reduceNOPs.sh
2467			L_lib_lcd_28:
2468	074e	00000000		nop	; Automatically Added by addNops.pl
2469	074f	00000000		nop	; Automatically Added by addNops.pl
2470	0750	00000000		nop	; Automatically Added by addNops.pl
2471	0751	8fdcffec		lw	%GPR28,-20(%GPR30)	
2472	0752	00000000		nop	; Automatically Added by addNops.pl
2473	0753	00000000		nop	; Automatically Added by addNops.pl
2474	0754	00000000		nop	; Automatically Added by addNops.pl
2475				; Automatically 16 NOPs removed by reduceNOPs.sh
2476	0755	08000004		j	L_lib_lcd_29	
2477	0756	00000000		nop	; Automatically Added by addNops.pl
2478	0757	00000000		nop	; Automatically Added by addNops.pl
2479	0758	00000000		nop	; Automatically Added by addNops.pl
2480				; Automatically 16 NOPs removed by reduceNOPs.sh
2481			L_lib_lcd_29:
2482	0759	00000000		nop	; Automatically Added by addNops.pl
2483	075a	00000000		nop	; Automatically Added by addNops.pl
2484	075b	00000000		nop	; Automatically Added by addNops.pl
2485				; Automatically 16 NOPs removed by reduceNOPs.sh
2486	075c	8fdf0004		lw	%GPR31,4(%GPR30)	
2487	075d	00000000		nop	; Automatically Added by addNops.pl
2488	075e	00000000		nop	; Automatically Added by addNops.pl
2489	075f	00000000		nop	; Automatically Added by addNops.pl
2490	0760	27dd0004		addui	%GPR29,%GPR30,$4	
2491	0761	00000000		nop	; Automatically Added by addNops.pl
2492	0762	00000000		nop	; Automatically Added by addNops.pl
2493	0763	00000000		nop	; Automatically Added by addNops.pl
2494	0764	8fde0000		lw	%GPR30,0(%GPR30)	
2495	0765	00000000		nop	; Automatically Added by addNops.pl
2496	0766	00000000		nop	; Automatically Added by addNops.pl
2497	0767	00000000		nop	; Automatically Added by addNops.pl
2498				; Automatically 8 NOPs removed by reduceNOPs.sh
2499	0768	00000000		nop
2500	0769	00000000		nop
2501	076a	03e00008		jr	%GPR31	
2502	076b	00000000		nop	; Automatically Added by addNops.pl
2503	076c	00000000		nop	; Automatically Added by addNops.pl
2504	076d	00000000		nop	; Automatically Added by addNops.pl
2505				; Automatically 16 NOPs removed by reduceNOPs.sh
2506			sendcommand:
2507			L_lib_lcd_30:
2508	076e	00000000		nop	; Automatically Added by addNops.pl
2509	076f	00000000		nop	; Automatically Added by addNops.pl
2510	0770	00000000		nop	; Automatically Added by addNops.pl
2511				; Automatically 16 NOPs removed by reduceNOPs.sh
2512	0771	afbefffc		sw	-4(%GPR29),%GPR30	
2513	0772	00000000		nop	; Automatically Added by addNops.pl
2514	0773	00000000		nop	; Automatically Added by addNops.pl
2515	0774	00000000		nop	; Automatically Added by addNops.pl
2516	0775	00000000		nop	; Automatically added by fix-stall-insns.pl
2517	0776	afbf0000		sw	0(%GPR29),%GPR31	
2518	0777	00000000		nop	; Automatically Added by addNops.pl
2519	0778	00000000		nop	; Automatically Added by addNops.pl
2520	0779	00000000		nop	; Automatically Added by addNops.pl
2521	077a	2fbe0004		subui	%GPR30,%GPR29,$4	
2522	077b	00000000		nop	; Automatically Added by addNops.pl
2523	077c	00000000		nop	; Automatically Added by addNops.pl
2524	077d	00000000		nop	; Automatically Added by addNops.pl
2525				; Automatically 4 NOPs removed by reduceNOPs.sh
2526	077e	2bbd0030		subi	%GPR29,%GPR29,$48	
2527	077f	00000000		nop	; Automatically Added by addNops.pl
2528	0780	00000000		nop	; Automatically Added by addNops.pl
2529	0781	00000000		nop	; Automatically Added by addNops.pl
2530				; Automatically 16 NOPs removed by reduceNOPs.sh
2531	0782	afc1fffc		sw	-4(%GPR30),%GPR1	
2532	0783	00000000		nop	; Automatically Added by addNops.pl
2533	0784	00000000		nop	; Automatically Added by addNops.pl
2534	0785	00000000		nop	; Automatically Added by addNops.pl
2535	0786	00000000		nop	; Automatically added by fix-stall-insns.pl
2536	0787	afc2fff8		sw	-8(%GPR30),%GPR2	
2537	0788	00000000		nop	; Automatically Added by addNops.pl
2538	0789	00000000		nop	; Automatically Added by addNops.pl
2539	078a	00000000		nop	; Automatically Added by addNops.pl
2540	078b	00000000		nop	; Automatically added by fix-stall-insns.pl
2541	078c	afc5fff4		sw	-12(%GPR30),%GPR5	
2542	078d	00000000		nop	; Automatically Added by addNops.pl
2543	078e	00000000		nop	; Automatically Added by addNops.pl
2544	078f	00000000		nop	; Automatically Added by addNops.pl
2545	0790	00000000		nop	; Automatically added by fix-stall-insns.pl
2546	0791	afc6fff0		sw	-16(%GPR30),%GPR6	
2547	0792	00000000		nop	; Automatically Added by addNops.pl
2548	0793	00000000		nop	; Automatically Added by addNops.pl
2549	0794	00000000		nop	; Automatically Added by addNops.pl
2550	0795	00e00820		add	%GPR1,%GPR7,%GPR0	
2551	0796	00000000		nop	; Automatically Added by addNops.pl
2552	0797	00000000		nop	; Automatically Added by addNops.pl
2553	0798	00000000		nop	; Automatically Added by addNops.pl
2554				; Automatically 12 NOPs removed by reduceNOPs.sh
2555	0799	40210001		slli	%GPR1,%GPR1,$1	
2556	079a	00000000		nop	; Automatically Added by addNops.pl
2557	079b	00000000		nop	; Automatically Added by addNops.pl
2558	079c	00000000		nop	; Automatically Added by addNops.pl
2559				; Automatically 8 NOPs removed by reduceNOPs.sh
2560	079d	afc3ffec		sw	-20(%GPR30),%GPR3	
2561	079e	00000000		nop	; Automatically Added by addNops.pl
2562	079f	00000000		nop	; Automatically Added by addNops.pl
2563	07a0	00000000		nop	; Automatically Added by addNops.pl
2564	07a1	00000000		nop	; Automatically added by fix-stall-insns.pl
2565	07a2	afc4ffe8		sw	-24(%GPR30),%GPR4	
2566	07a3	00000000		nop	; Automatically Added by addNops.pl
2567	07a4	00000000		nop	; Automatically Added by addNops.pl
2568	07a5	00000000		nop	; Automatically Added by addNops.pl
2569	07a6	00000000		nop	; Automatically added by fix-stall-insns.pl
2570	07a7	afc1ffe4		sw	-28(%GPR30),%GPR1	
2571	07a8	00000000		nop	; Automatically Added by addNops.pl
2572	07a9	00000000		nop	; Automatically Added by addNops.pl
2573	07aa	00000000		nop	; Automatically Added by addNops.pl
2574	07ab	3c010000		lhi	%GPR1,$0	
2575	07ac	00000000		nop	; Automatically Added by addNops.pl
2576	07ad	00000000		nop	; Automatically Added by addNops.pl
2577	07ae	00000000		nop	; Automatically Added by addNops.pl
2578				; Automatically 16 NOPs removed by reduceNOPs.sh
2579	07af	34210003		ori	%GPR1,%GPR1,$3	
2580	07b0	00000000		nop	; Automatically Added by addNops.pl
2581	07b1	00000000		nop	; Automatically Added by addNops.pl
2582	07b2	00000000		nop	; Automatically Added by addNops.pl
2583				; Automatically 16 NOPs removed by reduceNOPs.sh
2584	07b3	afc1ffe0		sw	-32(%GPR30),%GPR1	
2585	07b4	00000000		nop	; Automatically Added by addNops.pl
2586	07b5	00000000		nop	; Automatically Added by addNops.pl
2587	07b6	00000000		nop	; Automatically Added by addNops.pl
2588				; Automatically 12 NOPs removed by reduceNOPs.sh
2589			L_lib_lcd_31:
2590	07b7	00000000		nop	; Automatically Added by addNops.pl
2591	07b8	00000000		nop	; Automatically Added by addNops.pl
2592	07b9	00000000		nop	; Automatically Added by addNops.pl
2593	07ba	8fc2fff0		lw	%GPR2,-16(%GPR30)	
2594	07bb	00000000		nop	; Automatically Added by addNops.pl
2595	07bc	00000000		nop	; Automatically Added by addNops.pl
2596	07bd	00000000		nop	; Automatically Added by addNops.pl
2597	07be	00000000		nop	; Automatically added by fix-stall-insns.pl
2598	07bf	8fc1fff4		lw	%GPR1,-12(%GPR30)	
2599	07c0	00000000		nop	; Automatically Added by addNops.pl
2600	07c1	00000000		nop	; Automatically Added by addNops.pl
2601	07c2	00000000		nop	; Automatically Added by addNops.pl
2602				; Automatically 12 NOPs removed by reduceNOPs.sh
2603	07c3	00401820		add	%GPR3,%GPR2,%GPR0	
2604	07c4	00000000		nop	; Automatically Added by addNops.pl
2605	07c5	00000000		nop	; Automatically Added by addNops.pl
2606	07c6	00000000		nop	; Automatically Added by addNops.pl
2607	07c7	afc2ffdc		sw	-36(%GPR30),%GPR2	
2608	07c8	00000000		nop	; Automatically Added by addNops.pl
2609	07c9	00000000		nop	; Automatically Added by addNops.pl
2610	07ca	00000000		nop	; Automatically Added by addNops.pl
2611	07cb	00000000		nop	; Automatically added by fix-stall-insns.pl
2612	07cc	8fc2fff4		lw	%GPR2,-12(%GPR30)	
2613	07cd	00000000		nop	; Automatically Added by addNops.pl
2614	07ce	00000000		nop	; Automatically Added by addNops.pl
2615	07cf	00000000		nop	; Automatically Added by addNops.pl
2616				; Automatically 16 NOPs removed by reduceNOPs.sh
2617	07d0	00431020		add	%GPR2,%GPR2,%GPR3	
2618	07d1	00000000		nop	; Automatically Added by addNops.pl
2619	07d2	00000000		nop	; Automatically Added by addNops.pl
2620	07d3	00000000		nop	; Automatically Added by addNops.pl
2621	07d4	8fc3ffe0		lw	%GPR3,-32(%GPR30)	
2622	07d5	00000000		nop	; Automatically Added by addNops.pl
2623	07d6	00000000		nop	; Automatically Added by addNops.pl
2624	07d7	00000000		nop	; Automatically Added by addNops.pl
2625				; Automatically 16 NOPs removed by reduceNOPs.sh
2626	07d8	00431020		add	%GPR2,%GPR2,%GPR3	
2627	07d9	00000000		nop	; Automatically Added by addNops.pl
2628	07da	00000000		nop	; Automatically Added by addNops.pl
2629	07db	00000000		nop	; Automatically Added by addNops.pl
2630				; Automatically 16 NOPs removed by reduceNOPs.sh
2631	07dc	20420003		addi	%GPR2,%GPR2,$3	
2632	07dd	00000000		nop	; Automatically Added by addNops.pl
2633	07de	00000000		nop	; Automatically Added by addNops.pl
2634	07df	00000000		nop	; Automatically Added by addNops.pl
2635				; Automatically 17 NOPs removed by reduceNOPs.sh
2636			
2637			
2638			
2639	07e0	00000000		nop	; Automatically Added by addNops.pl
2640	07e1	00000000		nop	; Automatically Added by addNops.pl
2641	07e2	00000000		nop	; Automatically Added by addNops.pl
2642				; Automatically 12 NOPs removed by reduceNOPs.sh
2643	07e3	0040000a		putc	%GPR2
2644	07e4	00000000		nop	; Automatically Added by addNops.pl
2645	07e5	00000000		nop	; Automatically Added by addNops.pl
2646	07e6	00000000		nop	; Automatically Added by addNops.pl
2647				; Automatically 9 NOPs removed by reduceNOPs.sh
2648			
2649	07e7	00000000		nop	; Automatically Added by addNops.pl
2650	07e8	00000000		nop	; Automatically Added by addNops.pl
2651	07e9	00000000		nop	; Automatically Added by addNops.pl
2652	07ea	8fc2ffe4		lw	%GPR2,-28(%GPR30)	
2653	07eb	00000000		nop	; Automatically Added by addNops.pl
2654	07ec	00000000		nop	; Automatically Added by addNops.pl
2655	07ed	00000000		nop	; Automatically Added by addNops.pl
2656				; Automatically 17 NOPs removed by reduceNOPs.sh
2657			
2658			
2659			
2660	07ee	00000000		nop	; Automatically Added by addNops.pl
2661	07ef	00000000		nop	; Automatically Added by addNops.pl
2662	07f0	00000000		nop	; Automatically Added by addNops.pl
2663				; Automatically 12 NOPs removed by reduceNOPs.sh
2664	07f1	0040000a		putc	%GPR2
2665	07f2	00000000		nop	; Automatically Added by addNops.pl
2666	07f3	00000000		nop	; Automatically Added by addNops.pl
2667	07f4	00000000		nop	; Automatically Added by addNops.pl
2668				; Automatically 9 NOPs removed by reduceNOPs.sh
2669			
2670	07f5	00000000		nop	; Automatically Added by addNops.pl
2671	07f6	00000000		nop	; Automatically Added by addNops.pl
2672	07f7	00000000		nop	; Automatically Added by addNops.pl
2673				; Automatically 20 NOPs removed by reduceNOPs.sh
2674	07f8	3c020000		lhi	%GPR2,$0	
2675	07f9	00000000		nop	; Automatically Added by addNops.pl
2676	07fa	00000000		nop	; Automatically Added by addNops.pl
2677	07fb	00000000		nop	; Automatically Added by addNops.pl
2678				; Automatically 16 NOPs removed by reduceNOPs.sh
2679	07fc	34420011		ori	%GPR2,%GPR2,$17	
2680	07fd	00000000		nop	; Automatically Added by addNops.pl
2681	07fe	00000000		nop	; Automatically Added by addNops.pl
2682	07ff	00000000		nop	; Automatically Added by addNops.pl
2683				; Automatically 17 NOPs removed by reduceNOPs.sh
2684			
2685			
2686			
2687	0800	00000000		nop	; Automatically Added by addNops.pl
2688	0801	00000000		nop	; Automatically Added by addNops.pl
2689	0802	00000000		nop	; Automatically Added by addNops.pl
2690				; Automatically 12 NOPs removed by reduceNOPs.sh
2691	0803	0040000a		putc	%GPR2
2692	0804	00000000		nop	; Automatically Added by addNops.pl
2693	0805	00000000		nop	; Automatically Added by addNops.pl
2694	0806	00000000		nop	; Automatically Added by addNops.pl
2695				; Automatically 9 NOPs removed by reduceNOPs.sh
2696			
2697	0807	00000000		nop	; Automatically Added by addNops.pl
2698	0808	00000000		nop	; Automatically Added by addNops.pl
2699	0809	00000000		nop	; Automatically Added by addNops.pl
2700	080a	8fc3fff0		lw	%GPR3,-16(%GPR30)	
2701	080b	00000000		nop	; Automatically Added by addNops.pl
2702	080c	00000000		nop	; Automatically Added by addNops.pl
2703	080d	00000000		nop	; Automatically Added by addNops.pl
2704	080e	00000000		nop	; Automatically added by fix-stall-insns.pl
2705	080f	8fc2fff4		lw	%GPR2,-12(%GPR30)	
2706	0810	00000000		nop	; Automatically Added by addNops.pl
2707	0811	00000000		nop	; Automatically Added by addNops.pl
2708	0812	00000000		nop	; Automatically Added by addNops.pl
2709				; Automatically 16 NOPs removed by reduceNOPs.sh
2710	0813	00431020		add	%GPR2,%GPR2,%GPR3	
2711	0814	00000000		nop	; Automatically Added by addNops.pl
2712	0815	00000000		nop	; Automatically Added by addNops.pl
2713	0816	00000000		nop	; Automatically Added by addNops.pl
2714	0817	8fc3ffe0		lw	%GPR3,-32(%GPR30)	
2715	0818	00000000		nop	; Automatically Added by addNops.pl
2716	0819	00000000		nop	; Automatically Added by addNops.pl
2717	081a	00000000		nop	; Automatically Added by addNops.pl
2718	081b	3c040000		lhi	%GPR4,$0	
2719	081c	00000000		nop	; Automatically Added by addNops.pl
2720	081d	00000000		nop	; Automatically Added by addNops.pl
2721	081e	00000000		nop	; Automatically Added by addNops.pl
2722				; Automatically 16 NOPs removed by reduceNOPs.sh
2723	081f	34840011		ori	%GPR4,%GPR4,$17	
2724	0820	00000000		nop	; Automatically Added by addNops.pl
2725	0821	00000000		nop	; Automatically Added by addNops.pl
2726	0822	00000000		nop	; Automatically Added by addNops.pl
2727				; Automatically 12 NOPs removed by reduceNOPs.sh
2728	0823	00431020		add	%GPR2,%GPR2,%GPR3	
2729	0824	00000000		nop	; Automatically Added by addNops.pl
2730	0825	00000000		nop	; Automatically Added by addNops.pl
2731	0826	00000000		nop	; Automatically Added by addNops.pl
2732				; Automatically 16 NOPs removed by reduceNOPs.sh
2733	0827	00401820		add	%GPR3,%GPR2,%GPR0	
2734	0828	00000000		nop	; Automatically Added by addNops.pl
2735	0829	00000000		nop	; Automatically Added by addNops.pl
2736	082a	00000000		nop	; Automatically Added by addNops.pl
2737				; Automatically 17 NOPs removed by reduceNOPs.sh
2738			
2739			
2740			
2741	082b	00000000		nop	; Automatically Added by addNops.pl
2742	082c	00000000		nop	; Automatically Added by addNops.pl
2743	082d	00000000		nop	; Automatically Added by addNops.pl
2744				; Automatically 12 NOPs removed by reduceNOPs.sh
2745	082e	0060000a		putc	%GPR3
2746	082f	00000000		nop	; Automatically Added by addNops.pl
2747	0830	00000000		nop	; Automatically Added by addNops.pl
2748	0831	00000000		nop	; Automatically Added by addNops.pl
2749				; Automatically 9 NOPs removed by reduceNOPs.sh
2750			
2751	0832	00000000		nop	; Automatically Added by addNops.pl
2752	0833	00000000		nop	; Automatically Added by addNops.pl
2753	0834	00000000		nop	; Automatically Added by addNops.pl
2754	0835	00801820		add	%GPR3,%GPR4,%GPR0	
2755	0836	00000000		nop	; Automatically Added by addNops.pl
2756	0837	00000000		nop	; Automatically Added by addNops.pl
2757	0838	00000000		nop	; Automatically Added by addNops.pl
2758				; Automatically 16 NOPs removed by reduceNOPs.sh
2759	0839	00621020		add	%GPR2,%GPR3,%GPR2	
2760	083a	00000000		nop	; Automatically Added by addNops.pl
2761	083b	00000000		nop	; Automatically Added by addNops.pl
2762	083c	00000000		nop	; Automatically Added by addNops.pl
2763				; Automatically 16 NOPs removed by reduceNOPs.sh
2764	083d	afc2ffd8		sw	-40(%GPR30),%GPR2	
2765	083e	00000000		nop	; Automatically Added by addNops.pl
2766	083f	00000000		nop	; Automatically Added by addNops.pl
2767	0840	00000000		nop	; Automatically Added by addNops.pl
2768	0841	3c020000		lhi	%GPR2,$0	
2769	0842	00000000		nop	; Automatically Added by addNops.pl
2770	0843	00000000		nop	; Automatically Added by addNops.pl
2771	0844	00000000		nop	; Automatically Added by addNops.pl
2772				; Automatically 16 NOPs removed by reduceNOPs.sh
2773	0845	3442001b		ori	%GPR2,%GPR2,$27	
2774	0846	00000000		nop	; Automatically Added by addNops.pl
2775	0847	00000000		nop	; Automatically Added by addNops.pl
2776	0848	00000000		nop	; Automatically Added by addNops.pl
2777				; Automatically 16 NOPs removed by reduceNOPs.sh
2778	0849	00401820		add	%GPR3,%GPR2,%GPR0	
2779	084a	00000000		nop	; Automatically Added by addNops.pl
2780	084b	00000000		nop	; Automatically Added by addNops.pl
2781	084c	00000000		nop	; Automatically Added by addNops.pl
2782				; Automatically 17 NOPs removed by reduceNOPs.sh
2783			
2784			
2785			
2786	084d	00000000		nop	; Automatically Added by addNops.pl
2787	084e	00000000		nop	; Automatically Added by addNops.pl
2788	084f	00000000		nop	; Automatically Added by addNops.pl
2789				; Automatically 12 NOPs removed by reduceNOPs.sh
2790	0850	0060000a		putc	%GPR3
2791	0851	00000000		nop	; Automatically Added by addNops.pl
2792	0852	00000000		nop	; Automatically Added by addNops.pl
2793	0853	00000000		nop	; Automatically Added by addNops.pl
2794				; Automatically 9 NOPs removed by reduceNOPs.sh
2795			
2796	0854	00000000		nop	; Automatically Added by addNops.pl
2797	0855	00000000		nop	; Automatically Added by addNops.pl
2798	0856	00000000		nop	; Automatically Added by addNops.pl
2799	0857	8fc3ffd8		lw	%GPR3,-40(%GPR30)	
2800	0858	00000000		nop	; Automatically Added by addNops.pl
2801	0859	00000000		nop	; Automatically Added by addNops.pl
2802	085a	00000000		nop	; Automatically Added by addNops.pl
2803				; Automatically 16 NOPs removed by reduceNOPs.sh
2804	085b	00621020		add	%GPR2,%GPR3,%GPR2	
2805	085c	00000000		nop	; Automatically Added by addNops.pl
2806	085d	00000000		nop	; Automatically Added by addNops.pl
2807	085e	00000000		nop	; Automatically Added by addNops.pl
2808				; Automatically 16 NOPs removed by reduceNOPs.sh
2809	085f	afc2ffd8		sw	-40(%GPR30),%GPR2	
2810	0860	00000000		nop	; Automatically Added by addNops.pl
2811	0861	00000000		nop	; Automatically Added by addNops.pl
2812	0862	00000000		nop	; Automatically Added by addNops.pl
2813	0863	00000000		nop	; Automatically added by fix-stall-insns.pl
2814	0864	8fc2fffc		lw	%GPR2,-4(%GPR30)	
2815	0865	00000000		nop	; Automatically Added by addNops.pl
2816	0866	00000000		nop	; Automatically Added by addNops.pl
2817	0867	00000000		nop	; Automatically Added by addNops.pl
2818				; Automatically 32 NOPs removed by reduceNOPs.sh
2819	0868	00401820		add	%GPR3,%GPR2,%GPR0	
2820	0869	00000000		nop	; Automatically Added by addNops.pl
2821	086a	00000000		nop	; Automatically Added by addNops.pl
2822	086b	00000000		nop	; Automatically Added by addNops.pl
2823				; Automatically 17 NOPs removed by reduceNOPs.sh
2824			
2825			
2826			
2827	086c	00000000		nop	; Automatically Added by addNops.pl
2828	086d	00000000		nop	; Automatically Added by addNops.pl
2829	086e	00000000		nop	; Automatically Added by addNops.pl
2830				; Automatically 12 NOPs removed by reduceNOPs.sh
2831	086f	0060000a		putc	%GPR3
2832	0870	00000000		nop	; Automatically Added by addNops.pl
2833	0871	00000000		nop	; Automatically Added by addNops.pl
2834	0872	00000000		nop	; Automatically Added by addNops.pl
2835				; Automatically 9 NOPs removed by reduceNOPs.sh
2836			
2837	0873	00000000		nop	; Automatically Added by addNops.pl
2838	0874	00000000		nop	; Automatically Added by addNops.pl
2839	0875	00000000		nop	; Automatically Added by addNops.pl
2840	0876	8fc3ffd8		lw	%GPR3,-40(%GPR30)	
2841	0877	00000000		nop	; Automatically Added by addNops.pl
2842	0878	00000000		nop	; Automatically Added by addNops.pl
2843	0879	00000000		nop	; Automatically Added by addNops.pl
2844				; Automatically 16 NOPs removed by reduceNOPs.sh
2845	087a	00621020		add	%GPR2,%GPR3,%GPR2	
2846	087b	00000000		nop	; Automatically Added by addNops.pl
2847	087c	00000000		nop	; Automatically Added by addNops.pl
2848	087d	00000000		nop	; Automatically Added by addNops.pl
2849				; Automatically 16 NOPs removed by reduceNOPs.sh
2850	087e	afc2ffd8		sw	-40(%GPR30),%GPR2	
2851	087f	00000000		nop	; Automatically Added by addNops.pl
2852	0880	00000000		nop	; Automatically Added by addNops.pl
2853	0881	00000000		nop	; Automatically Added by addNops.pl
2854	0882	00000000		nop	; Automatically added by fix-stall-insns.pl
2855	0883	8fc2fff8		lw	%GPR2,-8(%GPR30)	
2856	0884	00000000		nop	; Automatically Added by addNops.pl
2857	0885	00000000		nop	; Automatically Added by addNops.pl
2858	0886	00000000		nop	; Automatically Added by addNops.pl
2859				; Automatically 32 NOPs removed by reduceNOPs.sh
2860	0887	00401820		add	%GPR3,%GPR2,%GPR0	
2861	0888	00000000		nop	; Automatically Added by addNops.pl
2862	0889	00000000		nop	; Automatically Added by addNops.pl
2863	088a	00000000		nop	; Automatically Added by addNops.pl
2864				; Automatically 17 NOPs removed by reduceNOPs.sh
2865			
2866			
2867			
2868	088b	00000000		nop	; Automatically Added by addNops.pl
2869	088c	00000000		nop	; Automatically Added by addNops.pl
2870	088d	00000000		nop	; Automatically Added by addNops.pl
2871				; Automatically 12 NOPs removed by reduceNOPs.sh
2872	088e	0060000a		putc	%GPR3
2873	088f	00000000		nop	; Automatically Added by addNops.pl
2874	0890	00000000		nop	; Automatically Added by addNops.pl
2875	0891	00000000		nop	; Automatically Added by addNops.pl
2876				; Automatically 9 NOPs removed by reduceNOPs.sh
2877			
2878	0892	00000000		nop	; Automatically Added by addNops.pl
2879	0893	00000000		nop	; Automatically Added by addNops.pl
2880	0894	00000000		nop	; Automatically Added by addNops.pl
2881	0895	8fc3ffd8		lw	%GPR3,-40(%GPR30)	
2882	0896	00000000		nop	; Automatically Added by addNops.pl
2883	0897	00000000		nop	; Automatically Added by addNops.pl
2884	0898	00000000		nop	; Automatically Added by addNops.pl
2885				; Automatically 16 NOPs removed by reduceNOPs.sh
2886	0899	00621020		add	%GPR2,%GPR3,%GPR2	
2887	089a	00000000		nop	; Automatically Added by addNops.pl
2888	089b	00000000		nop	; Automatically Added by addNops.pl
2889	089c	00000000		nop	; Automatically Added by addNops.pl
2890				; Automatically 16 NOPs removed by reduceNOPs.sh
2891	089d	afc2ffd8		sw	-40(%GPR30),%GPR2	
2892	089e	00000000		nop	; Automatically Added by addNops.pl
2893	089f	00000000		nop	; Automatically Added by addNops.pl
2894	08a0	00000000		nop	; Automatically Added by addNops.pl
2895				; Automatically 12 NOPs removed by reduceNOPs.sh
2896			L_lib_lcd_32:
2897	08a1	00000000		nop	; Automatically Added by addNops.pl
2898	08a2	00000000		nop	; Automatically Added by addNops.pl
2899	08a3	00000000		nop	; Automatically Added by addNops.pl
2900	08a4	00201020		add	%GPR2,%GPR1,%GPR0	
2901	08a5	00000000		nop	; Automatically Added by addNops.pl
2902	08a6	00000000		nop	; Automatically Added by addNops.pl
2903	08a7	00000000		nop	; Automatically Added by addNops.pl
2904	08a8	28210001		subi	%GPR1,%GPR1,$1	
2905	08a9	00000000		nop	; Automatically Added by addNops.pl
2906	08aa	00000000		nop	; Automatically Added by addNops.pl
2907	08ab	00000000		nop	; Automatically Added by addNops.pl
2908				; Automatically 8 NOPs removed by reduceNOPs.sh
2909	08ac	3c030000		lhi	%GPR3,$0	
2910	08ad	00000000		nop	; Automatically Added by addNops.pl
2911	08ae	00000000		nop	; Automatically Added by addNops.pl
2912	08af	00000000		nop	; Automatically Added by addNops.pl
2913				; Automatically 16 NOPs removed by reduceNOPs.sh
2914	08b0	34630000		ori	%GPR3,%GPR3,$0	
2915	08b1	00000000		nop	; Automatically Added by addNops.pl
2916	08b2	00000000		nop	; Automatically Added by addNops.pl
2917	08b3	00000000		nop	; Automatically Added by addNops.pl
2918				; Automatically 16 NOPs removed by reduceNOPs.sh
2919	08b4	0043d82f		sne	%GPR27,%GPR2,%GPR3	
2920	08b5	00000000		nop	; Automatically Added by addNops.pl
2921	08b6	00000000		nop	; Automatically Added by addNops.pl
2922	08b7	00000000		nop	; Automatically Added by addNops.pl
2923	08b8	17600008		bnez	%GPR27,L_lib_lcd_33	
2924	08b9	00000000		nop	; Automatically Added by addNops.pl
2925	08ba	00000000		nop	; Automatically Added by addNops.pl
2926	08bb	00000000		nop	; Automatically Added by addNops.pl
2927				; Automatically 16 NOPs removed by reduceNOPs.sh
2928	08bc	08000041		j	L_lib_lcd_34	
2929	08bd	00000000		nop	; Automatically Added by addNops.pl
2930	08be	00000000		nop	; Automatically Added by addNops.pl
2931	08bf	00000000		nop	; Automatically Added by addNops.pl
2932				; Automatically 16 NOPs removed by reduceNOPs.sh
2933			L_lib_lcd_33:
2934	08c0	00000000		nop	; Automatically Added by addNops.pl
2935	08c1	00000000		nop	; Automatically Added by addNops.pl
2936	08c2	00000000		nop	; Automatically Added by addNops.pl
2937	08c3	8fc2ffec		lw	%GPR2,-20(%GPR30)	
2938	08c4	00000000		nop	; Automatically Added by addNops.pl
2939	08c5	00000000		nop	; Automatically Added by addNops.pl
2940	08c6	00000000		nop	; Automatically Added by addNops.pl
2941				; Automatically 16 NOPs removed by reduceNOPs.sh
2942	08c7	00402820		add	%GPR5,%GPR2,%GPR0	
2943	08c8	00000000		nop	; Automatically Added by addNops.pl
2944	08c9	00000000		nop	; Automatically Added by addNops.pl
2945	08ca	00000000		nop	; Automatically Added by addNops.pl
2946	08cb	3c040000		lhi	%GPR4,$0	
2947	08cc	00000000		nop	; Automatically Added by addNops.pl
2948	08cd	00000000		nop	; Automatically Added by addNops.pl
2949	08ce	00000000		nop	; Automatically Added by addNops.pl
2950				; Automatically 16 NOPs removed by reduceNOPs.sh
2951	08cf	34840004		ori	%GPR4,%GPR4,$4	
2952	08d0	00000000		nop	; Automatically Added by addNops.pl
2953	08d1	00000000		nop	; Automatically Added by addNops.pl
2954	08d2	00000000		nop	; Automatically Added by addNops.pl
2955	08d3	8c420000		lw	%GPR2,0(%GPR2)	
2956	08d4	00000000		nop	; Automatically Added by addNops.pl
2957	08d5	00000000		nop	; Automatically Added by addNops.pl
2958	08d6	00000000		nop	; Automatically Added by addNops.pl
2959				; Automatically 12 NOPs removed by reduceNOPs.sh
2960	08d7	00a42020		add	%GPR4,%GPR5,%GPR4	
2961	08d8	00000000		nop	; Automatically Added by addNops.pl
2962	08d9	00000000		nop	; Automatically Added by addNops.pl
2963	08da	00000000		nop	; Automatically Added by addNops.pl
2964	08db	00401820		add	%GPR3,%GPR2,%GPR0	
2965	08dc	00000000		nop	; Automatically Added by addNops.pl
2966	08dd	00000000		nop	; Automatically Added by addNops.pl
2967	08de	00000000		nop	; Automatically Added by addNops.pl
2968				; Automatically 12 NOPs removed by reduceNOPs.sh
2969	08df	afc4ffec		sw	-20(%GPR30),%GPR4	
2970	08e0	00000000		nop	; Automatically Added by addNops.pl
2971	08e1	00000000		nop	; Automatically Added by addNops.pl
2972	08e2	00000000		nop	; Automatically Added by addNops.pl
2973				; Automatically 5 NOPs removed by reduceNOPs.sh
2974			
2975			
2976			
2977	08e3	00000000		nop	; Automatically Added by addNops.pl
2978	08e4	00000000		nop	; Automatically Added by addNops.pl
2979	08e5	00000000		nop	; Automatically Added by addNops.pl
2980				; Automatically 12 NOPs removed by reduceNOPs.sh
2981	08e6	0060000a		putc	%GPR3
2982	08e7	00000000		nop	; Automatically Added by addNops.pl
2983	08e8	00000000		nop	; Automatically Added by addNops.pl
2984	08e9	00000000		nop	; Automatically Added by addNops.pl
2985				; Automatically 9 NOPs removed by reduceNOPs.sh
2986			
2987	08ea	00000000		nop	; Automatically Added by addNops.pl
2988	08eb	00000000		nop	; Automatically Added by addNops.pl
2989	08ec	00000000		nop	; Automatically Added by addNops.pl
2990	08ed	8fc3ffd8		lw	%GPR3,-40(%GPR30)	
2991	08ee	00000000		nop	; Automatically Added by addNops.pl
2992	08ef	00000000		nop	; Automatically Added by addNops.pl
2993	08f0	00000000		nop	; Automatically Added by addNops.pl
2994				; Automatically 16 NOPs removed by reduceNOPs.sh
2995	08f1	00621020		add	%GPR2,%GPR3,%GPR2	
2996	08f2	00000000		nop	; Automatically Added by addNops.pl
2997	08f3	00000000		nop	; Automatically Added by addNops.pl
2998	08f4	00000000		nop	; Automatically Added by addNops.pl
2999				; Automatically 16 NOPs removed by reduceNOPs.sh
3000	08f5	afc2ffd8		sw	-40(%GPR30),%GPR2	
3001	08f6	00000000		nop	; Automatically Added by addNops.pl
3002	08f7	00000000		nop	; Automatically Added by addNops.pl
3003	08f8	00000000		nop	; Automatically Added by addNops.pl
3004	08f9	0bffffa8		j	L_lib_lcd_32	
3005	08fa	00000000		nop	; Automatically Added by addNops.pl
3006	08fb	00000000		nop	; Automatically Added by addNops.pl
3007	08fc	00000000		nop	; Automatically Added by addNops.pl
3008				; Automatically 12 NOPs removed by reduceNOPs.sh
3009			L_lib_lcd_34:
3010	08fd	00000000		nop	; Automatically Added by addNops.pl
3011	08fe	00000000		nop	; Automatically Added by addNops.pl
3012	08ff	00000000		nop	; Automatically Added by addNops.pl
3013	0900	8fc2ffdc		lw	%GPR2,-36(%GPR30)	
3014	0901	00000000		nop	; Automatically Added by addNops.pl
3015	0902	00000000		nop	; Automatically Added by addNops.pl
3016	0903	00000000		nop	; Automatically Added by addNops.pl
3017				; Automatically 16 NOPs removed by reduceNOPs.sh
3018	0904	00400820		add	%GPR1,%GPR2,%GPR0	
3019	0905	00000000		nop	; Automatically Added by addNops.pl
3020	0906	00000000		nop	; Automatically Added by addNops.pl
3021	0907	00000000		nop	; Automatically Added by addNops.pl
3022				; Automatically 16 NOPs removed by reduceNOPs.sh
3023	0908	28210001		subi	%GPR1,%GPR1,$1	
3024	0909	00000000		nop	; Automatically Added by addNops.pl
3025	090a	00000000		nop	; Automatically Added by addNops.pl
3026	090b	00000000		nop	; Automatically Added by addNops.pl
3027				; Automatically 16 NOPs removed by reduceNOPs.sh
3028	090c	afc1ffdc		sw	-36(%GPR30),%GPR1	
3029	090d	00000000		nop	; Automatically Added by addNops.pl
3030	090e	00000000		nop	; Automatically Added by addNops.pl
3031	090f	00000000		nop	; Automatically Added by addNops.pl
3032	0910	3c010000		lhi	%GPR1,$0	
3033	0911	00000000		nop	; Automatically Added by addNops.pl
3034	0912	00000000		nop	; Automatically Added by addNops.pl
3035	0913	00000000		nop	; Automatically Added by addNops.pl
3036				; Automatically 16 NOPs removed by reduceNOPs.sh
3037	0914	34210000		ori	%GPR1,%GPR1,$0	
3038	0915	00000000		nop	; Automatically Added by addNops.pl
3039	0916	00000000		nop	; Automatically Added by addNops.pl
3040	0917	00000000		nop	; Automatically Added by addNops.pl
3041				; Automatically 16 NOPs removed by reduceNOPs.sh
3042	0918	0041d82f		sne	%GPR27,%GPR2,%GPR1	
3043	0919	00000000		nop	; Automatically Added by addNops.pl
3044	091a	00000000		nop	; Automatically Added by addNops.pl
3045	091b	00000000		nop	; Automatically Added by addNops.pl
3046	091c	17600008		bnez	%GPR27,L_lib_lcd_35	
3047	091d	00000000		nop	; Automatically Added by addNops.pl
3048	091e	00000000		nop	; Automatically Added by addNops.pl
3049	091f	00000000		nop	; Automatically Added by addNops.pl
3050				; Automatically 16 NOPs removed by reduceNOPs.sh
3051	0920	0800004d		j	L_lib_lcd_36	
3052	0921	00000000		nop	; Automatically Added by addNops.pl
3053	0922	00000000		nop	; Automatically Added by addNops.pl
3054	0923	00000000		nop	; Automatically Added by addNops.pl
3055				; Automatically 16 NOPs removed by reduceNOPs.sh
3056			L_lib_lcd_35:
3057	0924	00000000		nop	; Automatically Added by addNops.pl
3058	0925	00000000		nop	; Automatically Added by addNops.pl
3059	0926	00000000		nop	; Automatically Added by addNops.pl
3060	0927	8fc1ffe8		lw	%GPR1,-24(%GPR30)	
3061	0928	00000000		nop	; Automatically Added by addNops.pl
3062	0929	00000000		nop	; Automatically Added by addNops.pl
3063	092a	00000000		nop	; Automatically Added by addNops.pl
3064				; Automatically 16 NOPs removed by reduceNOPs.sh
3065	092b	00201820		add	%GPR3,%GPR1,%GPR0	
3066	092c	00000000		nop	; Automatically Added by addNops.pl
3067	092d	00000000		nop	; Automatically Added by addNops.pl
3068	092e	00000000		nop	; Automatically Added by addNops.pl
3069	092f	3c020000		lhi	%GPR2,$0	
3070	0930	00000000		nop	; Automatically Added by addNops.pl
3071	0931	00000000		nop	; Automatically Added by addNops.pl
3072	0932	00000000		nop	; Automatically Added by addNops.pl
3073				; Automatically 16 NOPs removed by reduceNOPs.sh
3074	0933	34420001		ori	%GPR2,%GPR2,$1	
3075	0934	00000000		nop	; Automatically Added by addNops.pl
3076	0935	00000000		nop	; Automatically Added by addNops.pl
3077	0936	00000000		nop	; Automatically Added by addNops.pl
3078				; Automatically 16 NOPs removed by reduceNOPs.sh
3079	0937	00621020		add	%GPR2,%GPR3,%GPR2	
3080	0938	00000000		nop	; Automatically Added by addNops.pl
3081	0939	00000000		nop	; Automatically Added by addNops.pl
3082	093a	00000000		nop	; Automatically Added by addNops.pl
3083				; Automatically 16 NOPs removed by reduceNOPs.sh
3084	093b	afc2ffe8		sw	-24(%GPR30),%GPR2	
3085	093c	00000000		nop	; Automatically Added by addNops.pl
3086	093d	00000000		nop	; Automatically Added by addNops.pl
3087	093e	00000000		nop	; Automatically Added by addNops.pl
3088				; Automatically 16 NOPs removed by reduceNOPs.sh
3089	093f	2bbd0008		subi	%GPR29,%GPR29,$8	
3090	0940	00000000		nop	; Automatically Added by addNops.pl
3091	0941	00000000		nop	; Automatically Added by addNops.pl
3092	0942	00000000		nop	; Automatically Added by addNops.pl
3093				; Automatically 16 NOPs removed by reduceNOPs.sh
3094	0943	0c000aa4		jal	loadByteUnsigned	
3095	0944	00000000		nop	; Automatically Added by addNops.pl
3096	0945	00000000		nop	; Automatically Added by addNops.pl
3097	0946	00000000		nop	; Automatically Added by addNops.pl
3098				; Automatically 16 NOPs removed by reduceNOPs.sh
3099	0947	23bd0008		addi	%GPR29,%GPR29,$8	
3100	0948	00000000		nop	; Automatically Added by addNops.pl
3101	0949	00000000		nop	; Automatically Added by addNops.pl
3102	094a	00000000		nop	; Automatically Added by addNops.pl
3103				; Automatically 16 NOPs removed by reduceNOPs.sh
3104	094b	03801020		add	%GPR2,%GPR28,%GPR0	
3105	094c	00000000		nop	; Automatically Added by addNops.pl
3106	094d	00000000		nop	; Automatically Added by addNops.pl
3107	094e	00000000		nop	; Automatically Added by addNops.pl
3108				; Automatically 16 NOPs removed by reduceNOPs.sh
3109	094f	00400820		add	%GPR1,%GPR2,%GPR0	
3110	0950	00000000		nop	; Automatically Added by addNops.pl
3111	0951	00000000		nop	; Automatically Added by addNops.pl
3112	0952	00000000		nop	; Automatically Added by addNops.pl
3113				; Automatically 17 NOPs removed by reduceNOPs.sh
3114			
3115			
3116			
3117	0953	00000000		nop	; Automatically Added by addNops.pl
3118	0954	00000000		nop	; Automatically Added by addNops.pl
3119	0955	00000000		nop	; Automatically Added by addNops.pl
3120				; Automatically 12 NOPs removed by reduceNOPs.sh
3121	0956	0020000a		putc	%GPR1
3122	0957	00000000		nop	; Automatically Added by addNops.pl
3123	0958	00000000		nop	; Automatically Added by addNops.pl
3124	0959	00000000		nop	; Automatically Added by addNops.pl
3125				; Automatically 9 NOPs removed by reduceNOPs.sh
3126			
3127	095a	00000000		nop	; Automatically Added by addNops.pl
3128	095b	00000000		nop	; Automatically Added by addNops.pl
3129	095c	00000000		nop	; Automatically Added by addNops.pl
3130	095d	8fc1ffd8		lw	%GPR1,-40(%GPR30)	
3131	095e	00000000		nop	; Automatically Added by addNops.pl
3132	095f	00000000		nop	; Automatically Added by addNops.pl
3133	0960	00000000		nop	; Automatically Added by addNops.pl
3134				; Automatically 16 NOPs removed by reduceNOPs.sh
3135	0961	00220820		add	%GPR1,%GPR1,%GPR2	
3136	0962	00000000		nop	; Automatically Added by addNops.pl
3137	0963	00000000		nop	; Automatically Added by addNops.pl
3138	0964	00000000		nop	; Automatically Added by addNops.pl
3139				; Automatically 16 NOPs removed by reduceNOPs.sh
3140	0965	afc1ffd8		sw	-40(%GPR30),%GPR1	
3141	0966	00000000		nop	; Automatically Added by addNops.pl
3142	0967	00000000		nop	; Automatically Added by addNops.pl
3143	0968	00000000		nop	; Automatically Added by addNops.pl
3144	0969	0bffff94		j	L_lib_lcd_34	
3145	096a	00000000		nop	; Automatically Added by addNops.pl
3146	096b	00000000		nop	; Automatically Added by addNops.pl
3147	096c	00000000		nop	; Automatically Added by addNops.pl
3148				; Automatically 12 NOPs removed by reduceNOPs.sh
3149			L_lib_lcd_36:
3150	096d	00000000		nop	; Automatically Added by addNops.pl
3151	096e	00000000		nop	; Automatically Added by addNops.pl
3152	096f	00000000		nop	; Automatically Added by addNops.pl
3153	0970	8fc2ffd8		lw	%GPR2,-40(%GPR30)	
3154	0971	00000000		nop	; Automatically Added by addNops.pl
3155	0972	00000000		nop	; Automatically Added by addNops.pl
3156	0973	00000000		nop	; Automatically Added by addNops.pl
3157				; Automatically 17 NOPs removed by reduceNOPs.sh
3158			
3159			
3160			
3161	0974	00000000		nop	; Automatically Added by addNops.pl
3162	0975	00000000		nop	; Automatically Added by addNops.pl
3163	0976	00000000		nop	; Automatically Added by addNops.pl
3164				; Automatically 12 NOPs removed by reduceNOPs.sh
3165	0977	0040000a		putc	%GPR2
3166	0978	00000000		nop	; Automatically Added by addNops.pl
3167	0979	00000000		nop	; Automatically Added by addNops.pl
3168	097a	00000000		nop	; Automatically Added by addNops.pl
3169				; Automatically 9 NOPs removed by reduceNOPs.sh
3170			
3171	097b	00000000		nop	; Automatically Added by addNops.pl
3172	097c	00000000		nop	; Automatically Added by addNops.pl
3173	097d	00000000		nop	; Automatically Added by addNops.pl
3174	097e	8fc1ffe4		lw	%GPR1,-28(%GPR30)	
3175	097f	00000000		nop	; Automatically Added by addNops.pl
3176	0980	00000000		nop	; Automatically Added by addNops.pl
3177	0981	00000000		nop	; Automatically Added by addNops.pl
3178				; Automatically 16 NOPs removed by reduceNOPs.sh
3179	0982	2bbd0008		subi	%GPR29,%GPR29,$8	
3180	0983	00000000		nop	; Automatically Added by addNops.pl
3181	0984	00000000		nop	; Automatically Added by addNops.pl
3182	0985	00000000		nop	; Automatically Added by addNops.pl
3183				; Automatically 16 NOPs removed by reduceNOPs.sh
3184	0986	0ffff966		jal	getack	
3185	0987	00000000		nop	; Automatically Added by addNops.pl
3186	0988	00000000		nop	; Automatically Added by addNops.pl
3187	0989	00000000		nop	; Automatically Added by addNops.pl
3188				; Automatically 16 NOPs removed by reduceNOPs.sh
3189	098a	23bd0008		addi	%GPR29,%GPR29,$8	
3190	098b	00000000		nop	; Automatically Added by addNops.pl
3191	098c	00000000		nop	; Automatically Added by addNops.pl
3192	098d	00000000		nop	; Automatically Added by addNops.pl
3193				; Automatically 36 NOPs removed by reduceNOPs.sh
3194	098e	3c010000		lhi	%GPR1,$0	
3195	098f	00000000		nop	; Automatically Added by addNops.pl
3196	0990	00000000		nop	; Automatically Added by addNops.pl
3197	0991	00000000		nop	; Automatically Added by addNops.pl
3198				; Automatically 16 NOPs removed by reduceNOPs.sh
3199	0992	34210000		ori	%GPR1,%GPR1,$0	
3200	0993	00000000		nop	; Automatically Added by addNops.pl
3201	0994	00000000		nop	; Automatically Added by addNops.pl
3202	0995	00000000		nop	; Automatically Added by addNops.pl
3203				; Automatically 16 NOPs removed by reduceNOPs.sh
3204	0996	0381d82f		sne	%GPR27,%GPR28,%GPR1	
3205	0997	00000000		nop	; Automatically Added by addNops.pl
3206	0998	00000000		nop	; Automatically Added by addNops.pl
3207	0999	00000000		nop	; Automatically Added by addNops.pl
3208	099a	1760fe1d		bnez	%GPR27,L_lib_lcd_31	
3209	099b	00000000		nop	; Automatically Added by addNops.pl
3210	099c	00000000		nop	; Automatically Added by addNops.pl
3211	099d	00000000		nop	; Automatically Added by addNops.pl
3212				; Automatically 16 NOPs removed by reduceNOPs.sh
3213	099e	08000004		j	L_lib_lcd_37	
3214	099f	00000000		nop	; Automatically Added by addNops.pl
3215	09a0	00000000		nop	; Automatically Added by addNops.pl
3216	09a1	00000000		nop	; Automatically Added by addNops.pl
3217				; Automatically 16 NOPs removed by reduceNOPs.sh
3218			L_lib_lcd_37:
3219	09a2	00000000		nop	; Automatically Added by addNops.pl
3220	09a3	00000000		nop	; Automatically Added by addNops.pl
3221	09a4	00000000		nop	; Automatically Added by addNops.pl
3222				; Automatically 16 NOPs removed by reduceNOPs.sh
3223	09a5	3c1c0000		lhi	%GPR28,$0	
3224	09a6	00000000		nop	; Automatically Added by addNops.pl
3225	09a7	00000000		nop	; Automatically Added by addNops.pl
3226	09a8	00000000		nop	; Automatically Added by addNops.pl
3227				; Automatically 16 NOPs removed by reduceNOPs.sh
3228	09a9	379c0000		ori	%GPR28,%GPR28,$0	
3229	09aa	00000000		nop	; Automatically Added by addNops.pl
3230	09ab	00000000		nop	; Automatically Added by addNops.pl
3231	09ac	00000000		nop	; Automatically Added by addNops.pl
3232				; Automatically 16 NOPs removed by reduceNOPs.sh
3233	09ad	08000004		j	L_lib_lcd_38	
3234	09ae	00000000		nop	; Automatically Added by addNops.pl
3235	09af	00000000		nop	; Automatically Added by addNops.pl
3236	09b0	00000000		nop	; Automatically Added by addNops.pl
3237				; Automatically 16 NOPs removed by reduceNOPs.sh
3238			L_lib_lcd_38:
3239	09b1	00000000		nop	; Automatically Added by addNops.pl
3240	09b2	00000000		nop	; Automatically Added by addNops.pl
3241	09b3	00000000		nop	; Automatically Added by addNops.pl
3242				; Automatically 16 NOPs removed by reduceNOPs.sh
3243	09b4	8fdf0004		lw	%GPR31,4(%GPR30)	
3244	09b5	00000000		nop	; Automatically Added by addNops.pl
3245	09b6	00000000		nop	; Automatically Added by addNops.pl
3246	09b7	00000000		nop	; Automatically Added by addNops.pl
3247	09b8	27dd0004		addui	%GPR29,%GPR30,$4	
3248	09b9	00000000		nop	; Automatically Added by addNops.pl
3249	09ba	00000000		nop	; Automatically Added by addNops.pl
3250	09bb	00000000		nop	; Automatically Added by addNops.pl
3251	09bc	8fde0000		lw	%GPR30,0(%GPR30)	
3252	09bd	00000000		nop	; Automatically Added by addNops.pl
3253	09be	00000000		nop	; Automatically Added by addNops.pl
3254	09bf	00000000		nop	; Automatically Added by addNops.pl
3255				; Automatically 8 NOPs removed by reduceNOPs.sh
3256	09c0	00000000		nop
3257	09c1	00000000		nop
3258	09c2	03e00008		jr	%GPR31	
3259	09c3	00000000		nop	; Automatically Added by addNops.pl
3260	09c4	00000000		nop	; Automatically Added by addNops.pl
3261	09c5	00000000		nop	; Automatically Added by addNops.pl
3262				; Automatically 16 NOPs removed by reduceNOPs.sh
3263			t_print:
3264			L_lib_lcd_39:
3265	09c6	00000000		nop	; Automatically Added by addNops.pl
3266	09c7	00000000		nop	; Automatically Added by addNops.pl
3267	09c8	00000000		nop	; Automatically Added by addNops.pl
3268				; Automatically 16 NOPs removed by reduceNOPs.sh
3269	09c9	afbefffc		sw	-4(%GPR29),%GPR30	
3270	09ca	00000000		nop	; Automatically Added by addNops.pl
3271	09cb	00000000		nop	; Automatically Added by addNops.pl
3272	09cc	00000000		nop	; Automatically Added by addNops.pl
3273	09cd	00000000		nop	; Automatically added by fix-stall-insns.pl
3274	09ce	afbf0000		sw	0(%GPR29),%GPR31	
3275	09cf	00000000		nop	; Automatically Added by addNops.pl
3276	09d0	00000000		nop	; Automatically Added by addNops.pl
3277	09d1	00000000		nop	; Automatically Added by addNops.pl
3278	09d2	2fbe0004		subui	%GPR30,%GPR29,$4	
3279	09d3	00000000		nop	; Automatically Added by addNops.pl
3280	09d4	00000000		nop	; Automatically Added by addNops.pl
3281	09d5	00000000		nop	; Automatically Added by addNops.pl
3282				; Automatically 4 NOPs removed by reduceNOPs.sh
3283	09d6	2bbd000c		subi	%GPR29,%GPR29,$12	
3284	09d7	00000000		nop	; Automatically Added by addNops.pl
3285	09d8	00000000		nop	; Automatically Added by addNops.pl
3286	09d9	00000000		nop	; Automatically Added by addNops.pl
3287				; Automatically 16 NOPs removed by reduceNOPs.sh
3288	09da	afc1fffc		sw	-4(%GPR30),%GPR1	
3289	09db	00000000		nop	; Automatically Added by addNops.pl
3290	09dc	00000000		nop	; Automatically Added by addNops.pl
3291	09dd	00000000		nop	; Automatically Added by addNops.pl
3292				; Automatically 28 NOPs removed by reduceNOPs.sh
3293	09de	2bbd0008		subi	%GPR29,%GPR29,$8	
3294	09df	00000000		nop	; Automatically Added by addNops.pl
3295	09e0	00000000		nop	; Automatically Added by addNops.pl
3296	09e1	00000000		nop	; Automatically Added by addNops.pl
3297				; Automatically 16 NOPs removed by reduceNOPs.sh
3298	09e2	0ffff825		jal	strlength	
3299	09e3	00000000		nop	; Automatically Added by addNops.pl
3300	09e4	00000000		nop	; Automatically Added by addNops.pl
3301	09e5	00000000		nop	; Automatically Added by addNops.pl
3302				; Automatically 16 NOPs removed by reduceNOPs.sh
3303	09e6	23bd0008		addi	%GPR29,%GPR29,$8	
3304	09e7	00000000		nop	; Automatically Added by addNops.pl
3305	09e8	00000000		nop	; Automatically Added by addNops.pl
3306	09e9	00000000		nop	; Automatically Added by addNops.pl
3307				; Automatically 40 NOPs removed by reduceNOPs.sh
3308	09ea	8fc4fffc		lw	%GPR4,-4(%GPR30)	
3309	09eb	00000000		nop	; Automatically Added by addNops.pl
3310	09ec	00000000		nop	; Automatically Added by addNops.pl
3311	09ed	00000000		nop	; Automatically Added by addNops.pl
3312	09ee	03803020		add	%GPR6,%GPR28,%GPR0	
3313	09ef	00000000		nop	; Automatically Added by addNops.pl
3314	09f0	00000000		nop	; Automatically Added by addNops.pl
3315	09f1	00000000		nop	; Automatically Added by addNops.pl
3316	09f2	3c070000		lhi	%GPR7,$0	
3317	09f3	00000000		nop	; Automatically Added by addNops.pl
3318	09f4	00000000		nop	; Automatically Added by addNops.pl
3319	09f5	00000000		nop	; Automatically Added by addNops.pl
3320				; Automatically 16 NOPs removed by reduceNOPs.sh
3321	09f6	34e7006f		ori	%GPR7,%GPR7,$111	
3322	09f7	00000000		nop	; Automatically Added by addNops.pl
3323	09f8	00000000		nop	; Automatically Added by addNops.pl
3324	09f9	00000000		nop	; Automatically Added by addNops.pl
3325	09fa	3c050000		lhi	%GPR5,$0	
3326	09fb	00000000		nop	; Automatically Added by addNops.pl
3327	09fc	00000000		nop	; Automatically Added by addNops.pl
3328	09fd	00000000		nop	; Automatically Added by addNops.pl
3329				; Automatically 16 NOPs removed by reduceNOPs.sh
3330	09fe	34a50000		ori	%GPR5,%GPR5,$0	
3331	09ff	00000000		nop	; Automatically Added by addNops.pl
3332	0a00	00000000		nop	; Automatically Added by addNops.pl
3333	0a01	00000000		nop	; Automatically Added by addNops.pl
3334	0a02	3c020000		lhi	%GPR2,$0	
3335	0a03	00000000		nop	; Automatically Added by addNops.pl
3336	0a04	00000000		nop	; Automatically Added by addNops.pl
3337	0a05	00000000		nop	; Automatically Added by addNops.pl
3338				; Automatically 16 NOPs removed by reduceNOPs.sh
3339	0a06	34420054		ori	%GPR2,%GPR2,$84	
3340	0a07	00000000		nop	; Automatically Added by addNops.pl
3341	0a08	00000000		nop	; Automatically Added by addNops.pl
3342	0a09	00000000		nop	; Automatically Added by addNops.pl
3343	0a0a	3c010000		lhi	%GPR1,$0	
3344	0a0b	00000000		nop	; Automatically Added by addNops.pl
3345	0a0c	00000000		nop	; Automatically Added by addNops.pl
3346	0a0d	00000000		nop	; Automatically Added by addNops.pl
3347				; Automatically 16 NOPs removed by reduceNOPs.sh
3348	0a0e	3421005a		ori	%GPR1,%GPR1,$90	
3349	0a0f	00000000		nop	; Automatically Added by addNops.pl
3350	0a10	00000000		nop	; Automatically Added by addNops.pl
3351	0a11	00000000		nop	; Automatically Added by addNops.pl
3352	0a12	3c030000		lhi	%GPR3,$0	
3353	0a13	00000000		nop	; Automatically Added by addNops.pl
3354	0a14	00000000		nop	; Automatically Added by addNops.pl
3355	0a15	00000000		nop	; Automatically Added by addNops.pl
3356				; Automatically 16 NOPs removed by reduceNOPs.sh
3357	0a16	34630000		ori	%GPR3,%GPR3,$0	
3358	0a17	00000000		nop	; Automatically Added by addNops.pl
3359	0a18	00000000		nop	; Automatically Added by addNops.pl
3360	0a19	00000000		nop	; Automatically Added by addNops.pl
3361				; Automatically 16 NOPs removed by reduceNOPs.sh
3362	0a1a	2bbd0008		subi	%GPR29,%GPR29,$8	
3363	0a1b	00000000		nop	; Automatically Added by addNops.pl
3364	0a1c	00000000		nop	; Automatically Added by addNops.pl
3365	0a1d	00000000		nop	; Automatically Added by addNops.pl
3366				; Automatically 16 NOPs removed by reduceNOPs.sh
3367	0a1e	0ffffd50		jal	sendcommand	
3368	0a1f	00000000		nop	; Automatically Added by addNops.pl
3369	0a20	00000000		nop	; Automatically Added by addNops.pl
3370	0a21	00000000		nop	; Automatically Added by addNops.pl
3371				; Automatically 16 NOPs removed by reduceNOPs.sh
3372	0a22	23bd0008		addi	%GPR29,%GPR29,$8	
3373	0a23	00000000		nop	; Automatically Added by addNops.pl
3374	0a24	00000000		nop	; Automatically Added by addNops.pl
3375	0a25	00000000		nop	; Automatically Added by addNops.pl
3376				; Automatically 36 NOPs removed by reduceNOPs.sh
3377	0a26	3c1c0000		lhi	%GPR28,$0	
3378	0a27	00000000		nop	; Automatically Added by addNops.pl
3379	0a28	00000000		nop	; Automatically Added by addNops.pl
3380	0a29	00000000		nop	; Automatically Added by addNops.pl
3381				; Automatically 16 NOPs removed by reduceNOPs.sh
3382	0a2a	379c0000		ori	%GPR28,%GPR28,$0	
3383	0a2b	00000000		nop	; Automatically Added by addNops.pl
3384	0a2c	00000000		nop	; Automatically Added by addNops.pl
3385	0a2d	00000000		nop	; Automatically Added by addNops.pl
3386				; Automatically 16 NOPs removed by reduceNOPs.sh
3387	0a2e	08000004		j	L_lib_lcd_40	
3388	0a2f	00000000		nop	; Automatically Added by addNops.pl
3389	0a30	00000000		nop	; Automatically Added by addNops.pl
3390	0a31	00000000		nop	; Automatically Added by addNops.pl
3391				; Automatically 16 NOPs removed by reduceNOPs.sh
3392			L_lib_lcd_40:
3393	0a32	00000000		nop	; Automatically Added by addNops.pl
3394	0a33	00000000		nop	; Automatically Added by addNops.pl
3395	0a34	00000000		nop	; Automatically Added by addNops.pl
3396				; Automatically 16 NOPs removed by reduceNOPs.sh
3397	0a35	8fdf0004		lw	%GPR31,4(%GPR30)	
3398	0a36	00000000		nop	; Automatically Added by addNops.pl
3399	0a37	00000000		nop	; Automatically Added by addNops.pl
3400	0a38	00000000		nop	; Automatically Added by addNops.pl
3401	0a39	27dd0004		addui	%GPR29,%GPR30,$4	
3402	0a3a	00000000		nop	; Automatically Added by addNops.pl
3403	0a3b	00000000		nop	; Automatically Added by addNops.pl
3404	0a3c	00000000		nop	; Automatically Added by addNops.pl
3405	0a3d	8fde0000		lw	%GPR30,0(%GPR30)	
3406	0a3e	00000000		nop	; Automatically Added by addNops.pl
3407	0a3f	00000000		nop	; Automatically Added by addNops.pl
3408	0a40	00000000		nop	; Automatically Added by addNops.pl
3409				; Automatically 8 NOPs removed by reduceNOPs.sh
3410	0a41	00000000		nop
3411	0a42	00000000		nop
3412	0a43	03e00008		jr	%GPR31	
3413	0a44	00000000		nop	; Automatically Added by addNops.pl
3414	0a45	00000000		nop	; Automatically Added by addNops.pl
3415	0a46	00000000		nop	; Automatically Added by addNops.pl
3416				; Automatically 16 NOPs removed by reduceNOPs.sh
3417			t_cursor:
3418			L_lib_lcd_41:
3419	0a47	00000000		nop	; Automatically Added by addNops.pl
3420	0a48	00000000		nop	; Automatically Added by addNops.pl
3421	0a49	00000000		nop	; Automatically Added by addNops.pl
3422				; Automatically 16 NOPs removed by reduceNOPs.sh
3423	0a4a	afbefffc		sw	-4(%GPR29),%GPR30	
3424	0a4b	00000000		nop	; Automatically Added by addNops.pl
3425	0a4c	00000000		nop	; Automatically Added by addNops.pl
3426	0a4d	00000000		nop	; Automatically Added by addNops.pl
3427	0a4e	00000000		nop	; Automatically added by fix-stall-insns.pl
3428	0a4f	afbf0000		sw	0(%GPR29),%GPR31	
3429	0a50	00000000		nop	; Automatically Added by addNops.pl
3430	0a51	00000000		nop	; Automatically Added by addNops.pl
3431	0a52	00000000		nop	; Automatically Added by addNops.pl
3432	0a53	2fbe0004		subui	%GPR30,%GPR29,$4	
3433	0a54	00000000		nop	; Automatically Added by addNops.pl
3434	0a55	00000000		nop	; Automatically Added by addNops.pl
3435	0a56	00000000		nop	; Automatically Added by addNops.pl
3436				; Automatically 4 NOPs removed by reduceNOPs.sh
3437	0a57	2bbd000c		subi	%GPR29,%GPR29,$12	
3438	0a58	00000000		nop	; Automatically Added by addNops.pl
3439	0a59	00000000		nop	; Automatically Added by addNops.pl
3440	0a5a	00000000		nop	; Automatically Added by addNops.pl
3441				; Automatically 16 NOPs removed by reduceNOPs.sh
3442	0a5b	afc1fffc		sw	-4(%GPR30),%GPR1	
3443	0a5c	00000000		nop	; Automatically Added by addNops.pl
3444	0a5d	00000000		nop	; Automatically Added by addNops.pl
3445	0a5e	00000000		nop	; Automatically Added by addNops.pl
3446				; Automatically 40 NOPs removed by reduceNOPs.sh
3447	0a5f	2bc30004		subi	%GPR3,%GPR30,$4	
3448	0a60	00000000		nop	; Automatically Added by addNops.pl
3449	0a61	00000000		nop	; Automatically Added by addNops.pl
3450	0a62	00000000		nop	; Automatically Added by addNops.pl
3451	0a63	3c070000		lhi	%GPR7,$0	
3452	0a64	00000000		nop	; Automatically Added by addNops.pl
3453	0a65	00000000		nop	; Automatically Added by addNops.pl
3454	0a66	00000000		nop	; Automatically Added by addNops.pl
3455				; Automatically 16 NOPs removed by reduceNOPs.sh
3456	0a67	34e7006f		ori	%GPR7,%GPR7,$111	
3457	0a68	00000000		nop	; Automatically Added by addNops.pl
3458	0a69	00000000		nop	; Automatically Added by addNops.pl
3459	0a6a	00000000		nop	; Automatically Added by addNops.pl
3460	0a6b	3c060000		lhi	%GPR6,$0	
3461	0a6c	00000000		nop	; Automatically Added by addNops.pl
3462	0a6d	00000000		nop	; Automatically Added by addNops.pl
3463	0a6e	00000000		nop	; Automatically Added by addNops.pl
3464				; Automatically 16 NOPs removed by reduceNOPs.sh
3465	0a6f	34c60000		ori	%GPR6,%GPR6,$0	
3466	0a70	00000000		nop	; Automatically Added by addNops.pl
3467	0a71	00000000		nop	; Automatically Added by addNops.pl
3468	0a72	00000000		nop	; Automatically Added by addNops.pl
3469	0a73	3c050000		lhi	%GPR5,$0	
3470	0a74	00000000		nop	; Automatically Added by addNops.pl
3471	0a75	00000000		nop	; Automatically Added by addNops.pl
3472	0a76	00000000		nop	; Automatically Added by addNops.pl
3473				; Automatically 16 NOPs removed by reduceNOPs.sh
3474	0a77	34a50001		ori	%GPR5,%GPR5,$1	
3475	0a78	00000000		nop	; Automatically Added by addNops.pl
3476	0a79	00000000		nop	; Automatically Added by addNops.pl
3477	0a7a	00000000		nop	; Automatically Added by addNops.pl
3478	0a7b	3c020000		lhi	%GPR2,$0	
3479	0a7c	00000000		nop	; Automatically Added by addNops.pl
3480	0a7d	00000000		nop	; Automatically Added by addNops.pl
3481	0a7e	00000000		nop	; Automatically Added by addNops.pl
3482				; Automatically 16 NOPs removed by reduceNOPs.sh
3483	0a7f	34420043		ori	%GPR2,%GPR2,$67	
3484	0a80	00000000		nop	; Automatically Added by addNops.pl
3485	0a81	00000000		nop	; Automatically Added by addNops.pl
3486	0a82	00000000		nop	; Automatically Added by addNops.pl
3487	0a83	3c010000		lhi	%GPR1,$0	
3488	0a84	00000000		nop	; Automatically Added by addNops.pl
3489	0a85	00000000		nop	; Automatically Added by addNops.pl
3490	0a86	00000000		nop	; Automatically Added by addNops.pl
3491				; Automatically 16 NOPs removed by reduceNOPs.sh
3492	0a87	34210054		ori	%GPR1,%GPR1,$84	
3493	0a88	00000000		nop	; Automatically Added by addNops.pl
3494	0a89	00000000		nop	; Automatically Added by addNops.pl
3495	0a8a	00000000		nop	; Automatically Added by addNops.pl
3496	0a8b	3c040000		lhi	%GPR4,$0	
3497	0a8c	00000000		nop	; Automatically Added by addNops.pl
3498	0a8d	00000000		nop	; Automatically Added by addNops.pl
3499	0a8e	00000000		nop	; Automatically Added by addNops.pl
3500				; Automatically 16 NOPs removed by reduceNOPs.sh
3501	0a8f	34840000		ori	%GPR4,%GPR4,$0	
3502	0a90	00000000		nop	; Automatically Added by addNops.pl
3503	0a91	00000000		nop	; Automatically Added by addNops.pl
3504	0a92	00000000		nop	; Automatically Added by addNops.pl
3505				; Automatically 16 NOPs removed by reduceNOPs.sh
3506	0a93	2bbd0008		subi	%GPR29,%GPR29,$8	
3507	0a94	00000000		nop	; Automatically Added by addNops.pl
3508	0a95	00000000		nop	; Automatically Added by addNops.pl
3509	0a96	00000000		nop	; Automatically Added by addNops.pl
3510				; Automatically 16 NOPs removed by reduceNOPs.sh
3511	0a97	0ffffcd7		jal	sendcommand	
3512	0a98	00000000		nop	; Automatically Added by addNops.pl
3513	0a99	00000000		nop	; Automatically Added by addNops.pl
3514	0a9a	00000000		nop	; Automatically Added by addNops.pl
3515				; Automatically 16 NOPs removed by reduceNOPs.sh
3516	0a9b	23bd0008		addi	%GPR29,%GPR29,$8	
3517	0a9c	00000000		nop	; Automatically Added by addNops.pl
3518	0a9d	00000000		nop	; Automatically Added by addNops.pl
3519	0a9e	00000000		nop	; Automatically Added by addNops.pl
3520				; Automatically 36 NOPs removed by reduceNOPs.sh
3521	0a9f	3c1c0000		lhi	%GPR28,$0	
3522	0aa0	00000000		nop	; Automatically Added by addNops.pl
3523	0aa1	00000000		nop	; Automatically Added by addNops.pl
3524	0aa2	00000000		nop	; Automatically Added by addNops.pl
3525				; Automatically 16 NOPs removed by reduceNOPs.sh
3526	0aa3	379c0000		ori	%GPR28,%GPR28,$0	
3527	0aa4	00000000		nop	; Automatically Added by addNops.pl
3528	0aa5	00000000		nop	; Automatically Added by addNops.pl
3529	0aa6	00000000		nop	; Automatically Added by addNops.pl
3530				; Automatically 16 NOPs removed by reduceNOPs.sh
3531	0aa7	08000004		j	L_lib_lcd_42	
3532	0aa8	00000000		nop	; Automatically Added by addNops.pl
3533	0aa9	00000000		nop	; Automatically Added by addNops.pl
3534	0aaa	00000000		nop	; Automatically Added by addNops.pl
3535				; Automatically 16 NOPs removed by reduceNOPs.sh
3536			L_lib_lcd_42:
3537	0aab	00000000		nop	; Automatically Added by addNops.pl
3538	0aac	00000000		nop	; Automatically Added by addNops.pl
3539	0aad	00000000		nop	; Automatically Added by addNops.pl
3540				; Automatically 16 NOPs removed by reduceNOPs.sh
3541	0aae	8fdf0004		lw	%GPR31,4(%GPR30)	
3542	0aaf	00000000		nop	; Automatically Added by addNops.pl
3543	0ab0	00000000		nop	; Automatically Added by addNops.pl
3544	0ab1	00000000		nop	; Automatically Added by addNops.pl
3545	0ab2	27dd0004		addui	%GPR29,%GPR30,$4	
3546	0ab3	00000000		nop	; Automatically Added by addNops.pl
3547	0ab4	00000000		nop	; Automatically Added by addNops.pl
3548	0ab5	00000000		nop	; Automatically Added by addNops.pl
3549	0ab6	8fde0000		lw	%GPR30,0(%GPR30)	
3550	0ab7	00000000		nop	; Automatically Added by addNops.pl
3551	0ab8	00000000		nop	; Automatically Added by addNops.pl
3552	0ab9	00000000		nop	; Automatically Added by addNops.pl
3553				; Automatically 8 NOPs removed by reduceNOPs.sh
3554	0aba	00000000		nop
3555	0abb	00000000		nop
3556	0abc	03e00008		jr	%GPR31	
3557	0abd	00000000		nop	; Automatically Added by addNops.pl
3558	0abe	00000000		nop	; Automatically Added by addNops.pl
3559	0abf	00000000		nop	; Automatically Added by addNops.pl
3560				; Automatically 16 NOPs removed by reduceNOPs.sh
3561			t_enable:
3562			L_lib_lcd_43:
3563	0ac0	00000000		nop	; Automatically Added by addNops.pl
3564	0ac1	00000000		nop	; Automatically Added by addNops.pl
3565	0ac2	00000000		nop	; Automatically Added by addNops.pl
3566				; Automatically 16 NOPs removed by reduceNOPs.sh
3567	0ac3	afbefffc		sw	-4(%GPR29),%GPR30	
3568	0ac4	00000000		nop	; Automatically Added by addNops.pl
3569	0ac5	00000000		nop	; Automatically Added by addNops.pl
3570	0ac6	00000000		nop	; Automatically Added by addNops.pl
3571	0ac7	00000000		nop	; Automatically added by fix-stall-insns.pl
3572	0ac8	afbf0000		sw	0(%GPR29),%GPR31	
3573	0ac9	00000000		nop	; Automatically Added by addNops.pl
3574	0aca	00000000		nop	; Automatically Added by addNops.pl
3575	0acb	00000000		nop	; Automatically Added by addNops.pl
3576	0acc	2fbe0004		subui	%GPR30,%GPR29,$4	
3577	0acd	00000000		nop	; Automatically Added by addNops.pl
3578	0ace	00000000		nop	; Automatically Added by addNops.pl
3579	0acf	00000000		nop	; Automatically Added by addNops.pl
3580				; Automatically 4 NOPs removed by reduceNOPs.sh
3581	0ad0	2bbd0008		subi	%GPR29,%GPR29,$8	
3582	0ad1	00000000		nop	; Automatically Added by addNops.pl
3583	0ad2	00000000		nop	; Automatically Added by addNops.pl
3584	0ad3	00000000		nop	; Automatically Added by addNops.pl
3585				; Automatically 56 NOPs removed by reduceNOPs.sh
3586	0ad4	3c020000		lhi	%GPR2,$0	
3587	0ad5	00000000		nop	; Automatically Added by addNops.pl
3588	0ad6	00000000		nop	; Automatically Added by addNops.pl
3589	0ad7	00000000		nop	; Automatically Added by addNops.pl
3590				; Automatically 16 NOPs removed by reduceNOPs.sh
3591	0ad8	34420000		ori	%GPR2,%GPR2,$0	
3592	0ad9	00000000		nop	; Automatically Added by addNops.pl
3593	0ada	00000000		nop	; Automatically Added by addNops.pl
3594	0adb	00000000		nop	; Automatically Added by addNops.pl
3595				; Automatically 16 NOPs removed by reduceNOPs.sh
3596	0adc	0022d82f		sne	%GPR27,%GPR1,%GPR2	
3597	0add	00000000		nop	; Automatically Added by addNops.pl
3598	0ade	00000000		nop	; Automatically Added by addNops.pl
3599	0adf	00000000		nop	; Automatically Added by addNops.pl
3600	0ae0	17600008		bnez	%GPR27,L_lib_lcd_44	
3601	0ae1	00000000		nop	; Automatically Added by addNops.pl
3602	0ae2	00000000		nop	; Automatically Added by addNops.pl
3603	0ae3	00000000		nop	; Automatically Added by addNops.pl
3604				; Automatically 16 NOPs removed by reduceNOPs.sh
3605	0ae4	0800004f		j	L_lib_lcd_45	
3606	0ae5	00000000		nop	; Automatically Added by addNops.pl
3607	0ae6	00000000		nop	; Automatically Added by addNops.pl
3608	0ae7	00000000		nop	; Automatically Added by addNops.pl
3609				; Automatically 16 NOPs removed by reduceNOPs.sh
3610			L_lib_lcd_44:
3611	0ae8	00000000		nop	; Automatically Added by addNops.pl
3612	0ae9	00000000		nop	; Automatically Added by addNops.pl
3613	0aea	00000000		nop	; Automatically Added by addNops.pl
3614				; Automatically 28 NOPs removed by reduceNOPs.sh
3615	0aeb	3c070000		lhi	%GPR7,$0	
3616	0aec	00000000		nop	; Automatically Added by addNops.pl
3617	0aed	00000000		nop	; Automatically Added by addNops.pl
3618	0aee	00000000		nop	; Automatically Added by addNops.pl
3619				; Automatically 16 NOPs removed by reduceNOPs.sh
3620	0aef	34e7006f		ori	%GPR7,%GPR7,$111	
3621	0af0	00000000		nop	; Automatically Added by addNops.pl
3622	0af1	00000000		nop	; Automatically Added by addNops.pl
3623	0af2	00000000		nop	; Automatically Added by addNops.pl
3624	0af3	3c060000		lhi	%GPR6,$0	
3625	0af4	00000000		nop	; Automatically Added by addNops.pl
3626	0af5	00000000		nop	; Automatically Added by addNops.pl
3627	0af6	00000000		nop	; Automatically Added by addNops.pl
3628				; Automatically 16 NOPs removed by reduceNOPs.sh
3629	0af7	34c60000		ori	%GPR6,%GPR6,$0	
3630	0af8	00000000		nop	; Automatically Added by addNops.pl
3631	0af9	00000000		nop	; Automatically Added by addNops.pl
3632	0afa	00000000		nop	; Automatically Added by addNops.pl
3633	0afb	3c050000		lhi	%GPR5,$0	
3634	0afc	00000000		nop	; Automatically Added by addNops.pl
3635	0afd	00000000		nop	; Automatically Added by addNops.pl
3636	0afe	00000000		nop	; Automatically Added by addNops.pl
3637				; Automatically 16 NOPs removed by reduceNOPs.sh
3638	0aff	34a50000		ori	%GPR5,%GPR5,$0	
3639	0b00	00000000		nop	; Automatically Added by addNops.pl
3640	0b01	00000000		nop	; Automatically Added by addNops.pl
3641	0b02	00000000		nop	; Automatically Added by addNops.pl
3642	0b03	3c020000		lhi	%GPR2,$0	
3643	0b04	00000000		nop	; Automatically Added by addNops.pl
3644	0b05	00000000		nop	; Automatically Added by addNops.pl
3645	0b06	00000000		nop	; Automatically Added by addNops.pl
3646				; Automatically 16 NOPs removed by reduceNOPs.sh
3647	0b07	34420045		ori	%GPR2,%GPR2,$69	
3648	0b08	00000000		nop	; Automatically Added by addNops.pl
3649	0b09	00000000		nop	; Automatically Added by addNops.pl
3650	0b0a	00000000		nop	; Automatically Added by addNops.pl
3651	0b0b	3c010000		lhi	%GPR1,$0	
3652	0b0c	00000000		nop	; Automatically Added by addNops.pl
3653	0b0d	00000000		nop	; Automatically Added by addNops.pl
3654	0b0e	00000000		nop	; Automatically Added by addNops.pl
3655				; Automatically 16 NOPs removed by reduceNOPs.sh
3656	0b0f	34210054		ori	%GPR1,%GPR1,$84	
3657	0b10	00000000		nop	; Automatically Added by addNops.pl
3658	0b11	00000000		nop	; Automatically Added by addNops.pl
3659	0b12	00000000		nop	; Automatically Added by addNops.pl
3660	0b13	3c040000		lhi	%GPR4,$0	
3661	0b14	00000000		nop	; Automatically Added by addNops.pl
3662	0b15	00000000		nop	; Automatically Added by addNops.pl
3663	0b16	00000000		nop	; Automatically Added by addNops.pl
3664				; Automatically 16 NOPs removed by reduceNOPs.sh
3665	0b17	34840000		ori	%GPR4,%GPR4,$0	
3666	0b18	00000000		nop	; Automatically Added by addNops.pl
3667	0b19	00000000		nop	; Automatically Added by addNops.pl
3668	0b1a	00000000		nop	; Automatically Added by addNops.pl
3669	0b1b	3c030000		lhi	%GPR3,$0	
3670	0b1c	00000000		nop	; Automatically Added by addNops.pl
3671	0b1d	00000000		nop	; Automatically Added by addNops.pl
3672	0b1e	00000000		nop	; Automatically Added by addNops.pl
3673				; Automatically 16 NOPs removed by reduceNOPs.sh
3674	0b1f	34630000		ori	%GPR3,%GPR3,$0	
3675	0b20	00000000		nop	; Automatically Added by addNops.pl
3676	0b21	00000000		nop	; Automatically Added by addNops.pl
3677	0b22	00000000		nop	; Automatically Added by addNops.pl
3678				; Automatically 16 NOPs removed by reduceNOPs.sh
3679	0b23	2bbd0008		subi	%GPR29,%GPR29,$8	
3680	0b24	00000000		nop	; Automatically Added by addNops.pl
3681	0b25	00000000		nop	; Automatically Added by addNops.pl
3682	0b26	00000000		nop	; Automatically Added by addNops.pl
3683				; Automatically 16 NOPs removed by reduceNOPs.sh
3684	0b27	0ffffc47		jal	sendcommand	
3685	0b28	00000000		nop	; Automatically Added by addNops.pl
3686	0b29	00000000		nop	; Automatically Added by addNops.pl
3687	0b2a	00000000		nop	; Automatically Added by addNops.pl
3688				; Automatically 16 NOPs removed by reduceNOPs.sh
3689	0b2b	23bd0008		addi	%GPR29,%GPR29,$8	
3690	0b2c	00000000		nop	; Automatically Added by addNops.pl
3691	0b2d	00000000		nop	; Automatically Added by addNops.pl
3692	0b2e	00000000		nop	; Automatically Added by addNops.pl
3693				; Automatically 16 NOPs removed by reduceNOPs.sh
3694	0b2f	0800004b		j	L_lib_lcd_46	
3695	0b30	00000000		nop	; Automatically Added by addNops.pl
3696	0b31	00000000		nop	; Automatically Added by addNops.pl
3697	0b32	00000000		nop	; Automatically Added by addNops.pl
3698				; Automatically 12 NOPs removed by reduceNOPs.sh
3699			L_lib_lcd_45:
3700	0b33	00000000		nop	; Automatically Added by addNops.pl
3701	0b34	00000000		nop	; Automatically Added by addNops.pl
3702	0b35	00000000		nop	; Automatically Added by addNops.pl
3703				; Automatically 28 NOPs removed by reduceNOPs.sh
3704	0b36	3c070000		lhi	%GPR7,$0	
3705	0b37	00000000		nop	; Automatically Added by addNops.pl
3706	0b38	00000000		nop	; Automatically Added by addNops.pl
3707	0b39	00000000		nop	; Automatically Added by addNops.pl
3708				; Automatically 16 NOPs removed by reduceNOPs.sh
3709	0b3a	34e7006f		ori	%GPR7,%GPR7,$111	
3710	0b3b	00000000		nop	; Automatically Added by addNops.pl
3711	0b3c	00000000		nop	; Automatically Added by addNops.pl
3712	0b3d	00000000		nop	; Automatically Added by addNops.pl
3713	0b3e	3c060000		lhi	%GPR6,$0	
3714	0b3f	00000000		nop	; Automatically Added by addNops.pl
3715	0b40	00000000		nop	; Automatically Added by addNops.pl
3716	0b41	00000000		nop	; Automatically Added by addNops.pl
3717				; Automatically 16 NOPs removed by reduceNOPs.sh
3718	0b42	34c60000		ori	%GPR6,%GPR6,$0	
3719	0b43	00000000		nop	; Automatically Added by addNops.pl
3720	0b44	00000000		nop	; Automatically Added by addNops.pl
3721	0b45	00000000		nop	; Automatically Added by addNops.pl
3722	0b46	3c050000		lhi	%GPR5,$0	
3723	0b47	00000000		nop	; Automatically Added by addNops.pl
3724	0b48	00000000		nop	; Automatically Added by addNops.pl
3725	0b49	00000000		nop	; Automatically Added by addNops.pl
3726				; Automatically 16 NOPs removed by reduceNOPs.sh
3727	0b4a	34a50000		ori	%GPR5,%GPR5,$0	
3728	0b4b	00000000		nop	; Automatically Added by addNops.pl
3729	0b4c	00000000		nop	; Automatically Added by addNops.pl
3730	0b4d	00000000		nop	; Automatically Added by addNops.pl
3731	0b4e	3c020000		lhi	%GPR2,$0	
3732	0b4f	00000000		nop	; Automatically Added by addNops.pl
3733	0b50	00000000		nop	; Automatically Added by addNops.pl
3734	0b51	00000000		nop	; Automatically Added by addNops.pl
3735				; Automatically 16 NOPs removed by reduceNOPs.sh
3736	0b52	34420041		ori	%GPR2,%GPR2,$65	
3737	0b53	00000000		nop	; Automatically Added by addNops.pl
3738	0b54	00000000		nop	; Automatically Added by addNops.pl
3739	0b55	00000000		nop	; Automatically Added by addNops.pl
3740	0b56	3c010000		lhi	%GPR1,$0	
3741	0b57	00000000		nop	; Automatically Added by addNops.pl
3742	0b58	00000000		nop	; Automatically Added by addNops.pl
3743	0b59	00000000		nop	; Automatically Added by addNops.pl
3744				; Automatically 16 NOPs removed by reduceNOPs.sh
3745	0b5a	34210054		ori	%GPR1,%GPR1,$84	
3746	0b5b	00000000		nop	; Automatically Added by addNops.pl
3747	0b5c	00000000		nop	; Automatically Added by addNops.pl
3748	0b5d	00000000		nop	; Automatically Added by addNops.pl
3749	0b5e	3c040000		lhi	%GPR4,$0	
3750	0b5f	00000000		nop	; Automatically Added by addNops.pl
3751	0b60	00000000		nop	; Automatically Added by addNops.pl
3752	0b61	00000000		nop	; Automatically Added by addNops.pl
3753				; Automatically 16 NOPs removed by reduceNOPs.sh
3754	0b62	34840000		ori	%GPR4,%GPR4,$0	
3755	0b63	00000000		nop	; Automatically Added by addNops.pl
3756	0b64	00000000		nop	; Automatically Added by addNops.pl
3757	0b65	00000000		nop	; Automatically Added by addNops.pl
3758	0b66	3c030000		lhi	%GPR3,$0	
3759	0b67	00000000		nop	; Automatically Added by addNops.pl
3760	0b68	00000000		nop	; Automatically Added by addNops.pl
3761	0b69	00000000		nop	; Automatically Added by addNops.pl
3762				; Automatically 16 NOPs removed by reduceNOPs.sh
3763	0b6a	34630000		ori	%GPR3,%GPR3,$0	
3764	0b6b	00000000		nop	; Automatically Added by addNops.pl
3765	0b6c	00000000		nop	; Automatically Added by addNops.pl
3766	0b6d	00000000		nop	; Automatically Added by addNops.pl
3767				; Automatically 16 NOPs removed by reduceNOPs.sh
3768	0b6e	2bbd0008		subi	%GPR29,%GPR29,$8	
3769	0b6f	00000000		nop	; Automatically Added by addNops.pl
3770	0b70	00000000		nop	; Automatically Added by addNops.pl
3771	0b71	00000000		nop	; Automatically Added by addNops.pl
3772				; Automatically 16 NOPs removed by reduceNOPs.sh
3773	0b72	0ffffbfc		jal	sendcommand	
3774	0b73	00000000		nop	; Automatically Added by addNops.pl
3775	0b74	00000000		nop	; Automatically Added by addNops.pl
3776	0b75	00000000		nop	; Automatically Added by addNops.pl
3777				; Automatically 16 NOPs removed by reduceNOPs.sh
3778	0b76	23bd0008		addi	%GPR29,%GPR29,$8	
3779	0b77	00000000		nop	; Automatically Added by addNops.pl
3780	0b78	00000000		nop	; Automatically Added by addNops.pl
3781	0b79	00000000		nop	; Automatically Added by addNops.pl
3782				; Automatically 28 NOPs removed by reduceNOPs.sh
3783			L_lib_lcd_46:
3784	0b7a	00000000		nop	; Automatically Added by addNops.pl
3785	0b7b	00000000		nop	; Automatically Added by addNops.pl
3786	0b7c	00000000		nop	; Automatically Added by addNops.pl
3787				; Automatically 16 NOPs removed by reduceNOPs.sh
3788	0b7d	3c1c0000		lhi	%GPR28,$0	
3789	0b7e	00000000		nop	; Automatically Added by addNops.pl
3790	0b7f	00000000		nop	; Automatically Added by addNops.pl
3791	0b80	00000000		nop	; Automatically Added by addNops.pl
3792				; Automatically 16 NOPs removed by reduceNOPs.sh
3793	0b81	379c0000		ori	%GPR28,%GPR28,$0	
3794	0b82	00000000		nop	; Automatically Added by addNops.pl
3795	0b83	00000000		nop	; Automatically Added by addNops.pl
3796	0b84	00000000		nop	; Automatically Added by addNops.pl
3797				; Automatically 16 NOPs removed by reduceNOPs.sh
3798	0b85	08000004		j	L_lib_lcd_47	
3799	0b86	00000000		nop	; Automatically Added by addNops.pl
3800	0b87	00000000		nop	; Automatically Added by addNops.pl
3801	0b88	00000000		nop	; Automatically Added by addNops.pl
3802				; Automatically 16 NOPs removed by reduceNOPs.sh
3803			L_lib_lcd_47:
3804	0b89	00000000		nop	; Automatically Added by addNops.pl
3805	0b8a	00000000		nop	; Automatically Added by addNops.pl
3806	0b8b	00000000		nop	; Automatically Added by addNops.pl
3807				; Automatically 16 NOPs removed by reduceNOPs.sh
3808	0b8c	8fdf0004		lw	%GPR31,4(%GPR30)	
3809	0b8d	00000000		nop	; Automatically Added by addNops.pl
3810	0b8e	00000000		nop	; Automatically Added by addNops.pl
3811	0b8f	00000000		nop	; Automatically Added by addNops.pl
3812	0b90	27dd0004		addui	%GPR29,%GPR30,$4	
3813	0b91	00000000		nop	; Automatically Added by addNops.pl
3814	0b92	00000000		nop	; Automatically Added by addNops.pl
3815	0b93	00000000		nop	; Automatically Added by addNops.pl
3816	0b94	8fde0000		lw	%GPR30,0(%GPR30)	
3817	0b95	00000000		nop	; Automatically Added by addNops.pl
3818	0b96	00000000		nop	; Automatically Added by addNops.pl
3819	0b97	00000000		nop	; Automatically Added by addNops.pl
3820				; Automatically 8 NOPs removed by reduceNOPs.sh
3821	0b98	00000000		nop
3822	0b99	00000000		nop
3823	0b9a	03e00008		jr	%GPR31	
3824	0b9b	00000000		nop	; Automatically Added by addNops.pl
3825	0b9c	00000000		nop	; Automatically Added by addNops.pl
3826	0b9d	00000000		nop	; Automatically Added by addNops.pl
3827				; Automatically 16 NOPs removed by reduceNOPs.sh
3828			g_print:
3829			L_lib_lcd_48:
3830	0b9e	00000000		nop	; Automatically Added by addNops.pl
3831	0b9f	00000000		nop	; Automatically Added by addNops.pl
3832	0ba0	00000000		nop	; Automatically Added by addNops.pl
3833				; Automatically 16 NOPs removed by reduceNOPs.sh
3834	0ba1	afbefffc		sw	-4(%GPR29),%GPR30	
3835	0ba2	00000000		nop	; Automatically Added by addNops.pl
3836	0ba3	00000000		nop	; Automatically Added by addNops.pl
3837	0ba4	00000000		nop	; Automatically Added by addNops.pl
3838	0ba5	00000000		nop	; Automatically added by fix-stall-insns.pl
3839	0ba6	afbf0000		sw	0(%GPR29),%GPR31	
3840	0ba7	00000000		nop	; Automatically Added by addNops.pl
3841	0ba8	00000000		nop	; Automatically Added by addNops.pl
3842	0ba9	00000000		nop	; Automatically Added by addNops.pl
3843	0baa	2fbe0004		subui	%GPR30,%GPR29,$4	
3844	0bab	00000000		nop	; Automatically Added by addNops.pl
3845	0bac	00000000		nop	; Automatically Added by addNops.pl
3846	0bad	00000000		nop	; Automatically Added by addNops.pl
3847				; Automatically 4 NOPs removed by reduceNOPs.sh
3848	0bae	2bbd0014		subi	%GPR29,%GPR29,$20	
3849	0baf	00000000		nop	; Automatically Added by addNops.pl
3850	0bb0	00000000		nop	; Automatically Added by addNops.pl
3851	0bb1	00000000		nop	; Automatically Added by addNops.pl
3852				; Automatically 16 NOPs removed by reduceNOPs.sh
3853	0bb2	afc1fff4		sw	-12(%GPR30),%GPR1	
3854	0bb3	00000000		nop	; Automatically Added by addNops.pl
3855	0bb4	00000000		nop	; Automatically Added by addNops.pl
3856	0bb5	00000000		nop	; Automatically Added by addNops.pl
3857				; Automatically 20 NOPs removed by reduceNOPs.sh
3858	0bb6	00000000		nop	; Automatically added by fix-stall-insns.pl
3859	0bb7	afc2fff8		sw	-8(%GPR30),%GPR2	
3860	0bb8	00000000		nop	; Automatically Added by addNops.pl
3861	0bb9	00000000		nop	; Automatically Added by addNops.pl
3862	0bba	00000000		nop	; Automatically Added by addNops.pl
3863	0bbb	2bc10008		subi	%GPR1,%GPR30,$8	
3864	0bbc	00000000		nop	; Automatically Added by addNops.pl
3865	0bbd	00000000		nop	; Automatically Added by addNops.pl
3866	0bbe	00000000		nop	; Automatically Added by addNops.pl
3867				; Automatically 8 NOPs removed by reduceNOPs.sh
3868	0bbf	3c020000		lhi	%GPR2,$0	
3869	0bc0	00000000		nop	; Automatically Added by addNops.pl
3870	0bc1	00000000		nop	; Automatically Added by addNops.pl
3871	0bc2	00000000		nop	; Automatically Added by addNops.pl
3872				; Automatically 16 NOPs removed by reduceNOPs.sh
3873	0bc3	34420004		ori	%GPR2,%GPR2,$4	
3874	0bc4	00000000		nop	; Automatically Added by addNops.pl
3875	0bc5	00000000		nop	; Automatically Added by addNops.pl
3876	0bc6	00000000		nop	; Automatically Added by addNops.pl
3877				; Automatically 16 NOPs removed by reduceNOPs.sh
3878	0bc7	00220820		add	%GPR1,%GPR1,%GPR2	
3879	0bc8	00000000		nop	; Automatically Added by addNops.pl
3880	0bc9	00000000		nop	; Automatically Added by addNops.pl
3881	0bca	00000000		nop	; Automatically Added by addNops.pl
3882				; Automatically 16 NOPs removed by reduceNOPs.sh
3883	0bcb	ac230000		sw	0(%GPR1),%GPR3	
3884	0bcc	00000000		nop	; Automatically Added by addNops.pl
3885	0bcd	00000000		nop	; Automatically Added by addNops.pl
3886	0bce	00000000		nop	; Automatically Added by addNops.pl
3887	0bcf	00000000		nop	; Automatically added by fix-stall-insns.pl
3888	0bd0	8fc1fff4		lw	%GPR1,-12(%GPR30)	
3889	0bd1	00000000		nop	; Automatically Added by addNops.pl
3890	0bd2	00000000		nop	; Automatically Added by addNops.pl
3891	0bd3	00000000		nop	; Automatically Added by addNops.pl
3892				; Automatically 16 NOPs removed by reduceNOPs.sh
3893	0bd4	2bbd0008		subi	%GPR29,%GPR29,$8	
3894	0bd5	00000000		nop	; Automatically Added by addNops.pl
3895	0bd6	00000000		nop	; Automatically Added by addNops.pl
3896	0bd7	00000000		nop	; Automatically Added by addNops.pl
3897				; Automatically 16 NOPs removed by reduceNOPs.sh
3898	0bd8	0ffff62f		jal	strlength	
3899	0bd9	00000000		nop	; Automatically Added by addNops.pl
3900	0bda	00000000		nop	; Automatically Added by addNops.pl
3901	0bdb	00000000		nop	; Automatically Added by addNops.pl
3902				; Automatically 16 NOPs removed by reduceNOPs.sh
3903	0bdc	23bd0008		addi	%GPR29,%GPR29,$8	
3904	0bdd	00000000		nop	; Automatically Added by addNops.pl
3905	0bde	00000000		nop	; Automatically Added by addNops.pl
3906	0bdf	00000000		nop	; Automatically Added by addNops.pl
3907				; Automatically 36 NOPs removed by reduceNOPs.sh
3908	0be0	8fc4fff4		lw	%GPR4,-12(%GPR30)	
3909	0be1	00000000		nop	; Automatically Added by addNops.pl
3910	0be2	00000000		nop	; Automatically Added by addNops.pl
3911	0be3	00000000		nop	; Automatically Added by addNops.pl
3912	0be4	23860001		addi	%GPR6,%GPR28,$1	
3913	0be5	00000000		nop	; Automatically Added by addNops.pl
3914	0be6	00000000		nop	; Automatically Added by addNops.pl
3915	0be7	00000000		nop	; Automatically Added by addNops.pl
3916	0be8	2bc30008		subi	%GPR3,%GPR30,$8	
3917	0be9	00000000		nop	; Automatically Added by addNops.pl
3918	0bea	00000000		nop	; Automatically Added by addNops.pl
3919	0beb	00000000		nop	; Automatically Added by addNops.pl
3920	0bec	3c070000		lhi	%GPR7,$0	
3921	0bed	00000000		nop	; Automatically Added by addNops.pl
3922	0bee	00000000		nop	; Automatically Added by addNops.pl
3923	0bef	00000000		nop	; Automatically Added by addNops.pl
3924				; Automatically 16 NOPs removed by reduceNOPs.sh
3925	0bf0	34e7006f		ori	%GPR7,%GPR7,$111	
3926	0bf1	00000000		nop	; Automatically Added by addNops.pl
3927	0bf2	00000000		nop	; Automatically Added by addNops.pl
3928	0bf3	00000000		nop	; Automatically Added by addNops.pl
3929	0bf4	3c050000		lhi	%GPR5,$0	
3930	0bf5	00000000		nop	; Automatically Added by addNops.pl
3931	0bf6	00000000		nop	; Automatically Added by addNops.pl
3932	0bf7	00000000		nop	; Automatically Added by addNops.pl
3933				; Automatically 16 NOPs removed by reduceNOPs.sh
3934	0bf8	34a50002		ori	%GPR5,%GPR5,$2	
3935	0bf9	00000000		nop	; Automatically Added by addNops.pl
3936	0bfa	00000000		nop	; Automatically Added by addNops.pl
3937	0bfb	00000000		nop	; Automatically Added by addNops.pl
3938	0bfc	3c020000		lhi	%GPR2,$0	
3939	0bfd	00000000		nop	; Automatically Added by addNops.pl
3940	0bfe	00000000		nop	; Automatically Added by addNops.pl
3941	0bff	00000000		nop	; Automatically Added by addNops.pl
3942				; Automatically 16 NOPs removed by reduceNOPs.sh
3943	0c00	3442004c		ori	%GPR2,%GPR2,$76	
3944	0c01	00000000		nop	; Automatically Added by addNops.pl
3945	0c02	00000000		nop	; Automatically Added by addNops.pl
3946	0c03	00000000		nop	; Automatically Added by addNops.pl
3947	0c04	3c010000		lhi	%GPR1,$0	
3948	0c05	00000000		nop	; Automatically Added by addNops.pl
3949	0c06	00000000		nop	; Automatically Added by addNops.pl
3950	0c07	00000000		nop	; Automatically Added by addNops.pl
3951				; Automatically 16 NOPs removed by reduceNOPs.sh
3952	0c08	3421005a		ori	%GPR1,%GPR1,$90	
3953	0c09	00000000		nop	; Automatically Added by addNops.pl
3954	0c0a	00000000		nop	; Automatically Added by addNops.pl
3955	0c0b	00000000		nop	; Automatically Added by addNops.pl
3956				; Automatically 16 NOPs removed by reduceNOPs.sh
3957	0c0c	2bbd0008		subi	%GPR29,%GPR29,$8	
3958	0c0d	00000000		nop	; Automatically Added by addNops.pl
3959	0c0e	00000000		nop	; Automatically Added by addNops.pl
3960	0c0f	00000000		nop	; Automatically Added by addNops.pl
3961				; Automatically 16 NOPs removed by reduceNOPs.sh
3962	0c10	0ffffb5e		jal	sendcommand	
3963	0c11	00000000		nop	; Automatically Added by addNops.pl
3964	0c12	00000000		nop	; Automatically Added by addNops.pl
3965	0c13	00000000		nop	; Automatically Added by addNops.pl
3966				; Automatically 16 NOPs removed by reduceNOPs.sh
3967	0c14	23bd0008		addi	%GPR29,%GPR29,$8	
3968	0c15	00000000		nop	; Automatically Added by addNops.pl
3969	0c16	00000000		nop	; Automatically Added by addNops.pl
3970	0c17	00000000		nop	; Automatically Added by addNops.pl
3971				; Automatically 36 NOPs removed by reduceNOPs.sh
3972	0c18	3c1c0000		lhi	%GPR28,$0	
3973	0c19	00000000		nop	; Automatically Added by addNops.pl
3974	0c1a	00000000		nop	; Automatically Added by addNops.pl
3975	0c1b	00000000		nop	; Automatically Added by addNops.pl
3976				; Automatically 16 NOPs removed by reduceNOPs.sh
3977	0c1c	379c0000		ori	%GPR28,%GPR28,$0	
3978	0c1d	00000000		nop	; Automatically Added by addNops.pl
3979	0c1e	00000000		nop	; Automatically Added by addNops.pl
3980	0c1f	00000000		nop	; Automatically Added by addNops.pl
3981				; Automatically 16 NOPs removed by reduceNOPs.sh
3982	0c20	08000004		j	L_lib_lcd_49	
3983	0c21	00000000		nop	; Automatically Added by addNops.pl
3984	0c22	00000000		nop	; Automatically Added by addNops.pl
3985	0c23	00000000		nop	; Automatically Added by addNops.pl
3986				; Automatically 16 NOPs removed by reduceNOPs.sh
3987			L_lib_lcd_49:
3988	0c24	00000000		nop	; Automatically Added by addNops.pl
3989	0c25	00000000		nop	; Automatically Added by addNops.pl
3990	0c26	00000000		nop	; Automatically Added by addNops.pl
3991				; Automatically 16 NOPs removed by reduceNOPs.sh
3992	0c27	8fdf0004		lw	%GPR31,4(%GPR30)	
3993	0c28	00000000		nop	; Automatically Added by addNops.pl
3994	0c29	00000000		nop	; Automatically Added by addNops.pl
3995	0c2a	00000000		nop	; Automatically Added by addNops.pl
3996	0c2b	27dd0004		addui	%GPR29,%GPR30,$4	
3997	0c2c	00000000		nop	; Automatically Added by addNops.pl
3998	0c2d	00000000		nop	; Automatically Added by addNops.pl
3999	0c2e	00000000		nop	; Automatically Added by addNops.pl
4000	0c2f	8fde0000		lw	%GPR30,0(%GPR30)	
4001	0c30	00000000		nop	; Automatically Added by addNops.pl
4002	0c31	00000000		nop	; Automatically Added by addNops.pl
4003	0c32	00000000		nop	; Automatically Added by addNops.pl
4004				; Automatically 8 NOPs removed by reduceNOPs.sh
4005	0c33	00000000		nop
4006	0c34	00000000		nop
4007	0c35	03e00008		jr	%GPR31	
4008	0c36	00000000		nop	; Automatically Added by addNops.pl
4009	0c37	00000000		nop	; Automatically Added by addNops.pl
4010	0c38	00000000		nop	; Automatically Added by addNops.pl
4011				; Automatically 16 NOPs removed by reduceNOPs.sh
4012			g_drawrect:
4013			L_lib_lcd_50:
4014	0c39	00000000		nop	; Automatically Added by addNops.pl
4015	0c3a	00000000		nop	; Automatically Added by addNops.pl
4016	0c3b	00000000		nop	; Automatically Added by addNops.pl
4017				; Automatically 16 NOPs removed by reduceNOPs.sh
4018	0c3c	afbefffc		sw	-4(%GPR29),%GPR30	
4019	0c3d	00000000		nop	; Automatically Added by addNops.pl
4020	0c3e	00000000		nop	; Automatically Added by addNops.pl
4021	0c3f	00000000		nop	; Automatically Added by addNops.pl
4022	0c40	00000000		nop	; Automatically added by fix-stall-insns.pl
4023	0c41	afbf0000		sw	0(%GPR29),%GPR31	
4024	0c42	00000000		nop	; Automatically Added by addNops.pl
4025	0c43	00000000		nop	; Automatically Added by addNops.pl
4026	0c44	00000000		nop	; Automatically Added by addNops.pl
4027	0c45	2fbe0004		subui	%GPR30,%GPR29,$4	
4028	0c46	00000000		nop	; Automatically Added by addNops.pl
4029	0c47	00000000		nop	; Automatically Added by addNops.pl
4030	0c48	00000000		nop	; Automatically Added by addNops.pl
4031				; Automatically 4 NOPs removed by reduceNOPs.sh
4032	0c49	2bbd0018		subi	%GPR29,%GPR29,$24	
4033	0c4a	00000000		nop	; Automatically Added by addNops.pl
4034	0c4b	00000000		nop	; Automatically Added by addNops.pl
4035	0c4c	00000000		nop	; Automatically Added by addNops.pl
4036				; Automatically 16 NOPs removed by reduceNOPs.sh
4037	0c4d	00804020		add	%GPR8,%GPR4,%GPR0	
4038	0c4e	00000000		nop	; Automatically Added by addNops.pl
4039	0c4f	00000000		nop	; Automatically Added by addNops.pl
4040	0c50	00000000		nop	; Automatically Added by addNops.pl
4041	0c51	00602020		add	%GPR4,%GPR3,%GPR0	
4042	0c52	00000000		nop	; Automatically Added by addNops.pl
4043	0c53	00000000		nop	; Automatically Added by addNops.pl
4044	0c54	00000000		nop	; Automatically Added by addNops.pl
4045				; Automatically 20 NOPs removed by reduceNOPs.sh
4046	0c55	afc1fff0		sw	-16(%GPR30),%GPR1	
4047	0c56	00000000		nop	; Automatically Added by addNops.pl
4048	0c57	00000000		nop	; Automatically Added by addNops.pl
4049	0c58	00000000		nop	; Automatically Added by addNops.pl
4050	0c59	2bc30010		subi	%GPR3,%GPR30,$16	
4051	0c5a	00000000		nop	; Automatically Added by addNops.pl
4052	0c5b	00000000		nop	; Automatically Added by addNops.pl
4053	0c5c	00000000		nop	; Automatically Added by addNops.pl
4054				; Automatically 8 NOPs removed by reduceNOPs.sh
4055	0c5d	3c010000		lhi	%GPR1,$0	
4056	0c5e	00000000		nop	; Automatically Added by addNops.pl
4057	0c5f	00000000		nop	; Automatically Added by addNops.pl
4058	0c60	00000000		nop	; Automatically Added by addNops.pl
4059				; Automatically 16 NOPs removed by reduceNOPs.sh
4060	0c61	34210004		ori	%GPR1,%GPR1,$4	
4061	0c62	00000000		nop	; Automatically Added by addNops.pl
4062	0c63	00000000		nop	; Automatically Added by addNops.pl
4063	0c64	00000000		nop	; Automatically Added by addNops.pl
4064	0c65	2bc50010		subi	%GPR5,%GPR30,$16	
4065	0c66	00000000		nop	; Automatically Added by addNops.pl
4066	0c67	00000000		nop	; Automatically Added by addNops.pl
4067	0c68	00000000		nop	; Automatically Added by addNops.pl
4068				; Automatically 8 NOPs removed by reduceNOPs.sh
4069	0c69	3c060000		lhi	%GPR6,$0	
4070	0c6a	00000000		nop	; Automatically Added by addNops.pl
4071	0c6b	00000000		nop	; Automatically Added by addNops.pl
4072	0c6c	00000000		nop	; Automatically Added by addNops.pl
4073				; Automatically 16 NOPs removed by reduceNOPs.sh
4074	0c6d	34c60008		ori	%GPR6,%GPR6,$8	
4075	0c6e	00000000		nop	; Automatically Added by addNops.pl
4076	0c6f	00000000		nop	; Automatically Added by addNops.pl
4077	0c70	00000000		nop	; Automatically Added by addNops.pl
4078	0c71	00610820		add	%GPR1,%GPR3,%GPR1	
4079	0c72	00000000		nop	; Automatically Added by addNops.pl
4080	0c73	00000000		nop	; Automatically Added by addNops.pl
4081	0c74	00000000		nop	; Automatically Added by addNops.pl
4082	0c75	2bc90010		subi	%GPR9,%GPR30,$16	
4083	0c76	00000000		nop	; Automatically Added by addNops.pl
4084	0c77	00000000		nop	; Automatically Added by addNops.pl
4085	0c78	00000000		nop	; Automatically Added by addNops.pl
4086	0c79	3c0a0000		lhi	%GPR10,$0	
4087	0c7a	00000000		nop	; Automatically Added by addNops.pl
4088	0c7b	00000000		nop	; Automatically Added by addNops.pl
4089	0c7c	00000000		nop	; Automatically Added by addNops.pl
4090				; Automatically 16 NOPs removed by reduceNOPs.sh
4091	0c7d	354a000c		ori	%GPR10,%GPR10,$12	
4092	0c7e	00000000		nop	; Automatically Added by addNops.pl
4093	0c7f	00000000		nop	; Automatically Added by addNops.pl
4094	0c80	00000000		nop	; Automatically Added by addNops.pl
4095	0c81	00a65820		add	%GPR11,%GPR5,%GPR6	
4096	0c82	00000000		nop	; Automatically Added by addNops.pl
4097	0c83	00000000		nop	; Automatically Added by addNops.pl
4098	0c84	00000000		nop	; Automatically Added by addNops.pl
4099	0c85	ac220000		sw	0(%GPR1),%GPR2	
4100	0c86	00000000		nop	; Automatically Added by addNops.pl
4101	0c87	00000000		nop	; Automatically Added by addNops.pl
4102	0c88	00000000		nop	; Automatically Added by addNops.pl
4103				; Automatically 16 NOPs removed by reduceNOPs.sh
4104	0c89	00000000		nop	; Automatically added by fix-stall-insns.pl
4105	0c8a	ad640000		sw	0(%GPR11),%GPR4	
4106	0c8b	00000000		nop	; Automatically Added by addNops.pl
4107	0c8c	00000000		nop	; Automatically Added by addNops.pl
4108	0c8d	00000000		nop	; Automatically Added by addNops.pl
4109				; Automatically 12 NOPs removed by reduceNOPs.sh
4110	0c8e	012a4820		add	%GPR9,%GPR9,%GPR10	
4111	0c8f	00000000		nop	; Automatically Added by addNops.pl
4112	0c90	00000000		nop	; Automatically Added by addNops.pl
4113	0c91	00000000		nop	; Automatically Added by addNops.pl
4114				; Automatically 8 NOPs removed by reduceNOPs.sh
4115	0c92	2bc30010		subi	%GPR3,%GPR30,$16	
4116	0c93	00000000		nop	; Automatically Added by addNops.pl
4117	0c94	00000000		nop	; Automatically Added by addNops.pl
4118	0c95	00000000		nop	; Automatically Added by addNops.pl
4119	0c96	3c070000		lhi	%GPR7,$0	
4120	0c97	00000000		nop	; Automatically Added by addNops.pl
4121	0c98	00000000		nop	; Automatically Added by addNops.pl
4122	0c99	00000000		nop	; Automatically Added by addNops.pl
4123				; Automatically 16 NOPs removed by reduceNOPs.sh
4124	0c9a	34e7006f		ori	%GPR7,%GPR7,$111	
4125	0c9b	00000000		nop	; Automatically Added by addNops.pl
4126	0c9c	00000000		nop	; Automatically Added by addNops.pl
4127	0c9d	00000000		nop	; Automatically Added by addNops.pl
4128	0c9e	3c060000		lhi	%GPR6,$0	
4129	0c9f	00000000		nop	; Automatically Added by addNops.pl
4130	0ca0	00000000		nop	; Automatically Added by addNops.pl
4131	0ca1	00000000		nop	; Automatically Added by addNops.pl
4132				; Automatically 16 NOPs removed by reduceNOPs.sh
4133	0ca2	34c60000		ori	%GPR6,%GPR6,$0	
4134	0ca3	00000000		nop	; Automatically Added by addNops.pl
4135	0ca4	00000000		nop	; Automatically Added by addNops.pl
4136	0ca5	00000000		nop	; Automatically Added by addNops.pl
4137	0ca6	3c050000		lhi	%GPR5,$0	
4138	0ca7	00000000		nop	; Automatically Added by addNops.pl
4139	0ca8	00000000		nop	; Automatically Added by addNops.pl
4140	0ca9	00000000		nop	; Automatically Added by addNops.pl
4141				; Automatically 16 NOPs removed by reduceNOPs.sh
4142	0caa	34a50004		ori	%GPR5,%GPR5,$4	
4143	0cab	00000000		nop	; Automatically Added by addNops.pl
4144	0cac	00000000		nop	; Automatically Added by addNops.pl
4145	0cad	00000000		nop	; Automatically Added by addNops.pl
4146	0cae	3c020000		lhi	%GPR2,$0	
4147	0caf	00000000		nop	; Automatically Added by addNops.pl
4148	0cb0	00000000		nop	; Automatically Added by addNops.pl
4149	0cb1	00000000		nop	; Automatically Added by addNops.pl
4150				; Automatically 16 NOPs removed by reduceNOPs.sh
4151	0cb2	34420052		ori	%GPR2,%GPR2,$82	
4152	0cb3	00000000		nop	; Automatically Added by addNops.pl
4153	0cb4	00000000		nop	; Automatically Added by addNops.pl
4154	0cb5	00000000		nop	; Automatically Added by addNops.pl
4155	0cb6	3c010000		lhi	%GPR1,$0	
4156	0cb7	00000000		nop	; Automatically Added by addNops.pl
4157	0cb8	00000000		nop	; Automatically Added by addNops.pl
4158	0cb9	00000000		nop	; Automatically Added by addNops.pl
4159				; Automatically 16 NOPs removed by reduceNOPs.sh
4160	0cba	34210047		ori	%GPR1,%GPR1,$71	
4161	0cbb	00000000		nop	; Automatically Added by addNops.pl
4162	0cbc	00000000		nop	; Automatically Added by addNops.pl
4163	0cbd	00000000		nop	; Automatically Added by addNops.pl
4164	0cbe	ad280000		sw	0(%GPR9),%GPR8	
4165	0cbf	00000000		nop	; Automatically Added by addNops.pl
4166	0cc0	00000000		nop	; Automatically Added by addNops.pl
4167	0cc1	00000000		nop	; Automatically Added by addNops.pl
4168	0cc2	3c040000		lhi	%GPR4,$0	
4169	0cc3	00000000		nop	; Automatically Added by addNops.pl
4170	0cc4	00000000		nop	; Automatically Added by addNops.pl
4171	0cc5	00000000		nop	; Automatically Added by addNops.pl
4172				; Automatically 16 NOPs removed by reduceNOPs.sh
4173	0cc6	34840000		ori	%GPR4,%GPR4,$0	
4174	0cc7	00000000		nop	; Automatically Added by addNops.pl
4175	0cc8	00000000		nop	; Automatically Added by addNops.pl
4176	0cc9	00000000		nop	; Automatically Added by addNops.pl
4177				; Automatically 16 NOPs removed by reduceNOPs.sh
4178	0cca	2bbd0008		subi	%GPR29,%GPR29,$8	
4179	0ccb	00000000		nop	; Automatically Added by addNops.pl
4180	0ccc	00000000		nop	; Automatically Added by addNops.pl
4181	0ccd	00000000		nop	; Automatically Added by addNops.pl
4182				; Automatically 16 NOPs removed by reduceNOPs.sh
4183	0cce	0ffffaa0		jal	sendcommand	
4184	0ccf	00000000		nop	; Automatically Added by addNops.pl
4185	0cd0	00000000		nop	; Automatically Added by addNops.pl
4186	0cd1	00000000		nop	; Automatically Added by addNops.pl
4187				; Automatically 16 NOPs removed by reduceNOPs.sh
4188	0cd2	23bd0008		addi	%GPR29,%GPR29,$8	
4189	0cd3	00000000		nop	; Automatically Added by addNops.pl
4190	0cd4	00000000		nop	; Automatically Added by addNops.pl
4191	0cd5	00000000		nop	; Automatically Added by addNops.pl
4192				; Automatically 36 NOPs removed by reduceNOPs.sh
4193	0cd6	3c1c0000		lhi	%GPR28,$0	
4194	0cd7	00000000		nop	; Automatically Added by addNops.pl
4195	0cd8	00000000		nop	; Automatically Added by addNops.pl
4196	0cd9	00000000		nop	; Automatically Added by addNops.pl
4197				; Automatically 16 NOPs removed by reduceNOPs.sh
4198	0cda	379c0000		ori	%GPR28,%GPR28,$0	
4199	0cdb	00000000		nop	; Automatically Added by addNops.pl
4200	0cdc	00000000		nop	; Automatically Added by addNops.pl
4201	0cdd	00000000		nop	; Automatically Added by addNops.pl
4202				; Automatically 16 NOPs removed by reduceNOPs.sh
4203	0cde	08000004		j	L_lib_lcd_51	
4204	0cdf	00000000		nop	; Automatically Added by addNops.pl
4205	0ce0	00000000		nop	; Automatically Added by addNops.pl
4206	0ce1	00000000		nop	; Automatically Added by addNops.pl
4207				; Automatically 16 NOPs removed by reduceNOPs.sh
4208			L_lib_lcd_51:
4209	0ce2	00000000		nop	; Automatically Added by addNops.pl
4210	0ce3	00000000		nop	; Automatically Added by addNops.pl
4211	0ce4	00000000		nop	; Automatically Added by addNops.pl
4212				; Automatically 16 NOPs removed by reduceNOPs.sh
4213	0ce5	8fdf0004		lw	%GPR31,4(%GPR30)	
4214	0ce6	00000000		nop	; Automatically Added by addNops.pl
4215	0ce7	00000000		nop	; Automatically Added by addNops.pl
4216	0ce8	00000000		nop	; Automatically Added by addNops.pl
4217	0ce9	27dd0004		addui	%GPR29,%GPR30,$4	
4218	0cea	00000000		nop	; Automatically Added by addNops.pl
4219	0ceb	00000000		nop	; Automatically Added by addNops.pl
4220	0cec	00000000		nop	; Automatically Added by addNops.pl
4221	0ced	8fde0000		lw	%GPR30,0(%GPR30)	
4222	0cee	00000000		nop	; Automatically Added by addNops.pl
4223	0cef	00000000		nop	; Automatically Added by addNops.pl
4224	0cf0	00000000		nop	; Automatically Added by addNops.pl
4225				; Automatically 8 NOPs removed by reduceNOPs.sh
4226	0cf1	00000000		nop
4227	0cf2	00000000		nop
4228	0cf3	03e00008		jr	%GPR31	
4229	0cf4	00000000		nop	; Automatically Added by addNops.pl
4230	0cf5	00000000		nop	; Automatically Added by addNops.pl
4231	0cf6	00000000		nop	; Automatically Added by addNops.pl
4232				; Automatically 16 NOPs removed by reduceNOPs.sh
4233			g_drawline:
4234			L_lib_lcd_52:
4235	0cf7	00000000		nop	; Automatically Added by addNops.pl
4236	0cf8	00000000		nop	; Automatically Added by addNops.pl
4237	0cf9	00000000		nop	; Automatically Added by addNops.pl
4238				; Automatically 16 NOPs removed by reduceNOPs.sh
4239	0cfa	afbefffc		sw	-4(%GPR29),%GPR30	
4240	0cfb	00000000		nop	; Automatically Added by addNops.pl
4241	0cfc	00000000		nop	; Automatically Added by addNops.pl
4242	0cfd	00000000		nop	; Automatically Added by addNops.pl
4243	0cfe	00000000		nop	; Automatically added by fix-stall-insns.pl
4244	0cff	afbf0000		sw	0(%GPR29),%GPR31	
4245	0d00	00000000		nop	; Automatically Added by addNops.pl
4246	0d01	00000000		nop	; Automatically Added by addNops.pl
4247	0d02	00000000		nop	; Automatically Added by addNops.pl
4248	0d03	2fbe0004		subui	%GPR30,%GPR29,$4	
4249	0d04	00000000		nop	; Automatically Added by addNops.pl
4250	0d05	00000000		nop	; Automatically Added by addNops.pl
4251	0d06	00000000		nop	; Automatically Added by addNops.pl
4252				; Automatically 4 NOPs removed by reduceNOPs.sh
4253	0d07	2bbd0018		subi	%GPR29,%GPR29,$24	
4254	0d08	00000000		nop	; Automatically Added by addNops.pl
4255	0d09	00000000		nop	; Automatically Added by addNops.pl
4256	0d0a	00000000		nop	; Automatically Added by addNops.pl
4257				; Automatically 16 NOPs removed by reduceNOPs.sh
4258	0d0b	00804020		add	%GPR8,%GPR4,%GPR0	
4259	0d0c	00000000		nop	; Automatically Added by addNops.pl
4260	0d0d	00000000		nop	; Automatically Added by addNops.pl
4261	0d0e	00000000		nop	; Automatically Added by addNops.pl
4262	0d0f	00602020		add	%GPR4,%GPR3,%GPR0	
4263	0d10	00000000		nop	; Automatically Added by addNops.pl
4264	0d11	00000000		nop	; Automatically Added by addNops.pl
4265	0d12	00000000		nop	; Automatically Added by addNops.pl
4266				; Automatically 20 NOPs removed by reduceNOPs.sh
4267	0d13	afc1fff0		sw	-16(%GPR30),%GPR1	
4268	0d14	00000000		nop	; Automatically Added by addNops.pl
4269	0d15	00000000		nop	; Automatically Added by addNops.pl
4270	0d16	00000000		nop	; Automatically Added by addNops.pl
4271	0d17	2bc30010		subi	%GPR3,%GPR30,$16	
4272	0d18	00000000		nop	; Automatically Added by addNops.pl
4273	0d19	00000000		nop	; Automatically Added by addNops.pl
4274	0d1a	00000000		nop	; Automatically Added by addNops.pl
4275				; Automatically 8 NOPs removed by reduceNOPs.sh
4276	0d1b	3c010000		lhi	%GPR1,$0	
4277	0d1c	00000000		nop	; Automatically Added by addNops.pl
4278	0d1d	00000000		nop	; Automatically Added by addNops.pl
4279	0d1e	00000000		nop	; Automatically Added by addNops.pl
4280				; Automatically 16 NOPs removed by reduceNOPs.sh
4281	0d1f	34210004		ori	%GPR1,%GPR1,$4	
4282	0d20	00000000		nop	; Automatically Added by addNops.pl
4283	0d21	00000000		nop	; Automatically Added by addNops.pl
4284	0d22	00000000		nop	; Automatically Added by addNops.pl
4285	0d23	2bc50010		subi	%GPR5,%GPR30,$16	
4286	0d24	00000000		nop	; Automatically Added by addNops.pl
4287	0d25	00000000		nop	; Automatically Added by addNops.pl
4288	0d26	00000000		nop	; Automatically Added by addNops.pl
4289				; Automatically 8 NOPs removed by reduceNOPs.sh
4290	0d27	3c060000		lhi	%GPR6,$0	
4291	0d28	00000000		nop	; Automatically Added by addNops.pl
4292	0d29	00000000		nop	; Automatically Added by addNops.pl
4293	0d2a	00000000		nop	; Automatically Added by addNops.pl
4294				; Automatically 16 NOPs removed by reduceNOPs.sh
4295	0d2b	34c60008		ori	%GPR6,%GPR6,$8	
4296	0d2c	00000000		nop	; Automatically Added by addNops.pl
4297	0d2d	00000000		nop	; Automatically Added by addNops.pl
4298	0d2e	00000000		nop	; Automatically Added by addNops.pl
4299	0d2f	00610820		add	%GPR1,%GPR3,%GPR1	
4300	0d30	00000000		nop	; Automatically Added by addNops.pl
4301	0d31	00000000		nop	; Automatically Added by addNops.pl
4302	0d32	00000000		nop	; Automatically Added by addNops.pl
4303	0d33	2bc90010		subi	%GPR9,%GPR30,$16	
4304	0d34	00000000		nop	; Automatically Added by addNops.pl
4305	0d35	00000000		nop	; Automatically Added by addNops.pl
4306	0d36	00000000		nop	; Automatically Added by addNops.pl
4307	0d37	3c0a0000		lhi	%GPR10,$0	
4308	0d38	00000000		nop	; Automatically Added by addNops.pl
4309	0d39	00000000		nop	; Automatically Added by addNops.pl
4310	0d3a	00000000		nop	; Automatically Added by addNops.pl
4311				; Automatically 16 NOPs removed by reduceNOPs.sh
4312	0d3b	354a000c		ori	%GPR10,%GPR10,$12	
4313	0d3c	00000000		nop	; Automatically Added by addNops.pl
4314	0d3d	00000000		nop	; Automatically Added by addNops.pl
4315	0d3e	00000000		nop	; Automatically Added by addNops.pl
4316	0d3f	00a65820		add	%GPR11,%GPR5,%GPR6	
4317	0d40	00000000		nop	; Automatically Added by addNops.pl
4318	0d41	00000000		nop	; Automatically Added by addNops.pl
4319	0d42	00000000		nop	; Automatically Added by addNops.pl
4320	0d43	ac220000		sw	0(%GPR1),%GPR2	
4321	0d44	00000000		nop	; Automatically Added by addNops.pl
4322	0d45	00000000		nop	; Automatically Added by addNops.pl
4323	0d46	00000000		nop	; Automatically Added by addNops.pl
4324				; Automatically 16 NOPs removed by reduceNOPs.sh
4325	0d47	00000000		nop	; Automatically added by fix-stall-insns.pl
4326	0d48	ad640000		sw	0(%GPR11),%GPR4	
4327	0d49	00000000		nop	; Automatically Added by addNops.pl
4328	0d4a	00000000		nop	; Automatically Added by addNops.pl
4329	0d4b	00000000		nop	; Automatically Added by addNops.pl
4330				; Automatically 12 NOPs removed by reduceNOPs.sh
4331	0d4c	012a4820		add	%GPR9,%GPR9,%GPR10	
4332	0d4d	00000000		nop	; Automatically Added by addNops.pl
4333	0d4e	00000000		nop	; Automatically Added by addNops.pl
4334	0d4f	00000000		nop	; Automatically Added by addNops.pl
4335				; Automatically 8 NOPs removed by reduceNOPs.sh
4336	0d50	2bc30010		subi	%GPR3,%GPR30,$16	
4337	0d51	00000000		nop	; Automatically Added by addNops.pl
4338	0d52	00000000		nop	; Automatically Added by addNops.pl
4339	0d53	00000000		nop	; Automatically Added by addNops.pl
4340	0d54	3c070000		lhi	%GPR7,$0	
4341	0d55	00000000		nop	; Automatically Added by addNops.pl
4342	0d56	00000000		nop	; Automatically Added by addNops.pl
4343	0d57	00000000		nop	; Automatically Added by addNops.pl
4344				; Automatically 16 NOPs removed by reduceNOPs.sh
4345	0d58	34e7006f		ori	%GPR7,%GPR7,$111	
4346	0d59	00000000		nop	; Automatically Added by addNops.pl
4347	0d5a	00000000		nop	; Automatically Added by addNops.pl
4348	0d5b	00000000		nop	; Automatically Added by addNops.pl
4349	0d5c	3c060000		lhi	%GPR6,$0	
4350	0d5d	00000000		nop	; Automatically Added by addNops.pl
4351	0d5e	00000000		nop	; Automatically Added by addNops.pl
4352	0d5f	00000000		nop	; Automatically Added by addNops.pl
4353				; Automatically 16 NOPs removed by reduceNOPs.sh
4354	0d60	34c60000		ori	%GPR6,%GPR6,$0	
4355	0d61	00000000		nop	; Automatically Added by addNops.pl
4356	0d62	00000000		nop	; Automatically Added by addNops.pl
4357	0d63	00000000		nop	; Automatically Added by addNops.pl
4358	0d64	3c050000		lhi	%GPR5,$0	
4359	0d65	00000000		nop	; Automatically Added by addNops.pl
4360	0d66	00000000		nop	; Automatically Added by addNops.pl
4361	0d67	00000000		nop	; Automatically Added by addNops.pl
4362				; Automatically 16 NOPs removed by reduceNOPs.sh
4363	0d68	34a50004		ori	%GPR5,%GPR5,$4	
4364	0d69	00000000		nop	; Automatically Added by addNops.pl
4365	0d6a	00000000		nop	; Automatically Added by addNops.pl
4366	0d6b	00000000		nop	; Automatically Added by addNops.pl
4367	0d6c	3c020000		lhi	%GPR2,$0	
4368	0d6d	00000000		nop	; Automatically Added by addNops.pl
4369	0d6e	00000000		nop	; Automatically Added by addNops.pl
4370	0d6f	00000000		nop	; Automatically Added by addNops.pl
4371				; Automatically 16 NOPs removed by reduceNOPs.sh
4372	0d70	34420044		ori	%GPR2,%GPR2,$68	
4373	0d71	00000000		nop	; Automatically Added by addNops.pl
4374	0d72	00000000		nop	; Automatically Added by addNops.pl
4375	0d73	00000000		nop	; Automatically Added by addNops.pl
4376	0d74	3c010000		lhi	%GPR1,$0	
4377	0d75	00000000		nop	; Automatically Added by addNops.pl
4378	0d76	00000000		nop	; Automatically Added by addNops.pl
4379	0d77	00000000		nop	; Automatically Added by addNops.pl
4380				; Automatically 16 NOPs removed by reduceNOPs.sh
4381	0d78	34210047		ori	%GPR1,%GPR1,$71	
4382	0d79	00000000		nop	; Automatically Added by addNops.pl
4383	0d7a	00000000		nop	; Automatically Added by addNops.pl
4384	0d7b	00000000		nop	; Automatically Added by addNops.pl
4385	0d7c	ad280000		sw	0(%GPR9),%GPR8	
4386	0d7d	00000000		nop	; Automatically Added by addNops.pl
4387	0d7e	00000000		nop	; Automatically Added by addNops.pl
4388	0d7f	00000000		nop	; Automatically Added by addNops.pl
4389	0d80	3c040000		lhi	%GPR4,$0	
4390	0d81	00000000		nop	; Automatically Added by addNops.pl
4391	0d82	00000000		nop	; Automatically Added by addNops.pl
4392	0d83	00000000		nop	; Automatically Added by addNops.pl
4393				; Automatically 16 NOPs removed by reduceNOPs.sh
4394	0d84	34840000		ori	%GPR4,%GPR4,$0	
4395	0d85	00000000		nop	; Automatically Added by addNops.pl
4396	0d86	00000000		nop	; Automatically Added by addNops.pl
4397	0d87	00000000		nop	; Automatically Added by addNops.pl
4398				; Automatically 16 NOPs removed by reduceNOPs.sh
4399	0d88	2bbd0008		subi	%GPR29,%GPR29,$8	
4400	0d89	00000000		nop	; Automatically Added by addNops.pl
4401	0d8a	00000000		nop	; Automatically Added by addNops.pl
4402	0d8b	00000000		nop	; Automatically Added by addNops.pl
4403				; Automatically 16 NOPs removed by reduceNOPs.sh
4404	0d8c	0ffff9e2		jal	sendcommand	
4405	0d8d	00000000		nop	; Automatically Added by addNops.pl
4406	0d8e	00000000		nop	; Automatically Added by addNops.pl
4407	0d8f	00000000		nop	; Automatically Added by addNops.pl
4408				; Automatically 16 NOPs removed by reduceNOPs.sh
4409	0d90	23bd0008		addi	%GPR29,%GPR29,$8	
4410	0d91	00000000		nop	; Automatically Added by addNops.pl
4411	0d92	00000000		nop	; Automatically Added by addNops.pl
4412	0d93	00000000		nop	; Automatically Added by addNops.pl
4413				; Automatically 36 NOPs removed by reduceNOPs.sh
4414	0d94	3c1c0000		lhi	%GPR28,$0	
4415	0d95	00000000		nop	; Automatically Added by addNops.pl
4416	0d96	00000000		nop	; Automatically Added by addNops.pl
4417	0d97	00000000		nop	; Automatically Added by addNops.pl
4418				; Automatically 16 NOPs removed by reduceNOPs.sh
4419	0d98	379c0000		ori	%GPR28,%GPR28,$0	
4420	0d99	00000000		nop	; Automatically Added by addNops.pl
4421	0d9a	00000000		nop	; Automatically Added by addNops.pl
4422	0d9b	00000000		nop	; Automatically Added by addNops.pl
4423				; Automatically 16 NOPs removed by reduceNOPs.sh
4424	0d9c	08000004		j	L_lib_lcd_53	
4425	0d9d	00000000		nop	; Automatically Added by addNops.pl
4426	0d9e	00000000		nop	; Automatically Added by addNops.pl
4427	0d9f	00000000		nop	; Automatically Added by addNops.pl
4428				; Automatically 16 NOPs removed by reduceNOPs.sh
4429			L_lib_lcd_53:
4430	0da0	00000000		nop	; Automatically Added by addNops.pl
4431	0da1	00000000		nop	; Automatically Added by addNops.pl
4432	0da2	00000000		nop	; Automatically Added by addNops.pl
4433				; Automatically 16 NOPs removed by reduceNOPs.sh
4434	0da3	8fdf0004		lw	%GPR31,4(%GPR30)	
4435	0da4	00000000		nop	; Automatically Added by addNops.pl
4436	0da5	00000000		nop	; Automatically Added by addNops.pl
4437	0da6	00000000		nop	; Automatically Added by addNops.pl
4438	0da7	27dd0004		addui	%GPR29,%GPR30,$4	
4439	0da8	00000000		nop	; Automatically Added by addNops.pl
4440	0da9	00000000		nop	; Automatically Added by addNops.pl
4441	0daa	00000000		nop	; Automatically Added by addNops.pl
4442	0dab	8fde0000		lw	%GPR30,0(%GPR30)	
4443	0dac	00000000		nop	; Automatically Added by addNops.pl
4444	0dad	00000000		nop	; Automatically Added by addNops.pl
4445	0dae	00000000		nop	; Automatically Added by addNops.pl
4446				; Automatically 8 NOPs removed by reduceNOPs.sh
4447	0daf	00000000		nop
4448	0db0	00000000		nop
4449	0db1	03e00008		jr	%GPR31	
4450	0db2	00000000		nop	; Automatically Added by addNops.pl
4451	0db3	00000000		nop	; Automatically Added by addNops.pl
4452	0db4	00000000		nop	; Automatically Added by addNops.pl
4453				; Automatically 16 NOPs removed by reduceNOPs.sh
4454			g_makebar:
4455			L_lib_lcd_54:
4456	0db5	00000000		nop	; Automatically Added by addNops.pl
4457	0db6	00000000		nop	; Automatically Added by addNops.pl
4458	0db7	00000000		nop	; Automatically Added by addNops.pl
4459				; Automatically 16 NOPs removed by reduceNOPs.sh
4460	0db8	afbefffc		sw	-4(%GPR29),%GPR30	
4461	0db9	00000000		nop	; Automatically Added by addNops.pl
4462	0dba	00000000		nop	; Automatically Added by addNops.pl
4463	0dbb	00000000		nop	; Automatically Added by addNops.pl
4464	0dbc	00000000		nop	; Automatically added by fix-stall-insns.pl
4465	0dbd	afbf0000		sw	0(%GPR29),%GPR31	
4466	0dbe	00000000		nop	; Automatically Added by addNops.pl
4467	0dbf	00000000		nop	; Automatically Added by addNops.pl
4468	0dc0	00000000		nop	; Automatically Added by addNops.pl
4469	0dc1	2fbe0004		subui	%GPR30,%GPR29,$4	
4470	0dc2	00000000		nop	; Automatically Added by addNops.pl
4471	0dc3	00000000		nop	; Automatically Added by addNops.pl
4472	0dc4	00000000		nop	; Automatically Added by addNops.pl
4473				; Automatically 4 NOPs removed by reduceNOPs.sh
4474	0dc5	2bbd0034		subi	%GPR29,%GPR29,$52	
4475	0dc6	00000000		nop	; Automatically Added by addNops.pl
4476	0dc7	00000000		nop	; Automatically Added by addNops.pl
4477	0dc8	00000000		nop	; Automatically Added by addNops.pl
4478				; Automatically 16 NOPs removed by reduceNOPs.sh
4479	0dc9	afc7ffd8		sw	-40(%GPR30),%GPR7	
4480	0dca	00000000		nop	; Automatically Added by addNops.pl
4481	0dcb	00000000		nop	; Automatically Added by addNops.pl
4482	0dcc	00000000		nop	; Automatically Added by addNops.pl
4483	0dcd	00000000		nop	; Automatically added by fix-stall-insns.pl
4484	0dce	afcaffd4		sw	-44(%GPR30),%GPR10	
4485	0dcf	00000000		nop	; Automatically Added by addNops.pl
4486	0dd0	00000000		nop	; Automatically Added by addNops.pl
4487	0dd1	00000000		nop	; Automatically Added by addNops.pl
4488				; Automatically 12 NOPs removed by reduceNOPs.sh
4489	0dd2	3c070000		lhi	%GPR7,$( L_lib_lcd_1	/0x10000)
4490	0dd3	00000000		nop
4491	0dd4	00000000		nop
4492	0dd5	00000000		nop
4493	0dd6	34e70000		ori	%GPR7,%GPR7,$( L_lib_lcd_1	%0x10000)
4494	0dd7	00000000		nop	; Automatically Added by addNops.pl
4495	0dd8	00000000		nop	; Automatically Added by addNops.pl
4496	0dd9	00000000		nop	; Automatically Added by addNops.pl
4497				; Automatically 16 NOPs removed by reduceNOPs.sh
4498	0dda	8ce70000		lw	%GPR7,0(%GPR7)	
4499	0ddb	00000000		nop	; Automatically Added by addNops.pl
4500	0ddc	00000000		nop	; Automatically Added by addNops.pl
4501	0ddd	00000000		nop	; Automatically Added by addNops.pl
4502	0dde	3c0a0000		lhi	%GPR10,$0	
4503	0ddf	00000000		nop	; Automatically Added by addNops.pl
4504	0de0	00000000		nop	; Automatically Added by addNops.pl
4505	0de1	00000000		nop	; Automatically Added by addNops.pl
4506				; Automatically 16 NOPs removed by reduceNOPs.sh
4507	0de2	354a0020		ori	%GPR10,%GPR10,$32	
4508	0de3	00000000		nop	; Automatically Added by addNops.pl
4509	0de4	00000000		nop	; Automatically Added by addNops.pl
4510	0de5	00000000		nop	; Automatically Added by addNops.pl
4511				; Automatically 16 NOPs removed by reduceNOPs.sh
4512	0de6	00ead82a		slt	%GPR27,%GPR7,%GPR10	
4513	0de7	00000000		nop	; Automatically Added by addNops.pl
4514	0de8	00000000		nop	; Automatically Added by addNops.pl
4515	0de9	00000000		nop	; Automatically Added by addNops.pl
4516	0dea	17600008		bnez	%GPR27,L_lib_lcd_55	
4517	0deb	00000000		nop	; Automatically Added by addNops.pl
4518	0dec	00000000		nop	; Automatically Added by addNops.pl
4519	0ded	00000000		nop	; Automatically Added by addNops.pl
4520				; Automatically 16 NOPs removed by reduceNOPs.sh
4521	0dee	08000200		j	L_lib_lcd_58	
4522	0def	00000000		nop	; Automatically Added by addNops.pl
4523	0df0	00000000		nop	; Automatically Added by addNops.pl
4524	0df1	00000000		nop	; Automatically Added by addNops.pl
4525				; Automatically 16 NOPs removed by reduceNOPs.sh
4526			L_lib_lcd_55:
4527	0df2	00000000		nop	; Automatically Added by addNops.pl
4528	0df3	00000000		nop	; Automatically Added by addNops.pl
4529	0df4	00000000		nop	; Automatically Added by addNops.pl
4530	0df5	3c070000		lhi	%GPR7,$( L_lib_lcd_1	/0x10000)
4531	0df6	00000000		nop
4532	0df7	00000000		nop
4533	0df8	00000000		nop
4534	0df9	34e70000		ori	%GPR7,%GPR7,$( L_lib_lcd_1	%0x10000)
4535	0dfa	00000000		nop	; Automatically Added by addNops.pl
4536	0dfb	00000000		nop	; Automatically Added by addNops.pl
4537	0dfc	00000000		nop	; Automatically Added by addNops.pl
4538				; Automatically 8 NOPs removed by reduceNOPs.sh
4539	0dfd	2bca0024		subi	%GPR10,%GPR30,$36	
4540	0dfe	00000000		nop	; Automatically Added by addNops.pl
4541	0dff	00000000		nop	; Automatically Added by addNops.pl
4542	0e00	00000000		nop	; Automatically Added by addNops.pl
4543				; Automatically 8 NOPs removed by reduceNOPs.sh
4544	0e01	8ce70000		lw	%GPR7,0(%GPR7)	
4545	0e02	00000000		nop	; Automatically Added by addNops.pl
4546	0e03	00000000		nop	; Automatically Added by addNops.pl
4547	0e04	00000000		nop	; Automatically Added by addNops.pl
4548	0e05	3c0b0000		lhi	%GPR11,$0	
4549	0e06	00000000		nop	; Automatically Added by addNops.pl
4550	0e07	00000000		nop	; Automatically Added by addNops.pl
4551	0e08	00000000		nop	; Automatically Added by addNops.pl
4552				; Automatically 16 NOPs removed by reduceNOPs.sh
4553	0e09	356b0004		ori	%GPR11,%GPR11,$4	
4554	0e0a	00000000		nop	; Automatically Added by addNops.pl
4555	0e0b	00000000		nop	; Automatically Added by addNops.pl
4556	0e0c	00000000		nop	; Automatically Added by addNops.pl
4557	0e0d	2bcc0024		subi	%GPR12,%GPR30,$36	
4558	0e0e	00000000		nop	; Automatically Added by addNops.pl
4559	0e0f	00000000		nop	; Automatically Added by addNops.pl
4560	0e10	00000000		nop	; Automatically Added by addNops.pl
4561				; Automatically 8 NOPs removed by reduceNOPs.sh
4562	0e11	afc7ffdc		sw	-36(%GPR30),%GPR7	
4563	0e12	00000000		nop	; Automatically Added by addNops.pl
4564	0e13	00000000		nop	; Automatically Added by addNops.pl
4565	0e14	00000000		nop	; Automatically Added by addNops.pl
4566	0e15	014b5020		add	%GPR10,%GPR10,%GPR11	
4567	0e16	00000000		nop	; Automatically Added by addNops.pl
4568	0e17	00000000		nop	; Automatically Added by addNops.pl
4569	0e18	00000000		nop	; Automatically Added by addNops.pl
4570	0e19	3c070000		lhi	%GPR7,$0	
4571	0e1a	00000000		nop	; Automatically Added by addNops.pl
4572	0e1b	00000000		nop	; Automatically Added by addNops.pl
4573	0e1c	00000000		nop	; Automatically Added by addNops.pl
4574				; Automatically 16 NOPs removed by reduceNOPs.sh
4575	0e1d	34e70008		ori	%GPR7,%GPR7,$8	
4576	0e1e	00000000		nop	; Automatically Added by addNops.pl
4577	0e1f	00000000		nop	; Automatically Added by addNops.pl
4578	0e20	00000000		nop	; Automatically Added by addNops.pl
4579	0e21	2bcb0024		subi	%GPR11,%GPR30,$36	
4580	0e22	00000000		nop	; Automatically Added by addNops.pl
4581	0e23	00000000		nop	; Automatically Added by addNops.pl
4582	0e24	00000000		nop	; Automatically Added by addNops.pl
4583	0e25	3c0d0000		lhi	%GPR13,$0	
4584	0e26	00000000		nop	; Automatically Added by addNops.pl
4585	0e27	00000000		nop	; Automatically Added by addNops.pl
4586	0e28	00000000		nop	; Automatically Added by addNops.pl
4587				; Automatically 16 NOPs removed by reduceNOPs.sh
4588	0e29	35ad000c		ori	%GPR13,%GPR13,$12	
4589	0e2a	00000000		nop	; Automatically Added by addNops.pl
4590	0e2b	00000000		nop	; Automatically Added by addNops.pl
4591	0e2c	00000000		nop	; Automatically Added by addNops.pl
4592	0e2d	ad410000		sw	0(%GPR10),%GPR1	
4593	0e2e	00000000		nop	; Automatically Added by addNops.pl
4594	0e2f	00000000		nop	; Automatically Added by addNops.pl
4595	0e30	00000000		nop	; Automatically Added by addNops.pl
4596	0e31	01870820		add	%GPR1,%GPR12,%GPR7	
4597	0e32	00000000		nop	; Automatically Added by addNops.pl
4598	0e33	00000000		nop	; Automatically Added by addNops.pl
4599	0e34	00000000		nop	; Automatically Added by addNops.pl
4600				; Automatically 8 NOPs removed by reduceNOPs.sh
4601	0e35	2bc70024		subi	%GPR7,%GPR30,$36	
4602	0e36	00000000		nop	; Automatically Added by addNops.pl
4603	0e37	00000000		nop	; Automatically Added by addNops.pl
4604	0e38	00000000		nop	; Automatically Added by addNops.pl
4605				; Automatically 8 NOPs removed by reduceNOPs.sh
4606	0e39	ac220000		sw	0(%GPR1),%GPR2	
4607	0e3a	00000000		nop	; Automatically Added by addNops.pl
4608	0e3b	00000000		nop	; Automatically Added by addNops.pl
4609	0e3c	00000000		nop	; Automatically Added by addNops.pl
4610	0e3d	016d0820		add	%GPR1,%GPR11,%GPR13	
4611	0e3e	00000000		nop	; Automatically Added by addNops.pl
4612	0e3f	00000000		nop	; Automatically Added by addNops.pl
4613	0e40	00000000		nop	; Automatically Added by addNops.pl
4614	0e41	3c0a0000		lhi	%GPR10,$0	
4615	0e42	00000000		nop	; Automatically Added by addNops.pl
4616	0e43	00000000		nop	; Automatically Added by addNops.pl
4617	0e44	00000000		nop	; Automatically Added by addNops.pl
4618				; Automatically 16 NOPs removed by reduceNOPs.sh
4619	0e45	354a0010		ori	%GPR10,%GPR10,$16	
4620	0e46	00000000		nop	; Automatically Added by addNops.pl
4621	0e47	00000000		nop	; Automatically Added by addNops.pl
4622	0e48	00000000		nop	; Automatically Added by addNops.pl
4623	0e49	2bc20024		subi	%GPR2,%GPR30,$36	
4624	0e4a	00000000		nop	; Automatically Added by addNops.pl
4625	0e4b	00000000		nop	; Automatically Added by addNops.pl
4626	0e4c	00000000		nop	; Automatically Added by addNops.pl
4627	0e4d	3c0b0000		lhi	%GPR11,$0	
4628	0e4e	00000000		nop	; Automatically Added by addNops.pl
4629	0e4f	00000000		nop	; Automatically Added by addNops.pl
4630	0e50	00000000		nop	; Automatically Added by addNops.pl
4631				; Automatically 16 NOPs removed by reduceNOPs.sh
4632	0e51	356b0014		ori	%GPR11,%GPR11,$20	
4633	0e52	00000000		nop	; Automatically Added by addNops.pl
4634	0e53	00000000		nop	; Automatically Added by addNops.pl
4635	0e54	00000000		nop	; Automatically Added by addNops.pl
4636	0e55	ac230000		sw	0(%GPR1),%GPR3	
4637	0e56	00000000		nop	; Automatically Added by addNops.pl
4638	0e57	00000000		nop	; Automatically Added by addNops.pl
4639	0e58	00000000		nop	; Automatically Added by addNops.pl
4640	0e59	00ea0820		add	%GPR1,%GPR7,%GPR10	
4641	0e5a	00000000		nop	; Automatically Added by addNops.pl
4642	0e5b	00000000		nop	; Automatically Added by addNops.pl
4643	0e5c	00000000		nop	; Automatically Added by addNops.pl
4644				; Automatically 8 NOPs removed by reduceNOPs.sh
4645	0e5d	2bc30024		subi	%GPR3,%GPR30,$36	
4646	0e5e	00000000		nop	; Automatically Added by addNops.pl
4647	0e5f	00000000		nop	; Automatically Added by addNops.pl
4648	0e60	00000000		nop	; Automatically Added by addNops.pl
4649				; Automatically 8 NOPs removed by reduceNOPs.sh
4650	0e61	ac240000		sw	0(%GPR1),%GPR4	
4651	0e62	00000000		nop	; Automatically Added by addNops.pl
4652	0e63	00000000		nop	; Automatically Added by addNops.pl
4653	0e64	00000000		nop	; Automatically Added by addNops.pl
4654	0e65	004b0820		add	%GPR1,%GPR2,%GPR11	
4655	0e66	00000000		nop	; Automatically Added by addNops.pl
4656	0e67	00000000		nop	; Automatically Added by addNops.pl
4657	0e68	00000000		nop	; Automatically Added by addNops.pl
4658	0e69	3c070000		lhi	%GPR7,$0	
4659	0e6a	00000000		nop	; Automatically Added by addNops.pl
4660	0e6b	00000000		nop	; Automatically Added by addNops.pl
4661	0e6c	00000000		nop	; Automatically Added by addNops.pl
4662				; Automatically 16 NOPs removed by reduceNOPs.sh
4663	0e6d	34e70018		ori	%GPR7,%GPR7,$24	
4664	0e6e	00000000		nop	; Automatically Added by addNops.pl
4665	0e6f	00000000		nop	; Automatically Added by addNops.pl
4666	0e70	00000000		nop	; Automatically Added by addNops.pl
4667	0e71	3c040000		lhi	%GPR4,$0	
4668	0e72	00000000		nop	; Automatically Added by addNops.pl
4669	0e73	00000000		nop	; Automatically Added by addNops.pl
4670	0e74	00000000		nop	; Automatically Added by addNops.pl
4671				; Automatically 16 NOPs removed by reduceNOPs.sh
4672	0e75	3484001c		ori	%GPR4,%GPR4,$28	
4673	0e76	00000000		nop	; Automatically Added by addNops.pl
4674	0e77	00000000		nop	; Automatically Added by addNops.pl
4675	0e78	00000000		nop	; Automatically Added by addNops.pl
4676	0e79	2bc20024		subi	%GPR2,%GPR30,$36	
4677	0e7a	00000000		nop	; Automatically Added by addNops.pl
4678	0e7b	00000000		nop	; Automatically Added by addNops.pl
4679	0e7c	00000000		nop	; Automatically Added by addNops.pl
4680	0e7d	ac250000		sw	0(%GPR1),%GPR5	
4681	0e7e	00000000		nop	; Automatically Added by addNops.pl
4682	0e7f	00000000		nop	; Automatically Added by addNops.pl
4683	0e80	00000000		nop	; Automatically Added by addNops.pl
4684	0e81	00670820		add	%GPR1,%GPR3,%GPR7	
4685	0e82	00000000		nop	; Automatically Added by addNops.pl
4686	0e83	00000000		nop	; Automatically Added by addNops.pl
4687	0e84	00000000		nop	; Automatically Added by addNops.pl
4688				; Automatically 8 NOPs removed by reduceNOPs.sh
4689	0e85	00442020		add	%GPR4,%GPR2,%GPR4	
4690	0e86	00000000		nop	; Automatically Added by addNops.pl
4691	0e87	00000000		nop	; Automatically Added by addNops.pl
4692	0e88	00000000		nop	; Automatically Added by addNops.pl
4693	0e89	2bca0024		subi	%GPR10,%GPR30,$36	
4694	0e8a	00000000		nop	; Automatically Added by addNops.pl
4695	0e8b	00000000		nop	; Automatically Added by addNops.pl
4696	0e8c	00000000		nop	; Automatically Added by addNops.pl
4697	0e8d	ac260000		sw	0(%GPR1),%GPR6	
4698	0e8e	00000000		nop	; Automatically Added by addNops.pl
4699	0e8f	00000000		nop	; Automatically Added by addNops.pl
4700	0e90	00000000		nop	; Automatically Added by addNops.pl
4701	0e91	3c0b0000		lhi	%GPR11,$0	
4702	0e92	00000000		nop	; Automatically Added by addNops.pl
4703	0e93	00000000		nop	; Automatically Added by addNops.pl
4704	0e94	00000000		nop	; Automatically Added by addNops.pl
4705				; Automatically 16 NOPs removed by reduceNOPs.sh
4706	0e95	356b0020		ori	%GPR11,%GPR11,$32	
4707	0e96	00000000		nop	; Automatically Added by addNops.pl
4708	0e97	00000000		nop	; Automatically Added by addNops.pl
4709	0e98	00000000		nop	; Automatically Added by addNops.pl
4710				; Automatically 12 NOPs removed by reduceNOPs.sh
4711	0e99	ac880000		sw	0(%GPR4),%GPR8	
4712	0e9a	00000000		nop	; Automatically Added by addNops.pl
4713	0e9b	00000000		nop	; Automatically Added by addNops.pl
4714	0e9c	00000000		nop	; Automatically Added by addNops.pl
4715				; Automatically 16 NOPs removed by reduceNOPs.sh
4716	0e9d	014b5020		add	%GPR10,%GPR10,%GPR11	
4717	0e9e	00000000		nop	; Automatically Added by addNops.pl
4718	0e9f	00000000		nop	; Automatically Added by addNops.pl
4719	0ea0	00000000		nop	; Automatically Added by addNops.pl
4720				; Automatically 8 NOPs removed by reduceNOPs.sh
4721	0ea1	2bc30024		subi	%GPR3,%GPR30,$36	
4722	0ea2	00000000		nop	; Automatically Added by addNops.pl
4723	0ea3	00000000		nop	; Automatically Added by addNops.pl
4724	0ea4	00000000		nop	; Automatically Added by addNops.pl
4725	0ea5	3c070000		lhi	%GPR7,$0	
4726	0ea6	00000000		nop	; Automatically Added by addNops.pl
4727	0ea7	00000000		nop	; Automatically Added by addNops.pl
4728	0ea8	00000000		nop	; Automatically Added by addNops.pl
4729				; Automatically 16 NOPs removed by reduceNOPs.sh
4730	0ea9	34e7006f		ori	%GPR7,%GPR7,$111	
4731	0eaa	00000000		nop	; Automatically Added by addNops.pl
4732	0eab	00000000		nop	; Automatically Added by addNops.pl
4733	0eac	00000000		nop	; Automatically Added by addNops.pl
4734	0ead	3c060000		lhi	%GPR6,$0	
4735	0eae	00000000		nop	; Automatically Added by addNops.pl
4736	0eaf	00000000		nop	; Automatically Added by addNops.pl
4737	0eb0	00000000		nop	; Automatically Added by addNops.pl
4738				; Automatically 16 NOPs removed by reduceNOPs.sh
4739	0eb1	34c60000		ori	%GPR6,%GPR6,$0	
4740	0eb2	00000000		nop	; Automatically Added by addNops.pl
4741	0eb3	00000000		nop	; Automatically Added by addNops.pl
4742	0eb4	00000000		nop	; Automatically Added by addNops.pl
4743	0eb5	3c050000		lhi	%GPR5,$0	
4744	0eb6	00000000		nop	; Automatically Added by addNops.pl
4745	0eb7	00000000		nop	; Automatically Added by addNops.pl
4746	0eb8	00000000		nop	; Automatically Added by addNops.pl
4747				; Automatically 16 NOPs removed by reduceNOPs.sh
4748	0eb9	34a50009		ori	%GPR5,%GPR5,$9	
4749	0eba	00000000		nop	; Automatically Added by addNops.pl
4750	0ebb	00000000		nop	; Automatically Added by addNops.pl
4751	0ebc	00000000		nop	; Automatically Added by addNops.pl
4752	0ebd	3c020000		lhi	%GPR2,$0	
4753	0ebe	00000000		nop	; Automatically Added by addNops.pl
4754	0ebf	00000000		nop	; Automatically Added by addNops.pl
4755	0ec0	00000000		nop	; Automatically Added by addNops.pl
4756				; Automatically 16 NOPs removed by reduceNOPs.sh
4757	0ec1	34420052		ori	%GPR2,%GPR2,$82	
4758	0ec2	00000000		nop	; Automatically Added by addNops.pl
4759	0ec3	00000000		nop	; Automatically Added by addNops.pl
4760	0ec4	00000000		nop	; Automatically Added by addNops.pl
4761	0ec5	3c010000		lhi	%GPR1,$0	
4762	0ec6	00000000		nop	; Automatically Added by addNops.pl
4763	0ec7	00000000		nop	; Automatically Added by addNops.pl
4764	0ec8	00000000		nop	; Automatically Added by addNops.pl
4765				; Automatically 16 NOPs removed by reduceNOPs.sh
4766	0ec9	34210042		ori	%GPR1,%GPR1,$66	
4767	0eca	00000000		nop	; Automatically Added by addNops.pl
4768	0ecb	00000000		nop	; Automatically Added by addNops.pl
4769	0ecc	00000000		nop	; Automatically Added by addNops.pl
4770	0ecd	ad490000		sw	0(%GPR10),%GPR9	
4771	0ece	00000000		nop	; Automatically Added by addNops.pl
4772	0ecf	00000000		nop	; Automatically Added by addNops.pl
4773	0ed0	00000000		nop	; Automatically Added by addNops.pl
4774	0ed1	3c040000		lhi	%GPR4,$0	
4775	0ed2	00000000		nop	; Automatically Added by addNops.pl
4776	0ed3	00000000		nop	; Automatically Added by addNops.pl
4777	0ed4	00000000		nop	; Automatically Added by addNops.pl
4778				; Automatically 16 NOPs removed by reduceNOPs.sh
4779	0ed5	34840000		ori	%GPR4,%GPR4,$0	
4780	0ed6	00000000		nop	; Automatically Added by addNops.pl
4781	0ed7	00000000		nop	; Automatically Added by addNops.pl
4782	0ed8	00000000		nop	; Automatically Added by addNops.pl
4783				; Automatically 16 NOPs removed by reduceNOPs.sh
4784	0ed9	2bbd0008		subi	%GPR29,%GPR29,$8	
4785	0eda	00000000		nop	; Automatically Added by addNops.pl
4786	0edb	00000000		nop	; Automatically Added by addNops.pl
4787	0edc	00000000		nop	; Automatically Added by addNops.pl
4788				; Automatically 16 NOPs removed by reduceNOPs.sh
4789	0edd	0ffff891		jal	sendcommand	
4790	0ede	00000000		nop	; Automatically Added by addNops.pl
4791	0edf	00000000		nop	; Automatically Added by addNops.pl
4792	0ee0	00000000		nop	; Automatically Added by addNops.pl
4793				; Automatically 16 NOPs removed by reduceNOPs.sh
4794	0ee1	23bd0008		addi	%GPR29,%GPR29,$8	
4795	0ee2	00000000		nop	; Automatically Added by addNops.pl
4796	0ee3	00000000		nop	; Automatically Added by addNops.pl
4797	0ee4	00000000		nop	; Automatically Added by addNops.pl
4798				; Automatically 24 NOPs removed by reduceNOPs.sh
4799	0ee5	8fc2ffd4		lw	%GPR2,-44(%GPR30)	
4800	0ee6	00000000		nop	; Automatically Added by addNops.pl
4801	0ee7	00000000		nop	; Automatically Added by addNops.pl
4802	0ee8	00000000		nop	; Automatically Added by addNops.pl
4803				; Automatically 12 NOPs removed by reduceNOPs.sh
4804	0ee9	3c010000		lhi	%GPR1,$0	
4805	0eea	00000000		nop	; Automatically Added by addNops.pl
4806	0eeb	00000000		nop	; Automatically Added by addNops.pl
4807	0eec	00000000		nop	; Automatically Added by addNops.pl
4808				; Automatically 16 NOPs removed by reduceNOPs.sh
4809	0eed	34210000		ori	%GPR1,%GPR1,$0	
4810	0eee	00000000		nop	; Automatically Added by addNops.pl
4811	0eef	00000000		nop	; Automatically Added by addNops.pl
4812	0ef0	00000000		nop	; Automatically Added by addNops.pl
4813				; Automatically 16 NOPs removed by reduceNOPs.sh
4814	0ef1	0041d82f		sne	%GPR27,%GPR2,%GPR1	
4815	0ef2	00000000		nop	; Automatically Added by addNops.pl
4816	0ef3	00000000		nop	; Automatically Added by addNops.pl
4817	0ef4	00000000		nop	; Automatically Added by addNops.pl
4818	0ef5	17600008		bnez	%GPR27,L_lib_lcd_56	
4819	0ef6	00000000		nop	; Automatically Added by addNops.pl
4820	0ef7	00000000		nop	; Automatically Added by addNops.pl
4821	0ef8	00000000		nop	; Automatically Added by addNops.pl
4822				; Automatically 16 NOPs removed by reduceNOPs.sh
4823	0ef9	08000057		j	L_lib_lcd_57	
4824	0efa	00000000		nop	; Automatically Added by addNops.pl
4825	0efb	00000000		nop	; Automatically Added by addNops.pl
4826	0efc	00000000		nop	; Automatically Added by addNops.pl
4827				; Automatically 16 NOPs removed by reduceNOPs.sh
4828			L_lib_lcd_56:
4829	0efd	00000000		nop	; Automatically Added by addNops.pl
4830	0efe	00000000		nop	; Automatically Added by addNops.pl
4831	0eff	00000000		nop	; Automatically Added by addNops.pl
4832	0f00	3c010000		lhi	%GPR1,$( L_lib_lcd_1	/0x10000)
4833	0f01	00000000		nop
4834	0f02	00000000		nop
4835	0f03	00000000		nop
4836	0f04	34210000		ori	%GPR1,%GPR1,$( L_lib_lcd_1	%0x10000)
4837	0f05	00000000		nop	; Automatically Added by addNops.pl
4838	0f06	00000000		nop	; Automatically Added by addNops.pl
4839	0f07	00000000		nop	; Automatically Added by addNops.pl
4840				; Automatically 16 NOPs removed by reduceNOPs.sh
4841	0f08	8c280000		lw	%GPR8,0(%GPR1)	
4842	0f09	00000000		nop	; Automatically Added by addNops.pl
4843	0f0a	00000000		nop	; Automatically Added by addNops.pl
4844	0f0b	00000000		nop	; Automatically Added by addNops.pl
4845				; Automatically 16 NOPs removed by reduceNOPs.sh
4846	0f0c	2bc30024		subi	%GPR3,%GPR30,$36	
4847	0f0d	00000000		nop	; Automatically Added by addNops.pl
4848	0f0e	00000000		nop	; Automatically Added by addNops.pl
4849	0f0f	00000000		nop	; Automatically Added by addNops.pl
4850	0f10	3c070000		lhi	%GPR7,$0	
4851	0f11	00000000		nop	; Automatically Added by addNops.pl
4852	0f12	00000000		nop	; Automatically Added by addNops.pl
4853	0f13	00000000		nop	; Automatically Added by addNops.pl
4854				; Automatically 16 NOPs removed by reduceNOPs.sh
4855	0f14	34e7006f		ori	%GPR7,%GPR7,$111	
4856	0f15	00000000		nop	; Automatically Added by addNops.pl
4857	0f16	00000000		nop	; Automatically Added by addNops.pl
4858	0f17	00000000		nop	; Automatically Added by addNops.pl
4859	0f18	3c060000		lhi	%GPR6,$0	
4860	0f19	00000000		nop	; Automatically Added by addNops.pl
4861	0f1a	00000000		nop	; Automatically Added by addNops.pl
4862	0f1b	00000000		nop	; Automatically Added by addNops.pl
4863				; Automatically 16 NOPs removed by reduceNOPs.sh
4864	0f1c	34c60000		ori	%GPR6,%GPR6,$0	
4865	0f1d	00000000		nop	; Automatically Added by addNops.pl
4866	0f1e	00000000		nop	; Automatically Added by addNops.pl
4867	0f1f	00000000		nop	; Automatically Added by addNops.pl
4868	0f20	3c050000		lhi	%GPR5,$0	
4869	0f21	00000000		nop	; Automatically Added by addNops.pl
4870	0f22	00000000		nop	; Automatically Added by addNops.pl
4871	0f23	00000000		nop	; Automatically Added by addNops.pl
4872				; Automatically 16 NOPs removed by reduceNOPs.sh
4873	0f24	34a50001		ori	%GPR5,%GPR5,$1	
4874	0f25	00000000		nop	; Automatically Added by addNops.pl
4875	0f26	00000000		nop	; Automatically Added by addNops.pl
4876	0f27	00000000		nop	; Automatically Added by addNops.pl
4877	0f28	afc8ffdc		sw	-36(%GPR30),%GPR8	
4878	0f29	00000000		nop	; Automatically Added by addNops.pl
4879	0f2a	00000000		nop	; Automatically Added by addNops.pl
4880	0f2b	00000000		nop	; Automatically Added by addNops.pl
4881	0f2c	3c020000		lhi	%GPR2,$0	
4882	0f2d	00000000		nop	; Automatically Added by addNops.pl
4883	0f2e	00000000		nop	; Automatically Added by addNops.pl
4884	0f2f	00000000		nop	; Automatically Added by addNops.pl
4885				; Automatically 16 NOPs removed by reduceNOPs.sh
4886	0f30	34420042		ori	%GPR2,%GPR2,$66	
4887	0f31	00000000		nop	; Automatically Added by addNops.pl
4888	0f32	00000000		nop	; Automatically Added by addNops.pl
4889	0f33	00000000		nop	; Automatically Added by addNops.pl
4890	0f34	3c010000		lhi	%GPR1,$0	
4891	0f35	00000000		nop	; Automatically Added by addNops.pl
4892	0f36	00000000		nop	; Automatically Added by addNops.pl
4893	0f37	00000000		nop	; Automatically Added by addNops.pl
4894				; Automatically 16 NOPs removed by reduceNOPs.sh
4895	0f38	34210041		ori	%GPR1,%GPR1,$65	
4896	0f39	00000000		nop	; Automatically Added by addNops.pl
4897	0f3a	00000000		nop	; Automatically Added by addNops.pl
4898	0f3b	00000000		nop	; Automatically Added by addNops.pl
4899	0f3c	3c040000		lhi	%GPR4,$0	
4900	0f3d	00000000		nop	; Automatically Added by addNops.pl
4901	0f3e	00000000		nop	; Automatically Added by addNops.pl
4902	0f3f	00000000		nop	; Automatically Added by addNops.pl
4903				; Automatically 16 NOPs removed by reduceNOPs.sh
4904	0f40	34840000		ori	%GPR4,%GPR4,$0	
4905	0f41	00000000		nop	; Automatically Added by addNops.pl
4906	0f42	00000000		nop	; Automatically Added by addNops.pl
4907	0f43	00000000		nop	; Automatically Added by addNops.pl
4908				; Automatically 16 NOPs removed by reduceNOPs.sh
4909	0f44	2bbd0008		subi	%GPR29,%GPR29,$8	
4910	0f45	00000000		nop	; Automatically Added by addNops.pl
4911	0f46	00000000		nop	; Automatically Added by addNops.pl
4912	0f47	00000000		nop	; Automatically Added by addNops.pl
4913				; Automatically 16 NOPs removed by reduceNOPs.sh
4914	0f48	0ffff826		jal	sendcommand	
4915	0f49	00000000		nop	; Automatically Added by addNops.pl
4916	0f4a	00000000		nop	; Automatically Added by addNops.pl
4917	0f4b	00000000		nop	; Automatically Added by addNops.pl
4918				; Automatically 16 NOPs removed by reduceNOPs.sh
4919	0f4c	23bd0008		addi	%GPR29,%GPR29,$8	
4920	0f4d	00000000		nop	; Automatically Added by addNops.pl
4921	0f4e	00000000		nop	; Automatically Added by addNops.pl
4922	0f4f	00000000		nop	; Automatically Added by addNops.pl
4923				; Automatically 28 NOPs removed by reduceNOPs.sh
4924			L_lib_lcd_57:
4925	0f50	00000000		nop	; Automatically Added by addNops.pl
4926	0f51	00000000		nop	; Automatically Added by addNops.pl
4927	0f52	00000000		nop	; Automatically Added by addNops.pl
4928				; Automatically 12 NOPs removed by reduceNOPs.sh
4929	0f53	3c010000		lhi	%GPR1,$( L_lib_lcd_1	/0x10000)
4930	0f54	00000000		nop
4931	0f55	00000000		nop
4932	0f56	00000000		nop
4933	0f57	34210000		ori	%GPR1,%GPR1,$( L_lib_lcd_1	%0x10000)
4934	0f58	00000000		nop	; Automatically Added by addNops.pl
4935	0f59	00000000		nop	; Automatically Added by addNops.pl
4936	0f5a	00000000		nop	; Automatically Added by addNops.pl
4937	0f5b	3c020000		lhi	%GPR2,$( L_lib_lcd_1	/0x10000)
4938	0f5c	00000000		nop
4939	0f5d	00000000		nop
4940	0f5e	00000000		nop
4941	0f5f	34420000		ori	%GPR2,%GPR2,$( L_lib_lcd_1	%0x10000)
4942	0f60	00000000		nop	; Automatically Added by addNops.pl
4943	0f61	00000000		nop	; Automatically Added by addNops.pl
4944	0f62	00000000		nop	; Automatically Added by addNops.pl
4945				; Automatically 8 NOPs removed by reduceNOPs.sh
4946	0f63	3c030000		lhi	%GPR3,$( L_lib_lcd_1	/0x10000)
4947	0f64	00000000		nop
4948	0f65	00000000		nop
4949	0f66	00000000		nop
4950	0f67	34630000		ori	%GPR3,%GPR3,$( L_lib_lcd_1	%0x10000)
4951	0f68	00000000		nop	; Automatically Added by addNops.pl
4952	0f69	00000000		nop	; Automatically Added by addNops.pl
4953	0f6a	00000000		nop	; Automatically Added by addNops.pl
4954	0f6b	8c240000		lw	%GPR4,0(%GPR1)	
4955	0f6c	00000000		nop	; Automatically Added by addNops.pl
4956	0f6d	00000000		nop	; Automatically Added by addNops.pl
4957	0f6e	00000000		nop	; Automatically Added by addNops.pl
4958	0f6f	00000000		nop	; Automatically added by fix-stall-insns.pl
4959	0f70	8c410000		lw	%GPR1,0(%GPR2)	
4960	0f71	00000000		nop	; Automatically Added by addNops.pl
4961	0f72	00000000		nop	; Automatically Added by addNops.pl
4962	0f73	00000000		nop	; Automatically Added by addNops.pl
4963	0f74	2bc80024		subi	%GPR8,%GPR30,$36	
4964	0f75	00000000		nop	; Automatically Added by addNops.pl
4965	0f76	00000000		nop	; Automatically Added by addNops.pl
4966	0f77	00000000		nop	; Automatically Added by addNops.pl
4967	0f78	3c090000		lhi	%GPR9,$0	
4968	0f79	00000000		nop	; Automatically Added by addNops.pl
4969	0f7a	00000000		nop	; Automatically Added by addNops.pl
4970	0f7b	00000000		nop	; Automatically Added by addNops.pl
4971				; Automatically 16 NOPs removed by reduceNOPs.sh
4972	0f7c	35290004		ori	%GPR9,%GPR9,$4	
4973	0f7d	00000000		nop	; Automatically Added by addNops.pl
4974	0f7e	00000000		nop	; Automatically Added by addNops.pl
4975	0f7f	00000000		nop	; Automatically Added by addNops.pl
4976	0f80	20820001		addi	%GPR2,%GPR4,$1	
4977	0f81	00000000		nop	; Automatically Added by addNops.pl
4978	0f82	00000000		nop	; Automatically Added by addNops.pl
4979	0f83	00000000		nop	; Automatically Added by addNops.pl
4980				; Automatically 12 NOPs removed by reduceNOPs.sh
4981	0f84	01094020		add	%GPR8,%GPR8,%GPR9	
4982	0f85	00000000		nop	; Automatically Added by addNops.pl
4983	0f86	00000000		nop	; Automatically Added by addNops.pl
4984	0f87	00000000		nop	; Automatically Added by addNops.pl
4985	0f88	ac620000		sw	0(%GPR3),%GPR2	
4986	0f89	00000000		nop	; Automatically Added by addNops.pl
4987	0f8a	00000000		nop	; Automatically Added by addNops.pl
4988	0f8b	00000000		nop	; Automatically Added by addNops.pl
4989				; Automatically 16 NOPs removed by reduceNOPs.sh
4990	0f8c	00000000		nop	; Automatically added by fix-stall-insns.pl
4991	0f8d	afc1ffdc		sw	-36(%GPR30),%GPR1	
4992	0f8e	00000000		nop	; Automatically Added by addNops.pl
4993	0f8f	00000000		nop	; Automatically Added by addNops.pl
4994	0f90	00000000		nop	; Automatically Added by addNops.pl
4995	0f91	00000000		nop	; Automatically added by fix-stall-insns.pl
4996	0f92	8fc9ffd8		lw	%GPR9,-40(%GPR30)	
4997	0f93	00000000		nop	; Automatically Added by addNops.pl
4998	0f94	00000000		nop	; Automatically Added by addNops.pl
4999	0f95	00000000		nop	; Automatically Added by addNops.pl
5000	0f96	3c040000		lhi	%GPR4,$0	
5001	0f97	00000000		nop	; Automatically Added by addNops.pl
5002	0f98	00000000		nop	; Automatically Added by addNops.pl
5003	0f99	00000000		nop	; Automatically Added by addNops.pl
5004				; Automatically 16 NOPs removed by reduceNOPs.sh
5005	0f9a	34840000		ori	%GPR4,%GPR4,$0	
5006	0f9b	00000000		nop	; Automatically Added by addNops.pl
5007	0f9c	00000000		nop	; Automatically Added by addNops.pl
5008	0f9d	00000000		nop	; Automatically Added by addNops.pl
5009	0f9e	3c070000		lhi	%GPR7,$0	
5010	0f9f	00000000		nop	; Automatically Added by addNops.pl
5011	0fa0	00000000		nop	; Automatically Added by addNops.pl
5012	0fa1	00000000		nop	; Automatically Added by addNops.pl
5013				; Automatically 16 NOPs removed by reduceNOPs.sh
5014	0fa2	34e7006f		ori	%GPR7,%GPR7,$111	
5015	0fa3	00000000		nop	; Automatically Added by addNops.pl
5016	0fa4	00000000		nop	; Automatically Added by addNops.pl
5017	0fa5	00000000		nop	; Automatically Added by addNops.pl
5018	0fa6	3c060000		lhi	%GPR6,$0	
5019	0fa7	00000000		nop	; Automatically Added by addNops.pl
5020	0fa8	00000000		nop	; Automatically Added by addNops.pl
5021	0fa9	00000000		nop	; Automatically Added by addNops.pl
5022				; Automatically 16 NOPs removed by reduceNOPs.sh
5023	0faa	34c60000		ori	%GPR6,%GPR6,$0	
5024	0fab	00000000		nop	; Automatically Added by addNops.pl
5025	0fac	00000000		nop	; Automatically Added by addNops.pl
5026	0fad	00000000		nop	; Automatically Added by addNops.pl
5027	0fae	2bc30024		subi	%GPR3,%GPR30,$36	
5028	0faf	00000000		nop	; Automatically Added by addNops.pl
5029	0fb0	00000000		nop	; Automatically Added by addNops.pl
5030	0fb1	00000000		nop	; Automatically Added by addNops.pl
5031	0fb2	3c050000		lhi	%GPR5,$0	
5032	0fb3	00000000		nop	; Automatically Added by addNops.pl
5033	0fb4	00000000		nop	; Automatically Added by addNops.pl
5034	0fb5	00000000		nop	; Automatically Added by addNops.pl
5035				; Automatically 16 NOPs removed by reduceNOPs.sh
5036	0fb6	34a50002		ori	%GPR5,%GPR5,$2	
5037	0fb7	00000000		nop	; Automatically Added by addNops.pl
5038	0fb8	00000000		nop	; Automatically Added by addNops.pl
5039	0fb9	00000000		nop	; Automatically Added by addNops.pl
5040	0fba	3c020000		lhi	%GPR2,$0	
5041	0fbb	00000000		nop	; Automatically Added by addNops.pl
5042	0fbc	00000000		nop	; Automatically Added by addNops.pl
5043	0fbd	00000000		nop	; Automatically Added by addNops.pl
5044				; Automatically 16 NOPs removed by reduceNOPs.sh
5045	0fbe	34420041		ori	%GPR2,%GPR2,$65	
5046	0fbf	00000000		nop	; Automatically Added by addNops.pl
5047	0fc0	00000000		nop	; Automatically Added by addNops.pl
5048	0fc1	00000000		nop	; Automatically Added by addNops.pl
5049	0fc2	3c010000		lhi	%GPR1,$0	
5050	0fc3	00000000		nop	; Automatically Added by addNops.pl
5051	0fc4	00000000		nop	; Automatically Added by addNops.pl
5052	0fc5	00000000		nop	; Automatically Added by addNops.pl
5053				; Automatically 16 NOPs removed by reduceNOPs.sh
5054	0fc6	34210042		ori	%GPR1,%GPR1,$66	
5055	0fc7	00000000		nop	; Automatically Added by addNops.pl
5056	0fc8	00000000		nop	; Automatically Added by addNops.pl
5057	0fc9	00000000		nop	; Automatically Added by addNops.pl
5058	0fca	ad090000		sw	0(%GPR8),%GPR9	
5059	0fcb	00000000		nop	; Automatically Added by addNops.pl
5060	0fcc	00000000		nop	; Automatically Added by addNops.pl
5061	0fcd	00000000		nop	; Automatically Added by addNops.pl
5062				; Automatically 16 NOPs removed by reduceNOPs.sh
5063	0fce	2bbd0008		subi	%GPR29,%GPR29,$8	
5064	0fcf	00000000		nop	; Automatically Added by addNops.pl
5065	0fd0	00000000		nop	; Automatically Added by addNops.pl
5066	0fd1	00000000		nop	; Automatically Added by addNops.pl
5067				; Automatically 16 NOPs removed by reduceNOPs.sh
5068	0fd2	0ffff79c		jal	sendcommand	
5069	0fd3	00000000		nop	; Automatically Added by addNops.pl
5070	0fd4	00000000		nop	; Automatically Added by addNops.pl
5071	0fd5	00000000		nop	; Automatically Added by addNops.pl
5072				; Automatically 16 NOPs removed by reduceNOPs.sh
5073	0fd6	23bd0008		addi	%GPR29,%GPR29,$8	
5074	0fd7	00000000		nop	; Automatically Added by addNops.pl
5075	0fd8	00000000		nop	; Automatically Added by addNops.pl
5076	0fd9	00000000		nop	; Automatically Added by addNops.pl
5077				; Automatically 16 NOPs removed by reduceNOPs.sh
5078	0fda	3c010000		lhi	%GPR1,$( L_lib_lcd_1	/0x10000)
5079	0fdb	00000000		nop
5080	0fdc	00000000		nop
5081	0fdd	00000000		nop
5082	0fde	34210000		ori	%GPR1,%GPR1,$( L_lib_lcd_1	%0x10000)
5083	0fdf	00000000		nop	; Automatically Added by addNops.pl
5084	0fe0	00000000		nop	; Automatically Added by addNops.pl
5085	0fe1	00000000		nop	; Automatically Added by addNops.pl
5086				; Automatically 16 NOPs removed by reduceNOPs.sh
5087	0fe2	8c210000		lw	%GPR1,0(%GPR1)	
5088	0fe3	00000000		nop	; Automatically Added by addNops.pl
5089	0fe4	00000000		nop	; Automatically Added by addNops.pl
5090	0fe5	00000000		nop	; Automatically Added by addNops.pl
5091				; Automatically 16 NOPs removed by reduceNOPs.sh
5092	0fe6	283c0001		subi	%GPR28,%GPR1,$1	
5093	0fe7	00000000		nop	; Automatically Added by addNops.pl
5094	0fe8	00000000		nop	; Automatically Added by addNops.pl
5095	0fe9	00000000		nop	; Automatically Added by addNops.pl
5096				; Automatically 16 NOPs removed by reduceNOPs.sh
5097	0fea	08000013		j	L_lib_lcd_59	
5098	0feb	00000000		nop	; Automatically Added by addNops.pl
5099	0fec	00000000		nop	; Automatically Added by addNops.pl
5100	0fed	00000000		nop	; Automatically Added by addNops.pl
5101				; Automatically 16 NOPs removed by reduceNOPs.sh
5102			L_lib_lcd_58:
5103	0fee	00000000		nop	; Automatically Added by addNops.pl
5104	0fef	00000000		nop	; Automatically Added by addNops.pl
5105	0ff0	00000000		nop	; Automatically Added by addNops.pl
5106				; Automatically 16 NOPs removed by reduceNOPs.sh
5107	0ff1	3c1cffff		lhi	%GPR28,$65535	
5108	0ff2	00000000		nop	; Automatically Added by addNops.pl
5109	0ff3	00000000		nop	; Automatically Added by addNops.pl
5110	0ff4	00000000		nop	; Automatically Added by addNops.pl
5111				; Automatically 16 NOPs removed by reduceNOPs.sh
5112	0ff5	379cffff		ori	%GPR28,%GPR28,$-1	
5113	0ff6	00000000		nop	; Automatically Added by addNops.pl
5114	0ff7	00000000		nop	; Automatically Added by addNops.pl
5115	0ff8	00000000		nop	; Automatically Added by addNops.pl
5116				; Automatically 16 NOPs removed by reduceNOPs.sh
5117	0ff9	08000004		j	L_lib_lcd_59	
5118	0ffa	00000000		nop	; Automatically Added by addNops.pl
5119	0ffb	00000000		nop	; Automatically Added by addNops.pl
5120	0ffc	00000000		nop	; Automatically Added by addNops.pl
5121				; Automatically 16 NOPs removed by reduceNOPs.sh
5122			L_lib_lcd_59:
5123	0ffd	00000000		nop	; Automatically Added by addNops.pl
5124	0ffe	00000000		nop	; Automatically Added by addNops.pl
5125	0fff	00000000		nop	; Automatically Added by addNops.pl
5126				; Automatically 16 NOPs removed by reduceNOPs.sh
5127	1000	8fdf0004		lw	%GPR31,4(%GPR30)	
5128	1001	00000000		nop	; Automatically Added by addNops.pl
5129	1002	00000000		nop	; Automatically Added by addNops.pl
5130	1003	00000000		nop	; Automatically Added by addNops.pl
5131	1004	27dd0004		addui	%GPR29,%GPR30,$4	
5132	1005	00000000		nop	; Automatically Added by addNops.pl
5133	1006	00000000		nop	; Automatically Added by addNops.pl
5134	1007	00000000		nop	; Automatically Added by addNops.pl
5135	1008	8fde0000		lw	%GPR30,0(%GPR30)	
5136	1009	00000000		nop	; Automatically Added by addNops.pl
5137	100a	00000000		nop	; Automatically Added by addNops.pl
5138	100b	00000000		nop	; Automatically Added by addNops.pl
5139				; Automatically 8 NOPs removed by reduceNOPs.sh
5140	100c	00000000		nop
5141	100d	00000000		nop
5142	100e	03e00008		jr	%GPR31	
5143	100f	00000000		nop	; Automatically Added by addNops.pl
5144	1010	00000000		nop	; Automatically Added by addNops.pl
5145	1011	00000000		nop	; Automatically Added by addNops.pl
5146				; Automatically 16 NOPs removed by reduceNOPs.sh
5147			g_setbar:
5148			L_lib_lcd_60:
5149	1012	00000000		nop	; Automatically Added by addNops.pl
5150	1013	00000000		nop	; Automatically Added by addNops.pl
5151	1014	00000000		nop	; Automatically Added by addNops.pl
5152				; Automatically 16 NOPs removed by reduceNOPs.sh
5153	1015	afbefffc		sw	-4(%GPR29),%GPR30	
5154	1016	00000000		nop	; Automatically Added by addNops.pl
5155	1017	00000000		nop	; Automatically Added by addNops.pl
5156	1018	00000000		nop	; Automatically Added by addNops.pl
5157	1019	00000000		nop	; Automatically added by fix-stall-insns.pl
5158	101a	afbf0000		sw	0(%GPR29),%GPR31	
5159	101b	00000000		nop	; Automatically Added by addNops.pl
5160	101c	00000000		nop	; Automatically Added by addNops.pl
5161	101d	00000000		nop	; Automatically Added by addNops.pl
5162	101e	2fbe0004		subui	%GPR30,%GPR29,$4	
5163	101f	00000000		nop	; Automatically Added by addNops.pl
5164	1020	00000000		nop	; Automatically Added by addNops.pl
5165	1021	00000000		nop	; Automatically Added by addNops.pl
5166				; Automatically 4 NOPs removed by reduceNOPs.sh
5167	1022	2bbd0010		subi	%GPR29,%GPR29,$16	
5168	1023	00000000		nop	; Automatically Added by addNops.pl
5169	1024	00000000		nop	; Automatically Added by addNops.pl
5170	1025	00000000		nop	; Automatically Added by addNops.pl
5171				; Automatically 16 NOPs removed by reduceNOPs.sh
5172	1026	00404020		add	%GPR8,%GPR2,%GPR0	
5173	1027	00000000		nop	; Automatically Added by addNops.pl
5174	1028	00000000		nop	; Automatically Added by addNops.pl
5175	1029	00000000		nop	; Automatically Added by addNops.pl
5176				; Automatically 20 NOPs removed by reduceNOPs.sh
5177	102a	2bc40008		subi	%GPR4,%GPR30,$8	
5178	102b	00000000		nop	; Automatically Added by addNops.pl
5179	102c	00000000		nop	; Automatically Added by addNops.pl
5180	102d	00000000		nop	; Automatically Added by addNops.pl
5181	102e	afc1fff8		sw	-8(%GPR30),%GPR1	
5182	102f	00000000		nop	; Automatically Added by addNops.pl
5183	1030	00000000		nop	; Automatically Added by addNops.pl
5184	1031	00000000		nop	; Automatically Added by addNops.pl
5185				; Automatically 8 NOPs removed by reduceNOPs.sh
5186	1032	3c090000		lhi	%GPR9,$0	
5187	1033	00000000		nop	; Automatically Added by addNops.pl
5188	1034	00000000		nop	; Automatically Added by addNops.pl
5189	1035	00000000		nop	; Automatically Added by addNops.pl
5190				; Automatically 16 NOPs removed by reduceNOPs.sh
5191	1036	35290004		ori	%GPR9,%GPR9,$4	
5192	1037	00000000		nop	; Automatically Added by addNops.pl
5193	1038	00000000		nop	; Automatically Added by addNops.pl
5194	1039	00000000		nop	; Automatically Added by addNops.pl
5195				; Automatically 16 NOPs removed by reduceNOPs.sh
5196	103a	00894820		add	%GPR9,%GPR4,%GPR9	
5197	103b	00000000		nop	; Automatically Added by addNops.pl
5198	103c	00000000		nop	; Automatically Added by addNops.pl
5199	103d	00000000		nop	; Automatically Added by addNops.pl
5200				; Automatically 12 NOPs removed by reduceNOPs.sh
5201	103e	2bc30008		subi	%GPR3,%GPR30,$8	
5202	103f	00000000		nop	; Automatically Added by addNops.pl
5203	1040	00000000		nop	; Automatically Added by addNops.pl
5204	1041	00000000		nop	; Automatically Added by addNops.pl
5205	1042	3c070000		lhi	%GPR7,$0	
5206	1043	00000000		nop	; Automatically Added by addNops.pl
5207	1044	00000000		nop	; Automatically Added by addNops.pl
5208	1045	00000000		nop	; Automatically Added by addNops.pl
5209				; Automatically 16 NOPs removed by reduceNOPs.sh
5210	1046	34e7006f		ori	%GPR7,%GPR7,$111	
5211	1047	00000000		nop	; Automatically Added by addNops.pl
5212	1048	00000000		nop	; Automatically Added by addNops.pl
5213	1049	00000000		nop	; Automatically Added by addNops.pl
5214	104a	3c060000		lhi	%GPR6,$0	
5215	104b	00000000		nop	; Automatically Added by addNops.pl
5216	104c	00000000		nop	; Automatically Added by addNops.pl
5217	104d	00000000		nop	; Automatically Added by addNops.pl
5218				; Automatically 16 NOPs removed by reduceNOPs.sh
5219	104e	34c60000		ori	%GPR6,%GPR6,$0	
5220	104f	00000000		nop	; Automatically Added by addNops.pl
5221	1050	00000000		nop	; Automatically Added by addNops.pl
5222	1051	00000000		nop	; Automatically Added by addNops.pl
5223	1052	3c050000		lhi	%GPR5,$0	
5224	1053	00000000		nop	; Automatically Added by addNops.pl
5225	1054	00000000		nop	; Automatically Added by addNops.pl
5226	1055	00000000		nop	; Automatically Added by addNops.pl
5227				; Automatically 16 NOPs removed by reduceNOPs.sh
5228	1056	34a50002		ori	%GPR5,%GPR5,$2	
5229	1057	00000000		nop	; Automatically Added by addNops.pl
5230	1058	00000000		nop	; Automatically Added by addNops.pl
5231	1059	00000000		nop	; Automatically Added by addNops.pl
5232	105a	3c020000		lhi	%GPR2,$0	
5233	105b	00000000		nop	; Automatically Added by addNops.pl
5234	105c	00000000		nop	; Automatically Added by addNops.pl
5235	105d	00000000		nop	; Automatically Added by addNops.pl
5236				; Automatically 16 NOPs removed by reduceNOPs.sh
5237	105e	34420041		ori	%GPR2,%GPR2,$65	
5238	105f	00000000		nop	; Automatically Added by addNops.pl
5239	1060	00000000		nop	; Automatically Added by addNops.pl
5240	1061	00000000		nop	; Automatically Added by addNops.pl
5241	1062	ad280000		sw	0(%GPR9),%GPR8	
5242	1063	00000000		nop	; Automatically Added by addNops.pl
5243	1064	00000000		nop	; Automatically Added by addNops.pl
5244	1065	00000000		nop	; Automatically Added by addNops.pl
5245	1066	3c010000		lhi	%GPR1,$0	
5246	1067	00000000		nop	; Automatically Added by addNops.pl
5247	1068	00000000		nop	; Automatically Added by addNops.pl
5248	1069	00000000		nop	; Automatically Added by addNops.pl
5249				; Automatically 16 NOPs removed by reduceNOPs.sh
5250	106a	34210042		ori	%GPR1,%GPR1,$66	
5251	106b	00000000		nop	; Automatically Added by addNops.pl
5252	106c	00000000		nop	; Automatically Added by addNops.pl
5253	106d	00000000		nop	; Automatically Added by addNops.pl
5254	106e	3c040000		lhi	%GPR4,$0	
5255	106f	00000000		nop	; Automatically Added by addNops.pl
5256	1070	00000000		nop	; Automatically Added by addNops.pl
5257	1071	00000000		nop	; Automatically Added by addNops.pl
5258				; Automatically 16 NOPs removed by reduceNOPs.sh
5259	1072	34840000		ori	%GPR4,%GPR4,$0	
5260	1073	00000000		nop	; Automatically Added by addNops.pl
5261	1074	00000000		nop	; Automatically Added by addNops.pl
5262	1075	00000000		nop	; Automatically Added by addNops.pl
5263				; Automatically 16 NOPs removed by reduceNOPs.sh
5264	1076	2bbd0008		subi	%GPR29,%GPR29,$8	
5265	1077	00000000		nop	; Automatically Added by addNops.pl
5266	1078	00000000		nop	; Automatically Added by addNops.pl
5267	1079	00000000		nop	; Automatically Added by addNops.pl
5268				; Automatically 16 NOPs removed by reduceNOPs.sh
5269	107a	0ffff6f4		jal	sendcommand	
5270	107b	00000000		nop	; Automatically Added by addNops.pl
5271	107c	00000000		nop	; Automatically Added by addNops.pl
5272	107d	00000000		nop	; Automatically Added by addNops.pl
5273				; Automatically 16 NOPs removed by reduceNOPs.sh
5274	107e	23bd0008		addi	%GPR29,%GPR29,$8	
5275	107f	00000000		nop	; Automatically Added by addNops.pl
5276	1080	00000000		nop	; Automatically Added by addNops.pl
5277	1081	00000000		nop	; Automatically Added by addNops.pl
5278				; Automatically 36 NOPs removed by reduceNOPs.sh
5279	1082	3c1c0000		lhi	%GPR28,$0	
5280	1083	00000000		nop	; Automatically Added by addNops.pl
5281	1084	00000000		nop	; Automatically Added by addNops.pl
5282	1085	00000000		nop	; Automatically Added by addNops.pl
5283				; Automatically 16 NOPs removed by reduceNOPs.sh
5284	1086	379c0000		ori	%GPR28,%GPR28,$0	
5285	1087	00000000		nop	; Automatically Added by addNops.pl
5286	1088	00000000		nop	; Automatically Added by addNops.pl
5287	1089	00000000		nop	; Automatically Added by addNops.pl
5288				; Automatically 16 NOPs removed by reduceNOPs.sh
5289	108a	08000004		j	L_lib_lcd_61	
5290	108b	00000000		nop	; Automatically Added by addNops.pl
5291	108c	00000000		nop	; Automatically Added by addNops.pl
5292	108d	00000000		nop	; Automatically Added by addNops.pl
5293				; Automatically 16 NOPs removed by reduceNOPs.sh
5294			L_lib_lcd_61:
5295	108e	00000000		nop	; Automatically Added by addNops.pl
5296	108f	00000000		nop	; Automatically Added by addNops.pl
5297	1090	00000000		nop	; Automatically Added by addNops.pl
5298				; Automatically 16 NOPs removed by reduceNOPs.sh
5299	1091	8fdf0004		lw	%GPR31,4(%GPR30)	
5300	1092	00000000		nop	; Automatically Added by addNops.pl
5301	1093	00000000		nop	; Automatically Added by addNops.pl
5302	1094	00000000		nop	; Automatically Added by addNops.pl
5303	1095	27dd0004		addui	%GPR29,%GPR30,$4	
5304	1096	00000000		nop	; Automatically Added by addNops.pl
5305	1097	00000000		nop	; Automatically Added by addNops.pl
5306	1098	00000000		nop	; Automatically Added by addNops.pl
5307	1099	8fde0000		lw	%GPR30,0(%GPR30)	
5308	109a	00000000		nop	; Automatically Added by addNops.pl
5309	109b	00000000		nop	; Automatically Added by addNops.pl
5310	109c	00000000		nop	; Automatically Added by addNops.pl
5311				; Automatically 8 NOPs removed by reduceNOPs.sh
5312	109d	00000000		nop
5313	109e	00000000		nop
5314	109f	03e00008		jr	%GPR31	
5315	10a0	00000000		nop	; Automatically Added by addNops.pl
5316	10a1	00000000		nop	; Automatically Added by addNops.pl
5317	10a2	00000000		nop	; Automatically Added by addNops.pl
5318				; Automatically 16 NOPs removed by reduceNOPs.sh
5319			g_makeswitch:
5320			L_lib_lcd_62:
5321	10a3	00000000		nop	; Automatically Added by addNops.pl
5322	10a4	00000000		nop	; Automatically Added by addNops.pl
5323	10a5	00000000		nop	; Automatically Added by addNops.pl
5324				; Automatically 16 NOPs removed by reduceNOPs.sh
5325	10a6	afbefffc		sw	-4(%GPR29),%GPR30	
5326	10a7	00000000		nop	; Automatically Added by addNops.pl
5327	10a8	00000000		nop	; Automatically Added by addNops.pl
5328	10a9	00000000		nop	; Automatically Added by addNops.pl
5329	10aa	00000000		nop	; Automatically added by fix-stall-insns.pl
5330	10ab	afbf0000		sw	0(%GPR29),%GPR31	
5331	10ac	00000000		nop	; Automatically Added by addNops.pl
5332	10ad	00000000		nop	; Automatically Added by addNops.pl
5333	10ae	00000000		nop	; Automatically Added by addNops.pl
5334	10af	2fbe0004		subui	%GPR30,%GPR29,$4	
5335	10b0	00000000		nop	; Automatically Added by addNops.pl
5336	10b1	00000000		nop	; Automatically Added by addNops.pl
5337	10b2	00000000		nop	; Automatically Added by addNops.pl
5338				; Automatically 4 NOPs removed by reduceNOPs.sh
5339	10b3	2bbd0024		subi	%GPR29,%GPR29,$36	
5340	10b4	00000000		nop	; Automatically Added by addNops.pl
5341	10b5	00000000		nop	; Automatically Added by addNops.pl
5342	10b6	00000000		nop	; Automatically Added by addNops.pl
5343				; Automatically 16 NOPs removed by reduceNOPs.sh
5344	10b7	afc1ffe4		sw	-28(%GPR30),%GPR1	
5345	10b8	00000000		nop	; Automatically Added by addNops.pl
5346	10b9	00000000		nop	; Automatically Added by addNops.pl
5347	10ba	00000000		nop	; Automatically Added by addNops.pl
5348				; Automatically 20 NOPs removed by reduceNOPs.sh
5349	10bb	00000000		nop	; Automatically added by fix-stall-insns.pl
5350	10bc	afc2ffe8		sw	-24(%GPR30),%GPR2	
5351	10bd	00000000		nop	; Automatically Added by addNops.pl
5352	10be	00000000		nop	; Automatically Added by addNops.pl
5353	10bf	00000000		nop	; Automatically Added by addNops.pl
5354	10c0	2bc10018		subi	%GPR1,%GPR30,$24	
5355	10c1	00000000		nop	; Automatically Added by addNops.pl
5356	10c2	00000000		nop	; Automatically Added by addNops.pl
5357	10c3	00000000		nop	; Automatically Added by addNops.pl
5358				; Automatically 8 NOPs removed by reduceNOPs.sh
5359	10c4	3c020000		lhi	%GPR2,$0	
5360	10c5	00000000		nop	; Automatically Added by addNops.pl
5361	10c6	00000000		nop	; Automatically Added by addNops.pl
5362	10c7	00000000		nop	; Automatically Added by addNops.pl
5363				; Automatically 16 NOPs removed by reduceNOPs.sh
5364	10c8	34420004		ori	%GPR2,%GPR2,$4	
5365	10c9	00000000		nop	; Automatically Added by addNops.pl
5366	10ca	00000000		nop	; Automatically Added by addNops.pl
5367	10cb	00000000		nop	; Automatically Added by addNops.pl
5368	10cc	2bc80018		subi	%GPR8,%GPR30,$24	
5369	10cd	00000000		nop	; Automatically Added by addNops.pl
5370	10ce	00000000		nop	; Automatically Added by addNops.pl
5371	10cf	00000000		nop	; Automatically Added by addNops.pl
5372				; Automatically 8 NOPs removed by reduceNOPs.sh
5373	10d0	3c090000		lhi	%GPR9,$0	
5374	10d1	00000000		nop	; Automatically Added by addNops.pl
5375	10d2	00000000		nop	; Automatically Added by addNops.pl
5376	10d3	00000000		nop	; Automatically Added by addNops.pl
5377				; Automatically 16 NOPs removed by reduceNOPs.sh
5378	10d4	35290008		ori	%GPR9,%GPR9,$8	
5379	10d5	00000000		nop	; Automatically Added by addNops.pl
5380	10d6	00000000		nop	; Automatically Added by addNops.pl
5381	10d7	00000000		nop	; Automatically Added by addNops.pl
5382	10d8	00220820		add	%GPR1,%GPR1,%GPR2	
5383	10d9	00000000		nop	; Automatically Added by addNops.pl
5384	10da	00000000		nop	; Automatically Added by addNops.pl
5385	10db	00000000		nop	; Automatically Added by addNops.pl
5386	10dc	2bc20018		subi	%GPR2,%GPR30,$24	
5387	10dd	00000000		nop	; Automatically Added by addNops.pl
5388	10de	00000000		nop	; Automatically Added by addNops.pl
5389	10df	00000000		nop	; Automatically Added by addNops.pl
5390				; Automatically 8 NOPs removed by reduceNOPs.sh
5391	10e0	3c0a0000		lhi	%GPR10,$0	
5392	10e1	00000000		nop	; Automatically Added by addNops.pl
5393	10e2	00000000		nop	; Automatically Added by addNops.pl
5394	10e3	00000000		nop	; Automatically Added by addNops.pl
5395				; Automatically 16 NOPs removed by reduceNOPs.sh
5396	10e4	354a000c		ori	%GPR10,%GPR10,$12	
5397	10e5	00000000		nop	; Automatically Added by addNops.pl
5398	10e6	00000000		nop	; Automatically Added by addNops.pl
5399	10e7	00000000		nop	; Automatically Added by addNops.pl
5400	10e8	ac230000		sw	0(%GPR1),%GPR3	
5401	10e9	00000000		nop	; Automatically Added by addNops.pl
5402	10ea	00000000		nop	; Automatically Added by addNops.pl
5403	10eb	00000000		nop	; Automatically Added by addNops.pl
5404	10ec	01090820		add	%GPR1,%GPR8,%GPR9	
5405	10ed	00000000		nop	; Automatically Added by addNops.pl
5406	10ee	00000000		nop	; Automatically Added by addNops.pl
5407	10ef	00000000		nop	; Automatically Added by addNops.pl
5408	10f0	2bc30018		subi	%GPR3,%GPR30,$24	
5409	10f1	00000000		nop	; Automatically Added by addNops.pl
5410	10f2	00000000		nop	; Automatically Added by addNops.pl
5411	10f3	00000000		nop	; Automatically Added by addNops.pl
5412				; Automatically 8 NOPs removed by reduceNOPs.sh
5413	10f4	3c080000		lhi	%GPR8,$0	
5414	10f5	00000000		nop	; Automatically Added by addNops.pl
5415	10f6	00000000		nop	; Automatically Added by addNops.pl
5416	10f7	00000000		nop	; Automatically Added by addNops.pl
5417				; Automatically 16 NOPs removed by reduceNOPs.sh
5418	10f8	35080010		ori	%GPR8,%GPR8,$16	
5419	10f9	00000000		nop	; Automatically Added by addNops.pl
5420	10fa	00000000		nop	; Automatically Added by addNops.pl
5421	10fb	00000000		nop	; Automatically Added by addNops.pl
5422	10fc	ac240000		sw	0(%GPR1),%GPR4	
5423	10fd	00000000		nop	; Automatically Added by addNops.pl
5424	10fe	00000000		nop	; Automatically Added by addNops.pl
5425	10ff	00000000		nop	; Automatically Added by addNops.pl
5426	1100	004a0820		add	%GPR1,%GPR2,%GPR10	
5427	1101	00000000		nop	; Automatically Added by addNops.pl
5428	1102	00000000		nop	; Automatically Added by addNops.pl
5429	1103	00000000		nop	; Automatically Added by addNops.pl
5430	1104	3c040000		lhi	%GPR4,$0	
5431	1105	00000000		nop	; Automatically Added by addNops.pl
5432	1106	00000000		nop	; Automatically Added by addNops.pl
5433	1107	00000000		nop	; Automatically Added by addNops.pl
5434				; Automatically 16 NOPs removed by reduceNOPs.sh
5435	1108	34840014		ori	%GPR4,%GPR4,$20	
5436	1109	00000000		nop	; Automatically Added by addNops.pl
5437	110a	00000000		nop	; Automatically Added by addNops.pl
5438	110b	00000000		nop	; Automatically Added by addNops.pl
5439	110c	00681820		add	%GPR3,%GPR3,%GPR8	
5440	110d	00000000		nop	; Automatically Added by addNops.pl
5441	110e	00000000		nop	; Automatically Added by addNops.pl
5442	110f	00000000		nop	; Automatically Added by addNops.pl
5443	1110	2bc20018		subi	%GPR2,%GPR30,$24	
5444	1111	00000000		nop	; Automatically Added by addNops.pl
5445	1112	00000000		nop	; Automatically Added by addNops.pl
5446	1113	00000000		nop	; Automatically Added by addNops.pl
5447	1114	ac250000		sw	0(%GPR1),%GPR5	
5448	1115	00000000		nop	; Automatically Added by addNops.pl
5449	1116	00000000		nop	; Automatically Added by addNops.pl
5450	1117	00000000		nop	; Automatically Added by addNops.pl
5451				; Automatically 12 NOPs removed by reduceNOPs.sh
5452	1118	00440820		add	%GPR1,%GPR2,%GPR4	
5453	1119	00000000		nop	; Automatically Added by addNops.pl
5454	111a	00000000		nop	; Automatically Added by addNops.pl
5455	111b	00000000		nop	; Automatically Added by addNops.pl
5456	111c	ac660000		sw	0(%GPR3),%GPR6	
5457	111d	00000000		nop	; Automatically Added by addNops.pl
5458	111e	00000000		nop	; Automatically Added by addNops.pl
5459	111f	00000000		nop	; Automatically Added by addNops.pl
5460				; Automatically 16 NOPs removed by reduceNOPs.sh
5461	1120	00000000		nop	; Automatically added by fix-stall-insns.pl
5462	1121	ac270000		sw	0(%GPR1),%GPR7	
5463	1122	00000000		nop	; Automatically Added by addNops.pl
5464	1123	00000000		nop	; Automatically Added by addNops.pl
5465	1124	00000000		nop	; Automatically Added by addNops.pl
5466	1125	00000000		nop	; Automatically added by fix-stall-insns.pl
5467	1126	8fc1ffe4		lw	%GPR1,-28(%GPR30)	
5468	1127	00000000		nop	; Automatically Added by addNops.pl
5469	1128	00000000		nop	; Automatically Added by addNops.pl
5470	1129	00000000		nop	; Automatically Added by addNops.pl
5471				; Automatically 16 NOPs removed by reduceNOPs.sh
5472	112a	2bbd0008		subi	%GPR29,%GPR29,$8	
5473	112b	00000000		nop	; Automatically Added by addNops.pl
5474	112c	00000000		nop	; Automatically Added by addNops.pl
5475	112d	00000000		nop	; Automatically Added by addNops.pl
5476				; Automatically 16 NOPs removed by reduceNOPs.sh
5477	112e	0ffff0d9		jal	strlength	
5478	112f	00000000		nop	; Automatically Added by addNops.pl
5479	1130	00000000		nop	; Automatically Added by addNops.pl
5480	1131	00000000		nop	; Automatically Added by addNops.pl
5481				; Automatically 16 NOPs removed by reduceNOPs.sh
5482	1132	23bd0008		addi	%GPR29,%GPR29,$8	
5483	1133	00000000		nop	; Automatically Added by addNops.pl
5484	1134	00000000		nop	; Automatically Added by addNops.pl
5485	1135	00000000		nop	; Automatically Added by addNops.pl
5486				; Automatically 36 NOPs removed by reduceNOPs.sh
5487	1136	8fc4ffe4		lw	%GPR4,-28(%GPR30)	
5488	1137	00000000		nop	; Automatically Added by addNops.pl
5489	1138	00000000		nop	; Automatically Added by addNops.pl
5490	1139	00000000		nop	; Automatically Added by addNops.pl
5491	113a	23860001		addi	%GPR6,%GPR28,$1	
5492	113b	00000000		nop	; Automatically Added by addNops.pl
5493	113c	00000000		nop	; Automatically Added by addNops.pl
5494	113d	00000000		nop	; Automatically Added by addNops.pl
5495	113e	2bc30018		subi	%GPR3,%GPR30,$24	
5496	113f	00000000		nop	; Automatically Added by addNops.pl
5497	1140	00000000		nop	; Automatically Added by addNops.pl
5498	1141	00000000		nop	; Automatically Added by addNops.pl
5499	1142	3c070000		lhi	%GPR7,$0	
5500	1143	00000000		nop	; Automatically Added by addNops.pl
5501	1144	00000000		nop	; Automatically Added by addNops.pl
5502	1145	00000000		nop	; Automatically Added by addNops.pl
5503				; Automatically 16 NOPs removed by reduceNOPs.sh
5504	1146	34e7006f		ori	%GPR7,%GPR7,$111	
5505	1147	00000000		nop	; Automatically Added by addNops.pl
5506	1148	00000000		nop	; Automatically Added by addNops.pl
5507	1149	00000000		nop	; Automatically Added by addNops.pl
5508	114a	3c050000		lhi	%GPR5,$0	
5509	114b	00000000		nop	; Automatically Added by addNops.pl
5510	114c	00000000		nop	; Automatically Added by addNops.pl
5511	114d	00000000		nop	; Automatically Added by addNops.pl
5512				; Automatically 16 NOPs removed by reduceNOPs.sh
5513	114e	34a50006		ori	%GPR5,%GPR5,$6	
5514	114f	00000000		nop	; Automatically Added by addNops.pl
5515	1150	00000000		nop	; Automatically Added by addNops.pl
5516	1151	00000000		nop	; Automatically Added by addNops.pl
5517	1152	3c020000		lhi	%GPR2,$0	
5518	1153	00000000		nop	; Automatically Added by addNops.pl
5519	1154	00000000		nop	; Automatically Added by addNops.pl
5520	1155	00000000		nop	; Automatically Added by addNops.pl
5521				; Automatically 16 NOPs removed by reduceNOPs.sh
5522	1156	3442004b		ori	%GPR2,%GPR2,$75	
5523	1157	00000000		nop	; Automatically Added by addNops.pl
5524	1158	00000000		nop	; Automatically Added by addNops.pl
5525	1159	00000000		nop	; Automatically Added by addNops.pl
5526	115a	3c010000		lhi	%GPR1,$0	
5527	115b	00000000		nop	; Automatically Added by addNops.pl
5528	115c	00000000		nop	; Automatically Added by addNops.pl
5529	115d	00000000		nop	; Automatically Added by addNops.pl
5530				; Automatically 16 NOPs removed by reduceNOPs.sh
5531	115e	34210041		ori	%GPR1,%GPR1,$65	
5532	115f	00000000		nop	; Automatically Added by addNops.pl
5533	1160	00000000		nop	; Automatically Added by addNops.pl
5534	1161	00000000		nop	; Automatically Added by addNops.pl
5535				; Automatically 16 NOPs removed by reduceNOPs.sh
5536	1162	2bbd0008		subi	%GPR29,%GPR29,$8	
5537	1163	00000000		nop	; Automatically Added by addNops.pl
5538	1164	00000000		nop	; Automatically Added by addNops.pl
5539	1165	00000000		nop	; Automatically Added by addNops.pl
5540				; Automatically 16 NOPs removed by reduceNOPs.sh
5541	1166	0ffff608		jal	sendcommand	
5542	1167	00000000		nop	; Automatically Added by addNops.pl
5543	1168	00000000		nop	; Automatically Added by addNops.pl
5544	1169	00000000		nop	; Automatically Added by addNops.pl
5545				; Automatically 16 NOPs removed by reduceNOPs.sh
5546	116a	23bd0008		addi	%GPR29,%GPR29,$8	
5547	116b	00000000		nop	; Automatically Added by addNops.pl
5548	116c	00000000		nop	; Automatically Added by addNops.pl
5549	116d	00000000		nop	; Automatically Added by addNops.pl
5550				; Automatically 36 NOPs removed by reduceNOPs.sh
5551	116e	3c1c0000		lhi	%GPR28,$0	
5552	116f	00000000		nop	; Automatically Added by addNops.pl
5553	1170	00000000		nop	; Automatically Added by addNops.pl
5554	1171	00000000		nop	; Automatically Added by addNops.pl
5555				; Automatically 16 NOPs removed by reduceNOPs.sh
5556	1172	379c0000		ori	%GPR28,%GPR28,$0	
5557	1173	00000000		nop	; Automatically Added by addNops.pl
5558	1174	00000000		nop	; Automatically Added by addNops.pl
5559	1175	00000000		nop	; Automatically Added by addNops.pl
5560				; Automatically 16 NOPs removed by reduceNOPs.sh
5561	1176	08000004		j	L_lib_lcd_63	
5562	1177	00000000		nop	; Automatically Added by addNops.pl
5563	1178	00000000		nop	; Automatically Added by addNops.pl
5564	1179	00000000		nop	; Automatically Added by addNops.pl
5565				; Automatically 16 NOPs removed by reduceNOPs.sh
5566			L_lib_lcd_63:
5567	117a	00000000		nop	; Automatically Added by addNops.pl
5568	117b	00000000		nop	; Automatically Added by addNops.pl
5569	117c	00000000		nop	; Automatically Added by addNops.pl
5570				; Automatically 16 NOPs removed by reduceNOPs.sh
5571	117d	8fdf0004		lw	%GPR31,4(%GPR30)	
5572	117e	00000000		nop	; Automatically Added by addNops.pl
5573	117f	00000000		nop	; Automatically Added by addNops.pl
5574	1180	00000000		nop	; Automatically Added by addNops.pl
5575	1181	27dd0004		addui	%GPR29,%GPR30,$4	
5576	1182	00000000		nop	; Automatically Added by addNops.pl
5577	1183	00000000		nop	; Automatically Added by addNops.pl
5578	1184	00000000		nop	; Automatically Added by addNops.pl
5579	1185	8fde0000		lw	%GPR30,0(%GPR30)	
5580	1186	00000000		nop	; Automatically Added by addNops.pl
5581	1187	00000000		nop	; Automatically Added by addNops.pl
5582	1188	00000000		nop	; Automatically Added by addNops.pl
5583				; Automatically 8 NOPs removed by reduceNOPs.sh
5584	1189	00000000		nop
5585	118a	00000000		nop
5586	118b	03e00008		jr	%GPR31	
5587	118c	00000000		nop	; Automatically Added by addNops.pl
5588	118d	00000000		nop	; Automatically Added by addNops.pl
5589	118e	00000000		nop	; Automatically Added by addNops.pl
5590				; Automatically 16 NOPs removed by reduceNOPs.sh
5591			g_makemenubutton:
5592			L_lib_lcd_64:
5593	118f	00000000		nop	; Automatically Added by addNops.pl
5594	1190	00000000		nop	; Automatically Added by addNops.pl
5595	1191	00000000		nop	; Automatically Added by addNops.pl
5596				; Automatically 16 NOPs removed by reduceNOPs.sh
5597	1192	afbefffc		sw	-4(%GPR29),%GPR30	
5598	1193	00000000		nop	; Automatically Added by addNops.pl
5599	1194	00000000		nop	; Automatically Added by addNops.pl
5600	1195	00000000		nop	; Automatically Added by addNops.pl
5601	1196	00000000		nop	; Automatically added by fix-stall-insns.pl
5602	1197	afbf0000		sw	0(%GPR29),%GPR31	
5603	1198	00000000		nop	; Automatically Added by addNops.pl
5604	1199	00000000		nop	; Automatically Added by addNops.pl
5605	119a	00000000		nop	; Automatically Added by addNops.pl
5606	119b	2fbe0004		subui	%GPR30,%GPR29,$4	
5607	119c	00000000		nop	; Automatically Added by addNops.pl
5608	119d	00000000		nop	; Automatically Added by addNops.pl
5609	119e	00000000		nop	; Automatically Added by addNops.pl
5610				; Automatically 4 NOPs removed by reduceNOPs.sh
5611	119f	2bbd002c		subi	%GPR29,%GPR29,$44	
5612	11a0	00000000		nop	; Automatically Added by addNops.pl
5613	11a1	00000000		nop	; Automatically Added by addNops.pl
5614	11a2	00000000		nop	; Automatically Added by addNops.pl
5615				; Automatically 16 NOPs removed by reduceNOPs.sh
5616	11a3	afc1ffdc		sw	-36(%GPR30),%GPR1	
5617	11a4	00000000		nop	; Automatically Added by addNops.pl
5618	11a5	00000000		nop	; Automatically Added by addNops.pl
5619	11a6	00000000		nop	; Automatically Added by addNops.pl
5620	11a7	00000000		nop	; Automatically added by fix-stall-insns.pl
5621	11a8	afc9fffc		sw	-4(%GPR30),%GPR9	
5622	11a9	00000000		nop	; Automatically Added by addNops.pl
5623	11aa	00000000		nop	; Automatically Added by addNops.pl
5624	11ab	00000000		nop	; Automatically Added by addNops.pl
5625				; Automatically 20 NOPs removed by reduceNOPs.sh
5626	11ac	00000000		nop	; Automatically added by fix-stall-insns.pl
5627	11ad	afc2ffe0		sw	-32(%GPR30),%GPR2	
5628	11ae	00000000		nop	; Automatically Added by addNops.pl
5629	11af	00000000		nop	; Automatically Added by addNops.pl
5630	11b0	00000000		nop	; Automatically Added by addNops.pl
5631	11b1	2bc10020		subi	%GPR1,%GPR30,$32	
5632	11b2	00000000		nop	; Automatically Added by addNops.pl
5633	11b3	00000000		nop	; Automatically Added by addNops.pl
5634	11b4	00000000		nop	; Automatically Added by addNops.pl
5635				; Automatically 8 NOPs removed by reduceNOPs.sh
5636	11b5	3c020000		lhi	%GPR2,$0	
5637	11b6	00000000		nop	; Automatically Added by addNops.pl
5638	11b7	00000000		nop	; Automatically Added by addNops.pl
5639	11b8	00000000		nop	; Automatically Added by addNops.pl
5640				; Automatically 16 NOPs removed by reduceNOPs.sh
5641	11b9	34420004		ori	%GPR2,%GPR2,$4	
5642	11ba	00000000		nop	; Automatically Added by addNops.pl
5643	11bb	00000000		nop	; Automatically Added by addNops.pl
5644	11bc	00000000		nop	; Automatically Added by addNops.pl
5645	11bd	2bc90020		subi	%GPR9,%GPR30,$32	
5646	11be	00000000		nop	; Automatically Added by addNops.pl
5647	11bf	00000000		nop	; Automatically Added by addNops.pl
5648	11c0	00000000		nop	; Automatically Added by addNops.pl
5649				; Automatically 8 NOPs removed by reduceNOPs.sh
5650	11c1	3c0a0000		lhi	%GPR10,$0	
5651	11c2	00000000		nop	; Automatically Added by addNops.pl
5652	11c3	00000000		nop	; Automatically Added by addNops.pl
5653	11c4	00000000		nop	; Automatically Added by addNops.pl
5654				; Automatically 16 NOPs removed by reduceNOPs.sh
5655	11c5	354a0008		ori	%GPR10,%GPR10,$8	
5656	11c6	00000000		nop	; Automatically Added by addNops.pl
5657	11c7	00000000		nop	; Automatically Added by addNops.pl
5658	11c8	00000000		nop	; Automatically Added by addNops.pl
5659	11c9	00220820		add	%GPR1,%GPR1,%GPR2	
5660	11ca	00000000		nop	; Automatically Added by addNops.pl
5661	11cb	00000000		nop	; Automatically Added by addNops.pl
5662	11cc	00000000		nop	; Automatically Added by addNops.pl
5663	11cd	2bc20020		subi	%GPR2,%GPR30,$32	
5664	11ce	00000000		nop	; Automatically Added by addNops.pl
5665	11cf	00000000		nop	; Automatically Added by addNops.pl
5666	11d0	00000000		nop	; Automatically Added by addNops.pl
5667	11d1	3c0b0000		lhi	%GPR11,$0	
5668	11d2	00000000		nop	; Automatically Added by addNops.pl
5669	11d3	00000000		nop	; Automatically Added by addNops.pl
5670	11d4	00000000		nop	; Automatically Added by addNops.pl
5671				; Automatically 16 NOPs removed by reduceNOPs.sh
5672	11d5	356b000c		ori	%GPR11,%GPR11,$12	
5673	11d6	00000000		nop	; Automatically Added by addNops.pl
5674	11d7	00000000		nop	; Automatically Added by addNops.pl
5675	11d8	00000000		nop	; Automatically Added by addNops.pl
5676				; Automatically 8 NOPs removed by reduceNOPs.sh
5677	11d9	ac230000		sw	0(%GPR1),%GPR3	
5678	11da	00000000		nop	; Automatically Added by addNops.pl
5679	11db	00000000		nop	; Automatically Added by addNops.pl
5680	11dc	00000000		nop	; Automatically Added by addNops.pl
5681	11dd	012a0820		add	%GPR1,%GPR9,%GPR10	
5682	11de	00000000		nop	; Automatically Added by addNops.pl
5683	11df	00000000		nop	; Automatically Added by addNops.pl
5684	11e0	00000000		nop	; Automatically Added by addNops.pl
5685	11e1	2bc30020		subi	%GPR3,%GPR30,$32	
5686	11e2	00000000		nop	; Automatically Added by addNops.pl
5687	11e3	00000000		nop	; Automatically Added by addNops.pl
5688	11e4	00000000		nop	; Automatically Added by addNops.pl
5689				; Automatically 8 NOPs removed by reduceNOPs.sh
5690	11e5	3c090000		lhi	%GPR9,$0	
5691	11e6	00000000		nop	; Automatically Added by addNops.pl
5692	11e7	00000000		nop	; Automatically Added by addNops.pl
5693	11e8	00000000		nop	; Automatically Added by addNops.pl
5694				; Automatically 16 NOPs removed by reduceNOPs.sh
5695	11e9	35290010		ori	%GPR9,%GPR9,$16	
5696	11ea	00000000		nop	; Automatically Added by addNops.pl
5697	11eb	00000000		nop	; Automatically Added by addNops.pl
5698	11ec	00000000		nop	; Automatically Added by addNops.pl
5699	11ed	ac240000		sw	0(%GPR1),%GPR4	
5700	11ee	00000000		nop	; Automatically Added by addNops.pl
5701	11ef	00000000		nop	; Automatically Added by addNops.pl
5702	11f0	00000000		nop	; Automatically Added by addNops.pl
5703	11f1	004b0820		add	%GPR1,%GPR2,%GPR11	
5704	11f2	00000000		nop	; Automatically Added by addNops.pl
5705	11f3	00000000		nop	; Automatically Added by addNops.pl
5706	11f4	00000000		nop	; Automatically Added by addNops.pl
5707	11f5	2bc20020		subi	%GPR2,%GPR30,$32	
5708	11f6	00000000		nop	; Automatically Added by addNops.pl
5709	11f7	00000000		nop	; Automatically Added by addNops.pl
5710	11f8	00000000		nop	; Automatically Added by addNops.pl
5711				; Automatically 8 NOPs removed by reduceNOPs.sh
5712	11f9	3c040000		lhi	%GPR4,$0	
5713	11fa	00000000		nop	; Automatically Added by addNops.pl
5714	11fb	00000000		nop	; Automatically Added by addNops.pl
5715	11fc	00000000		nop	; Automatically Added by addNops.pl
5716				; Automatically 16 NOPs removed by reduceNOPs.sh
5717	11fd	34840014		ori	%GPR4,%GPR4,$20	
5718	11fe	00000000		nop	; Automatically Added by addNops.pl
5719	11ff	00000000		nop	; Automatically Added by addNops.pl
5720	1200	00000000		nop	; Automatically Added by addNops.pl
5721	1201	ac250000		sw	0(%GPR1),%GPR5	
5722	1202	00000000		nop	; Automatically Added by addNops.pl
5723	1203	00000000		nop	; Automatically Added by addNops.pl
5724	1204	00000000		nop	; Automatically Added by addNops.pl
5725	1205	00690820		add	%GPR1,%GPR3,%GPR9	
5726	1206	00000000		nop	; Automatically Added by addNops.pl
5727	1207	00000000		nop	; Automatically Added by addNops.pl
5728	1208	00000000		nop	; Automatically Added by addNops.pl
5729	1209	3c050000		lhi	%GPR5,$0	
5730	120a	00000000		nop	; Automatically Added by addNops.pl
5731	120b	00000000		nop	; Automatically Added by addNops.pl
5732	120c	00000000		nop	; Automatically Added by addNops.pl
5733				; Automatically 16 NOPs removed by reduceNOPs.sh
5734	120d	34a50018		ori	%GPR5,%GPR5,$24	
5735	120e	00000000		nop	; Automatically Added by addNops.pl
5736	120f	00000000		nop	; Automatically Added by addNops.pl
5737	1210	00000000		nop	; Automatically Added by addNops.pl
5738	1211	00441020		add	%GPR2,%GPR2,%GPR4	
5739	1212	00000000		nop	; Automatically Added by addNops.pl
5740	1213	00000000		nop	; Automatically Added by addNops.pl
5741	1214	00000000		nop	; Automatically Added by addNops.pl
5742	1215	2bc30020		subi	%GPR3,%GPR30,$32	
5743	1216	00000000		nop	; Automatically Added by addNops.pl
5744	1217	00000000		nop	; Automatically Added by addNops.pl
5745	1218	00000000		nop	; Automatically Added by addNops.pl
5746	1219	ac260000		sw	0(%GPR1),%GPR6	
5747	121a	00000000		nop	; Automatically Added by addNops.pl
5748	121b	00000000		nop	; Automatically Added by addNops.pl
5749	121c	00000000		nop	; Automatically Added by addNops.pl
5750				; Automatically 12 NOPs removed by reduceNOPs.sh
5751	121d	00650820		add	%GPR1,%GPR3,%GPR5	
5752	121e	00000000		nop	; Automatically Added by addNops.pl
5753	121f	00000000		nop	; Automatically Added by addNops.pl
5754	1220	00000000		nop	; Automatically Added by addNops.pl
5755	1221	ac470000		sw	0(%GPR2),%GPR7	
5756	1222	00000000		nop	; Automatically Added by addNops.pl
5757	1223	00000000		nop	; Automatically Added by addNops.pl
5758	1224	00000000		nop	; Automatically Added by addNops.pl
5759				; Automatically 16 NOPs removed by reduceNOPs.sh
5760	1225	00000000		nop	; Automatically added by fix-stall-insns.pl
5761	1226	ac280000		sw	0(%GPR1),%GPR8	
5762	1227	00000000		nop	; Automatically Added by addNops.pl
5763	1228	00000000		nop	; Automatically Added by addNops.pl
5764	1229	00000000		nop	; Automatically Added by addNops.pl
5765	122a	00000000		nop	; Automatically added by fix-stall-insns.pl
5766	122b	8fc1ffdc		lw	%GPR1,-36(%GPR30)	
5767	122c	00000000		nop	; Automatically Added by addNops.pl
5768	122d	00000000		nop	; Automatically Added by addNops.pl
5769	122e	00000000		nop	; Automatically Added by addNops.pl
5770				; Automatically 16 NOPs removed by reduceNOPs.sh
5771	122f	2bbd0008		subi	%GPR29,%GPR29,$8	
5772	1230	00000000		nop	; Automatically Added by addNops.pl
5773	1231	00000000		nop	; Automatically Added by addNops.pl
5774	1232	00000000		nop	; Automatically Added by addNops.pl
5775				; Automatically 16 NOPs removed by reduceNOPs.sh
5776	1233	0fffefd4		jal	strlength	
5777	1234	00000000		nop	; Automatically Added by addNops.pl
5778	1235	00000000		nop	; Automatically Added by addNops.pl
5779	1236	00000000		nop	; Automatically Added by addNops.pl
5780				; Automatically 16 NOPs removed by reduceNOPs.sh
5781	1237	23bd0008		addi	%GPR29,%GPR29,$8	
5782	1238	00000000		nop	; Automatically Added by addNops.pl
5783	1239	00000000		nop	; Automatically Added by addNops.pl
5784	123a	00000000		nop	; Automatically Added by addNops.pl
5785				; Automatically 36 NOPs removed by reduceNOPs.sh
5786	123b	8fc4ffdc		lw	%GPR4,-36(%GPR30)	
5787	123c	00000000		nop	; Automatically Added by addNops.pl
5788	123d	00000000		nop	; Automatically Added by addNops.pl
5789	123e	00000000		nop	; Automatically Added by addNops.pl
5790	123f	23860001		addi	%GPR6,%GPR28,$1	
5791	1240	00000000		nop	; Automatically Added by addNops.pl
5792	1241	00000000		nop	; Automatically Added by addNops.pl
5793	1242	00000000		nop	; Automatically Added by addNops.pl
5794	1243	2bc30020		subi	%GPR3,%GPR30,$32	
5795	1244	00000000		nop	; Automatically Added by addNops.pl
5796	1245	00000000		nop	; Automatically Added by addNops.pl
5797	1246	00000000		nop	; Automatically Added by addNops.pl
5798	1247	3c070000		lhi	%GPR7,$0	
5799	1248	00000000		nop	; Automatically Added by addNops.pl
5800	1249	00000000		nop	; Automatically Added by addNops.pl
5801	124a	00000000		nop	; Automatically Added by addNops.pl
5802				; Automatically 16 NOPs removed by reduceNOPs.sh
5803	124b	34e7006f		ori	%GPR7,%GPR7,$111	
5804	124c	00000000		nop	; Automatically Added by addNops.pl
5805	124d	00000000		nop	; Automatically Added by addNops.pl
5806	124e	00000000		nop	; Automatically Added by addNops.pl
5807	124f	3c050000		lhi	%GPR5,$0	
5808	1250	00000000		nop	; Automatically Added by addNops.pl
5809	1251	00000000		nop	; Automatically Added by addNops.pl
5810	1252	00000000		nop	; Automatically Added by addNops.pl
5811				; Automatically 16 NOPs removed by reduceNOPs.sh
5812	1253	34a50007		ori	%GPR5,%GPR5,$7	
5813	1254	00000000		nop	; Automatically Added by addNops.pl
5814	1255	00000000		nop	; Automatically Added by addNops.pl
5815	1256	00000000		nop	; Automatically Added by addNops.pl
5816	1257	3c020000		lhi	%GPR2,$0	
5817	1258	00000000		nop	; Automatically Added by addNops.pl
5818	1259	00000000		nop	; Automatically Added by addNops.pl
5819	125a	00000000		nop	; Automatically Added by addNops.pl
5820				; Automatically 16 NOPs removed by reduceNOPs.sh
5821	125b	3442004d		ori	%GPR2,%GPR2,$77	
5822	125c	00000000		nop	; Automatically Added by addNops.pl
5823	125d	00000000		nop	; Automatically Added by addNops.pl
5824	125e	00000000		nop	; Automatically Added by addNops.pl
5825	125f	3c010000		lhi	%GPR1,$0	
5826	1260	00000000		nop	; Automatically Added by addNops.pl
5827	1261	00000000		nop	; Automatically Added by addNops.pl
5828	1262	00000000		nop	; Automatically Added by addNops.pl
5829				; Automatically 16 NOPs removed by reduceNOPs.sh
5830	1263	34210041		ori	%GPR1,%GPR1,$65	
5831	1264	00000000		nop	; Automatically Added by addNops.pl
5832	1265	00000000		nop	; Automatically Added by addNops.pl
5833	1266	00000000		nop	; Automatically Added by addNops.pl
5834				; Automatically 16 NOPs removed by reduceNOPs.sh
5835	1267	2bbd0008		subi	%GPR29,%GPR29,$8	
5836	1268	00000000		nop	; Automatically Added by addNops.pl
5837	1269	00000000		nop	; Automatically Added by addNops.pl
5838	126a	00000000		nop	; Automatically Added by addNops.pl
5839				; Automatically 16 NOPs removed by reduceNOPs.sh
5840	126b	0ffff503		jal	sendcommand	
5841	126c	00000000		nop	; Automatically Added by addNops.pl
5842	126d	00000000		nop	; Automatically Added by addNops.pl
5843	126e	00000000		nop	; Automatically Added by addNops.pl
5844				; Automatically 16 NOPs removed by reduceNOPs.sh
5845	126f	23bd0008		addi	%GPR29,%GPR29,$8	
5846	1270	00000000		nop	; Automatically Added by addNops.pl
5847	1271	00000000		nop	; Automatically Added by addNops.pl
5848	1272	00000000		nop	; Automatically Added by addNops.pl
5849				; Automatically 24 NOPs removed by reduceNOPs.sh
5850	1273	8fc1fffc		lw	%GPR1,-4(%GPR30)	
5851	1274	00000000		nop	; Automatically Added by addNops.pl
5852	1275	00000000		nop	; Automatically Added by addNops.pl
5853	1276	00000000		nop	; Automatically Added by addNops.pl
5854				; Automatically 12 NOPs removed by reduceNOPs.sh
5855	1277	3c020000		lhi	%GPR2,$0	
5856	1278	00000000		nop	; Automatically Added by addNops.pl
5857	1279	00000000		nop	; Automatically Added by addNops.pl
5858	127a	00000000		nop	; Automatically Added by addNops.pl
5859				; Automatically 16 NOPs removed by reduceNOPs.sh
5860	127b	34420000		ori	%GPR2,%GPR2,$0	
5861	127c	00000000		nop	; Automatically Added by addNops.pl
5862	127d	00000000		nop	; Automatically Added by addNops.pl
5863	127e	00000000		nop	; Automatically Added by addNops.pl
5864				; Automatically 16 NOPs removed by reduceNOPs.sh
5865	127f	0022d82b		sgt	%GPR27,%GPR1,%GPR2	
5866	1280	00000000		nop	; Automatically Added by addNops.pl
5867	1281	00000000		nop	; Automatically Added by addNops.pl
5868	1282	00000000		nop	; Automatically Added by addNops.pl
5869	1283	17600008		bnez	%GPR27,L_lib_lcd_65	
5870	1284	00000000		nop	; Automatically Added by addNops.pl
5871	1285	00000000		nop	; Automatically Added by addNops.pl
5872	1286	00000000		nop	; Automatically Added by addNops.pl
5873				; Automatically 16 NOPs removed by reduceNOPs.sh
5874	1287	08000047		j	L_lib_lcd_66	
5875	1288	00000000		nop	; Automatically Added by addNops.pl
5876	1289	00000000		nop	; Automatically Added by addNops.pl
5877	128a	00000000		nop	; Automatically Added by addNops.pl
5878				; Automatically 16 NOPs removed by reduceNOPs.sh
5879			L_lib_lcd_65:
5880	128b	00000000		nop	; Automatically Added by addNops.pl
5881	128c	00000000		nop	; Automatically Added by addNops.pl
5882	128d	00000000		nop	; Automatically Added by addNops.pl
5883				; Automatically 24 NOPs removed by reduceNOPs.sh
5884	128e	2bc30004		subi	%GPR3,%GPR30,$4	
5885	128f	00000000		nop	; Automatically Added by addNops.pl
5886	1290	00000000		nop	; Automatically Added by addNops.pl
5887	1291	00000000		nop	; Automatically Added by addNops.pl
5888	1292	3c070000		lhi	%GPR7,$0	
5889	1293	00000000		nop	; Automatically Added by addNops.pl
5890	1294	00000000		nop	; Automatically Added by addNops.pl
5891	1295	00000000		nop	; Automatically Added by addNops.pl
5892				; Automatically 16 NOPs removed by reduceNOPs.sh
5893	1296	34e7006f		ori	%GPR7,%GPR7,$111	
5894	1297	00000000		nop	; Automatically Added by addNops.pl
5895	1298	00000000		nop	; Automatically Added by addNops.pl
5896	1299	00000000		nop	; Automatically Added by addNops.pl
5897	129a	3c060000		lhi	%GPR6,$0	
5898	129b	00000000		nop	; Automatically Added by addNops.pl
5899	129c	00000000		nop	; Automatically Added by addNops.pl
5900	129d	00000000		nop	; Automatically Added by addNops.pl
5901				; Automatically 16 NOPs removed by reduceNOPs.sh
5902	129e	34c60000		ori	%GPR6,%GPR6,$0	
5903	129f	00000000		nop	; Automatically Added by addNops.pl
5904	12a0	00000000		nop	; Automatically Added by addNops.pl
5905	12a1	00000000		nop	; Automatically Added by addNops.pl
5906	12a2	3c050000		lhi	%GPR5,$0	
5907	12a3	00000000		nop	; Automatically Added by addNops.pl
5908	12a4	00000000		nop	; Automatically Added by addNops.pl
5909	12a5	00000000		nop	; Automatically Added by addNops.pl
5910				; Automatically 16 NOPs removed by reduceNOPs.sh
5911	12a6	34a50001		ori	%GPR5,%GPR5,$1	
5912	12a7	00000000		nop	; Automatically Added by addNops.pl
5913	12a8	00000000		nop	; Automatically Added by addNops.pl
5914	12a9	00000000		nop	; Automatically Added by addNops.pl
5915	12aa	3c020000		lhi	%GPR2,$0	
5916	12ab	00000000		nop	; Automatically Added by addNops.pl
5917	12ac	00000000		nop	; Automatically Added by addNops.pl
5918	12ad	00000000		nop	; Automatically Added by addNops.pl
5919				; Automatically 16 NOPs removed by reduceNOPs.sh
5920	12ae	34420059		ori	%GPR2,%GPR2,$89	
5921	12af	00000000		nop	; Automatically Added by addNops.pl
5922	12b0	00000000		nop	; Automatically Added by addNops.pl
5923	12b1	00000000		nop	; Automatically Added by addNops.pl
5924	12b2	3c010000		lhi	%GPR1,$0	
5925	12b3	00000000		nop	; Automatically Added by addNops.pl
5926	12b4	00000000		nop	; Automatically Added by addNops.pl
5927	12b5	00000000		nop	; Automatically Added by addNops.pl
5928				; Automatically 16 NOPs removed by reduceNOPs.sh
5929	12b6	3421004e		ori	%GPR1,%GPR1,$78	
5930	12b7	00000000		nop	; Automatically Added by addNops.pl
5931	12b8	00000000		nop	; Automatically Added by addNops.pl
5932	12b9	00000000		nop	; Automatically Added by addNops.pl
5933	12ba	3c040000		lhi	%GPR4,$0	
5934	12bb	00000000		nop	; Automatically Added by addNops.pl
5935	12bc	00000000		nop	; Automatically Added by addNops.pl
5936	12bd	00000000		nop	; Automatically Added by addNops.pl
5937				; Automatically 16 NOPs removed by reduceNOPs.sh
5938	12be	34840000		ori	%GPR4,%GPR4,$0	
5939	12bf	00000000		nop	; Automatically Added by addNops.pl
5940	12c0	00000000		nop	; Automatically Added by addNops.pl
5941	12c1	00000000		nop	; Automatically Added by addNops.pl
5942				; Automatically 16 NOPs removed by reduceNOPs.sh
5943	12c2	2bbd0008		subi	%GPR29,%GPR29,$8	
5944	12c3	00000000		nop	; Automatically Added by addNops.pl
5945	12c4	00000000		nop	; Automatically Added by addNops.pl
5946	12c5	00000000		nop	; Automatically Added by addNops.pl
5947				; Automatically 16 NOPs removed by reduceNOPs.sh
5948	12c6	0ffff4a8		jal	sendcommand	
5949	12c7	00000000		nop	; Automatically Added by addNops.pl
5950	12c8	00000000		nop	; Automatically Added by addNops.pl
5951	12c9	00000000		nop	; Automatically Added by addNops.pl
5952				; Automatically 16 NOPs removed by reduceNOPs.sh
5953	12ca	23bd0008		addi	%GPR29,%GPR29,$8	
5954	12cb	00000000		nop	; Automatically Added by addNops.pl
5955	12cc	00000000		nop	; Automatically Added by addNops.pl
5956	12cd	00000000		nop	; Automatically Added by addNops.pl
5957				; Automatically 28 NOPs removed by reduceNOPs.sh
5958			L_lib_lcd_66:
5959	12ce	00000000		nop	; Automatically Added by addNops.pl
5960	12cf	00000000		nop	; Automatically Added by addNops.pl
5961	12d0	00000000		nop	; Automatically Added by addNops.pl
5962				; Automatically 16 NOPs removed by reduceNOPs.sh
5963	12d1	3c1c0000		lhi	%GPR28,$0	
5964	12d2	00000000		nop	; Automatically Added by addNops.pl
5965	12d3	00000000		nop	; Automatically Added by addNops.pl
5966	12d4	00000000		nop	; Automatically Added by addNops.pl
5967				; Automatically 16 NOPs removed by reduceNOPs.sh
5968	12d5	379c0000		ori	%GPR28,%GPR28,$0	
5969	12d6	00000000		nop	; Automatically Added by addNops.pl
5970	12d7	00000000		nop	; Automatically Added by addNops.pl
5971	12d8	00000000		nop	; Automatically Added by addNops.pl
5972				; Automatically 16 NOPs removed by reduceNOPs.sh
5973	12d9	08000004		j	L_lib_lcd_67	
5974	12da	00000000		nop	; Automatically Added by addNops.pl
5975	12db	00000000		nop	; Automatically Added by addNops.pl
5976	12dc	00000000		nop	; Automatically Added by addNops.pl
5977				; Automatically 16 NOPs removed by reduceNOPs.sh
5978			L_lib_lcd_67:
5979	12dd	00000000		nop	; Automatically Added by addNops.pl
5980	12de	00000000		nop	; Automatically Added by addNops.pl
5981	12df	00000000		nop	; Automatically Added by addNops.pl
5982				; Automatically 16 NOPs removed by reduceNOPs.sh
5983	12e0	8fdf0004		lw	%GPR31,4(%GPR30)	
5984	12e1	00000000		nop	; Automatically Added by addNops.pl
5985	12e2	00000000		nop	; Automatically Added by addNops.pl
5986	12e3	00000000		nop	; Automatically Added by addNops.pl
5987	12e4	27dd0004		addui	%GPR29,%GPR30,$4	
5988	12e5	00000000		nop	; Automatically Added by addNops.pl
5989	12e6	00000000		nop	; Automatically Added by addNops.pl
5990	12e7	00000000		nop	; Automatically Added by addNops.pl
5991	12e8	8fde0000		lw	%GPR30,0(%GPR30)	
5992	12e9	00000000		nop	; Automatically Added by addNops.pl
5993	12ea	00000000		nop	; Automatically Added by addNops.pl
5994	12eb	00000000		nop	; Automatically Added by addNops.pl
5995				; Automatically 8 NOPs removed by reduceNOPs.sh
5996	12ec	00000000		nop
5997	12ed	00000000		nop
5998	12ee	03e00008		jr	%GPR31	
5999	12ef	00000000		nop	; Automatically Added by addNops.pl
6000	12f0	00000000		nop	; Automatically Added by addNops.pl
6001	12f1	00000000		nop	; Automatically Added by addNops.pl
6002				; Automatically 16 NOPs removed by reduceNOPs.sh
6003			g_makeradiogroup:
6004			L_lib_lcd_68:
6005	12f2	00000000		nop	; Automatically Added by addNops.pl
6006	12f3	00000000		nop	; Automatically Added by addNops.pl
6007	12f4	00000000		nop	; Automatically Added by addNops.pl
6008				; Automatically 16 NOPs removed by reduceNOPs.sh
6009	12f5	afbefffc		sw	-4(%GPR29),%GPR30	
6010	12f6	00000000		nop	; Automatically Added by addNops.pl
6011	12f7	00000000		nop	; Automatically Added by addNops.pl
6012	12f8	00000000		nop	; Automatically Added by addNops.pl
6013	12f9	00000000		nop	; Automatically added by fix-stall-insns.pl
6014	12fa	afbf0000		sw	0(%GPR29),%GPR31	
6015	12fb	00000000		nop	; Automatically Added by addNops.pl
6016	12fc	00000000		nop	; Automatically Added by addNops.pl
6017	12fd	00000000		nop	; Automatically Added by addNops.pl
6018	12fe	2fbe0004		subui	%GPR30,%GPR29,$4	
6019	12ff	00000000		nop	; Automatically Added by addNops.pl
6020	1300	00000000		nop	; Automatically Added by addNops.pl
6021	1301	00000000		nop	; Automatically Added by addNops.pl
6022				; Automatically 4 NOPs removed by reduceNOPs.sh
6023	1302	2bbd000c		subi	%GPR29,%GPR29,$12	
6024	1303	00000000		nop	; Automatically Added by addNops.pl
6025	1304	00000000		nop	; Automatically Added by addNops.pl
6026	1305	00000000		nop	; Automatically Added by addNops.pl
6027				; Automatically 16 NOPs removed by reduceNOPs.sh
6028	1306	afc1fffc		sw	-4(%GPR30),%GPR1	
6029	1307	00000000		nop	; Automatically Added by addNops.pl
6030	1308	00000000		nop	; Automatically Added by addNops.pl
6031	1309	00000000		nop	; Automatically Added by addNops.pl
6032				; Automatically 40 NOPs removed by reduceNOPs.sh
6033	130a	2bc30004		subi	%GPR3,%GPR30,$4	
6034	130b	00000000		nop	; Automatically Added by addNops.pl
6035	130c	00000000		nop	; Automatically Added by addNops.pl
6036	130d	00000000		nop	; Automatically Added by addNops.pl
6037	130e	3c070000		lhi	%GPR7,$0	
6038	130f	00000000		nop	; Automatically Added by addNops.pl
6039	1310	00000000		nop	; Automatically Added by addNops.pl
6040	1311	00000000		nop	; Automatically Added by addNops.pl
6041				; Automatically 16 NOPs removed by reduceNOPs.sh
6042	1312	34e7006f		ori	%GPR7,%GPR7,$111	
6043	1313	00000000		nop	; Automatically Added by addNops.pl
6044	1314	00000000		nop	; Automatically Added by addNops.pl
6045	1315	00000000		nop	; Automatically Added by addNops.pl
6046	1316	3c060000		lhi	%GPR6,$0	
6047	1317	00000000		nop	; Automatically Added by addNops.pl
6048	1318	00000000		nop	; Automatically Added by addNops.pl
6049	1319	00000000		nop	; Automatically Added by addNops.pl
6050				; Automatically 16 NOPs removed by reduceNOPs.sh
6051	131a	34c60000		ori	%GPR6,%GPR6,$0	
6052	131b	00000000		nop	; Automatically Added by addNops.pl
6053	131c	00000000		nop	; Automatically Added by addNops.pl
6054	131d	00000000		nop	; Automatically Added by addNops.pl
6055	131e	3c050000		lhi	%GPR5,$0	
6056	131f	00000000		nop	; Automatically Added by addNops.pl
6057	1320	00000000		nop	; Automatically Added by addNops.pl
6058	1321	00000000		nop	; Automatically Added by addNops.pl
6059				; Automatically 16 NOPs removed by reduceNOPs.sh
6060	1322	34a50001		ori	%GPR5,%GPR5,$1	
6061	1323	00000000		nop	; Automatically Added by addNops.pl
6062	1324	00000000		nop	; Automatically Added by addNops.pl
6063	1325	00000000		nop	; Automatically Added by addNops.pl
6064	1326	3c020000		lhi	%GPR2,$0	
6065	1327	00000000		nop	; Automatically Added by addNops.pl
6066	1328	00000000		nop	; Automatically Added by addNops.pl
6067	1329	00000000		nop	; Automatically Added by addNops.pl
6068				; Automatically 16 NOPs removed by reduceNOPs.sh
6069	132a	34420052		ori	%GPR2,%GPR2,$82	
6070	132b	00000000		nop	; Automatically Added by addNops.pl
6071	132c	00000000		nop	; Automatically Added by addNops.pl
6072	132d	00000000		nop	; Automatically Added by addNops.pl
6073	132e	3c010000		lhi	%GPR1,$0	
6074	132f	00000000		nop	; Automatically Added by addNops.pl
6075	1330	00000000		nop	; Automatically Added by addNops.pl
6076	1331	00000000		nop	; Automatically Added by addNops.pl
6077				; Automatically 16 NOPs removed by reduceNOPs.sh
6078	1332	34210041		ori	%GPR1,%GPR1,$65	
6079	1333	00000000		nop	; Automatically Added by addNops.pl
6080	1334	00000000		nop	; Automatically Added by addNops.pl
6081	1335	00000000		nop	; Automatically Added by addNops.pl
6082	1336	3c040000		lhi	%GPR4,$0	
6083	1337	00000000		nop	; Automatically Added by addNops.pl
6084	1338	00000000		nop	; Automatically Added by addNops.pl
6085	1339	00000000		nop	; Automatically Added by addNops.pl
6086				; Automatically 16 NOPs removed by reduceNOPs.sh
6087	133a	34840000		ori	%GPR4,%GPR4,$0	
6088	133b	00000000		nop	; Automatically Added by addNops.pl
6089	133c	00000000		nop	; Automatically Added by addNops.pl
6090	133d	00000000		nop	; Automatically Added by addNops.pl
6091				; Automatically 16 NOPs removed by reduceNOPs.sh
6092	133e	2bbd0008		subi	%GPR29,%GPR29,$8	
6093	133f	00000000		nop	; Automatically Added by addNops.pl
6094	1340	00000000		nop	; Automatically Added by addNops.pl
6095	1341	00000000		nop	; Automatically Added by addNops.pl
6096				; Automatically 16 NOPs removed by reduceNOPs.sh
6097	1342	0ffff42c		jal	sendcommand	
6098	1343	00000000		nop	; Automatically Added by addNops.pl
6099	1344	00000000		nop	; Automatically Added by addNops.pl
6100	1345	00000000		nop	; Automatically Added by addNops.pl
6101				; Automatically 16 NOPs removed by reduceNOPs.sh
6102	1346	23bd0008		addi	%GPR29,%GPR29,$8	
6103	1347	00000000		nop	; Automatically Added by addNops.pl
6104	1348	00000000		nop	; Automatically Added by addNops.pl
6105	1349	00000000		nop	; Automatically Added by addNops.pl
6106				; Automatically 36 NOPs removed by reduceNOPs.sh
6107	134a	3c1c0000		lhi	%GPR28,$0	
6108	134b	00000000		nop	; Automatically Added by addNops.pl
6109	134c	00000000		nop	; Automatically Added by addNops.pl
6110	134d	00000000		nop	; Automatically Added by addNops.pl
6111				; Automatically 16 NOPs removed by reduceNOPs.sh
6112	134e	379c0000		ori	%GPR28,%GPR28,$0	
6113	134f	00000000		nop	; Automatically Added by addNops.pl
6114	1350	00000000		nop	; Automatically Added by addNops.pl
6115	1351	00000000		nop	; Automatically Added by addNops.pl
6116				; Automatically 16 NOPs removed by reduceNOPs.sh
6117	1352	08000004		j	L_lib_lcd_69	
6118	1353	00000000		nop	; Automatically Added by addNops.pl
6119	1354	00000000		nop	; Automatically Added by addNops.pl
6120	1355	00000000		nop	; Automatically Added by addNops.pl
6121				; Automatically 16 NOPs removed by reduceNOPs.sh
6122			L_lib_lcd_69:
6123	1356	00000000		nop	; Automatically Added by addNops.pl
6124	1357	00000000		nop	; Automatically Added by addNops.pl
6125	1358	00000000		nop	; Automatically Added by addNops.pl
6126				; Automatically 16 NOPs removed by reduceNOPs.sh
6127	1359	8fdf0004		lw	%GPR31,4(%GPR30)	
6128	135a	00000000		nop	; Automatically Added by addNops.pl
6129	135b	00000000		nop	; Automatically Added by addNops.pl
6130	135c	00000000		nop	; Automatically Added by addNops.pl
6131	135d	27dd0004		addui	%GPR29,%GPR30,$4	
6132	135e	00000000		nop	; Automatically Added by addNops.pl
6133	135f	00000000		nop	; Automatically Added by addNops.pl
6134	1360	00000000		nop	; Automatically Added by addNops.pl
6135	1361	8fde0000		lw	%GPR30,0(%GPR30)	
6136	1362	00000000		nop	; Automatically Added by addNops.pl
6137	1363	00000000		nop	; Automatically Added by addNops.pl
6138	1364	00000000		nop	; Automatically Added by addNops.pl
6139				; Automatically 8 NOPs removed by reduceNOPs.sh
6140	1365	00000000		nop
6141	1366	00000000		nop
6142	1367	03e00008		jr	%GPR31	
6143	1368	00000000		nop	; Automatically Added by addNops.pl
6144	1369	00000000		nop	; Automatically Added by addNops.pl
6145	136a	00000000		nop	; Automatically Added by addNops.pl
6146				; Automatically 16 NOPs removed by reduceNOPs.sh
6147			d_clear:
6148			L_lib_lcd_70:
6149	136b	00000000		nop	; Automatically Added by addNops.pl
6150	136c	00000000		nop	; Automatically Added by addNops.pl
6151	136d	00000000		nop	; Automatically Added by addNops.pl
6152				; Automatically 16 NOPs removed by reduceNOPs.sh
6153	136e	afbefffc		sw	-4(%GPR29),%GPR30	
6154	136f	00000000		nop	; Automatically Added by addNops.pl
6155	1370	00000000		nop	; Automatically Added by addNops.pl
6156	1371	00000000		nop	; Automatically Added by addNops.pl
6157	1372	00000000		nop	; Automatically added by fix-stall-insns.pl
6158	1373	afbf0000		sw	0(%GPR29),%GPR31	
6159	1374	00000000		nop	; Automatically Added by addNops.pl
6160	1375	00000000		nop	; Automatically Added by addNops.pl
6161	1376	00000000		nop	; Automatically Added by addNops.pl
6162	1377	2fbe0004		subui	%GPR30,%GPR29,$4	
6163	1378	00000000		nop	; Automatically Added by addNops.pl
6164	1379	00000000		nop	; Automatically Added by addNops.pl
6165	137a	00000000		nop	; Automatically Added by addNops.pl
6166				; Automatically 4 NOPs removed by reduceNOPs.sh
6167	137b	2bbd0008		subi	%GPR29,%GPR29,$8	
6168	137c	00000000		nop	; Automatically Added by addNops.pl
6169	137d	00000000		nop	; Automatically Added by addNops.pl
6170	137e	00000000		nop	; Automatically Added by addNops.pl
6171				; Automatically 60 NOPs removed by reduceNOPs.sh
6172	137f	3c070000		lhi	%GPR7,$0	
6173	1380	00000000		nop	; Automatically Added by addNops.pl
6174	1381	00000000		nop	; Automatically Added by addNops.pl
6175	1382	00000000		nop	; Automatically Added by addNops.pl
6176				; Automatically 16 NOPs removed by reduceNOPs.sh
6177	1383	34e7006f		ori	%GPR7,%GPR7,$111	
6178	1384	00000000		nop	; Automatically Added by addNops.pl
6179	1385	00000000		nop	; Automatically Added by addNops.pl
6180	1386	00000000		nop	; Automatically Added by addNops.pl
6181	1387	3c060000		lhi	%GPR6,$0	
6182	1388	00000000		nop	; Automatically Added by addNops.pl
6183	1389	00000000		nop	; Automatically Added by addNops.pl
6184	138a	00000000		nop	; Automatically Added by addNops.pl
6185				; Automatically 16 NOPs removed by reduceNOPs.sh
6186	138b	34c60000		ori	%GPR6,%GPR6,$0	
6187	138c	00000000		nop	; Automatically Added by addNops.pl
6188	138d	00000000		nop	; Automatically Added by addNops.pl
6189	138e	00000000		nop	; Automatically Added by addNops.pl
6190	138f	3c050000		lhi	%GPR5,$0	
6191	1390	00000000		nop	; Automatically Added by addNops.pl
6192	1391	00000000		nop	; Automatically Added by addNops.pl
6193	1392	00000000		nop	; Automatically Added by addNops.pl
6194				; Automatically 16 NOPs removed by reduceNOPs.sh
6195	1393	34a50000		ori	%GPR5,%GPR5,$0	
6196	1394	00000000		nop	; Automatically Added by addNops.pl
6197	1395	00000000		nop	; Automatically Added by addNops.pl
6198	1396	00000000		nop	; Automatically Added by addNops.pl
6199	1397	3c020000		lhi	%GPR2,$0	
6200	1398	00000000		nop	; Automatically Added by addNops.pl
6201	1399	00000000		nop	; Automatically Added by addNops.pl
6202	139a	00000000		nop	; Automatically Added by addNops.pl
6203				; Automatically 16 NOPs removed by reduceNOPs.sh
6204	139b	3442004c		ori	%GPR2,%GPR2,$76	
6205	139c	00000000		nop	; Automatically Added by addNops.pl
6206	139d	00000000		nop	; Automatically Added by addNops.pl
6207	139e	00000000		nop	; Automatically Added by addNops.pl
6208	139f	3c010000		lhi	%GPR1,$0	
6209	13a0	00000000		nop	; Automatically Added by addNops.pl
6210	13a1	00000000		nop	; Automatically Added by addNops.pl
6211	13a2	00000000		nop	; Automatically Added by addNops.pl
6212				; Automatically 16 NOPs removed by reduceNOPs.sh
6213	13a3	34210044		ori	%GPR1,%GPR1,$68	
6214	13a4	00000000		nop	; Automatically Added by addNops.pl
6215	13a5	00000000		nop	; Automatically Added by addNops.pl
6216	13a6	00000000		nop	; Automatically Added by addNops.pl
6217	13a7	3c040000		lhi	%GPR4,$0	
6218	13a8	00000000		nop	; Automatically Added by addNops.pl
6219	13a9	00000000		nop	; Automatically Added by addNops.pl
6220	13aa	00000000		nop	; Automatically Added by addNops.pl
6221				; Automatically 16 NOPs removed by reduceNOPs.sh
6222	13ab	34840000		ori	%GPR4,%GPR4,$0	
6223	13ac	00000000		nop	; Automatically Added by addNops.pl
6224	13ad	00000000		nop	; Automatically Added by addNops.pl
6225	13ae	00000000		nop	; Automatically Added by addNops.pl
6226	13af	3c030000		lhi	%GPR3,$0	
6227	13b0	00000000		nop	; Automatically Added by addNops.pl
6228	13b1	00000000		nop	; Automatically Added by addNops.pl
6229	13b2	00000000		nop	; Automatically Added by addNops.pl
6230				; Automatically 16 NOPs removed by reduceNOPs.sh
6231	13b3	34630000		ori	%GPR3,%GPR3,$0	
6232	13b4	00000000		nop	; Automatically Added by addNops.pl
6233	13b5	00000000		nop	; Automatically Added by addNops.pl
6234	13b6	00000000		nop	; Automatically Added by addNops.pl
6235				; Automatically 16 NOPs removed by reduceNOPs.sh
6236	13b7	2bbd0008		subi	%GPR29,%GPR29,$8	
6237	13b8	00000000		nop	; Automatically Added by addNops.pl
6238	13b9	00000000		nop	; Automatically Added by addNops.pl
6239	13ba	00000000		nop	; Automatically Added by addNops.pl
6240				; Automatically 16 NOPs removed by reduceNOPs.sh
6241	13bb	0ffff3b3		jal	sendcommand	
6242	13bc	00000000		nop	; Automatically Added by addNops.pl
6243	13bd	00000000		nop	; Automatically Added by addNops.pl
6244	13be	00000000		nop	; Automatically Added by addNops.pl
6245				; Automatically 16 NOPs removed by reduceNOPs.sh
6246	13bf	23bd0008		addi	%GPR29,%GPR29,$8	
6247	13c0	00000000		nop	; Automatically Added by addNops.pl
6248	13c1	00000000		nop	; Automatically Added by addNops.pl
6249	13c2	00000000		nop	; Automatically Added by addNops.pl
6250				; Automatically 36 NOPs removed by reduceNOPs.sh
6251	13c3	3c1c0000		lhi	%GPR28,$0	
6252	13c4	00000000		nop	; Automatically Added by addNops.pl
6253	13c5	00000000		nop	; Automatically Added by addNops.pl
6254	13c6	00000000		nop	; Automatically Added by addNops.pl
6255				; Automatically 16 NOPs removed by reduceNOPs.sh
6256	13c7	379c0000		ori	%GPR28,%GPR28,$0	
6257	13c8	00000000		nop	; Automatically Added by addNops.pl
6258	13c9	00000000		nop	; Automatically Added by addNops.pl
6259	13ca	00000000		nop	; Automatically Added by addNops.pl
6260				; Automatically 16 NOPs removed by reduceNOPs.sh
6261	13cb	08000004		j	L_lib_lcd_71	
6262	13cc	00000000		nop	; Automatically Added by addNops.pl
6263	13cd	00000000		nop	; Automatically Added by addNops.pl
6264	13ce	00000000		nop	; Automatically Added by addNops.pl
6265				; Automatically 16 NOPs removed by reduceNOPs.sh
6266			L_lib_lcd_71:
6267	13cf	00000000		nop	; Automatically Added by addNops.pl
6268	13d0	00000000		nop	; Automatically Added by addNops.pl
6269	13d1	00000000		nop	; Automatically Added by addNops.pl
6270				; Automatically 16 NOPs removed by reduceNOPs.sh
6271	13d2	8fdf0004		lw	%GPR31,4(%GPR30)	
6272	13d3	00000000		nop	; Automatically Added by addNops.pl
6273	13d4	00000000		nop	; Automatically Added by addNops.pl
6274	13d5	00000000		nop	; Automatically Added by addNops.pl
6275	13d6	27dd0004		addui	%GPR29,%GPR30,$4	
6276	13d7	00000000		nop	; Automatically Added by addNops.pl
6277	13d8	00000000		nop	; Automatically Added by addNops.pl
6278	13d9	00000000		nop	; Automatically Added by addNops.pl
6279	13da	8fde0000		lw	%GPR30,0(%GPR30)	
6280	13db	00000000		nop	; Automatically Added by addNops.pl
6281	13dc	00000000		nop	; Automatically Added by addNops.pl
6282	13dd	00000000		nop	; Automatically Added by addNops.pl
6283				; Automatically 8 NOPs removed by reduceNOPs.sh
6284	13de	00000000		nop
6285	13df	00000000		nop
6286	13e0	03e00008		jr	%GPR31	
6287	13e1	00000000		nop	; Automatically Added by addNops.pl
6288	13e2	00000000		nop	; Automatically Added by addNops.pl
6289	13e3	00000000		nop	; Automatically Added by addNops.pl
6290				.section	.data
6291				.section	.text
6292				.addressing	Word
6293				;.addressing	Word
6294	13e4	00000000		nop	; Automatically Added by addNops.pl
6295	13e5	00000000		nop	; Automatically Added by addNops.pl
6296	13e6	00000000		nop	; Automatically Added by addNops.pl
6297			loadByteUnsigned:
6298			L_loadStoreByte_1:
6299	13e7	00000000		nop	; Automatically Added by addNops.pl
6300	13e8	00000000		nop	; Automatically Added by addNops.pl
6301	13e9	00000000		nop	; Automatically Added by addNops.pl
6302				; Automatically 16 NOPs removed by reduceNOPs.sh
6303	13ea	afbefffc		sw	-4(%GPR29),%GPR30	
6304	13eb	00000000		nop	; Automatically Added by addNops.pl
6305	13ec	00000000		nop	; Automatically Added by addNops.pl
6306	13ed	00000000		nop	; Automatically Added by addNops.pl
6307	13ee	00000000		nop	; Automatically added by fix-stall-insns.pl
6308	13ef	afbf0000		sw	0(%GPR29),%GPR31	
6309	13f0	00000000		nop	; Automatically Added by addNops.pl
6310	13f1	00000000		nop	; Automatically Added by addNops.pl
6311	13f2	00000000		nop	; Automatically Added by addNops.pl
6312	13f3	2fbe0004		subui	%GPR30,%GPR29,$4	
6313	13f4	00000000		nop	; Automatically Added by addNops.pl
6314	13f5	00000000		nop	; Automatically Added by addNops.pl
6315	13f6	00000000		nop	; Automatically Added by addNops.pl
6316				; Automatically 4 NOPs removed by reduceNOPs.sh
6317	13f7	2bbd0008		subi	%GPR29,%GPR29,$8	
6318	13f8	00000000		nop	; Automatically Added by addNops.pl
6319	13f9	00000000		nop	; Automatically Added by addNops.pl
6320	13fa	00000000		nop	; Automatically Added by addNops.pl
6321				; Automatically 36 NOPs removed by reduceNOPs.sh
6322	13fb	30220003		andi	%GPR2,%GPR1,$3	
6323	13fc	00000000		nop	; Automatically Added by addNops.pl
6324	13fd	00000000		nop	; Automatically Added by addNops.pl
6325	13fe	00000000		nop	; Automatically Added by addNops.pl
6326	13ff	3021fffc		andi	%GPR1,%GPR1,$-4	
6327	1400	00000000		nop	; Automatically Added by addNops.pl
6328	1401	00000000		nop	; Automatically Added by addNops.pl
6329	1402	00000000		nop	; Automatically Added by addNops.pl
6330				; Automatically 12 NOPs removed by reduceNOPs.sh
6331	1403	20420001		addi	%GPR2,%GPR2,$1	
6332	1404	00000000		nop	; Automatically Added by addNops.pl
6333	1405	00000000		nop	; Automatically Added by addNops.pl
6334	1406	00000000		nop	; Automatically Added by addNops.pl
6335				; Automatically 16 NOPs removed by reduceNOPs.sh
6336	1407	00021023		subu	%GPR2,%GPR0,%GPR2	
6337	1408	00000000		nop	; Automatically Added by addNops.pl
6338	1409	00000000		nop	; Automatically Added by addNops.pl
6339	140a	00000000		nop	; Automatically Added by addNops.pl
6340	140b	8c210000		lw	%GPR1,0(%GPR1)	
6341	140c	00000000		nop	; Automatically Added by addNops.pl
6342	140d	00000000		nop	; Automatically Added by addNops.pl
6343	140e	00000000		nop	; Automatically Added by addNops.pl
6344				; Automatically 12 NOPs removed by reduceNOPs.sh
6345	140f	40420003		slli	%GPR2,%GPR2,$3	
6346	1410	00000000		nop	; Automatically Added by addNops.pl
6347	1411	00000000		nop	; Automatically Added by addNops.pl
6348	1412	00000000		nop	; Automatically Added by addNops.pl
6349				; Automatically 16 NOPs removed by reduceNOPs.sh
6350	1413	00220803		sra	%GPR1,%GPR1,%GPR2	
6351	1414	00000000		nop	; Automatically Added by addNops.pl
6352	1415	00000000		nop	; Automatically Added by addNops.pl
6353	1416	00000000		nop	; Automatically Added by addNops.pl
6354				; Automatically 16 NOPs removed by reduceNOPs.sh
6355	1417	303c00ff		andi	%GPR28,%GPR1,$255	
6356	1418	00000000		nop	; Automatically Added by addNops.pl
6357	1419	00000000		nop	; Automatically Added by addNops.pl
6358	141a	00000000		nop	; Automatically Added by addNops.pl
6359				; Automatically 16 NOPs removed by reduceNOPs.sh
6360	141b	08000004		j	L_loadStoreByte_2	
6361	141c	00000000		nop	; Automatically Added by addNops.pl
6362	141d	00000000		nop	; Automatically Added by addNops.pl
6363	141e	00000000		nop	; Automatically Added by addNops.pl
6364				; Automatically 16 NOPs removed by reduceNOPs.sh
6365			L_loadStoreByte_2:
6366	141f	00000000		nop	; Automatically Added by addNops.pl
6367	1420	00000000		nop	; Automatically Added by addNops.pl
6368	1421	00000000		nop	; Automatically Added by addNops.pl
6369				; Automatically 16 NOPs removed by reduceNOPs.sh
6370	1422	8fdf0004		lw	%GPR31,4(%GPR30)	
6371	1423	00000000		nop	; Automatically Added by addNops.pl
6372	1424	00000000		nop	; Automatically Added by addNops.pl
6373	1425	00000000		nop	; Automatically Added by addNops.pl
6374	1426	27dd0004		addui	%GPR29,%GPR30,$4	
6375	1427	00000000		nop	; Automatically Added by addNops.pl
6376	1428	00000000		nop	; Automatically Added by addNops.pl
6377	1429	00000000		nop	; Automatically Added by addNops.pl
6378	142a	8fde0000		lw	%GPR30,0(%GPR30)	
6379	142b	00000000		nop	; Automatically Added by addNops.pl
6380	142c	00000000		nop	; Automatically Added by addNops.pl
6381	142d	00000000		nop	; Automatically Added by addNops.pl
6382				; Automatically 8 NOPs removed by reduceNOPs.sh
6383	142e	00000000		nop
6384	142f	00000000		nop
6385	1430	03e00008		jr	%GPR31	
6386	1431	00000000		nop	; Automatically Added by addNops.pl
6387	1432	00000000		nop	; Automatically Added by addNops.pl
6388	1433	00000000		nop	; Automatically Added by addNops.pl
6389				; Automatically 16 NOPs removed by reduceNOPs.sh
6390			loadByteSigned:
6391			L_loadStoreByte_3:
6392	1434	00000000		nop	; Automatically Added by addNops.pl
6393	1435	00000000		nop	; Automatically Added by addNops.pl
6394	1436	00000000		nop	; Automatically Added by addNops.pl
6395				; Automatically 16 NOPs removed by reduceNOPs.sh
6396	1437	afbefffc		sw	-4(%GPR29),%GPR30	
6397	1438	00000000		nop	; Automatically Added by addNops.pl
6398	1439	00000000		nop	; Automatically Added by addNops.pl
6399	143a	00000000		nop	; Automatically Added by addNops.pl
6400	143b	00000000		nop	; Automatically added by fix-stall-insns.pl
6401	143c	afbf0000		sw	0(%GPR29),%GPR31	
6402	143d	00000000		nop	; Automatically Added by addNops.pl
6403	143e	00000000		nop	; Automatically Added by addNops.pl
6404	143f	00000000		nop	; Automatically Added by addNops.pl
6405	1440	2fbe0004		subui	%GPR30,%GPR29,$4	
6406	1441	00000000		nop	; Automatically Added by addNops.pl
6407	1442	00000000		nop	; Automatically Added by addNops.pl
6408	1443	00000000		nop	; Automatically Added by addNops.pl
6409				; Automatically 4 NOPs removed by reduceNOPs.sh
6410	1444	2bbd0008		subi	%GPR29,%GPR29,$8	
6411	1445	00000000		nop	; Automatically Added by addNops.pl
6412	1446	00000000		nop	; Automatically Added by addNops.pl
6413	1447	00000000		nop	; Automatically Added by addNops.pl
6414				; Automatically 36 NOPs removed by reduceNOPs.sh
6415	1448	30220003		andi	%GPR2,%GPR1,$3	
6416	1449	00000000		nop	; Automatically Added by addNops.pl
6417	144a	00000000		nop	; Automatically Added by addNops.pl
6418	144b	00000000		nop	; Automatically Added by addNops.pl
6419	144c	3021fffc		andi	%GPR1,%GPR1,$-4	
6420	144d	00000000		nop	; Automatically Added by addNops.pl
6421	144e	00000000		nop	; Automatically Added by addNops.pl
6422	144f	00000000		nop	; Automatically Added by addNops.pl
6423				; Automatically 12 NOPs removed by reduceNOPs.sh
6424	1450	20420001		addi	%GPR2,%GPR2,$1	
6425	1451	00000000		nop	; Automatically Added by addNops.pl
6426	1452	00000000		nop	; Automatically Added by addNops.pl
6427	1453	00000000		nop	; Automatically Added by addNops.pl
6428				; Automatically 16 NOPs removed by reduceNOPs.sh
6429	1454	00021023		subu	%GPR2,%GPR0,%GPR2	
6430	1455	00000000		nop	; Automatically Added by addNops.pl
6431	1456	00000000		nop	; Automatically Added by addNops.pl
6432	1457	00000000		nop	; Automatically Added by addNops.pl
6433	1458	8c210000		lw	%GPR1,0(%GPR1)	
6434	1459	00000000		nop	; Automatically Added by addNops.pl
6435	145a	00000000		nop	; Automatically Added by addNops.pl
6436	145b	00000000		nop	; Automatically Added by addNops.pl
6437				; Automatically 12 NOPs removed by reduceNOPs.sh
6438	145c	40420003		slli	%GPR2,%GPR2,$3	
6439	145d	00000000		nop	; Automatically Added by addNops.pl
6440	145e	00000000		nop	; Automatically Added by addNops.pl
6441	145f	00000000		nop	; Automatically Added by addNops.pl
6442				; Automatically 16 NOPs removed by reduceNOPs.sh
6443	1460	00220803		sra	%GPR1,%GPR1,%GPR2	
6444	1461	00000000		nop	; Automatically Added by addNops.pl
6445	1462	00000000		nop	; Automatically Added by addNops.pl
6446	1463	00000000		nop	; Automatically Added by addNops.pl
6447				; Automatically 16 NOPs removed by reduceNOPs.sh
6448	1464	302100ff		andi	%GPR1,%GPR1,$255	
6449	1465	00000000		nop	; Automatically Added by addNops.pl
6450	1466	00000000		nop	; Automatically Added by addNops.pl
6451	1467	00000000		nop	; Automatically Added by addNops.pl
6452				; Automatically 16 NOPs removed by reduceNOPs.sh
6453	1468	40210018		slli	%GPR1,%GPR1,$24	
6454	1469	00000000		nop	; Automatically Added by addNops.pl
6455	146a	00000000		nop	; Automatically Added by addNops.pl
6456	146b	00000000		nop	; Automatically Added by addNops.pl
6457				; Automatically 16 NOPs removed by reduceNOPs.sh
6458	146c	483c0018		srai	%GPR28,%GPR1,$24	
6459	146d	00000000		nop	; Automatically Added by addNops.pl
6460	146e	00000000		nop	; Automatically Added by addNops.pl
6461	146f	00000000		nop	; Automatically Added by addNops.pl
6462				; Automatically 16 NOPs removed by reduceNOPs.sh
6463	1470	08000004		j	L_loadStoreByte_4	
6464	1471	00000000		nop	; Automatically Added by addNops.pl
6465	1472	00000000		nop	; Automatically Added by addNops.pl
6466	1473	00000000		nop	; Automatically Added by addNops.pl
6467				; Automatically 16 NOPs removed by reduceNOPs.sh
6468			L_loadStoreByte_4:
6469	1474	00000000		nop	; Automatically Added by addNops.pl
6470	1475	00000000		nop	; Automatically Added by addNops.pl
6471	1476	00000000		nop	; Automatically Added by addNops.pl
6472				; Automatically 16 NOPs removed by reduceNOPs.sh
6473	1477	8fdf0004		lw	%GPR31,4(%GPR30)	
6474	1478	00000000		nop	; Automatically Added by addNops.pl
6475	1479	00000000		nop	; Automatically Added by addNops.pl
6476	147a	00000000		nop	; Automatically Added by addNops.pl
6477	147b	27dd0004		addui	%GPR29,%GPR30,$4	
6478	147c	00000000		nop	; Automatically Added by addNops.pl
6479	147d	00000000		nop	; Automatically Added by addNops.pl
6480	147e	00000000		nop	; Automatically Added by addNops.pl
6481	147f	8fde0000		lw	%GPR30,0(%GPR30)	
6482	1480	00000000		nop	; Automatically Added by addNops.pl
6483	1481	00000000		nop	; Automatically Added by addNops.pl
6484	1482	00000000		nop	; Automatically Added by addNops.pl
6485				; Automatically 8 NOPs removed by reduceNOPs.sh
6486	1483	00000000		nop
6487	1484	00000000		nop
6488	1485	03e00008		jr	%GPR31	
6489	1486	00000000		nop	; Automatically Added by addNops.pl
6490	1487	00000000		nop	; Automatically Added by addNops.pl
6491	1488	00000000		nop	; Automatically Added by addNops.pl
6492				; Automatically 16 NOPs removed by reduceNOPs.sh
6493			storeByte:
6494			L_loadStoreByte_5:
6495	1489	00000000		nop	; Automatically Added by addNops.pl
6496	148a	00000000		nop	; Automatically Added by addNops.pl
6497	148b	00000000		nop	; Automatically Added by addNops.pl
6498				; Automatically 16 NOPs removed by reduceNOPs.sh
6499	148c	afbefffc		sw	-4(%GPR29),%GPR30	
6500	148d	00000000		nop	; Automatically Added by addNops.pl
6501	148e	00000000		nop	; Automatically Added by addNops.pl
6502	148f	00000000		nop	; Automatically Added by addNops.pl
6503	1490	00000000		nop	; Automatically added by fix-stall-insns.pl
6504	1491	afbf0000		sw	0(%GPR29),%GPR31	
6505	1492	00000000		nop	; Automatically Added by addNops.pl
6506	1493	00000000		nop	; Automatically Added by addNops.pl
6507	1494	00000000		nop	; Automatically Added by addNops.pl
6508	1495	2fbe0004		subui	%GPR30,%GPR29,$4	
6509	1496	00000000		nop	; Automatically Added by addNops.pl
6510	1497	00000000		nop	; Automatically Added by addNops.pl
6511	1498	00000000		nop	; Automatically Added by addNops.pl
6512				; Automatically 4 NOPs removed by reduceNOPs.sh
6513	1499	2bbd0008		subi	%GPR29,%GPR29,$8	
6514	149a	00000000		nop	; Automatically Added by addNops.pl
6515	149b	00000000		nop	; Automatically Added by addNops.pl
6516	149c	00000000		nop	; Automatically Added by addNops.pl
6517				; Automatically 44 NOPs removed by reduceNOPs.sh
6518	149d	30230003		andi	%GPR3,%GPR1,$3	
6519	149e	00000000		nop	; Automatically Added by addNops.pl
6520	149f	00000000		nop	; Automatically Added by addNops.pl
6521	14a0	00000000		nop	; Automatically Added by addNops.pl
6522				; Automatically 8 NOPs removed by reduceNOPs.sh
6523	14a1	30240003		andi	%GPR4,%GPR1,$3	
6524	14a2	00000000		nop	; Automatically Added by addNops.pl
6525	14a3	00000000		nop	; Automatically Added by addNops.pl
6526	14a4	00000000		nop	; Automatically Added by addNops.pl
6527	14a5	3c050000		lhi	%GPR5,$0	
6528	14a6	00000000		nop	; Automatically Added by addNops.pl
6529	14a7	00000000		nop	; Automatically Added by addNops.pl
6530	14a8	00000000		nop	; Automatically Added by addNops.pl
6531				; Automatically 16 NOPs removed by reduceNOPs.sh
6532	14a9	34a50003		ori	%GPR5,%GPR5,$3	
6533	14aa	00000000		nop	; Automatically Added by addNops.pl
6534	14ab	00000000		nop	; Automatically Added by addNops.pl
6535	14ac	00000000		nop	; Automatically Added by addNops.pl
6536	14ad	3021fffc		andi	%GPR1,%GPR1,$-4	
6537	14ae	00000000		nop	; Automatically Added by addNops.pl
6538	14af	00000000		nop	; Automatically Added by addNops.pl
6539	14b0	00000000		nop	; Automatically Added by addNops.pl
6540	14b1	3c060000		lhi	%GPR6,$0	
6541	14b2	00000000		nop	; Automatically Added by addNops.pl
6542	14b3	00000000		nop	; Automatically Added by addNops.pl
6543	14b4	00000000		nop	; Automatically Added by addNops.pl
6544				; Automatically 16 NOPs removed by reduceNOPs.sh
6545	14b5	34c600ff		ori	%GPR6,%GPR6,$255	
6546	14b6	00000000		nop	; Automatically Added by addNops.pl
6547	14b7	00000000		nop	; Automatically Added by addNops.pl
6548	14b8	00000000		nop	; Automatically Added by addNops.pl
6549	14b9	20840001		addi	%GPR4,%GPR4,$1	
6550	14ba	00000000		nop	; Automatically Added by addNops.pl
6551	14bb	00000000		nop	; Automatically Added by addNops.pl
6552	14bc	00000000		nop	; Automatically Added by addNops.pl
6553				; Automatically 16 NOPs removed by reduceNOPs.sh
6554	14bd	00042023		subu	%GPR4,%GPR0,%GPR4	
6555	14be	00000000		nop	; Automatically Added by addNops.pl
6556	14bf	00000000		nop	; Automatically Added by addNops.pl
6557	14c0	00000000		nop	; Automatically Added by addNops.pl
6558	14c1	00a31822		sub	%GPR3,%GPR5,%GPR3	
6559	14c2	00000000		nop	; Automatically Added by addNops.pl
6560	14c3	00000000		nop	; Automatically Added by addNops.pl
6561	14c4	00000000		nop	; Automatically Added by addNops.pl
6562	14c5	8c3c0000		lw	%GPR28,0(%GPR1)	
6563	14c6	00000000		nop	; Automatically Added by addNops.pl
6564	14c7	00000000		nop	; Automatically Added by addNops.pl
6565	14c8	00000000		nop	; Automatically Added by addNops.pl
6566				; Automatically 8 NOPs removed by reduceNOPs.sh
6567	14c9	40840003		slli	%GPR4,%GPR4,$3	
6568	14ca	00000000		nop	; Automatically Added by addNops.pl
6569	14cb	00000000		nop	; Automatically Added by addNops.pl
6570	14cc	00000000		nop	; Automatically Added by addNops.pl
6571	14cd	40630003		slli	%GPR3,%GPR3,$3	
6572	14ce	00000000		nop	; Automatically Added by addNops.pl
6573	14cf	00000000		nop	; Automatically Added by addNops.pl
6574	14d0	00000000		nop	; Automatically Added by addNops.pl
6575				; Automatically 12 NOPs removed by reduceNOPs.sh
6576	14d1	00441000		sll	%GPR2,%GPR2,%GPR4	
6577	14d2	00000000		nop	; Automatically Added by addNops.pl
6578	14d3	00000000		nop	; Automatically Added by addNops.pl
6579	14d4	00000000		nop	; Automatically Added by addNops.pl
6580	14d5	00c31800		sll	%GPR3,%GPR6,%GPR3	
6581	14d6	00000000		nop	; Automatically Added by addNops.pl
6582	14d7	00000000		nop	; Automatically Added by addNops.pl
6583	14d8	00000000		nop	; Automatically Added by addNops.pl
6584				; Automatically 16 NOPs removed by reduceNOPs.sh
6585	14d9	20630001		addi	%GPR3,%GPR3,$1	
6586	14da	00000000		nop	; Automatically Added by addNops.pl
6587	14db	00000000		nop	; Automatically Added by addNops.pl
6588	14dc	00000000		nop	; Automatically Added by addNops.pl
6589				; Automatically 16 NOPs removed by reduceNOPs.sh
6590	14dd	00031823		subu	%GPR3,%GPR0,%GPR3	
6591	14de	00000000		nop	; Automatically Added by addNops.pl
6592	14df	00000000		nop	; Automatically Added by addNops.pl
6593	14e0	00000000		nop	; Automatically Added by addNops.pl
6594				; Automatically 16 NOPs removed by reduceNOPs.sh
6595	14e1	0383e024		and	%GPR28,%GPR28,%GPR3	
6596	14e2	00000000		nop	; Automatically Added by addNops.pl
6597	14e3	00000000		nop	; Automatically Added by addNops.pl
6598	14e4	00000000		nop	; Automatically Added by addNops.pl
6599				; Automatically 16 NOPs removed by reduceNOPs.sh
6600	14e5	0382e025		or	%GPR28,%GPR28,%GPR2	
6601	14e6	00000000		nop	; Automatically Added by addNops.pl
6602	14e7	00000000		nop	; Automatically Added by addNops.pl
6603	14e8	00000000		nop	; Automatically Added by addNops.pl
6604				; Automatically 16 NOPs removed by reduceNOPs.sh
6605	14e9	ac3c0000		sw	0(%GPR1),%GPR28	
6606	14ea	00000000		nop	; Automatically Added by addNops.pl
6607	14eb	00000000		nop	; Automatically Added by addNops.pl
6608	14ec	00000000		nop	; Automatically Added by addNops.pl
6609	14ed	08000004		j	L_loadStoreByte_6	
6610	14ee	00000000		nop	; Automatically Added by addNops.pl
6611	14ef	00000000		nop	; Automatically Added by addNops.pl
6612	14f0	00000000		nop	; Automatically Added by addNops.pl
6613				; Automatically 16 NOPs removed by reduceNOPs.sh
6614			L_loadStoreByte_6:
6615	14f1	00000000		nop	; Automatically Added by addNops.pl
6616	14f2	00000000		nop	; Automatically Added by addNops.pl
6617	14f3	00000000		nop	; Automatically Added by addNops.pl
6618				; Automatically 16 NOPs removed by reduceNOPs.sh
6619	14f4	8fdf0004		lw	%GPR31,4(%GPR30)	
6620	14f5	00000000		nop	; Automatically Added by addNops.pl
6621	14f6	00000000		nop	; Automatically Added by addNops.pl
6622	14f7	00000000		nop	; Automatically Added by addNops.pl
6623	14f8	27dd0004		addui	%GPR29,%GPR30,$4	
6624	14f9	00000000		nop	; Automatically Added by addNops.pl
6625	14fa	00000000		nop	; Automatically Added by addNops.pl
6626	14fb	00000000		nop	; Automatically Added by addNops.pl
6627	14fc	8fde0000		lw	%GPR30,0(%GPR30)	
6628	14fd	00000000		nop	; Automatically Added by addNops.pl
6629	14fe	00000000		nop	; Automatically Added by addNops.pl
6630	14ff	00000000		nop	; Automatically Added by addNops.pl
6631				; Automatically 8 NOPs removed by reduceNOPs.sh
6632	1500	00000000		nop
6633	1501	00000000		nop
6634	1502	03e00008		jr	%GPR31	
6635	1503	00000000		nop	; Automatically Added by addNops.pl
6636	1504	00000000		nop	; Automatically Added by addNops.pl
6637	1505	00000000		nop	; Automatically Added by addNops.pl
6638				.section	.data
6639				;.global	_matrixA
6640				.align	4
6641			_matrixA:
6642	0004	00000000		.space	4000
	0008	00000000
	000c	00000000
	0010	00000000
	0014	00000000
	0018	00000000
	001c	00000000
	0020	00000000
	0024	00000000
	0028	00000000
	002c	00000000
	0030	00000000
	0034	00000000
	0038	00000000
	003c	00000000
	0040	00000000
	0044	00000000
	0048	00000000
	004c	00000000
	0050	00000000
	0054	00000000
	0058	00000000
	005c	00000000
	0060	00000000
	0064	00000000
	0068	00000000
	006c	00000000
	0070	00000000
	0074	00000000
	0078	00000000
	007c	00000000
	0080	00000000
	0084	00000000
	0088	00000000
	008c	00000000
	0090	00000000
	0094	00000000
	0098	00000000
	009c	00000000
	00a0	00000000
	00a4	00000000
	00a8	00000000
	00ac	00000000
	00b0	00000000
	00b4	00000000
	00b8	00000000
	00bc	00000000
	00c0	00000000
	00c4	00000000
	00c8	00000000
	00cc	00000000
	00d0	00000000
	00d4	00000000
	00d8	00000000
	00dc	00000000
	00e0	00000000
	00e4	00000000
	00e8	00000000
	00ec	00000000
	00f0	00000000
	00f4	00000000
	00f8	00000000
	00fc	00000000
	0100	00000000
	0104	00000000
	0108	00000000
	010c	00000000
	0110	00000000
	0114	00000000
	0118	00000000
	011c	00000000
	0120	00000000
	0124	00000000
	0128	00000000
	012c	00000000
	0130	00000000
	0134	00000000
	0138	00000000
	013c	00000000
	0140	00000000
	0144	00000000
	0148	00000000
	014c	00000000
	0150	00000000
	0154	00000000
	0158	00000000
	015c	00000000
	0160	00000000
	0164	00000000
	0168	00000000
	016c	00000000
	0170	00000000
	0174	00000000
	0178	00000000
	017c	00000000
	0180	00000000
	0184	00000000
	0188	00000000
	018c	00000000
	0190	00000000
	0194	00000000
	0198	00000000
	019c	00000000
	01a0	00000000
	01a4	00000000
	01a8	00000000
	01ac	00000000
	01b0	00000000
	01b4	00000000
	01b8	00000000
	01bc	00000000
	01c0	00000000
	01c4	00000000
	01c8	00000000
	01cc	00000000
	01d0	00000000
	01d4	00000000
	01d8	00000000
	01dc	00000000
	01e0	00000000
	01e4	00000000
	01e8	00000000
	01ec	00000000
	01f0	00000000
	01f4	00000000
	01f8	00000000
	01fc	00000000
	0200	00000000
	0204	00000000
	0208	00000000
	020c	00000000
	0210	00000000
	0214	00000000
	0218	00000000
	021c	00000000
	0220	00000000
	0224	00000000
	0228	00000000
	022c	00000000
	0230	00000000
	0234	00000000
	0238	00000000
	023c	00000000
	0240	00000000
	0244	00000000
	0248	00000000
	024c	00000000
	0250	00000000
	0254	00000000
	0258	00000000
	025c	00000000
	0260	00000000
	0264	00000000
	0268	00000000
	026c	00000000
	0270	00000000
	0274	00000000
	0278	00000000
	027c	00000000
	0280	00000000
	0284	00000000
	0288	00000000
	028c	00000000
	0290	00000000
	0294	00000000
	0298	00000000
	029c	00000000
	02a0	00000000
	02a4	00000000
	02a8	00000000
	02ac	00000000
	02b0	00000000
	02b4	00000000
	02b8	00000000
	02bc	00000000
	02c0	00000000
	02c4	00000000
	02c8	00000000
	02cc	00000000
	02d0	00000000
	02d4	00000000
	02d8	00000000
	02dc	00000000
	02e0	00000000
	02e4	00000000
	02e8	00000000
	02ec	00000000
	02f0	00000000
	02f4	00000000
	02f8	00000000
	02fc	00000000
	0300	00000000
	0304	00000000
	0308	00000000
	030c	00000000
	0310	00000000
	0314	00000000
	0318	00000000
	031c	00000000
	0320	00000000
	0324	00000000
	0328	00000000
	032c	00000000
	0330	00000000
	0334	00000000
	0338	00000000
	033c	00000000
	0340	00000000
	0344	00000000
	0348	00000000
	034c	00000000
	0350	00000000
	0354	00000000
	0358	00000000
	035c	00000000
	0360	00000000
	0364	00000000
	0368	00000000
	036c	00000000
	0370	00000000
	0374	00000000
	0378	00000000
	037c	00000000
	0380	00000000
	0384	00000000
	0388	00000000
	038c	00000000
	0390	00000000
	0394	00000000
	0398	00000000
	039c	00000000
	03a0	00000000
	03a4	00000000
	03a8	00000000
	03ac	00000000
	03b0	00000000
	03b4	00000000
	03b8	00000000
	03bc	00000000
	03c0	00000000
	03c4	00000000
	03c8	00000000
	03cc	00000000
	03d0	00000000
	03d4	00000000
	03d8	00000000
	03dc	00000000
	03e0	00000000
	03e4	00000000
	03e8	00000000
	03ec	00000000
	03f0	00000000
	03f4	00000000
	03f8	00000000
	03fc	00000000
	0400	00000000
	0404	00000000
	0408	00000000
	040c	00000000
	0410	00000000
	0414	00000000
	0418	00000000
	041c	00000000
	0420	00000000
	0424	00000000
	0428	00000000
	042c	00000000
	0430	00000000
	0434	00000000
	0438	00000000
	043c	00000000
	0440	00000000
	0444	00000000
	0448	00000000
	044c	00000000
	0450	00000000
	0454	00000000
	0458	00000000
	045c	00000000
	0460	00000000
	0464	00000000
	0468	00000000
	046c	00000000
	0470	00000000
	0474	00000000
	0478	00000000
	047c	00000000
	0480	00000000
	0484	00000000
	0488	00000000
	048c	00000000
	0490	00000000
	0494	00000000
	0498	00000000
	049c	00000000
	04a0	00000000
	04a4	00000000
	04a8	00000000
	04ac	00000000
	04b0	00000000
	04b4	00000000
	04b8	00000000
	04bc	00000000
	04c0	00000000
	04c4	00000000
	04c8	00000000
	04cc	00000000
	04d0	00000000
	04d4	00000000
	04d8	00000000
	04dc	00000000
	04e0	00000000
	04e4	00000000
	04e8	00000000
	04ec	00000000
	04f0	00000000
	04f4	00000000
	04f8	00000000
	04fc	00000000
	0500	00000000
	0504	00000000
	0508	00000000
	050c	00000000
	0510	00000000
	0514	00000000
	0518	00000000
	051c	00000000
	0520	00000000
	0524	00000000
	0528	00000000
	052c	00000000
	0530	00000000
	0534	00000000
	0538	00000000
	053c	00000000
	0540	00000000
	0544	00000000
	0548	00000000
	054c	00000000
	0550	00000000
	0554	00000000
	0558	00000000
	055c	00000000
	0560	00000000
	0564	00000000
	0568	00000000
	056c	00000000
	0570	00000000
	0574	00000000
	0578	00000000
	057c	00000000
	0580	00000000
	0584	00000000
	0588	00000000
	058c	00000000
	0590	00000000
	0594	00000000
	0598	00000000
	059c	00000000
	05a0	00000000
	05a4	00000000
	05a8	00000000
	05ac	00000000
	05b0	00000000
	05b4	00000000
	05b8	00000000
	05bc	00000000
	05c0	00000000
	05c4	00000000
	05c8	00000000
	05cc	00000000
	05d0	00000000
	05d4	00000000
	05d8	00000000
	05dc	00000000
	05e0	00000000
	05e4	00000000
	05e8	00000000
	05ec	00000000
	05f0	00000000
	05f4	00000000
	05f8	00000000
	05fc	00000000
	0600	00000000
	0604	00000000
	0608	00000000
	060c	00000000
	0610	00000000
	0614	00000000
	0618	00000000
	061c	00000000
	0620	00000000
	0624	00000000
	0628	00000000
	062c	00000000
	0630	00000000
	0634	00000000
	0638	00000000
	063c	00000000
	0640	00000000
	0644	00000000
	0648	00000000
	064c	00000000
	0650	00000000
	0654	00000000
	0658	00000000
	065c	00000000
	0660	00000000
	0664	00000000
	0668	00000000
	066c	00000000
	0670	00000000
	0674	00000000
	0678	00000000
	067c	00000000
	0680	00000000
	0684	00000000
	0688	00000000
	068c	00000000
	0690	00000000
	0694	00000000
	0698	00000000
	069c	00000000
	06a0	00000000
	06a4	00000000
	06a8	00000000
	06ac	00000000
	06b0	00000000
	06b4	00000000
	06b8	00000000
	06bc	00000000
	06c0	00000000
	06c4	00000000
	06c8	00000000
	06cc	00000000
	06d0	00000000
	06d4	00000000
	06d8	00000000
	06dc	00000000
	06e0	00000000
	06e4	00000000
	06e8	00000000
	06ec	00000000
	06f0	00000000
	06f4	00000000
	06f8	00000000
	06fc	00000000
	0700	00000000
	0704	00000000
	0708	00000000
	070c	00000000
	0710	00000000
	0714	00000000
	0718	00000000
	071c	00000000
	0720	00000000
	0724	00000000
	0728	00000000
	072c	00000000
	0730	00000000
	0734	00000000
	0738	00000000
	073c	00000000
	0740	00000000
	0744	00000000
	0748	00000000
	074c	00000000
	0750	00000000
	0754	00000000
	0758	00000000
	075c	00000000
	0760	00000000
	0764	00000000
	0768	00000000
	076c	00000000
	0770	00000000
	0774	00000000
	0778	00000000
	077c	00000000
	0780	00000000
	0784	00000000
	0788	00000000
	078c	00000000
	0790	00000000
	0794	00000000
	0798	00000000
	079c	00000000
	07a0	00000000
	07a4	00000000
	07a8	00000000
	07ac	00000000
	07b0	00000000
	07b4	00000000
	07b8	00000000
	07bc	00000000
	07c0	00000000
	07c4	00000000
	07c8	00000000
	07cc	00000000
	07d0	00000000
	07d4	00000000
	07d8	00000000
	07dc	00000000
	07e0	00000000
	07e4	00000000
	07e8	00000000
	07ec	00000000
	07f0	00000000
	07f4	00000000
	07f8	00000000
	07fc	00000000
	0800	00000000
	0804	00000000
	0808	00000000
	080c	00000000
	0810	00000000
	0814	00000000
	0818	00000000
	081c	00000000
	0820	00000000
	0824	00000000
	0828	00000000
	082c	00000000
	0830	00000000
	0834	00000000
	0838	00000000
	083c	00000000
	0840	00000000
	0844	00000000
	0848	00000000
	084c	00000000
	0850	00000000
	0854	00000000
	0858	00000000
	085c	00000000
	0860	00000000
	0864	00000000
	0868	00000000
	086c	00000000
	0870	00000000
	0874	00000000
	0878	00000000
	087c	00000000
	0880	00000000
	0884	00000000
	0888	00000000
	088c	00000000
	0890	00000000
	0894	00000000
	0898	00000000
	089c	00000000
	08a0	00000000
	08a4	00000000
	08a8	00000000
	08ac	00000000
	08b0	00000000
	08b4	00000000
	08b8	00000000
	08bc	00000000
	08c0	00000000
	08c4	00000000
	08c8	00000000
	08cc	00000000
	08d0	00000000
	08d4	00000000
	08d8	00000000
	08dc	00000000
	08e0	00000000
	08e4	00000000
	08e8	00000000
	08ec	00000000
	08f0	00000000
	08f4	00000000
	08f8	00000000
	08fc	00000000
	0900	00000000
	0904	00000000
	0908	00000000
	090c	00000000
	0910	00000000
	0914	00000000
	0918	00000000
	091c	00000000
	0920	00000000
	0924	00000000
	0928	00000000
	092c	00000000
	0930	00000000
	0934	00000000
	0938	00000000
	093c	00000000
	0940	00000000
	0944	00000000
	0948	00000000
	094c	00000000
	0950	00000000
	0954	00000000
	0958	00000000
	095c	00000000
	0960	00000000
	0964	00000000
	0968	00000000
	096c	00000000
	0970	00000000
	0974	00000000
	0978	00000000
	097c	00000000
	0980	00000000
	0984	00000000
	0988	00000000
	098c	00000000
	0990	00000000
	0994	00000000
	0998	00000000
	099c	00000000
	09a0	00000000
	09a4	00000000
	09a8	00000000
	09ac	00000000
	09b0	00000000
	09b4	00000000
	09b8	00000000
	09bc	00000000
	09c0	00000000
	09c4	00000000
	09c8	00000000
	09cc	00000000
	09d0	00000000
	09d4	00000000
	09d8	00000000
	09dc	00000000
	09e0	00000000
	09e4	00000000
	09e8	00000000
	09ec	00000000
	09f0	00000000
	09f4	00000000
	09f8	00000000
	09fc	00000000
	0a00	00000000
	0a04	00000000
	0a08	00000000
	0a0c	00000000
	0a10	00000000
	0a14	00000000
	0a18	00000000
	0a1c	00000000
	0a20	00000000
	0a24	00000000
	0a28	00000000
	0a2c	00000000
	0a30	00000000
	0a34	00000000
	0a38	00000000
	0a3c	00000000
	0a40	00000000
	0a44	00000000
	0a48	00000000
	0a4c	00000000
	0a50	00000000
	0a54	00000000
	0a58	00000000
	0a5c	00000000
	0a60	00000000
	0a64	00000000
	0a68	00000000
	0a6c	00000000
	0a70	00000000
	0a74	00000000
	0a78	00000000
	0a7c	00000000
	0a80	00000000
	0a84	00000000
	0a88	00000000
	0a8c	00000000
	0a90	00000000
	0a94	00000000
	0a98	00000000
	0a9c	00000000
	0aa0	00000000
	0aa4	00000000
	0aa8	00000000
	0aac	00000000
	0ab0	00000000
	0ab4	00000000
	0ab8	00000000
	0abc	00000000
	0ac0	00000000
	0ac4	00000000
	0ac8	00000000
	0acc	00000000
	0ad0	00000000
	0ad4	00000000
	0ad8	00000000
	0adc	00000000
	0ae0	00000000
	0ae4	00000000
	0ae8	00000000
	0aec	00000000
	0af0	00000000
	0af4	00000000
	0af8	00000000
	0afc	00000000
	0b00	00000000
	0b04	00000000
	0b08	00000000
	0b0c	00000000
	0b10	00000000
	0b14	00000000
	0b18	00000000
	0b1c	00000000
	0b20	00000000
	0b24	00000000
	0b28	00000000
	0b2c	00000000
	0b30	00000000
	0b34	00000000
	0b38	00000000
	0b3c	00000000
	0b40	00000000
	0b44	00000000
	0b48	00000000
	0b4c	00000000
	0b50	00000000
	0b54	00000000
	0b58	00000000
	0b5c	00000000
	0b60	00000000
	0b64	00000000
	0b68	00000000
	0b6c	00000000
	0b70	00000000
	0b74	00000000
	0b78	00000000
	0b7c	00000000
	0b80	00000000
	0b84	00000000
	0b88	00000000
	0b8c	00000000
	0b90	00000000
	0b94	00000000
	0b98	00000000
	0b9c	00000000
	0ba0	00000000
	0ba4	00000000
	0ba8	00000000
	0bac	00000000
	0bb0	00000000
	0bb4	00000000
	0bb8	00000000
	0bbc	00000000
	0bc0	00000000
	0bc4	00000000
	0bc8	00000000
	0bcc	00000000
	0bd0	00000000
	0bd4	00000000
	0bd8	00000000
	0bdc	00000000
	0be0	00000000
	0be4	00000000
	0be8	00000000
	0bec	00000000
	0bf0	00000000
	0bf4	00000000
	0bf8	00000000
	0bfc	00000000
	0c00	00000000
	0c04	00000000
	0c08	00000000
	0c0c	00000000
	0c10	00000000
	0c14	00000000
	0c18	00000000
	0c1c	00000000
	0c20	00000000
	0c24	00000000
	0c28	00000000
	0c2c	00000000
	0c30	00000000
	0c34	00000000
	0c38	00000000
	0c3c	00000000
	0c40	00000000
	0c44	00000000
	0c48	00000000
	0c4c	00000000
	0c50	00000000
	0c54	00000000
	0c58	00000000
	0c5c	00000000
	0c60	00000000
	0c64	00000000
	0c68	00000000
	0c6c	00000000
	0c70	00000000
	0c74	00000000
	0c78	00000000
	0c7c	00000000
	0c80	00000000
	0c84	00000000
	0c88	00000000
	0c8c	00000000
	0c90	00000000
	0c94	00000000
	0c98	00000000
	0c9c	00000000
	0ca0	00000000
	0ca4	00000000
	0ca8	00000000
	0cac	00000000
	0cb0	00000000
	0cb4	00000000
	0cb8	00000000
	0cbc	00000000
	0cc0	00000000
	0cc4	00000000
	0cc8	00000000
	0ccc	00000000
	0cd0	00000000
	0cd4	00000000
	0cd8	00000000
	0cdc	00000000
	0ce0	00000000
	0ce4	00000000
	0ce8	00000000
	0cec	00000000
	0cf0	00000000
	0cf4	00000000
	0cf8	00000000
	0cfc	00000000
	0d00	00000000
	0d04	00000000
	0d08	00000000
	0d0c	00000000
	0d10	00000000
	0d14	00000000
	0d18	00000000
	0d1c	00000000
	0d20	00000000
	0d24	00000000
	0d28	00000000
	0d2c	00000000
	0d30	00000000
	0d34	00000000
	0d38	00000000
	0d3c	00000000
	0d40	00000000
	0d44	00000000
	0d48	00000000
	0d4c	00000000
	0d50	00000000
	0d54	00000000
	0d58	00000000
	0d5c	00000000
	0d60	00000000
	0d64	00000000
	0d68	00000000
	0d6c	00000000
	0d70	00000000
	0d74	00000000
	0d78	00000000
	0d7c	00000000
	0d80	00000000
	0d84	00000000
	0d88	00000000
	0d8c	00000000
	0d90	00000000
	0d94	00000000
	0d98	00000000
	0d9c	00000000
	0da0	00000000
	0da4	00000000
	0da8	00000000
	0dac	00000000
	0db0	00000000
	0db4	00000000
	0db8	00000000
	0dbc	00000000
	0dc0	00000000
	0dc4	00000000
	0dc8	00000000
	0dcc	00000000
	0dd0	00000000
	0dd4	00000000
	0dd8	00000000
	0ddc	00000000
	0de0	00000000
	0de4	00000000
	0de8	00000000
	0dec	00000000
	0df0	00000000
	0df4	00000000
	0df8	00000000
	0dfc	00000000
	0e00	00000000
	0e04	00000000
	0e08	00000000
	0e0c	00000000
	0e10	00000000
	0e14	00000000
	0e18	00000000
	0e1c	00000000
	0e20	00000000
	0e24	00000000
	0e28	00000000
	0e2c	00000000
	0e30	00000000
	0e34	00000000
	0e38	00000000
	0e3c	00000000
	0e40	00000000
	0e44	00000000
	0e48	00000000
	0e4c	00000000
	0e50	00000000
	0e54	00000000
	0e58	00000000
	0e5c	00000000
	0e60	00000000
	0e64	00000000
	0e68	00000000
	0e6c	00000000
	0e70	00000000
	0e74	00000000
	0e78	00000000
	0e7c	00000000
	0e80	00000000
	0e84	00000000
	0e88	00000000
	0e8c	00000000
	0e90	00000000
	0e94	00000000
	0e98	00000000
	0e9c	00000000
	0ea0	00000000
	0ea4	00000000
	0ea8	00000000
	0eac	00000000
	0eb0	00000000
	0eb4	00000000
	0eb8	00000000
	0ebc	00000000
	0ec0	00000000
	0ec4	00000000
	0ec8	00000000
	0ecc	00000000
	0ed0	00000000
	0ed4	00000000
	0ed8	00000000
	0edc	00000000
	0ee0	00000000
	0ee4	00000000
	0ee8	00000000
	0eec	00000000
	0ef0	00000000
	0ef4	00000000
	0ef8	00000000
	0efc	00000000
	0f00	00000000
	0f04	00000000
	0f08	00000000
	0f0c	00000000
	0f10	00000000
	0f14	00000000
	0f18	00000000
	0f1c	00000000
	0f20	00000000
	0f24	00000000
	0f28	00000000
	0f2c	00000000
	0f30	00000000
	0f34	00000000
	0f38	00000000
	0f3c	00000000
	0f40	00000000
	0f44	00000000
	0f48	00000000
	0f4c	00000000
	0f50	00000000
	0f54	00000000
	0f58	00000000
	0f5c	00000000
	0f60	00000000
	0f64	00000000
	0f68	00000000
	0f6c	00000000
	0f70	00000000
	0f74	00000000
	0f78	00000000
	0f7c	00000000
	0f80	00000000
	0f84	00000000
	0f88	00000000
	0f8c	00000000
	0f90	00000000
	0f94	00000000
	0f98	00000000
	0f9c	00000000
	0fa0	00000000
6643				;.global	_matrixB
6644				.align	4
6645			_matrixB:
6646	0fa4	000000000000000000000000000000000000000000000000000000000000000000000000000000000000000000000000000000000000000000000000000000000000000000000000000000000000000000000000000000000000000000000000000000000000000000000000000000000000000000000000000000000000000000000000000000000000000000000000000000000000000000000000000000000000000000000000000000000000000000000000000000000000000000000000000000000000000000000000000000000000000000000000000000000000000000000000000000000000000000000000000000000000000000000000000000000000000000000000000000000000000000000000000000000000000000000000000000000000000000000000000000000000000000000000000000000000000000000000000000000000000000000000000000000000000000000000000000000000000000000000000000000000000000000000000000000000000000000000000000000000000000000000000000000000000000000000000000000000000000000000000000000000000000000000000000000000000000000000000000000000000000000000000000000000000000000000000000000000000000000000000000000000000000000000000000000000000000000000000000000000000000000000000000000000000000000000000000000000000000000000000000000000000000000000000000000000000000000000000000000000000000000000000000000000000000000000000000000000000000000000000000000000000000000000000000000000000000000000000000000000		.space	2000
	121a	000000000000000000000000000000000000000000000000000000000000000000000000000000000000000000000000000000000000000000000000000000000000000000000000000000000000000000000000000000000000000000000000000000000000000000000000000000000000000000000000000000000000000000000000000000000000000000000000000000000000000000000000000000000000000000000000000000000000000000000000000000000000000000000000000000000000000000000000000000000000000000000000000000000000000000000000000000000000000000000000000000000000000000000000000000000000000000000000000000000000000000000000000000000000000000000000000000000000000000000000000000000000000000000000000000000000000000000000000000000000000000000000000000000000000000000000000000000000000000000000000000000000000000000000000000000000000000000000000000000000000000000000000000000000000000000000000000000000000000000000000000000000000000000000000000000000000000000000000000000000000000000000000000000000000000000000000000000000000000000000000000000000000000000000000000000000000000000000000000000000000000000000000000000000000000000000000000000000000000000000000000000000000000000000000000000000000000000000000000000000000000000000000000000000000000000000000000000000000000000000000000000000000000000000000000000000000000000000000000000000
	1490	000000000000000000000000000000000000000000000000000000000000000000000000000000000000000000000000000000000000000000000000000000000000000000000000000000000000000000000000000000000000000000000000000000000000000000000000000000000000000000000000000000000000000000000000000000000000000000000000000000000000000000000000000000000000000000000000000000000000000000000000000000000000000000000000000000000000000000000000000000000000000000000000000000000000000000000000000000000000000000000000000000000000000000000000000000000000000000000000000000000000000000000000000000000000000000000000000000000000000000000000000000000000000000000000000000000000000000000000000000000000000000000000000000000000000000000000000000000000000000000000000000000000000000000000000000000000000000000000000000000000000000000000000000000000000000000000000000000000000000000000000000000000000000000000000000000000000000000000000000000000000000000000000000000000000000000000000000000000000000000000000000000000000000000000000000000000000000000000000000000000000000000000000000000000000000000000000000000000000000000000000000000000000000000000000000000000000000000000000000000000000000000000000000000000000000000000000000000000000000000000000000000000000000000000000000000000000000000000000000000000
	1706	0000000000000000000000000000000000000000000000000000000000000000000000000000000000000000000000000000000000000000000000000000000000000000000000000000000000000000000000000000000000000000000000000000000000000000000000000000
6647				;.global	_matrixC
6648				.align	4
6649			_matrixC:
6650	1774	0000000000000000000000000000000000000000000000000000000000000000000000000000000000000000000000000000000000000000000000000000000000000000000000000000000000000000000000000000000000000000000000000000000000000000000000000000000000000000000000000000000000000000000000000000000000000000000000000000000000000000000000000000000000000000000000000000000000000000000000000000000000000000000000000000000000000000		.space	200
6651			L_matrix_1:
6652	183c	0d		.data.8	13
6653	183d	0a		.data.8	10
6654	183e	49		.data.8	73
6655	183f	6e		.data.8	110
6656	1840	69		.data.8	105
6657	1841	74		.data.8	116
6658	1842	69		.data.8	105
6659	1843	61		.data.8	97
6660	1844	6c		.data.8	108
6661	1845	69		.data.8	105
6662	1846	73		.data.8	115
6663	1847	69		.data.8	105
6664	1848	6e		.data.8	110
6665	1849	67		.data.8	103
6666	184a	20		.data.8	32
6667	184b	41		.data.8	65
6668	184c	72		.data.8	114
6669	184d	72		.data.8	114
6670	184e	61		.data.8	97
6671	184f	79		.data.8	121
6672	1850	2e		.data.8	46
6673	1851	2e		.data.8	46
6674	1852	2e		.data.8	46
6675	1853	0d		.data.8	13
6676	1854	0a		.data.8	10
6677	1855	00		.space	1
6678			L_matrix_2:
6679	1856	4d		.data.8	77
6680	1857	75		.data.8	117
6681	1858	6c		.data.8	108
6682	1859	74		.data.8	116
6683	185a	69		.data.8	105
6684	185b	70		.data.8	112
6685	185c	6c		.data.8	108
6686	185d	79		.data.8	121
6687	185e	69		.data.8	105
6688	185f	6e		.data.8	110
6689	1860	67		.data.8	103
6690	1861	2e		.data.8	46
6691	1862	2e		.data.8	46
6692	1863	2e		.data.8	46
6693	1864	0d		.data.8	13
6694	1865	0a		.data.8	10
6695	1866	00		.space	1
6696			L_matrix_3:
6697	1867	52		.data.8	82
6698	1868	65		.data.8	101
6699	1869	73		.data.8	115
6700	186a	75		.data.8	117
6701	186b	6c		.data.8	108
6702	186c	74		.data.8	116
6703	186d	73		.data.8	115
6704	186e	3a		.data.8	58
6705	186f	0d		.data.8	13
6706	1870	0a		.data.8	10
6707	1871	00		.space	1
6708			L_matrix_4:
6709	1872	2c		.data.8	44
6710	1873	20		.data.8	32
6711	1874	00		.space	1
6712			L_matrix_5:
6713	1875	0d		.data.8	13
6714	1876	0a		.data.8	10
6715	1877	00		.space	1
6716			L_matrix_6:
6717	1878	0d		.data.8	13
6718	1879	0a		.data.8	10
6719	187a	00		.space	1
6720			L_matrix_7:
6721	187b	46		.data.8	70
6722	187c	69		.data.8	105
6723	187d	6e		.data.8	110
6724	187e	69		.data.8	105
6725	187f	73		.data.8	115
6726	1880	68		.data.8	104
6727	1881	65		.data.8	101
6728	1882	64		.data.8	100
6729	1883	2e		.data.8	46
6730	1884	0d		.data.8	13
6731	1885	0a		.data.8	10
6732	1886	00		.space	1
6733				.section	.text
6734				.addressing	Word
6735				;.addressing	Word
6736			pin_down:
6737			L_matrix_8:
6738	1506	00000000		nop
6739	1507	00000000		nop
6740	1508	00000000		nop
6741				; Automatically 1 NOPs removed by reduceNOPs.sh
6742	1509	afbefffc		sw	-4(%GPR29),%GPR30	
6743	150a	afbf0000		sw	0(%GPR29),%GPR31	
6744	150b	2fbe0004		subui	%GPR30,%GPR29,$4	
6745	150c	2bbd0008		subi	%GPR29,%GPR29,$8	
6746	150d	00000000		nop
6747	150e	00000000		nop
6748	150f	00000000		nop
6749				; Automatically 11 NOPs removed by reduceNOPs.sh
6750	1510	3c040000		lhi	%GPR4,$0	
6751	1511	00000000		nop
6752	1512	00000000		nop
6753	1513	00000000		nop
6754				; Automatically 1 NOPs removed by reduceNOPs.sh
6755	1514	34840000		ori	%GPR4,%GPR4,$0	
6756	1515	00000000		nop
6757	1516	00000000		nop
6758	1517	00000000		nop
6759			L_matrix_9:
6760	1518	00000000		nop	;;0,4
6761	1519	00000000		nop	;;0,4
6762	151a	00000000		nop	;;0,4
6763				; Automatically 1 NOPs removed by reduceNOPs.sh
6764	151b	3c050000		lhi	%GPR5,$0	
6765	151c	00000000		nop
6766	151d	00000000		nop
6767	151e	00000000		nop
6768				; Automatically 1 NOPs removed by reduceNOPs.sh
6769	151f	34a50004		ori	%GPR5,%GPR5,$4	
6770	1520	3c060000		lhi	%GPR6,$0	
6771	1521	00000000		nop
6772	1522	00000000		nop
6773	1523	00000000		nop
6774				; Automatically 1 NOPs removed by reduceNOPs.sh
6775	1524	34c60001		ori	%GPR6,%GPR6,$1	
6776	1525	3c070000		lhi	%GPR7,$0	
6777	1526	00000000		nop
6778	1527	00000000		nop
6779	1528	00000000		nop
6780				; Automatically 1 NOPs removed by reduceNOPs.sh
6781	1529	34e703e8		ori	%GPR7,%GPR7,$1000	
6782	152a	00000000		nop	;;6,8
6783	152b	00000000		nop	;;6,8
6784	152c	00852818		mult	%GPR5,%GPR4,%GPR5	
6785	152d	00000000		nop	;;8,12
6786	152e	00000000		nop	;;8,12
6787	152f	00000000		nop	;;8,12
6788				; Automatically 1 NOPs removed by reduceNOPs.sh
6789	1530	20840001		addi	%GPR4,%GPR4,$1	
6790	1531	00252820		add	%GPR5,%GPR1,%GPR5	
6791	1532	00000000		nop	;;13,17
6792	1533	00000000		nop	;;13,17
6793	1534	00000000		nop	;;13,17
6794				; Automatically 1 NOPs removed by reduceNOPs.sh
6795	1535	aca60000		sw	0(%GPR5),%GPR6	
6796	1536	0087d82a		slt	%GPR27,%GPR4,%GPR7	
6797	1537	00000000		nop	; Automatically added by findDataDependency.sh
6798	1538	00000000		nop	; Automatically added by findDataDependency.sh
6799	1539	00000000		nop	; Automatically added by findDataDependency.sh
6800	153a	1760ffde		bnez	%GPR27,L_matrix_9	
6801	153b	00000000		nop
6802	153c	00000000		nop
6803	153d	00000000		nop
6804				; Automatically 1 NOPs removed by reduceNOPs.sh
6805	153e	08000004		j	L_matrix_10	
6806	153f	00000000		nop
6807	1540	00000000		nop
6808	1541	00000000		nop
6809				; Automatically 1 NOPs removed by reduceNOPs.sh
6810			L_matrix_10:
6811	1542	00000000		nop	;;0,4
6812	1543	00000000		nop	;;0,4
6813	1544	00000000		nop	;;0,4
6814				; Automatically 1 NOPs removed by reduceNOPs.sh
6815	1545	3c040000		lhi	%GPR4,$0	
6816	1546	00000000		nop
6817	1547	00000000		nop
6818	1548	00000000		nop
6819				; Automatically 1 NOPs removed by reduceNOPs.sh
6820	1549	34840000		ori	%GPR4,%GPR4,$0	
6821	154a	00000000		nop
6822	154b	00000000		nop
6823	154c	00000000		nop
6824			L_matrix_11:
6825	154d	00000000		nop	;;0,4
6826	154e	00000000		nop	;;0,4
6827	154f	00000000		nop	;;0,4
6828				; Automatically 1 NOPs removed by reduceNOPs.sh
6829	1550	3c010000		lhi	%GPR1,$0	
6830	1551	00000000		nop
6831	1552	00000000		nop
6832	1553	00000000		nop
6833				; Automatically 1 NOPs removed by reduceNOPs.sh
6834	1554	34210004		ori	%GPR1,%GPR1,$4	
6835	1555	3c050000		lhi	%GPR5,$0	
6836	1556	00000000		nop
6837	1557	00000000		nop
6838	1558	00000000		nop
6839				; Automatically 1 NOPs removed by reduceNOPs.sh
6840	1559	34a50001		ori	%GPR5,%GPR5,$1	
6841	155a	3c060000		lhi	%GPR6,$0	
6842	155b	00000000		nop
6843	155c	00000000		nop
6844	155d	00000000		nop
6845				; Automatically 1 NOPs removed by reduceNOPs.sh
6846	155e	34c601f4		ori	%GPR6,%GPR6,$500	
6847	155f	00000000		nop	;;6,8
6848	1560	00000000		nop	;;6,8
6849	1561	00810818		mult	%GPR1,%GPR4,%GPR1	
6850	1562	00000000		nop	;;8,12
6851	1563	00000000		nop	;;8,12
6852	1564	00000000		nop	;;8,12
6853				; Automatically 1 NOPs removed by reduceNOPs.sh
6854	1565	20840001		addi	%GPR4,%GPR4,$1	
6855	1566	00410820		add	%GPR1,%GPR2,%GPR1	
6856	1567	00000000		nop	;;13,17
6857	1568	00000000		nop	;;13,17
6858	1569	00000000		nop	;;13,17
6859				; Automatically 1 NOPs removed by reduceNOPs.sh
6860	156a	ac250000		sw	0(%GPR1),%GPR5	
6861	156b	0086d82a		slt	%GPR27,%GPR4,%GPR6	
6862	156c	00000000		nop	; Automatically added by findDataDependency.sh
6863	156d	00000000		nop	; Automatically added by findDataDependency.sh
6864	156e	00000000		nop	; Automatically added by findDataDependency.sh
6865	156f	1760ffde		bnez	%GPR27,L_matrix_11	
6866	1570	00000000		nop
6867	1571	00000000		nop
6868	1572	00000000		nop
6869				; Automatically 1 NOPs removed by reduceNOPs.sh
6870	1573	08000004		j	L_matrix_12	
6871	1574	00000000		nop
6872	1575	00000000		nop
6873	1576	00000000		nop
6874				; Automatically 1 NOPs removed by reduceNOPs.sh
6875			L_matrix_12:
6876	1577	00000000		nop	;;0,4
6877	1578	00000000		nop	;;0,4
6878	1579	00000000		nop	;;0,4
6879				; Automatically 1 NOPs removed by reduceNOPs.sh
6880	157a	3c040000		lhi	%GPR4,$0	
6881	157b	00000000		nop
6882	157c	00000000		nop
6883	157d	00000000		nop
6884				; Automatically 1 NOPs removed by reduceNOPs.sh
6885	157e	34840000		ori	%GPR4,%GPR4,$0	
6886	157f	00000000		nop
6887	1580	00000000		nop
6888	1581	00000000		nop
6889			L_matrix_13:
6890	1582	00000000		nop	;;0,4
6891	1583	00000000		nop	;;0,4
6892	1584	00000000		nop	;;0,4
6893				; Automatically 1 NOPs removed by reduceNOPs.sh
6894	1585	3c010000		lhi	%GPR1,$0	
6895	1586	00000000		nop
6896	1587	00000000		nop
6897	1588	00000000		nop
6898				; Automatically 1 NOPs removed by reduceNOPs.sh
6899	1589	34210004		ori	%GPR1,%GPR1,$4	
6900	158a	3c020000		lhi	%GPR2,$0	
6901	158b	00000000		nop
6902	158c	00000000		nop
6903	158d	00000000		nop
6904				; Automatically 1 NOPs removed by reduceNOPs.sh
6905	158e	34420000		ori	%GPR2,%GPR2,$0	
6906	158f	3c050000		lhi	%GPR5,$0	
6907	1590	00000000		nop
6908	1591	00000000		nop
6909	1592	00000000		nop
6910				; Automatically 1 NOPs removed by reduceNOPs.sh
6911	1593	34a50032		ori	%GPR5,%GPR5,$50	
6912	1594	00000000		nop	;;6,8
6913	1595	00000000		nop	;;6,8
6914	1596	00810818		mult	%GPR1,%GPR4,%GPR1	
6915	1597	00000000		nop	;;8,12
6916	1598	00000000		nop	;;8,12
6917	1599	00000000		nop	;;8,12
6918				; Automatically 1 NOPs removed by reduceNOPs.sh
6919	159a	20840001		addi	%GPR4,%GPR4,$1	
6920	159b	00610820		add	%GPR1,%GPR3,%GPR1	
6921	159c	00000000		nop	;;13,17
6922	159d	00000000		nop	;;13,17
6923	159e	00000000		nop	;;13,17
6924				; Automatically 1 NOPs removed by reduceNOPs.sh
6925	159f	ac220000		sw	0(%GPR1),%GPR2	
6926	15a0	0085d82a		slt	%GPR27,%GPR4,%GPR5	
6927	15a1	00000000		nop	; Automatically added by findDataDependency.sh
6928	15a2	00000000		nop	; Automatically added by findDataDependency.sh
6929	15a3	00000000		nop	; Automatically added by findDataDependency.sh
6930	15a4	1760ffde		bnez	%GPR27,L_matrix_13	
6931	15a5	00000000		nop
6932	15a6	00000000		nop
6933	15a7	00000000		nop
6934				; Automatically 1 NOPs removed by reduceNOPs.sh
6935	15a8	08000004		j	L_matrix_14	
6936	15a9	00000000		nop
6937	15aa	00000000		nop
6938	15ab	00000000		nop
6939				; Automatically 1 NOPs removed by reduceNOPs.sh
6940			L_matrix_14:
6941	15ac	00000000		nop	;;0,4
6942	15ad	00000000		nop	;;0,4
6943	15ae	00000000		nop	;;0,4
6944				; Automatically 1 NOPs removed by reduceNOPs.sh
6945	15af	3c1c0000		lhi	%GPR28,$0	
6946	15b0	00000000		nop
6947	15b1	00000000		nop
6948	15b2	00000000		nop
6949				; Automatically 1 NOPs removed by reduceNOPs.sh
6950	15b3	379c0000		ori	%GPR28,%GPR28,$0	
6951	15b4	00000000		nop	;;4,8
6952	15b5	00000000		nop	;;4,8
6953	15b6	00000000		nop	;;4,8
6954				; Automatically 1 NOPs removed by reduceNOPs.sh
6955	15b7	08000004		j	L_matrix_15	
6956	15b8	00000000		nop
6957	15b9	00000000		nop
6958	15ba	00000000		nop
6959				; Automatically 1 NOPs removed by reduceNOPs.sh
6960			L_matrix_15:
6961	15bb	00000000		nop
6962	15bc	00000000		nop
6963	15bd	00000000		nop
6964				; Automatically 1 NOPs removed by reduceNOPs.sh
6965	15be	8fdf0004		lw	%GPR31,4(%GPR30)	
6966	15bf	27dd0004		addui	%GPR29,%GPR30,$4	
6967	15c0	8fde0000		lw	%GPR30,0(%GPR30)	
6968	15c1	00000000		nop
6969	15c2	00000000		nop
6970	15c3	00000000		nop
6971	15c4	00000000		nop
6972	15c5	03e00008		jr	%GPR31	
6973	15c6	00000000		nop
6974	15c7	00000000		nop
6975	15c8	00000000		nop
6976				; Automatically 1 NOPs removed by reduceNOPs.sh
6977			main:
6978			L_matrix_16:
6979	15c9	00000000		nop
6980	15ca	00000000		nop
6981	15cb	00000000		nop
6982				; Automatically 1 NOPs removed by reduceNOPs.sh
6983	15cc	afbefffc		sw	-4(%GPR29),%GPR30	
6984	15cd	afbf0000		sw	0(%GPR29),%GPR31	
6985	15ce	2fbe0004		subui	%GPR30,%GPR29,$4	
6986	15cf	2bbd0030		subi	%GPR29,%GPR29,$48	
6987	15d0	00000000		nop
6988	15d1	00000000		nop
6989	15d2	00000000		nop
6990				; Automatically 4 NOPs removed by reduceNOPs.sh
6991	15d3	3c020000		lhi	%GPR2,$( _matrixC	/0x10000)
6992	15d4	00000000		nop
6993	15d5	00000000		nop
6994	15d6	00000000		nop
6995	15d7	34421774		ori	%GPR2,%GPR2,$( _matrixC	%0x10000)
6996	15d8	3c010000		lhi	%GPR1,$( L_matrix_1	/0x10000)
6997	15d9	00000000		nop
6998	15da	00000000		nop
6999	15db	00000000		nop
7000	15dc	3421183c		ori	%GPR1,%GPR1,$( L_matrix_1	%0x10000)
7001	15dd	00000000		nop	;;3,6
7002	15de	00000000		nop	;;3,6
7003	15df	00000000		nop	;;3,6
7004	15e0	afc2ffe8		sw	-24(%GPR30),%GPR2	
7005	15e1	3c020000		lhi	%GPR2,$( _matrixB	/0x10000)
7006	15e2	00000000		nop
7007	15e3	00000000		nop
7008	15e4	00000000		nop
7009	15e5	34420fa4		ori	%GPR2,%GPR2,$( _matrixB	%0x10000)
7010	15e6	00000000		nop	;;7,11
7011	15e7	00000000		nop	;;7,11
7012	15e8	00000000		nop	;;7,11
7013				; Automatically 1 NOPs removed by reduceNOPs.sh
7014	15e9	afc2ffe4		sw	-28(%GPR30),%GPR2	
7015	15ea	3c020000		lhi	%GPR2,$( _matrixA	/0x10000)
7016	15eb	00000000		nop
7017	15ec	00000000		nop
7018	15ed	00000000		nop
7019	15ee	34420004		ori	%GPR2,%GPR2,$( _matrixA	%0x10000)
7020	15ef	00000000		nop	;;12,16
7021	15f0	00000000		nop	;;12,16
7022	15f1	00000000		nop	;;12,16
7023				; Automatically 1 NOPs removed by reduceNOPs.sh
7024	15f2	afc2ffe0		sw	-32(%GPR30),%GPR2	
7025	15f3	00000000		nop
7026	15f4	00000000		nop
7027	15f5	00000000		nop
7028				; Automatically 1 NOPs removed by reduceNOPs.sh
7029	15f6	2bbd0008		subi	%GPR29,%GPR29,$8	
7030	15f7	00000000		nop
7031	15f8	00000000		nop
7032	15f9	00000000		nop
7033				; Automatically 1 NOPs removed by reduceNOPs.sh
7034	15fa	0ffff3cc		jal	t_print	
7035	15fb	00000000		nop
7036	15fc	00000000		nop
7037	15fd	00000000		nop
7038				; Automatically 1 NOPs removed by reduceNOPs.sh
7039	15fe	23bd0008		addi	%GPR29,%GPR29,$8	
7040	15ff	00000000		nop
7041	1600	00000000		nop
7042	1601	00000000		nop
7043				; Automatically 1 NOPs removed by reduceNOPs.sh
7044	1602	8fc1ffe0		lw	%GPR1,-32(%GPR30)	
7045	1603	8fc2ffe4		lw	%GPR2,-28(%GPR30)	
7046	1604	8fc3ffe8		lw	%GPR3,-24(%GPR30)	
7047	1605	00000000		nop
7048	1606	00000000		nop
7049	1607	00000000		nop
7050				; Automatically 1 NOPs removed by reduceNOPs.sh
7051	1608	2bbd0008		subi	%GPR29,%GPR29,$8	
7052	1609	00000000		nop
7053	160a	00000000		nop
7054	160b	00000000		nop
7055				; Automatically 1 NOPs removed by reduceNOPs.sh
7056	160c	0ffffefa		jal	pin_down	
7057	160d	00000000		nop
7058	160e	00000000		nop
7059	160f	00000000		nop
7060				; Automatically 1 NOPs removed by reduceNOPs.sh
7061	1610	23bd0008		addi	%GPR29,%GPR29,$8	
7062	1611	00000000		nop
7063	1612	00000000		nop
7064	1613	00000000		nop
7065				; Automatically 1 NOPs removed by reduceNOPs.sh
7066	1614	3c010000		lhi	%GPR1,$( L_matrix_2	/0x10000)
7067	1615	00000000		nop
7068	1616	00000000		nop
7069	1617	00000000		nop
7070	1618	34211856		ori	%GPR1,%GPR1,$( L_matrix_2	%0x10000)
7071	1619	00000000		nop	;;22,27
7072	161a	00000000		nop	;;22,27
7073	161b	00000000		nop	;;22,27
7074				; Automatically 6 NOPs removed by reduceNOPs.sh
7075	161c	2bbd0008		subi	%GPR29,%GPR29,$8	
7076	161d	00000000		nop
7077	161e	00000000		nop
7078	161f	00000000		nop
7079				; Automatically 1 NOPs removed by reduceNOPs.sh
7080	1620	0ffff3a6		jal	t_print	
7081	1621	00000000		nop
7082	1622	00000000		nop
7083	1623	00000000		nop
7084				; Automatically 1 NOPs removed by reduceNOPs.sh
7085	1624	23bd0008		addi	%GPR29,%GPR29,$8	
7086	1625	00000000		nop
7087	1626	00000000		nop
7088	1627	00000000		nop
7089				; Automatically 6 NOPs removed by reduceNOPs.sh
7090	1628	3c010000		lhi	%GPR1,$0	
7091	1629	00000000		nop
7092	162a	00000000		nop
7093	162b	00000000		nop
7094				; Automatically 1 NOPs removed by reduceNOPs.sh
7095	162c	34210000		ori	%GPR1,%GPR1,$0	
7096	162d	00000000		nop	;;32,36
7097	162e	00000000		nop	;;32,36
7098	162f	00000000		nop	;;32,36
7099				; Automatically 1 NOPs removed by reduceNOPs.sh
7100	1630	afc1ffdc		sw	-36(%GPR30),%GPR1	
7101	1631	00000000		nop
7102	1632	00000000		nop
7103	1633	00000000		nop
7104			L_matrix_17:
7105	1634	3c010000		lhi	%GPR1,$( _matrixA	/0x10000)
7106	1635	00000000		nop
7107	1636	00000000		nop
7108	1637	00000000		nop
7109	1638	34210004		ori	%GPR1,%GPR1,$( _matrixA	%0x10000)
7110	1639	00000000		nop	;;0,4
7111	163a	00000000		nop	;;0,4
7112	163b	00000000		nop	;;0,4
7113				; Automatically 1 NOPs removed by reduceNOPs.sh
7114	163c	afc1ffe0		sw	-32(%GPR30),%GPR1	
7115	163d	3c010000		lhi	%GPR1,$0	
7116	163e	00000000		nop
7117	163f	00000000		nop
7118	1640	00000000		nop
7119				; Automatically 1 NOPs removed by reduceNOPs.sh
7120	1641	34210000		ori	%GPR1,%GPR1,$0	
7121	1642	00000000		nop	;;5,9
7122	1643	00000000		nop	;;5,9
7123	1644	00000000		nop	;;5,9
7124				; Automatically 1 NOPs removed by reduceNOPs.sh
7125	1645	afc1ffd8		sw	-40(%GPR30),%GPR1	
7126	1646	00000000		nop
7127	1647	00000000		nop
7128	1648	00000000		nop
7129			L_matrix_18:
7130	1649	8fc5ffdc		lw	%GPR5,-36(%GPR30)	
7131	164a	00000000		nop	;;1,3
7132	164b	00000000		nop	;;1,3
7133	164c	3c020000		lhi	%GPR2,$( _matrixB	/0x10000)
7134	164d	00000000		nop
7135	164e	00000000		nop
7136	164f	00000000		nop
7137	1650	34420fa4		ori	%GPR2,%GPR2,$( _matrixB	%0x10000)
7138	1651	3c010000		lhi	%GPR1,$0	
7139	1652	00000000		nop
7140	1653	00000000		nop
7141	1654	00000000		nop
7142				; Automatically 1 NOPs removed by reduceNOPs.sh
7143	1655	34210064		ori	%GPR1,%GPR1,$100	
7144	1656	00000000		nop	;;4,6
7145	1657	00000000		nop	;;4,6
7146	1658	3c030000		lhi	%GPR3,$0	
7147	1659	00000000		nop
7148	165a	00000000		nop
7149	165b	00000000		nop
7150				; Automatically 1 NOPs removed by reduceNOPs.sh
7151	165c	34630004		ori	%GPR3,%GPR3,$4	
7152	165d	8fc6ffe8		lw	%GPR6,-24(%GPR30)	
7153	165e	00a12818		mult	%GPR5,%GPR5,%GPR1	
7154	165f	3c040000		lhi	%GPR4,$0	
7155	1660	00000000		nop
7156	1661	00000000		nop
7157	1662	00000000		nop
7158				; Automatically 1 NOPs removed by reduceNOPs.sh
7159	1663	34840000		ori	%GPR4,%GPR4,$0	
7160	1664	00000000		nop	;;9,12
7161	1665	00000000		nop	;;9,12
7162	1666	00000000		nop	;;9,12
7163	1667	00a31818		mult	%GPR3,%GPR5,%GPR3	
7164	1668	acc40000		sw	0(%GPR6),%GPR4	
7165	1669	3c010000		lhi	%GPR1,$0	
7166	166a	00000000		nop
7167	166b	00000000		nop
7168	166c	00000000		nop
7169				; Automatically 1 NOPs removed by reduceNOPs.sh
7170	166d	34210000		ori	%GPR1,%GPR1,$0	
7171	166e	00000000		nop	;;14,16
7172	166f	00000000		nop	;;14,16
7173	1670	00431020		add	%GPR2,%GPR2,%GPR3	
7174	1671	00000000		nop	;;16,20
7175	1672	00000000		nop	;;16,20
7176	1673	00000000		nop	;;16,20
7177				; Automatically 1 NOPs removed by reduceNOPs.sh
7178	1674	afc2ffe4		sw	-28(%GPR30),%GPR2	
7179	1675	00000000		nop
7180	1676	00000000		nop
7181	1677	00000000		nop
7182			L_matrix_19:
7183	1678	8fc2ffe4		lw	%GPR2,-28(%GPR30)	
7184	1679	8fc3ffe0		lw	%GPR3,-32(%GPR30)	
7185	167a	8fc4ffe8		lw	%GPR4,-24(%GPR30)	
7186	167b	00000000		nop	;;2,4
7187	167c	00000000		nop	;;2,4
7188	167d	00403020		add	%GPR6,%GPR2,%GPR0	
7189	167e	8c630000		lw	%GPR3,0(%GPR3)	
7190	167f	8c840000		lw	%GPR4,0(%GPR4)	
7191	1680	8c420000		lw	%GPR2,0(%GPR2)	
7192	1681	00000000		nop	;;7,11
7193	1682	00000000		nop	;;7,11
7194	1683	00000000		nop	;;7,11
7195				; Automatically 1 NOPs removed by reduceNOPs.sh
7196	1684	04432038		mac	%GPR4,%GPR2,%GPR3	
7197	1685	3c020000		lhi	%GPR2,$0	
7198	1686	00000000		nop
7199	1687	00000000		nop
7200	1688	00000000		nop
7201				; Automatically 1 NOPs removed by reduceNOPs.sh
7202	1689	34420004		ori	%GPR2,%GPR2,$4	
7203	168a	3c030000		lhi	%GPR3,$0	
7204	168b	00000000		nop
7205	168c	00000000		nop
7206	168d	00000000		nop
7207				; Automatically 1 NOPs removed by reduceNOPs.sh
7208	168e	34630004		ori	%GPR3,%GPR3,$4	
7209	168f	20210001		addi	%GPR1,%GPR1,$1	
7210	1690	3c050000		lhi	%GPR5,$0	
7211	1691	00000000		nop
7212	1692	00000000		nop
7213	1693	00000000		nop
7214				; Automatically 1 NOPs removed by reduceNOPs.sh
7215	1694	34a50064		ori	%GPR5,%GPR5,$100	
7216	1695	00c21020		add	%GPR2,%GPR6,%GPR2	
7217	1696	00000000		nop	;;16,20
7218	1697	00000000		nop	;;16,20
7219	1698	00000000		nop	;;16,20
7220				; Automatically 1 NOPs removed by reduceNOPs.sh
7221	1699	afc2ffe4		sw	-28(%GPR30),%GPR2	
7222	169a	00000000		nop	; Automatically added by findLoadStoreProblem.sh
7223	169b	8fc2ffe0		lw	%GPR2,-32(%GPR30)	
7224	169c	00000000		nop	;;21,25
7225	169d	00000000		nop	;;21,25
7226	169e	00000000		nop	;;21,25
7227				; Automatically 1 NOPs removed by reduceNOPs.sh
7228	169f	00431020		add	%GPR2,%GPR2,%GPR3	
7229	16a0	00000000		nop	;;25,29
7230	16a1	00000000		nop	;;25,29
7231	16a2	00000000		nop	;;25,29
7232				; Automatically 1 NOPs removed by reduceNOPs.sh
7233	16a3	afc2ffe0		sw	-32(%GPR30),%GPR2	
7234	16a4	00000000		nop	; Automatically added by findLoadStoreProblem.sh
7235	16a5	8fc2ffe8		lw	%GPR2,-24(%GPR30)	
7236	16a6	00000000		nop	;;30,34
7237	16a7	00000000		nop	;;30,34
7238	16a8	00000000		nop	;;30,34
7239				; Automatically 1 NOPs removed by reduceNOPs.sh
7240	16a9	ac440000		sw	0(%GPR2),%GPR4	
7241	16aa	0025d82a		slt	%GPR27,%GPR1,%GPR5	
7242	16ab	00000000		nop	; Automatically added by findDataDependency.sh
7243	16ac	00000000		nop	; Automatically added by findDataDependency.sh
7244	16ad	00000000		nop	; Automatically added by findDataDependency.sh
7245	16ae	1760ffca		bnez	%GPR27,L_matrix_19	
7246	16af	00000000		nop
7247	16b0	00000000		nop
7248	16b1	00000000		nop
7249				; Automatically 1 NOPs removed by reduceNOPs.sh
7250	16b2	08000004		j	L_matrix_20	
7251	16b3	00000000		nop
7252	16b4	00000000		nop
7253	16b5	00000000		nop
7254				; Automatically 1 NOPs removed by reduceNOPs.sh
7255			L_matrix_20:
7256	16b6	8fc1ffd8		lw	%GPR1,-40(%GPR30)	
7257	16b7	00000000		nop	;;0,2
7258	16b8	00000000		nop	;;0,2
7259	16b9	8fc3ffe8		lw	%GPR3,-24(%GPR30)	
7260	16ba	00000000		nop	;;2,4
7261	16bb	00000000		nop	;;2,4
7262	16bc	20210001		addi	%GPR1,%GPR1,$1	
7263	16bd	00000000		nop	;;4,7
7264	16be	00000000		nop	;;4,7
7265	16bf	00000000		nop	;;4,7
7266	16c0	3c020000		lhi	%GPR2,$0	
7267	16c1	00000000		nop
7268	16c2	00000000		nop
7269	16c3	00000000		nop
7270				; Automatically 1 NOPs removed by reduceNOPs.sh
7271	16c4	3442000a		ori	%GPR2,%GPR2,$10	
7272	16c5	afc1ffd8		sw	-40(%GPR30),%GPR1	
7273	16c6	3c010000		lhi	%GPR1,$0	
7274	16c7	00000000		nop
7275	16c8	00000000		nop
7276	16c9	00000000		nop
7277				; Automatically 1 NOPs removed by reduceNOPs.sh
7278	16ca	34210004		ori	%GPR1,%GPR1,$4	
7279	16cb	00000000		nop	;;9,13
7280	16cc	00000000		nop	;;9,13
7281	16cd	00000000		nop	;;9,13
7282				; Automatically 1 NOPs removed by reduceNOPs.sh
7283	16ce	00610820		add	%GPR1,%GPR3,%GPR1	
7284	16cf	00000000		nop	;;13,17
7285	16d0	00000000		nop	;;13,17
7286	16d1	00000000		nop	;;13,17
7287				; Automatically 1 NOPs removed by reduceNOPs.sh
7288	16d2	afc1ffe8		sw	-24(%GPR30),%GPR1	
7289	16d3	00000000		nop	; Automatically added by findLoadStoreProblem.sh
7290	16d4	8fc1ffd8		lw	%GPR1,-40(%GPR30)	
7291	16d5	00000000		nop	;;18,22
7292	16d6	00000000		nop	;;18,22
7293	16d7	00000000		nop	;;18,22
7294				; Automatically 1 NOPs removed by reduceNOPs.sh
7295	16d8	0022d82a		slt	%GPR27,%GPR1,%GPR2	
7296	16d9	00000000		nop	; Automatically added by findDataDependency.sh
7297	16da	00000000		nop	; Automatically added by findDataDependency.sh
7298	16db	00000000		nop	; Automatically added by findDataDependency.sh
7299	16dc	1760ff6d		bnez	%GPR27,L_matrix_18	
7300	16dd	00000000		nop
7301	16de	00000000		nop
7302	16df	00000000		nop
7303				; Automatically 1 NOPs removed by reduceNOPs.sh
7304	16e0	08000004		j	L_matrix_21	
7305	16e1	00000000		nop
7306	16e2	00000000		nop
7307	16e3	00000000		nop
7308				; Automatically 1 NOPs removed by reduceNOPs.sh
7309			L_matrix_21:
7310	16e4	8fc1ffdc		lw	%GPR1,-36(%GPR30)	
7311	16e5	00000000		nop	;;0,4
7312	16e6	00000000		nop	;;0,4
7313	16e7	00000000		nop	;;0,4
7314				; Automatically 1 NOPs removed by reduceNOPs.sh
7315	16e8	20210001		addi	%GPR1,%GPR1,$1	
7316	16e9	00000000		nop	;;4,8
7317	16ea	00000000		nop	;;4,8
7318	16eb	00000000		nop	;;4,8
7319				; Automatically 1 NOPs removed by reduceNOPs.sh
7320	16ec	00201020		add	%GPR2,%GPR1,%GPR0	
7321	16ed	afc1ffdc		sw	-36(%GPR30),%GPR1	
7322	16ee	3c010000		lhi	%GPR1,$0	
7323	16ef	00000000		nop
7324	16f0	00000000		nop
7325	16f1	00000000		nop
7326				; Automatically 1 NOPs removed by reduceNOPs.sh
7327	16f2	34210005		ori	%GPR1,%GPR1,$5	
7328	16f3	00000000		nop	;;10,14
7329	16f4	00000000		nop	;;10,14
7330	16f5	00000000		nop	;;10,14
7331				; Automatically 1 NOPs removed by reduceNOPs.sh
7332	16f6	0041d82a		slt	%GPR27,%GPR2,%GPR1	
7333	16f7	00000000		nop	; Automatically added by findDataDependency.sh
7334	16f8	00000000		nop	; Automatically added by findDataDependency.sh
7335	16f9	00000000		nop	; Automatically added by findDataDependency.sh
7336	16fa	1760ff3a		bnez	%GPR27,L_matrix_17	
7337	16fb	00000000		nop
7338	16fc	00000000		nop
7339	16fd	00000000		nop
7340				; Automatically 1 NOPs removed by reduceNOPs.sh
7341	16fe	08000004		j	L_matrix_22	
7342	16ff	00000000		nop
7343	1700	00000000		nop
7344	1701	00000000		nop
7345				; Automatically 1 NOPs removed by reduceNOPs.sh
7346			L_matrix_22:
7347	1702	3c010000		lhi	%GPR1,$( L_matrix_3	/0x10000)
7348	1703	00000000		nop
7349	1704	00000000		nop
7350	1705	00000000		nop
7351	1706	34211867		ori	%GPR1,%GPR1,$( L_matrix_3	%0x10000)
7352	1707	00000000		nop	;;0,5
7353	1708	00000000		nop	;;0,5
7354	1709	00000000		nop	;;0,5
7355				; Automatically 6 NOPs removed by reduceNOPs.sh
7356	170a	2bbd0008		subi	%GPR29,%GPR29,$8	
7357	170b	00000000		nop
7358	170c	00000000		nop
7359	170d	00000000		nop
7360				; Automatically 1 NOPs removed by reduceNOPs.sh
7361	170e	0ffff2b8		jal	t_print	
7362	170f	00000000		nop
7363	1710	00000000		nop
7364	1711	00000000		nop
7365				; Automatically 1 NOPs removed by reduceNOPs.sh
7366	1712	23bd0008		addi	%GPR29,%GPR29,$8	
7367	1713	00000000		nop
7368	1714	00000000		nop
7369	1715	00000000		nop
7370				; Automatically 6 NOPs removed by reduceNOPs.sh
7371	1716	3c010000		lhi	%GPR1,$0	
7372	1717	00000000		nop
7373	1718	00000000		nop
7374	1719	00000000		nop
7375				; Automatically 1 NOPs removed by reduceNOPs.sh
7376	171a	34210000		ori	%GPR1,%GPR1,$0	
7377	171b	00000000		nop	;;10,14
7378	171c	00000000		nop	;;10,14
7379	171d	00000000		nop	;;10,14
7380				; Automatically 1 NOPs removed by reduceNOPs.sh
7381	171e	afc1ffdc		sw	-36(%GPR30),%GPR1	
7382	171f	00000000		nop
7383	1720	00000000		nop
7384	1721	00000000		nop
7385			L_matrix_23:
7386	1722	00000000		nop	;;0,4
7387	1723	00000000		nop	;;0,4
7388	1724	00000000		nop	;;0,4
7389				; Automatically 1 NOPs removed by reduceNOPs.sh
7390	1725	3c010000		lhi	%GPR1,$0	
7391	1726	00000000		nop
7392	1727	00000000		nop
7393	1728	00000000		nop
7394				; Automatically 1 NOPs removed by reduceNOPs.sh
7395	1729	34210000		ori	%GPR1,%GPR1,$0	
7396	172a	00000000		nop	;;4,8
7397	172b	00000000		nop	;;4,8
7398	172c	00000000		nop	;;4,8
7399				; Automatically 1 NOPs removed by reduceNOPs.sh
7400	172d	afc1ffd8		sw	-40(%GPR30),%GPR1	
7401	172e	00000000		nop
7402	172f	00000000		nop
7403	1730	00000000		nop
7404			L_matrix_24:
7405	1731	8fc5ffd8		lw	%GPR5,-40(%GPR30)	
7406	1732	00000000		nop	;;1,3
7407	1733	00000000		nop	;;1,3
7408	1734	8fc6ffdc		lw	%GPR6,-36(%GPR30)	
7409	1735	3c030000		lhi	%GPR3,$0	
7410	1736	00000000		nop
7411	1737	00000000		nop
7412	1738	00000000		nop
7413				; Automatically 1 NOPs removed by reduceNOPs.sh
7414	1739	34630005		ori	%GPR3,%GPR3,$5	
7415	173a	3c010000		lhi	%GPR1,$( _matrixC	/0x10000)
7416	173b	00000000		nop
7417	173c	00000000		nop
7418	173d	00000000		nop
7419	173e	34211774		ori	%GPR1,%GPR1,$( _matrixC	%0x10000)
7420	173f	3c040000		lhi	%GPR4,$0	
7421	1740	00000000		nop
7422	1741	00000000		nop
7423	1742	00000000		nop
7424				; Automatically 1 NOPs removed by reduceNOPs.sh
7425	1743	34840004		ori	%GPR4,%GPR4,$4	
7426	1744	2bc20014		subi	%GPR2,%GPR30,$20	
7427	1745	04c32838		mac	%GPR5,%GPR6,%GPR3	
7428	1746	00000000		nop	;;8,12
7429	1747	00000000		nop	;;8,12
7430	1748	00000000		nop	;;8,12
7431				; Automatically 1 NOPs removed by reduceNOPs.sh
7432	1749	00a41818		mult	%GPR3,%GPR5,%GPR4	
7433	174a	00000000		nop	;;12,16
7434	174b	00000000		nop	;;12,16
7435	174c	00000000		nop	;;12,16
7436				; Automatically 1 NOPs removed by reduceNOPs.sh
7437	174d	00230820		add	%GPR1,%GPR1,%GPR3	
7438	174e	00000000		nop	;;16,20
7439	174f	00000000		nop	;;16,20
7440	1750	00000000		nop	;;16,20
7441				; Automatically 1 NOPs removed by reduceNOPs.sh
7442	1751	8c210000		lw	%GPR1,0(%GPR1)	
7443	1752	00000000		nop
7444	1753	00000000		nop
7445	1754	00000000		nop
7446				; Automatically 1 NOPs removed by reduceNOPs.sh
7447	1755	2bbd0008		subi	%GPR29,%GPR29,$8	
7448	1756	00000000		nop
7449	1757	00000000		nop
7450	1758	00000000		nop
7451				; Automatically 1 NOPs removed by reduceNOPs.sh
7452	1759	0fffe8c7		jal	intToStr	
7453	175a	00000000		nop
7454	175b	00000000		nop
7455	175c	00000000		nop
7456				; Automatically 1 NOPs removed by reduceNOPs.sh
7457	175d	23bd0008		addi	%GPR29,%GPR29,$8	
7458	175e	00000000		nop
7459	175f	00000000		nop
7460	1760	00000000		nop
7461				; Automatically 1 NOPs removed by reduceNOPs.sh
7462	1761	2bc10014		subi	%GPR1,%GPR30,$20	
7463	1762	00000000		nop
7464	1763	00000000		nop
7465	1764	00000000		nop
7466				; Automatically 1 NOPs removed by reduceNOPs.sh
7467	1765	2bbd0008		subi	%GPR29,%GPR29,$8	
7468	1766	00000000		nop
7469	1767	00000000		nop
7470	1768	00000000		nop
7471				; Automatically 1 NOPs removed by reduceNOPs.sh
7472	1769	0ffff25d		jal	t_print	
7473	176a	00000000		nop
7474	176b	00000000		nop
7475	176c	00000000		nop
7476				; Automatically 1 NOPs removed by reduceNOPs.sh
7477	176d	23bd0008		addi	%GPR29,%GPR29,$8	
7478	176e	00000000		nop
7479	176f	00000000		nop
7480	1770	00000000		nop
7481				; Automatically 1 NOPs removed by reduceNOPs.sh
7482	1771	3c010000		lhi	%GPR1,$( L_matrix_4	/0x10000)
7483	1772	00000000		nop
7484	1773	00000000		nop
7485	1774	00000000		nop
7486	1775	34211872		ori	%GPR1,%GPR1,$( L_matrix_4	%0x10000)
7487	1776	00000000		nop	;;24,29
7488	1777	00000000		nop	;;24,29
7489	1778	00000000		nop	;;24,29
7490				; Automatically 6 NOPs removed by reduceNOPs.sh
7491	1779	2bbd0008		subi	%GPR29,%GPR29,$8	
7492	177a	00000000		nop
7493	177b	00000000		nop
7494	177c	00000000		nop
7495				; Automatically 1 NOPs removed by reduceNOPs.sh
7496	177d	0ffff249		jal	t_print	
7497	177e	00000000		nop
7498	177f	00000000		nop
7499	1780	00000000		nop
7500				; Automatically 1 NOPs removed by reduceNOPs.sh
7501	1781	23bd0008		addi	%GPR29,%GPR29,$8	
7502	1782	00000000		nop
7503	1783	00000000		nop
7504	1784	00000000		nop
7505				; Automatically 1 NOPs removed by reduceNOPs.sh
7506	1785	8fc1ffd8		lw	%GPR1,-40(%GPR30)	
7507	1786	00000000		nop	;;30,34
7508	1787	00000000		nop	;;30,34
7509	1788	00000000		nop	;;30,34
7510				; Automatically 1 NOPs removed by reduceNOPs.sh
7511	1789	20210001		addi	%GPR1,%GPR1,$1	
7512	178a	00000000		nop	;;34,38
7513	178b	00000000		nop	;;34,38
7514	178c	00000000		nop	;;34,38
7515				; Automatically 1 NOPs removed by reduceNOPs.sh
7516	178d	00201020		add	%GPR2,%GPR1,%GPR0	
7517	178e	afc1ffd8		sw	-40(%GPR30),%GPR1	
7518	178f	3c010000		lhi	%GPR1,$0	
7519	1790	00000000		nop
7520	1791	00000000		nop
7521	1792	00000000		nop
7522				; Automatically 1 NOPs removed by reduceNOPs.sh
7523	1793	34210005		ori	%GPR1,%GPR1,$5	
7524	1794	00000000		nop	;;40,44
7525	1795	00000000		nop	;;40,44
7526	1796	00000000		nop	;;40,44
7527				; Automatically 1 NOPs removed by reduceNOPs.sh
7528	1797	0041d82a		slt	%GPR27,%GPR2,%GPR1	
7529	1798	00000000		nop	; Automatically added by findDataDependency.sh
7530	1799	00000000		nop	; Automatically added by findDataDependency.sh
7531	179a	00000000		nop	; Automatically added by findDataDependency.sh
7532	179b	1760ff96		bnez	%GPR27,L_matrix_24	
7533	179c	00000000		nop
7534	179d	00000000		nop
7535	179e	00000000		nop
7536				; Automatically 1 NOPs removed by reduceNOPs.sh
7537	179f	08000004		j	L_matrix_25	
7538	17a0	00000000		nop
7539	17a1	00000000		nop
7540	17a2	00000000		nop
7541				; Automatically 1 NOPs removed by reduceNOPs.sh
7542			L_matrix_25:
7543	17a3	3c010000		lhi	%GPR1,$( L_matrix_5	/0x10000)
7544	17a4	00000000		nop
7545	17a5	00000000		nop
7546	17a6	00000000		nop
7547	17a7	34211875		ori	%GPR1,%GPR1,$( L_matrix_5	%0x10000)
7548	17a8	00000000		nop	;;0,5
7549	17a9	00000000		nop	;;0,5
7550	17aa	00000000		nop	;;0,5
7551				; Automatically 6 NOPs removed by reduceNOPs.sh
7552	17ab	2bbd0008		subi	%GPR29,%GPR29,$8	
7553	17ac	00000000		nop
7554	17ad	00000000		nop
7555	17ae	00000000		nop
7556				; Automatically 1 NOPs removed by reduceNOPs.sh
7557	17af	0ffff217		jal	t_print	
7558	17b0	00000000		nop
7559	17b1	00000000		nop
7560	17b2	00000000		nop
7561				; Automatically 1 NOPs removed by reduceNOPs.sh
7562	17b3	23bd0008		addi	%GPR29,%GPR29,$8	
7563	17b4	00000000		nop
7564	17b5	00000000		nop
7565	17b6	00000000		nop
7566				; Automatically 1 NOPs removed by reduceNOPs.sh
7567	17b7	8fc1ffdc		lw	%GPR1,-36(%GPR30)	
7568	17b8	00000000		nop	;;6,10
7569	17b9	00000000		nop	;;6,10
7570	17ba	00000000		nop	;;6,10
7571				; Automatically 1 NOPs removed by reduceNOPs.sh
7572	17bb	20210001		addi	%GPR1,%GPR1,$1	
7573	17bc	00000000		nop	;;10,14
7574	17bd	00000000		nop	;;10,14
7575	17be	00000000		nop	;;10,14
7576				; Automatically 1 NOPs removed by reduceNOPs.sh
7577	17bf	00201020		add	%GPR2,%GPR1,%GPR0	
7578	17c0	afc1ffdc		sw	-36(%GPR30),%GPR1	
7579	17c1	3c010000		lhi	%GPR1,$0	
7580	17c2	00000000		nop
7581	17c3	00000000		nop
7582	17c4	00000000		nop
7583				; Automatically 1 NOPs removed by reduceNOPs.sh
7584	17c5	3421000a		ori	%GPR1,%GPR1,$10	
7585	17c6	00000000		nop	;;16,20
7586	17c7	00000000		nop	;;16,20
7587	17c8	00000000		nop	;;16,20
7588				; Automatically 1 NOPs removed by reduceNOPs.sh
7589	17c9	0041d82a		slt	%GPR27,%GPR2,%GPR1	
7590	17ca	00000000		nop	; Automatically added by findDataDependency.sh
7591	17cb	00000000		nop	; Automatically added by findDataDependency.sh
7592	17cc	00000000		nop	; Automatically added by findDataDependency.sh
7593	17cd	1760ff55		bnez	%GPR27,L_matrix_23	
7594	17ce	00000000		nop
7595	17cf	00000000		nop
7596	17d0	00000000		nop
7597				; Automatically 1 NOPs removed by reduceNOPs.sh
7598	17d1	08000004		j	L_matrix_26	
7599	17d2	00000000		nop
7600	17d3	00000000		nop
7601	17d4	00000000		nop
7602				; Automatically 1 NOPs removed by reduceNOPs.sh
7603			L_matrix_26:
7604	17d5	3c010000		lhi	%GPR1,$( L_matrix_6	/0x10000)
7605	17d6	00000000		nop
7606	17d7	00000000		nop
7607	17d8	00000000		nop
7608	17d9	34211878		ori	%GPR1,%GPR1,$( L_matrix_6	%0x10000)
7609	17da	00000000		nop	;;0,5
7610	17db	00000000		nop	;;0,5
7611	17dc	00000000		nop	;;0,5
7612				; Automatically 6 NOPs removed by reduceNOPs.sh
7613	17dd	2bbd0008		subi	%GPR29,%GPR29,$8	
7614	17de	00000000		nop
7615	17df	00000000		nop
7616	17e0	00000000		nop
7617				; Automatically 1 NOPs removed by reduceNOPs.sh
7618	17e1	0ffff1e5		jal	t_print	
7619	17e2	00000000		nop
7620	17e3	00000000		nop
7621	17e4	00000000		nop
7622				; Automatically 1 NOPs removed by reduceNOPs.sh
7623	17e5	23bd0008		addi	%GPR29,%GPR29,$8	
7624	17e6	00000000		nop
7625	17e7	00000000		nop
7626	17e8	00000000		nop
7627				; Automatically 1 NOPs removed by reduceNOPs.sh
7628	17e9	3c010000		lhi	%GPR1,$( L_matrix_7	/0x10000)
7629	17ea	00000000		nop
7630	17eb	00000000		nop
7631	17ec	00000000		nop
7632	17ed	3421187b		ori	%GPR1,%GPR1,$( L_matrix_7	%0x10000)
7633	17ee	00000000		nop	;;6,11
7634	17ef	00000000		nop	;;6,11
7635	17f0	00000000		nop	;;6,11
7636				; Automatically 6 NOPs removed by reduceNOPs.sh
7637	17f1	2bbd0008		subi	%GPR29,%GPR29,$8	
7638	17f2	00000000		nop
7639	17f3	00000000		nop
7640	17f4	00000000		nop
7641				; Automatically 1 NOPs removed by reduceNOPs.sh
7642	17f5	0ffff1d1		jal	t_print	
7643	17f6	00000000		nop
7644	17f7	00000000		nop
7645	17f8	00000000		nop
7646				; Automatically 1 NOPs removed by reduceNOPs.sh
7647	17f9	23bd0008		addi	%GPR29,%GPR29,$8	
7648	17fa	00000000		nop
7649	17fb	00000000		nop
7650	17fc	00000000		nop
7651				; Automatically 6 NOPs removed by reduceNOPs.sh
7652	17fd	3c1c0000		lhi	%GPR28,$0	
7653	17fe	00000000		nop
7654	17ff	00000000		nop
7655	1800	00000000		nop
7656				; Automatically 1 NOPs removed by reduceNOPs.sh
7657	1801	379c0000		ori	%GPR28,%GPR28,$0	
7658	1802	00000000		nop	;;16,20
7659	1803	00000000		nop	;;16,20
7660	1804	00000000		nop	;;16,20
7661				; Automatically 1 NOPs removed by reduceNOPs.sh
7662	1805	08000004		j	L_matrix_27	
7663	1806	00000000		nop
7664	1807	00000000		nop
7665	1808	00000000		nop
7666				; Automatically 1 NOPs removed by reduceNOPs.sh
7667			L_matrix_27:
7668	1809	00000000		nop
7669	180a	00000000		nop
7670	180b	00000000		nop
7671				; Automatically 1 NOPs removed by reduceNOPs.sh
7672	180c	8fdf0004		lw	%GPR31,4(%GPR30)	
7673	180d	27dd0004		addui	%GPR29,%GPR30,$4	
7674	180e	8fde0000		lw	%GPR30,0(%GPR30)	
7675	180f	00000000		nop
7676	1810	00000000		nop
7677	1811	00000000		nop
7678	1812	00000000		nop
7679	1813	03e00008		jr	%GPR31	
7680	1814	00000000		nop
7681	1815	00000000		nop
7682	1816	00000000		nop
7683	1817	00000000		nop
7684			exit:
7685	1818	00000000		nop
7686	1819	00000000		nop


******** Cross Reference List ********
Defined Symbol
name   	section	lc     	attr   	value  	lineno 
L_loadStoreByte_2	.text	141f	Label	141f	6365 
L_matrix_10	.text	1542	Label	1542	6810 
L_loadStoreByte_3	.text	1434	Label	1434	6391 
g_makeradiogroup	.text	12f2	Label	12f2	6003 
L_matrix_11	.text	154d	Label	154d	6824 
L_loadStoreByte_4	.text	1474	Label	1474	6468 
L_matrix_12	.text	1577	Label	1577	6875 
L_loadStoreByte_5	.text	1489	Label	1489	6494 
L_matrix_13	.text	1582	Label	1582	6889 
L_loadStoreByte_6	.text	14f1	Label	14f1	6614 
loadByteSigned	.text	1434	Label	1434	6390 
L_matrix_14	.text	15ac	Label	15ac	6940 
L_matrix_15	.text	15bb	Label	15bb	6960 
L_matrix_16	.text	15c9	Label	15c9	6978 
L_matrix_17	.text	1634	Label	1634	7104 
sendcommand	.text	076e	Label	76e	2506 
L_matrix_18	.text	1649	Label	1649	7129 
L_matrix_19	.text	1678	Label	1678	7182 
L_lib_lcd_50	.text	0c39	Label	c39	4013 
loadByteUnsigned	.text	13e7	Label	13e7	6297 
L_lib_lcd_51	.text	0ce2	Label	ce2	4208 
d_clear	.text	136b	Label	136b	6147 
L_lib_lcd_52	.text	0cf7	Label	cf7	4234 
L_lib_lcd_53	.text	0da0	Label	da0	4429 
exit	.text	1818	Label	1818	7684 
L_lib_lcd_54	.text	0db5	Label	db5	4455 
L_lib_lcd_55	.text	0df2	Label	df2	4526 
L_lib_lcd_56	.text	0efd	Label	efd	4828 
L_lib_lcd_57	.text	0f50	Label	f50	4924 
getbytes	.text	050b	Label	50b	1689 
L_lib_lcd_58	.text	0fee	Label	fee	5102 
L_lib_lcd_20	.text	04f6	Label	4f6	1664 
L_lib_lcd_59	.text	0ffd	Label	ffd	5122 
L_lib_lcd_21	.text	050b	Label	50b	1690 
L_lib_lcd_22	.text	05d2	Label	5d2	1952 
L_lib_lcd_23	.text	0623	Label	623	2076 
L_lib_lcd_24	.text	063b	Label	63b	2104 
L_lib_lcd_25	.text	0689	Label	689	2199 
L_lib_lcd_26	.text	06ab	Label	6ab	2244 
L_lib_lcd_27	.text	0733	Label	733	2434 
L_lib_lcd_28	.text	074e	Label	74e	2467 
checkbuffer	.text	0377	Label	377	1104 
L_lib_lcd_29	.text	0759	Label	759	2481 
L_matrix_20	.text	16b6	Label	16b6	7255 
L_matrix_21	.text	16e4	Label	16e4	7309 
g_drawline	.text	0cf7	Label	cf7	4233 
L_matrix_22	.text	1702	Label	1702	7346 
L_matrix_23	.text	1722	Label	1722	7385 
L_matrix_24	.text	1731	Label	1731	7404 
g_makeswitch	.text	10a3	Label	10a3	5319 
L_matrix_25	.text	17a3	Label	17a3	7542 
L_matrix_26	.text	17d5	Label	17d5	7603 
t_cursor	.text	0a47	Label	a47	3417 
L_matrix_27	.text	1809	Label	1809	7667 
L_lib_lcd_60	.text	1012	Label	1012	5148 
L_lib_lcd_61	.text	108e	Label	108e	5294 
L_lib_lcd_62	.text	10a3	Label	10a3	5320 
L_lib_lcd_63	.text	117a	Label	117a	5566 
L_lib_lcd_64	.text	118f	Label	118f	5592 
L_lib_lcd_65	.text	128b	Label	128b	5879 
L_lib_lcd_66	.text	12ce	Label	12ce	5958 
g_print	.text	0b9e	Label	b9e	3828 
L_lib_lcd_67	.text	12dd	Label	12dd	5978 
L_lib_lcd_68	.text	12f2	Label	12f2	6004 
L_lib_lcd_30	.text	076e	Label	76e	2507 
L_lib_lcd_69	.text	1356	Label	1356	6122 
L_lib_lcd_31	.text	07b7	Label	7b7	2589 
t_print	.text	09c6	Label	9c6	3263 
L_lib_lcd_32	.text	08a1	Label	8a1	2896 
L_lib_lcd_1	.data	0000	Label	0	629 
intToStr	.text	0020	Label	20	42 
L_lib_lcd_33	.text	08c0	Label	8c0	2933 
L_lib_lcd_2	.text	0207	Label	207	635 
L_lib_lcd_34	.text	08fd	Label	8fd	3009 
L_lib_lcd_3	.text	022b	Label	22b	679 
L_lib_lcd_35	.text	0924	Label	924	3056 
L_lib_lcd_4	.text	0266	Label	266	751 
L_lib_lcd_36	.text	096d	Label	96d	3149 
L_lib_lcd_5	.text	0279	Label	279	774 
L_lib_lcd_37	.text	09a2	Label	9a2	3218 
L_lib_lcd_6	.text	0284	Label	284	788 
L_lib_lcd_38	.text	09b1	Label	9b1	3238 
L_lib_lcd_7	.text	0299	Label	299	814 
L_lib_lcd_39	.text	09c6	Label	9c6	3264 
L_lib_lcd_8	.text	02b5	Label	2b5	848 
L_lib_lcd_9	.text	02cc	Label	2cc	875 
wait	.text	0299	Label	299	813 
L_intToStr_10	.text	01f2	Label	1f2	603 
L_intToStr_1	.text	0020	Label	20	43 
L_intToStr_2	.text	006e	Label	6e	135 
g_makebar	.text	0db5	Label	db5	4454 
L_intToStr_3	.text	00a6	Label	a6	202 
getack	.text	02ec	Label	2ec	914 
L_intToStr_4	.text	00c1	Label	c1	235 
L_intToStr_5	.text	00e8	Label	e8	284 
L_intToStr_6	.text	0103	Label	103	317 
L_intToStr_7	.text	0157	Label	157	417 
L_intToStr_8	.text	0172	Label	172	450 
t_enable	.text	0ac0	Label	ac0	3561 
L_intToStr_9	.text	01c2	Label	1c2	545 
L_lib_lcd_70	.text	136b	Label	136b	6148 
pin_down	.text	1506	Label	1506	6736 
L_lib_lcd_71	.text	13cf	Label	13cf	6266 
L_matrix_1	.data	183c	Label	183c	6651 
L_matrix_2	.data	1856	Label	1856	6678 
L_matrix_3	.data	1867	Label	1867	6696 
L_matrix_4	.data	1872	Label	1872	6708 
L_matrix_5	.data	1875	Label	1875	6712 
L_matrix_6	.data	1878	Label	1878	6716 
g_drawrect	.text	0c39	Label	c39	4012 
L_matrix_7	.data	187b	Label	187b	6720 
_matrixA	.data	0004	Label	4	6641 
L_lib_lcd_40	.text	0a32	Label	a32	3392 
strlength	.text	0207	Label	207	634 
L_matrix_8	.text	1506	Label	1506	6737 
_matrixB	.data	0fa4	Label	fa4	6645 
L_lib_lcd_41	.text	0a47	Label	a47	3418 
L_matrix_9	.text	1518	Label	1518	6759 
_matrixC	.data	1774	Label	1774	6649 
L_lib_lcd_42	.text	0aab	Label	aab	3536 
g_makemenubutton	.text	118f	Label	118f	5591 
L_lib_lcd_43	.text	0ac0	Label	ac0	3562 
L_lib_lcd_44	.text	0ae8	Label	ae8	3610 
L_lib_lcd_45	.text	0b33	Label	b33	3699 
L_lib_lcd_46	.text	0b7a	Label	b7a	3783 
L_lib_lcd_47	.text	0b89	Label	b89	3803 
L_lib_lcd_48	.text	0b9e	Label	b9e	3829 
L_lib_lcd_10	.text	02d7	Label	2d7	889 
L_lib_lcd_49	.text	0c24	Label	c24	3987 
L_lib_lcd_11	.text	02ec	Label	2ec	915 
L_lib_lcd_12	.text	0344	Label	344	1039 
L_lib_lcd_13	.text	0353	Label	353	1059 
L_lib_lcd_14	.text	0362	Label	362	1079 
main	.text	15c9	Label	15c9	6977 
L_lib_lcd_15	.text	0377	Label	377	1105 
L_lib_lcd_16	.text	03fd	Label	3fd	1293 
storeByte	.text	1489	Label	1489	6493 
L_lib_lcd_17	.text	0477	Label	477	1480 
L_lib_lcd_18	.text	04d4	Label	4d4	1621 
g_setbar	.text	1012	Label	1012	5147 
L_lib_lcd_19	.text	04eb	Label	4eb	1650 
L_loadStoreByte_1	.text	13e7	Label	13e7	6298 


Undefined Symbol
name   	section	lc     	attr   	value  	lineno 


Multiple Defined Symbol
name   	section	lc     	attr   	value  	lineno 


******* Section Data List ******* 
Sec	Attr		Size
.text 	Writable 	181a 
addr_space : 16 
addressing : Word 
bitwidth per byte : 8 
word alignment : 4 
.data 	Data		1887 
addr_space : 16 
addressing : Byte 
bitwidth per byte : 8 
word alignment : 4 
